ARM GAS  /var/folders/_2/qbh2zpt918qcm2b_6mgyydnm0000gn/T//ccliMEBq.s 			page 1


   1              		.cpu cortex-m4
   2              		.eabi_attribute 20, 1	@ Tag_ABI_FP_denormal
   3              		.eabi_attribute 21, 1	@ Tag_ABI_FP_exceptions
   4              		.eabi_attribute 23, 3	@ Tag_ABI_FP_number_model
   5              		.eabi_attribute 24, 1	@ Tag_ABI_align8_needed
   6              		.eabi_attribute 25, 1	@ Tag_ABI_align8_preserved
   7              		.eabi_attribute 26, 1	@ Tag_ABI_enum_size
   8              		.eabi_attribute 30, 4	@ Tag_ABI_optimization_goals
   9              		.eabi_attribute 34, 1	@ Tag_CPU_unaligned_access
  10              		.eabi_attribute 18, 4	@ Tag_ABI_PCS_wchar_t
  11              		.file	"buzzer.c"
  12              	@ GNU C17 (GNU Tools for Arm Embedded Processors 9-2019-q4-major) version 9.2.1 20191025 (release) 
  13              	@	compiled by GNU C version 4.2.1 Compatible Apple LLVM 9.0.0 (clang-900.0.39.2), GMP version 6.1.0
  14              	
  15              	@ GGC heuristics: --param ggc-min-expand=100 --param ggc-min-heapsize=131072
  16              	@ options passed:  -I .
  17              	@ -I /Users/rdaneel/Binary/Roaming/C-Code/StmProjects/stm32f3x/lib/STM32F30x_DSP_StdPeriph_Lib_V1.2
  18              	@ -I /Users/rdaneel/Binary/Roaming/C-Code/StmProjects/stm32f3x/lib/STM32F30x_DSP_StdPeriph_Lib_V1.2
  19              	@ -I /Users/rdaneel/Binary/Roaming/C-Code/StmProjects/stm32f3x/lib/STM32F30x_DSP_StdPeriph_Lib_V1.2
  20              	@ -imultilib thumb/v7e-m/nofp
  21              	@ -iprefix /usr/local/Cellar/arm-none-eabi-gcc/9-2019-q4-major/gcc/bin/../lib/gcc/arm-none-eabi/9.2
  22              	@ -isysroot /usr/local/Cellar/arm-none-eabi-gcc/9-2019-q4-major/gcc/bin/../arm-none-eabi
  23              	@ -D__USES_INITFINI__ -D STM32F30X_MD -D USE_STDPERIPH_DRIVER
  24              	@ -D HSE_VALUE=8000000 -D RUN_FROM_FLASH=1 buzzer.c -mcpu=cortex-m4 -mthumb
  25              	@ -mfloat-abi=soft -march=armv7e-m -auxbase-strip buzzer.o -g -gdwarf-2 -Os
  26              	@ -Wall -fomit-frame-pointer -fverbose-asm
  27              	@ options enabled:  -faggressive-loop-optimizations -fassume-phsa
  28              	@ -fauto-inc-dec -fbranch-count-reg -fcaller-saves -fcode-hoisting
  29              	@ -fcombine-stack-adjustments -fcommon -fcompare-elim -fcprop-registers
  30              	@ -fcrossjumping -fcse-follow-jumps -fdefer-pop
  31              	@ -fdelete-null-pointer-checks -fdevirtualize -fdevirtualize-speculatively
  32              	@ -fdwarf2-cfi-asm -fearly-inlining -feliminate-unused-debug-types
  33              	@ -fexpensive-optimizations -fforward-propagate -ffp-int-builtin-inexact
  34              	@ -ffunction-cse -fgcse -fgcse-lm -fgnu-runtime -fgnu-unique
  35              	@ -fguess-branch-probability -fhoist-adjacent-loads -fident -fif-conversion
  36              	@ -fif-conversion2 -findirect-inlining -finline -finline-atomics
  37              	@ -finline-functions -finline-functions-called-once
  38              	@ -finline-small-functions -fipa-bit-cp -fipa-cp -fipa-icf
  39              	@ -fipa-icf-functions -fipa-icf-variables -fipa-profile -fipa-pure-const
  40              	@ -fipa-ra -fipa-reference -fipa-reference-addressable -fipa-sra
  41              	@ -fipa-stack-alignment -fipa-vrp -fira-hoist-pressure
  42              	@ -fira-share-save-slots -fira-share-spill-slots
  43              	@ -fisolate-erroneous-paths-dereference -fivopts -fkeep-static-consts
  44              	@ -fleading-underscore -flifetime-dse -flra-remat -flto-odr-type-merging
  45              	@ -fmath-errno -fmerge-constants -fmerge-debug-strings
  46              	@ -fmove-loop-invariants -fomit-frame-pointer -foptimize-sibling-calls
  47              	@ -fpartial-inlining -fpeephole -fpeephole2 -fplt -fprefetch-loop-arrays
  48              	@ -freg-struct-return -freorder-blocks -freorder-functions
  49              	@ -frerun-cse-after-loop -fsched-critical-path-heuristic
  50              	@ -fsched-dep-count-heuristic -fsched-group-heuristic -fsched-interblock
  51              	@ -fsched-last-insn-heuristic -fsched-pressure -fsched-rank-heuristic
  52              	@ -fsched-spec -fsched-spec-insn-heuristic -fsched-stalled-insns-dep
  53              	@ -fschedule-insns2 -fsection-anchors -fsemantic-interposition
  54              	@ -fshow-column -fshrink-wrap-separate -fsigned-zeros
  55              	@ -fsplit-ivs-in-unroller -fsplit-wide-types -fssa-backprop -fssa-phiopt
  56              	@ -fstdarg-opt -fstore-merging -fstrict-aliasing
  57              	@ -fstrict-volatile-bitfields -fsync-libcalls -fthread-jumps
ARM GAS  /var/folders/_2/qbh2zpt918qcm2b_6mgyydnm0000gn/T//ccliMEBq.s 			page 2


  58              	@ -ftoplevel-reorder -ftrapping-math -ftree-bit-ccp -ftree-builtin-call-dce
  59              	@ -ftree-ccp -ftree-ch -ftree-coalesce-vars -ftree-copy-prop -ftree-cselim
  60              	@ -ftree-dce -ftree-dominator-opts -ftree-dse -ftree-forwprop -ftree-fre
  61              	@ -ftree-loop-if-convert -ftree-loop-im -ftree-loop-ivcanon
  62              	@ -ftree-loop-optimize -ftree-parallelize-loops= -ftree-phiprop -ftree-pre
  63              	@ -ftree-pta -ftree-reassoc -ftree-scev-cprop -ftree-sink -ftree-slsr
  64              	@ -ftree-sra -ftree-switch-conversion -ftree-tail-merge -ftree-ter
  65              	@ -ftree-vrp -funit-at-a-time -fvar-tracking -fvar-tracking-assignments
  66              	@ -fverbose-asm -fzero-initialized-in-bss -masm-syntax-unified -mbe32
  67              	@ -mlittle-endian -mpic-data-is-text-relative -msched-prolog -mthumb
  68              	@ -munaligned-access -mvectorize-with-neon-quad
  69              	
  70              		.text
  71              	.Ltext0:
  72              		.cfi_sections	.debug_frame
  73              		.align	1
  74              		.global	activateBuzzer
  75              		.arch armv7e-m
  76              		.syntax unified
  77              		.thumb
  78              		.thumb_func
  79              		.fpu softvfp
  80              		.type	activateBuzzer, %function
  81              	activateBuzzer:
  82              	.LVL0:
  83              	.LFB126:
  84              		.file 1 "buzzer.c"
   1:buzzer.c      **** #include "buzzer.h"
   2:buzzer.c      **** 
   3:buzzer.c      **** 
   4:buzzer.c      **** buzzer_t buzzer;
   5:buzzer.c      **** 
   6:buzzer.c      **** const uint8_t buzz_shortBeep[] = {
   7:buzzer.c      ****   10, 10, 0xFF
   8:buzzer.c      **** };
   9:buzzer.c      **** const uint8_t buzz_gyroCalibrated[] = {
  10:buzzer.c      ****   5, 15, 5, 15, 5, 15, 20, 15, 0xFF
  11:buzzer.c      **** };
  12:buzzer.c      **** const uint8_t buzz_disArmBeep[] = {
  13:buzzer.c      ****  5, 5, 15, 5, 5, 15, 30, 0xFF 
  14:buzzer.c      **** };
  15:buzzer.c      **** const uint8_t buzz_readyBeep[] = {
  16:buzzer.c      ****   4, 5, 4, 5, 8, 5, 15, 5, 8, 5, 4, 5, 4, 5, 0xFF
  17:buzzer.c      **** };
  18:buzzer.c      **** 
  19:buzzer.c      **** void activateBuzzer(const uint8_t* Sequence){
  85              		.loc 1 19 45 view -0
  86              		.cfi_startproc
  87              		@ args = 0, pretend = 0, frame = 0
  88              		@ frame_needed = 0, uses_anonymous_args = 0
  89              		@ link register save eliminated.
  20:buzzer.c      ****   buzzer.SequencePtr = Sequence;
  90              		.loc 1 20 3 view .LVU1
  91              	@ buzzer.c:20:   buzzer.SequencePtr = Sequence;
  92              		.loc 1 20 22 is_stmt 0 view .LVU2
  93 0000 024B     		ldr	r3, .L2	@ tmp111,
  94              	@ buzzer.c:21:   buzzer.Mode = ACTIVE;
ARM GAS  /var/folders/_2/qbh2zpt918qcm2b_6mgyydnm0000gn/T//ccliMEBq.s 			page 3


  21:buzzer.c      ****   buzzer.Mode = ACTIVE;
  95              		.loc 1 21 15 view .LVU3
  96 0002 0122     		movs	r2, #1	@ tmp114,
  97              	@ buzzer.c:20:   buzzer.SequencePtr = Sequence;
  20:buzzer.c      ****   buzzer.SequencePtr = Sequence;
  98              		.loc 1 20 22 view .LVU4
  99 0004 1860     		str	r0, [r3]	@ tmp115, buzzer.SequencePtr
 100              		.loc 1 21 3 is_stmt 1 view .LVU5
  22:buzzer.c      ****   buzzer.Pos = 0;
 101              		.loc 1 22 3 view .LVU6
 102              	@ buzzer.c:21:   buzzer.Mode = ACTIVE;
  21:buzzer.c      ****   buzzer.Mode = ACTIVE;
 103              		.loc 1 21 15 is_stmt 0 view .LVU7
 104 0006 9A80     		strh	r2, [r3, #4]	@ movhi	@ tmp114, MEM[(unsigned char *)&buzzer + 4B]
 105              	@ buzzer.c:23: };
  23:buzzer.c      **** };
 106              		.loc 1 23 1 view .LVU8
 107 0008 7047     		bx	lr	@
 108              	.L3:
 109 000a 00BF     		.align	2
 110              	.L2:
 111 000c 00000000 		.word	buzzer
 112              		.cfi_endproc
 113              	.LFE126:
 114              		.size	activateBuzzer, .-activateBuzzer
 115              		.align	1
 116              		.global	toggleBuzzer
 117              		.syntax unified
 118              		.thumb
 119              		.thumb_func
 120              		.fpu softvfp
 121              		.type	toggleBuzzer, %function
 122              	toggleBuzzer:
 123              	.LVL1:
 124              	.LFB129:
  24:buzzer.c      **** 
  25:buzzer.c      **** void subtaskUpdateBuzzer(uint32_t currentBuzzerUpdate){
  26:buzzer.c      ****   //If the buzzer has nothing to do the return
  27:buzzer.c      ****   if(buzzer.Mode == INACTIVE || buzzer.SequencePtr == NULL) return;
  28:buzzer.c      ****   
  29:buzzer.c      ****   //Otherwise check the buzzer sequence 
  30:buzzer.c      ****   if(!buzzer.IsOn && buzzer.NextToggleTime <= currentBuzzerUpdate){
  31:buzzer.c      ****     buzzer.IsOn = ON;
  32:buzzer.c      ****     if(buzzer.SequencePtr[buzzer.Pos] != 0) toggleBuzzer(ON);
  33:buzzer.c      ****     calculateBuzzer(currentBuzzerUpdate);
  34:buzzer.c      ****   };
  35:buzzer.c      **** 
  36:buzzer.c      ****   if(buzzer.IsOn && buzzer.NextToggleTime <= currentBuzzerUpdate){
  37:buzzer.c      ****     buzzer.IsOn = OFF;
  38:buzzer.c      ****     if(buzzer.SequencePtr[buzzer.Pos] != 0) toggleBuzzer(OFF);
  39:buzzer.c      ****     calculateBuzzer(currentBuzzerUpdate);
  40:buzzer.c      ****   };
  41:buzzer.c      **** 
  42:buzzer.c      **** };
  43:buzzer.c      **** 
  44:buzzer.c      **** void calculateBuzzer(uint32_t callingTime){
  45:buzzer.c      ****   if(buzzer.SequencePtr[buzzer.Pos] == 0xFF)
ARM GAS  /var/folders/_2/qbh2zpt918qcm2b_6mgyydnm0000gn/T//ccliMEBq.s 			page 4


  46:buzzer.c      ****   { //turn off 
  47:buzzer.c      ****     buzzer.IsOn = OFF;
  48:buzzer.c      ****     buzzer.Mode = INACTIVE;
  49:buzzer.c      ****     buzzer.SequencePtr = NULL;
  50:buzzer.c      ****     toggleBuzzer(OFF);
  51:buzzer.c      ****   } else 
  52:buzzer.c      ****     {
  53:buzzer.c      ****     buzzer.NextToggleTime = callingTime + 10 * 1000 * buzzer.SequencePtr[buzzer.Pos];
  54:buzzer.c      ****     buzzer.Pos ++;
  55:buzzer.c      ****     };
  56:buzzer.c      **** };
  57:buzzer.c      **** 
  58:buzzer.c      **** void toggleBuzzer(bool onoff){
 125              		.loc 1 58 30 is_stmt 1 view -0
 126              		.cfi_startproc
 127              		@ args = 0, pretend = 0, frame = 0
 128              		@ frame_needed = 0, uses_anonymous_args = 0
 129              		@ link register save eliminated.
  59:buzzer.c      ****   systemBeepPtr(onoff); //->beeperSpRaching 
 130              		.loc 1 59 3 view .LVU10
 131 0010 014B     		ldr	r3, .L5	@ tmp112,
 132 0012 1B68     		ldr	r3, [r3]	@ systemBeepPtr, systemBeepPtr
 133 0014 1847     		bx	r3	@ indirect register sibling call	@ systemBeepPtr
 134              	.LVL2:
 135              	.L6:
 136              		.loc 1 59 3 is_stmt 0 view .LVU11
 137 0016 00BF     		.align	2
 138              	.L5:
 139 0018 00000000 		.word	systemBeepPtr
 140              		.cfi_endproc
 141              	.LFE129:
 142              		.size	toggleBuzzer, .-toggleBuzzer
 143              		.align	1
 144              		.global	calculateBuzzer
 145              		.syntax unified
 146              		.thumb
 147              		.thumb_func
 148              		.fpu softvfp
 149              		.type	calculateBuzzer, %function
 150              	calculateBuzzer:
 151              	.LVL3:
 152              	.LFB128:
  44:buzzer.c      ****   if(buzzer.SequencePtr[buzzer.Pos] == 0xFF)
 153              		.loc 1 44 43 is_stmt 1 view -0
 154              		.cfi_startproc
 155              		@ args = 0, pretend = 0, frame = 0
 156              		@ frame_needed = 0, uses_anonymous_args = 0
 157              		@ link register save eliminated.
  45:buzzer.c      ****   { //turn off 
 158              		.loc 1 45 3 view .LVU13
 159              	@ buzzer.c:44: void calculateBuzzer(uint32_t callingTime){
  44:buzzer.c      ****   if(buzzer.SequencePtr[buzzer.Pos] == 0xFF)
 160              		.loc 1 44 43 is_stmt 0 view .LVU14
 161 001c 10B4     		push	{r4}	@
 162              	.LCFI0:
 163              		.cfi_def_cfa_offset 4
 164              		.cfi_offset 4, -4
ARM GAS  /var/folders/_2/qbh2zpt918qcm2b_6mgyydnm0000gn/T//ccliMEBq.s 			page 5


 165              	@ buzzer.c:45:   if(buzzer.SequencePtr[buzzer.Pos] == 0xFF)
  45:buzzer.c      ****   { //turn off 
 166              		.loc 1 45 31 view .LVU15
 167 001e 0B4B     		ldr	r3, .L9	@ tmp121,
 168 0020 5A79     		ldrb	r2, [r3, #5]	@ zero_extendqisi2	@ _2, buzzer.Pos
 169              	@ buzzer.c:45:   if(buzzer.SequencePtr[buzzer.Pos] == 0xFF)
  45:buzzer.c      ****   { //turn off 
 170              		.loc 1 45 24 view .LVU16
 171 0022 1968     		ldr	r1, [r3]	@ buzzer.SequencePtr, buzzer.SequencePtr
 172 0024 895C     		ldrb	r1, [r1, r2]	@ zero_extendqisi2	@ _5, *_4
 173              	@ buzzer.c:45:   if(buzzer.SequencePtr[buzzer.Pos] == 0xFF)
  45:buzzer.c      ****   { //turn off 
 174              		.loc 1 45 5 view .LVU17
 175 0026 FF29     		cmp	r1, #255	@ _5,
 176 0028 06D1     		bne	.L8		@,
 177              	.LBB4:
 178              	.LBI4:
  44:buzzer.c      ****   if(buzzer.SequencePtr[buzzer.Pos] == 0xFF)
 179              		.loc 1 44 6 is_stmt 1 view .LVU18
 180              	.LVL4:
 181              	.LBB5:
  47:buzzer.c      ****     buzzer.Mode = INACTIVE;
 182              		.loc 1 47 5 view .LVU19
 183              	@ buzzer.c:47:     buzzer.IsOn = OFF;
  47:buzzer.c      ****     buzzer.Mode = INACTIVE;
 184              		.loc 1 47 17 is_stmt 0 view .LVU20
 185 002a 0020     		movs	r0, #0	@ tmp125,
 186              	.LVL5:
  47:buzzer.c      ****     buzzer.Mode = INACTIVE;
 187              		.loc 1 47 17 view .LVU21
 188 002c 9871     		strb	r0, [r3, #6]	@ tmp125, buzzer.IsOn
  48:buzzer.c      ****     buzzer.SequencePtr = NULL;
 189              		.loc 1 48 5 is_stmt 1 view .LVU22
 190              	@ buzzer.c:48:     buzzer.Mode = INACTIVE;
  48:buzzer.c      ****     buzzer.SequencePtr = NULL;
 191              		.loc 1 48 17 is_stmt 0 view .LVU23
 192 002e 1871     		strb	r0, [r3, #4]	@ tmp125, buzzer.Mode
  49:buzzer.c      ****     toggleBuzzer(OFF);
 193              		.loc 1 49 5 is_stmt 1 view .LVU24
 194              	.LBE5:
 195              	.LBE4:
 196              	@ buzzer.c:56: };
  56:buzzer.c      **** 
 197              		.loc 1 56 1 is_stmt 0 view .LVU25
 198 0030 10BC     		pop	{r4}		@
 199              	.LCFI1:
 200              		.cfi_remember_state
 201              		.cfi_restore 4
 202              		.cfi_def_cfa_offset 0
 203              	.LBB7:
 204              	.LBB6:
 205              	@ buzzer.c:49:     buzzer.SequencePtr = NULL;
  49:buzzer.c      ****     toggleBuzzer(OFF);
 206              		.loc 1 49 24 view .LVU26
 207 0032 1860     		str	r0, [r3]	@ tmp125, buzzer.SequencePtr
  50:buzzer.c      ****   } else 
 208              		.loc 1 50 5 is_stmt 1 view .LVU27
ARM GAS  /var/folders/_2/qbh2zpt918qcm2b_6mgyydnm0000gn/T//ccliMEBq.s 			page 6


 209 0034 FFF7FEBF 		b	toggleBuzzer		@
 210              	.LVL6:
 211              	.L8:
 212              	.LCFI2:
 213              		.cfi_restore_state
  50:buzzer.c      ****   } else 
 214              		.loc 1 50 5 is_stmt 0 view .LVU28
 215              	.LBE6:
 216              	.LBE7:
  53:buzzer.c      ****     buzzer.Pos ++;
 217              		.loc 1 53 5 is_stmt 1 view .LVU29
 218              	@ buzzer.c:53:     buzzer.NextToggleTime = callingTime + 10 * 1000 * buzzer.SequencePtr[buzzer.Pos]
  53:buzzer.c      ****     buzzer.Pos ++;
 219              		.loc 1 53 41 is_stmt 0 view .LVU30
 220 0038 42F21074 		movw	r4, #10000	@ tmp134,
 221              	@ buzzer.c:54:     buzzer.Pos ++;
  54:buzzer.c      ****     };
 222              		.loc 1 54 16 view .LVU31
 223 003c 0132     		adds	r2, r2, #1	@ tmp137, _2,
 224              	@ buzzer.c:53:     buzzer.NextToggleTime = callingTime + 10 * 1000 * buzzer.SequencePtr[buzzer.Pos]
  53:buzzer.c      ****     buzzer.Pos ++;
 225              		.loc 1 53 41 view .LVU32
 226 003e 04FB0101 		mla	r1, r4, r1, r0	@ tmp135, tmp134, _5, callingTime
 227              	@ buzzer.c:54:     buzzer.Pos ++;
  54:buzzer.c      ****     };
 228              		.loc 1 54 16 view .LVU33
 229 0042 5A71     		strb	r2, [r3, #5]	@ tmp137, buzzer.Pos
 230              	@ buzzer.c:56: };
  56:buzzer.c      **** 
 231              		.loc 1 56 1 view .LVU34
 232 0044 10BC     		pop	{r4}		@
 233              	.LCFI3:
 234              		.cfi_restore 4
 235              		.cfi_def_cfa_offset 0
 236              	@ buzzer.c:53:     buzzer.NextToggleTime = callingTime + 10 * 1000 * buzzer.SequencePtr[buzzer.Pos]
  53:buzzer.c      ****     buzzer.Pos ++;
 237              		.loc 1 53 27 view .LVU35
 238 0046 9960     		str	r1, [r3, #8]	@ tmp135, buzzer.NextToggleTime
  54:buzzer.c      ****     };
 239              		.loc 1 54 5 is_stmt 1 view .LVU36
  55:buzzer.c      **** };
 240              		.loc 1 55 6 view .LVU37
 241              	@ buzzer.c:56: };
  56:buzzer.c      **** 
 242              		.loc 1 56 1 is_stmt 0 view .LVU38
 243 0048 7047     		bx	lr	@
 244              	.L10:
 245 004a 00BF     		.align	2
 246              	.L9:
 247 004c 00000000 		.word	buzzer
 248              		.cfi_endproc
 249              	.LFE128:
 250              		.size	calculateBuzzer, .-calculateBuzzer
 251              		.align	1
 252              		.global	subtaskUpdateBuzzer
 253              		.syntax unified
 254              		.thumb
ARM GAS  /var/folders/_2/qbh2zpt918qcm2b_6mgyydnm0000gn/T//ccliMEBq.s 			page 7


 255              		.thumb_func
 256              		.fpu softvfp
 257              		.type	subtaskUpdateBuzzer, %function
 258              	subtaskUpdateBuzzer:
 259              	.LVL7:
 260              	.LFB127:
  25:buzzer.c      ****   //If the buzzer has nothing to do the return
 261              		.loc 1 25 55 is_stmt 1 view -0
 262              		.cfi_startproc
 263              		@ args = 0, pretend = 0, frame = 0
 264              		@ frame_needed = 0, uses_anonymous_args = 0
  27:buzzer.c      ****   
 265              		.loc 1 27 3 view .LVU40
 266              	@ buzzer.c:25: void subtaskUpdateBuzzer(uint32_t currentBuzzerUpdate){
  25:buzzer.c      ****   //If the buzzer has nothing to do the return
 267              		.loc 1 25 55 is_stmt 0 view .LVU41
 268 0050 38B5     		push	{r3, r4, r5, lr}	@
 269              	.LCFI4:
 270              		.cfi_def_cfa_offset 16
 271              		.cfi_offset 3, -16
 272              		.cfi_offset 4, -12
 273              		.cfi_offset 5, -8
 274              		.cfi_offset 14, -4
 275              	@ buzzer.c:27:   if(buzzer.Mode == INACTIVE || buzzer.SequencePtr == NULL) return;
  27:buzzer.c      ****   
 276              		.loc 1 27 12 view .LVU42
 277 0052 154C     		ldr	r4, .L29	@ tmp126,
 278              	@ buzzer.c:27:   if(buzzer.Mode == INACTIVE || buzzer.SequencePtr == NULL) return;
  27:buzzer.c      ****   
 279              		.loc 1 27 5 view .LVU43
 280 0054 2379     		ldrb	r3, [r4, #4]	@ zero_extendqisi2	@ buzzer.Mode, buzzer.Mode
 281              	@ buzzer.c:25: void subtaskUpdateBuzzer(uint32_t currentBuzzerUpdate){
  25:buzzer.c      ****   //If the buzzer has nothing to do the return
 282              		.loc 1 25 55 view .LVU44
 283 0056 0546     		mov	r5, r0	@ currentBuzzerUpdate, tmp152
 284              	@ buzzer.c:27:   if(buzzer.Mode == INACTIVE || buzzer.SequencePtr == NULL) return;
  27:buzzer.c      ****   
 285              		.loc 1 27 5 view .LVU45
 286 0058 33B1     		cbz	r3, .L11	@ buzzer.Mode,
 287              	@ buzzer.c:27:   if(buzzer.Mode == INACTIVE || buzzer.SequencePtr == NULL) return;
  27:buzzer.c      ****   
 288              		.loc 1 27 39 discriminator 2 view .LVU46
 289 005a 2368     		ldr	r3, [r4]	@ _2, buzzer.SequencePtr
 290              	@ buzzer.c:27:   if(buzzer.Mode == INACTIVE || buzzer.SequencePtr == NULL) return;
  27:buzzer.c      ****   
 291              		.loc 1 27 30 discriminator 2 view .LVU47
 292 005c 23B1     		cbz	r3, .L11	@ _2,
  30:buzzer.c      ****     buzzer.IsOn = ON;
 293              		.loc 1 30 3 is_stmt 1 view .LVU48
 294              	@ buzzer.c:30:   if(!buzzer.IsOn && buzzer.NextToggleTime <= currentBuzzerUpdate){
  30:buzzer.c      ****     buzzer.IsOn = ON;
 295              		.loc 1 30 5 is_stmt 0 view .LVU49
 296 005e A279     		ldrb	r2, [r4, #6]	@ zero_extendqisi2	@ buzzer.IsOn, buzzer.IsOn
 297 0060 1AB1     		cbz	r2, .L15	@ buzzer.IsOn,
 298              	.LVL8:
 299              	.L18:
 300              	@ buzzer.c:36:   if(buzzer.IsOn && buzzer.NextToggleTime <= currentBuzzerUpdate){
ARM GAS  /var/folders/_2/qbh2zpt918qcm2b_6mgyydnm0000gn/T//ccliMEBq.s 			page 8


  36:buzzer.c      ****     buzzer.IsOn = OFF;
 301              		.loc 1 36 18 view .LVU50
 302 0062 A368     		ldr	r3, [r4, #8]	@ buzzer.NextToggleTime, buzzer.NextToggleTime
 303 0064 AB42     		cmp	r3, r5	@ buzzer.NextToggleTime, currentBuzzerUpdate
 304 0066 11D9     		bls	.L16		@,
 305              	.L11:
 306              	@ buzzer.c:42: };
  42:buzzer.c      **** 
 307              		.loc 1 42 1 view .LVU51
 308 0068 38BD     		pop	{r3, r4, r5, pc}	@
 309              	.LVL9:
 310              	.L15:
 311              	@ buzzer.c:30:   if(!buzzer.IsOn && buzzer.NextToggleTime <= currentBuzzerUpdate){
  30:buzzer.c      ****     buzzer.IsOn = ON;
 312              		.loc 1 30 19 discriminator 1 view .LVU52
 313 006a A268     		ldr	r2, [r4, #8]	@ buzzer.NextToggleTime, buzzer.NextToggleTime
 314 006c 9042     		cmp	r0, r2	@ currentBuzzerUpdate, buzzer.NextToggleTime
 315 006e FBD3     		bcc	.L11		@,
  31:buzzer.c      ****     if(buzzer.SequencePtr[buzzer.Pos] != 0) toggleBuzzer(ON);
 316              		.loc 1 31 5 is_stmt 1 view .LVU53
 317              	@ buzzer.c:32:     if(buzzer.SequencePtr[buzzer.Pos] != 0) toggleBuzzer(ON);
  32:buzzer.c      ****     calculateBuzzer(currentBuzzerUpdate);
 318              		.loc 1 32 33 is_stmt 0 view .LVU54
 319 0070 6279     		ldrb	r2, [r4, #5]	@ zero_extendqisi2	@ buzzer.Pos, buzzer.Pos
 320              	@ buzzer.c:31:     buzzer.IsOn = ON;
  31:buzzer.c      ****     if(buzzer.SequencePtr[buzzer.Pos] != 0) toggleBuzzer(ON);
 321              		.loc 1 31 17 view .LVU55
 322 0072 0120     		movs	r0, #1	@ tmp136,
 323              	.LVL10:
  31:buzzer.c      ****     if(buzzer.SequencePtr[buzzer.Pos] != 0) toggleBuzzer(ON);
 324              		.loc 1 31 17 view .LVU56
 325 0074 A071     		strb	r0, [r4, #6]	@ tmp136, buzzer.IsOn
  32:buzzer.c      ****     calculateBuzzer(currentBuzzerUpdate);
 326              		.loc 1 32 5 is_stmt 1 view .LVU57
 327              	@ buzzer.c:32:     if(buzzer.SequencePtr[buzzer.Pos] != 0) toggleBuzzer(ON);
  32:buzzer.c      ****     calculateBuzzer(currentBuzzerUpdate);
 328              		.loc 1 32 7 is_stmt 0 view .LVU58
 329 0076 9B5C     		ldrb	r3, [r3, r2]	@ zero_extendqisi2	@ *_7, *_7
 330 0078 0BB1     		cbz	r3, .L17	@ *_7,
  32:buzzer.c      ****     calculateBuzzer(currentBuzzerUpdate);
 331              		.loc 1 32 45 is_stmt 1 discriminator 1 view .LVU59
 332 007a FFF7FEFF 		bl	toggleBuzzer		@
 333              	.LVL11:
 334              	.L17:
  33:buzzer.c      ****   };
 335              		.loc 1 33 5 view .LVU60
 336 007e 2846     		mov	r0, r5	@, currentBuzzerUpdate
 337 0080 FFF7FEFF 		bl	calculateBuzzer		@
 338              	.LVL12:
  34:buzzer.c      **** 
 339              		.loc 1 34 4 view .LVU61
  36:buzzer.c      ****     buzzer.IsOn = OFF;
 340              		.loc 1 36 3 view .LVU62
 341              	@ buzzer.c:36:   if(buzzer.IsOn && buzzer.NextToggleTime <= currentBuzzerUpdate){
  36:buzzer.c      ****     buzzer.IsOn = OFF;
 342              		.loc 1 36 5 is_stmt 0 view .LVU63
 343 0084 A379     		ldrb	r3, [r4, #6]	@ zero_extendqisi2	@ buzzer.IsOn, buzzer.IsOn
ARM GAS  /var/folders/_2/qbh2zpt918qcm2b_6mgyydnm0000gn/T//ccliMEBq.s 			page 9


 344 0086 002B     		cmp	r3, #0	@ buzzer.IsOn
 345 0088 EED0     		beq	.L11	@
 346 008a EAE7     		b	.L18		@
 347              	.L16:
  37:buzzer.c      ****     if(buzzer.SequencePtr[buzzer.Pos] != 0) toggleBuzzer(OFF);
 348              		.loc 1 37 5 is_stmt 1 view .LVU64
 349              	@ buzzer.c:38:     if(buzzer.SequencePtr[buzzer.Pos] != 0) toggleBuzzer(OFF);
  38:buzzer.c      ****     calculateBuzzer(currentBuzzerUpdate);
 350              		.loc 1 38 33 is_stmt 0 view .LVU65
 351 008c 6379     		ldrb	r3, [r4, #5]	@ zero_extendqisi2	@ buzzer.Pos, buzzer.Pos
 352              	@ buzzer.c:38:     if(buzzer.SequencePtr[buzzer.Pos] != 0) toggleBuzzer(OFF);
  38:buzzer.c      ****     calculateBuzzer(currentBuzzerUpdate);
 353              		.loc 1 38 26 view .LVU66
 354 008e 2268     		ldr	r2, [r4]	@ buzzer.SequencePtr, buzzer.SequencePtr
 355              	@ buzzer.c:37:     buzzer.IsOn = OFF;
  37:buzzer.c      ****     if(buzzer.SequencePtr[buzzer.Pos] != 0) toggleBuzzer(OFF);
 356              		.loc 1 37 17 view .LVU67
 357 0090 0020     		movs	r0, #0	@ tmp144,
 358 0092 A071     		strb	r0, [r4, #6]	@ tmp144, buzzer.IsOn
  38:buzzer.c      ****     calculateBuzzer(currentBuzzerUpdate);
 359              		.loc 1 38 5 is_stmt 1 view .LVU68
 360              	@ buzzer.c:38:     if(buzzer.SequencePtr[buzzer.Pos] != 0) toggleBuzzer(OFF);
  38:buzzer.c      ****     calculateBuzzer(currentBuzzerUpdate);
 361              		.loc 1 38 7 is_stmt 0 view .LVU69
 362 0094 D35C     		ldrb	r3, [r2, r3]	@ zero_extendqisi2	@ *_14, *_14
 363 0096 0BB1     		cbz	r3, .L19	@ *_14,
  38:buzzer.c      ****     calculateBuzzer(currentBuzzerUpdate);
 364              		.loc 1 38 45 is_stmt 1 discriminator 1 view .LVU70
 365 0098 FFF7FEFF 		bl	toggleBuzzer		@
 366              	.LVL13:
 367              	.L19:
  39:buzzer.c      ****   };
 368              		.loc 1 39 5 view .LVU71
 369 009c 2846     		mov	r0, r5	@, currentBuzzerUpdate
 370              	@ buzzer.c:42: };
  42:buzzer.c      **** 
 371              		.loc 1 42 1 is_stmt 0 view .LVU72
 372 009e BDE83840 		pop	{r3, r4, r5, lr}	@
 373              	.LCFI5:
 374              		.cfi_restore 14
 375              		.cfi_restore 5
 376              		.cfi_restore 4
 377              		.cfi_restore 3
 378              		.cfi_def_cfa_offset 0
 379              	.LVL14:
 380              	@ buzzer.c:39:     calculateBuzzer(currentBuzzerUpdate);
  39:buzzer.c      ****   };
 381              		.loc 1 39 5 view .LVU73
 382 00a2 FFF7FEBF 		b	calculateBuzzer		@
 383              	.LVL15:
 384              	.L30:
  39:buzzer.c      ****   };
 385              		.loc 1 39 5 view .LVU74
 386 00a6 00BF     		.align	2
 387              	.L29:
 388 00a8 00000000 		.word	buzzer
 389              		.cfi_endproc
ARM GAS  /var/folders/_2/qbh2zpt918qcm2b_6mgyydnm0000gn/T//ccliMEBq.s 			page 10


 390              	.LFE127:
 391              		.size	subtaskUpdateBuzzer, .-subtaskUpdateBuzzer
 392              		.align	1
 393              		.global	beeperSpRacing
 394              		.syntax unified
 395              		.thumb
 396              		.thumb_func
 397              		.fpu softvfp
 398              		.type	beeperSpRacing, %function
 399              	beeperSpRacing:
 400              	.LVL16:
 401              	.LFB130:
  60:buzzer.c      **** };
  61:buzzer.c      **** 
  62:buzzer.c      **** void beeperSpRacing(bool onoff){
 402              		.loc 1 62 32 is_stmt 1 view -0
 403              		.cfi_startproc
 404              		@ args = 0, pretend = 0, frame = 0
 405              		@ frame_needed = 0, uses_anonymous_args = 0
 406              		@ link register save eliminated.
  63:buzzer.c      ****   if(onoff){
 407              		.loc 1 63 3 view .LVU76
 408              	@ buzzer.c:63:   if(onoff){
 409              		.loc 1 63 5 is_stmt 0 view .LVU77
 410 00ac 0246     		mov	r2, r0	@ onoff, tmp113
 411 00ae 00B1     		cbz	r0, .L32	@ onoff,
  64:buzzer.c      ****     GPIO_WriteBit(GPIOC, GPIO_Pin_15, Bit_SET); 
 412              		.loc 1 64 5 is_stmt 1 view .LVU78
 413 00b0 0122     		movs	r2, #1	@,
 414              	.L32:
  65:buzzer.c      ****   } else {
  66:buzzer.c      ****     GPIO_WriteBit(GPIOC, GPIO_Pin_15, Bit_RESET);  
 415              		.loc 1 66 5 view .LVU79
 416 00b2 0248     		ldr	r0, .L33	@,
 417              	.LVL17:
 418              		.loc 1 66 5 is_stmt 0 view .LVU80
 419 00b4 4FF40041 		mov	r1, #32768	@,
 420 00b8 FFF7FEBF 		b	GPIO_WriteBit		@
 421              	.LVL18:
 422              	.L34:
 423              		.align	2
 424              	.L33:
 425 00bc 00080048 		.word	1207961600
 426              		.cfi_endproc
 427              	.LFE130:
 428              		.size	beeperSpRacing, .-beeperSpRacing
 429              		.global	buzz_readyBeep
 430              		.global	buzz_disArmBeep
 431              		.global	buzz_gyroCalibrated
 432              		.global	buzz_shortBeep
 433              		.comm	buzzer,12,4
 434              		.comm	systemBeepPtr,4,4
 435              		.section	.rodata
 436              		.type	buzz_readyBeep, %object
 437              		.size	buzz_readyBeep, 15
 438              	buzz_readyBeep:
 439 0000 04050405 		.ascii	"\004\005\004\005\010\005\017\005\010\005\004\005\004"
ARM GAS  /var/folders/_2/qbh2zpt918qcm2b_6mgyydnm0000gn/T//ccliMEBq.s 			page 11


 439      08050F05 
 439      08050405 
 439      04
 440 000d 05FF     		.ascii	"\005\377"
 441              		.type	buzz_disArmBeep, %object
 442              		.size	buzz_disArmBeep, 8
 443              	buzz_disArmBeep:
 444 000f 05050F05 		.ascii	"\005\005\017\005\005\017\036\377"
 444      050F1EFF 
 445              		.type	buzz_gyroCalibrated, %object
 446              		.size	buzz_gyroCalibrated, 9
 447              	buzz_gyroCalibrated:
 448 0017 050F050F 		.ascii	"\005\017\005\017\005\017\024\017\377"
 448      050F140F 
 448      FF
 449              		.type	buzz_shortBeep, %object
 450              		.size	buzz_shortBeep, 3
 451              	buzz_shortBeep:
 452 0020 0A0AFF   		.ascii	"\012\012\377"
 453              		.text
 454              	.Letext0:
 455              		.file 2 "/usr/local/Cellar/arm-none-eabi-gcc/9-2019-q4-major/gcc/arm-none-eabi/include/machine/_de
 456              		.file 3 "/usr/local/Cellar/arm-none-eabi-gcc/9-2019-q4-major/gcc/arm-none-eabi/include/sys/_stdint
 457              		.file 4 "/Users/rdaneel/Binary/Roaming/C-Code/StmProjects/stm32f3x/lib/STM32F30x_DSP_StdPeriph_Lib
 458              		.file 5 "/Users/rdaneel/Binary/Roaming/C-Code/StmProjects/stm32f3x/lib/STM32F30x_DSP_StdPeriph_Lib
 459              		.file 6 "/Users/rdaneel/Binary/Roaming/C-Code/StmProjects/stm32f3x/lib/STM32F30x_DSP_StdPeriph_Lib
 460              		.file 7 "/usr/local/Cellar/arm-none-eabi-gcc/9-2019-q4-major/gcc/arm-none-eabi/include/sys/lock.h"
 461              		.file 8 "/usr/local/Cellar/arm-none-eabi-gcc/9-2019-q4-major/gcc/arm-none-eabi/include/sys/_types.
 462              		.file 9 "/usr/local/Cellar/arm-none-eabi-gcc/9-2019-q4-major/gcc/lib/gcc/arm-none-eabi/9.2.1/inclu
 463              		.file 10 "/usr/local/Cellar/arm-none-eabi-gcc/9-2019-q4-major/gcc/arm-none-eabi/include/sys/reent.
 464              		.file 11 "/usr/local/Cellar/arm-none-eabi-gcc/9-2019-q4-major/gcc/arm-none-eabi/include/stdlib.h"
 465              		.file 12 "buzzer.h"
 466              		.file 13 "/Users/rdaneel/Binary/Roaming/C-Code/StmProjects/stm32f3x/lib/STM32F30x_DSP_StdPeriph_Li