ARM GAS  /var/folders/_2/qbh2zpt918qcm2b_6mgyydnm0000gn/T//ccliMEBq.s 			page 1


   1              		.cpu cortex-m4
   2              		.eabi_attribute 20, 1	@ Tag_ABI_FP_denormal
   3              		.eabi_attribute 21, 1	@ Tag_ABI_FP_exceptions
   4              		.eabi_attribute 23, 3	@ Tag_ABI_FP_number_model
   5              		.eabi_attribute 24, 1	@ Tag_ABI_align8_needed
   6              		.eabi_attribute 25, 1	@ Tag_ABI_align8_preserved
   7              		.eabi_attribute 26, 1	@ Tag_ABI_enum_size
   8              		.eabi_attribute 30, 4	@ Tag_ABI_optimization_goals
   9              		.eabi_attribute 34, 1	@ Tag_CPU_unaligned_access
  10              		.eabi_attribute 18, 4	@ Tag_ABI_PCS_wchar_t
  11              		.file	"buzzer.c"
  12              	@ GNU C17 (GNU Tools for Arm Embedded Processors 9-2019-q4-major) version 9.2.1 20191025 (release) 
  13              	@	compiled by GNU C version 4.2.1 Compatible Apple LLVM 9.0.0 (clang-900.0.39.2), GMP version 6.1.0
  14              	
  15              	@ GGC heuristics: --param ggc-min-expand=100 --param ggc-min-heapsize=131072
  16              	@ options passed:  -I .
  17              	@ -I /Users/rdaneel/Binary/Roaming/C-Code/StmProjects/stm32f3x/lib/STM32F30x_DSP_StdPeriph_Lib_V1.2
  18              	@ -I /Users/rdaneel/Binary/Roaming/C-Code/StmProjects/stm32f3x/lib/STM32F30x_DSP_StdPeriph_Lib_V1.2
  19              	@ -I /Users/rdaneel/Binary/Roaming/C-Code/StmProjects/stm32f3x/lib/STM32F30x_DSP_StdPeriph_Lib_V1.2
  20              	@ -imultilib thumb/v7e-m/nofp
  21              	@ -iprefix /usr/local/Cellar/arm-none-eabi-gcc/9-2019-q4-major/gcc/bin/../lib/gcc/arm-none-eabi/9.2
  22              	@ -isysroot /usr/local/Cellar/arm-none-eabi-gcc/9-2019-q4-major/gcc/bin/../arm-none-eabi
  23              	@ -D__USES_INITFINI__ -D STM32F30X_MD -D USE_STDPERIPH_DRIVER
  24              	@ -D HSE_VALUE=8000000 -D RUN_FROM_FLASH=1 buzzer.c -mcpu=cortex-m4 -mthumb
  25              	@ -mfloat-abi=soft -march=armv7e-m -auxbase-strip buzzer.o -g -gdwarf-2 -Os
  26              	@ -Wall -fomit-frame-pointer -fverbose-asm
  27              	@ options enabled:  -faggressive-loop-optimizations -fassume-phsa
  28              	@ -fauto-inc-dec -fbranch-count-reg -fcaller-saves -fcode-hoisting
  29              	@ -fcombine-stack-adjustments -fcommon -fcompare-elim -fcprop-registers
  30              	@ -fcrossjumping -fcse-follow-jumps -fdefer-pop
  31              	@ -fdelete-null-pointer-checks -fdevirtualize -fdevirtualize-speculatively
  32              	@ -fdwarf2-cfi-asm -fearly-inlining -feliminate-unused-debug-types
  33              	@ -fexpensive-optimizations -fforward-propagate -ffp-int-builtin-inexact
  34              	@ -ffunction-cse -fgcse -fgcse-lm -fgnu-runtime -fgnu-unique
  35              	@ -fguess-branch-probability -fhoist-adjacent-loads -fident -fif-conversion
  36              	@ -fif-conversion2 -findirect-inlining -finline -finline-atomics
  37              	@ -finline-functions -finline-functions-called-once
  38              	@ -finline-small-functions -fipa-bit-cp -fipa-cp -fipa-icf
  39              	@ -fipa-icf-functions -fipa-icf-variables -fipa-profile -fipa-pure-const
  40              	@ -fipa-ra -fipa-reference -fipa-reference-addressable -fipa-sra
  41              	@ -fipa-stack-alignment -fipa-vrp -fira-hoist-pressure
  42              	@ -fira-share-save-slots -fira-share-spill-slots
  43              	@ -fisolate-erroneous-paths-dereference -fivopts -fkeep-static-consts
  44              	@ -fleading-underscore -flifetime-dse -flra-remat -flto-odr-type-merging
  45              	@ -fmath-errno -fmerge-constants -fmerge-debug-strings
  46              	@ -fmove-loop-invariants -fomit-frame-pointer -foptimize-sibling-calls
  47              	@ -fpartial-inlining -fpeephole -fpeephole2 -fplt -fprefetch-loop-arrays
  48              	@ -freg-struct-return -freorder-blocks -freorder-functions
  49              	@ -frerun-cse-after-loop -fsched-critical-path-heuristic
  50              	@ -fsched-dep-count-heuristic -fsched-group-heuristic -fsched-interblock
  51              	@ -fsched-last-insn-heuristic -fsched-pressure -fsched-rank-heuristic
  52              	@ -fsched-spec -fsched-spec-insn-heuristic -fsched-stalled-insns-dep
  53              	@ -fschedule-insns2 -fsection-anchors -fsemantic-interposition
  54              	@ -fshow-column -fshrink-wrap-separate -fsigned-zeros
  55              	@ -fsplit-ivs-in-unroller -fsplit-wide-types -fssa-backprop -fssa-phiopt
  56              	@ -fstdarg-opt -fstore-merging -fstrict-aliasing
  57              	@ -fstrict-volatile-bitfields -fsync-libcalls -fthread-jumps
ARM GAS  /var/folders/_2/qbh2zpt918qcm2b_6mgyydnm0000gn/T//ccliMEBq.s 			page 2


  58              	@ -ftoplevel-reorder -ftrapping-math -ftree-bit-ccp -ftree-builtin-call-dce
  59              	@ -ftree-ccp -ftree-ch -ftree-coalesce-vars -ftree-copy-prop -ftree-cselim
  60              	@ -ftree-dce -ftree-dominator-opts -ftree-dse -ftree-forwprop -ftree-fre
  61              	@ -ftree-loop-if-convert -ftree-loop-im -ftree-loop-ivcanon
  62              	@ -ftree-loop-optimize -ftree-parallelize-loops= -ftree-phiprop -ftree-pre
  63              	@ -ftree-pta -ftree-reassoc -ftree-scev-cprop -ftree-sink -ftree-slsr
  64              	@ -ftree-sra -ftree-switch-conversion -ftree-tail-merge -ftree-ter
  65              	@ -ftree-vrp -funit-at-a-time -fvar-tracking -fvar-tracking-assignments
  66              	@ -fverbose-asm -fzero-initialized-in-bss -masm-syntax-unified -mbe32
  67              	@ -mlittle-endian -mpic-data-is-text-relative -msched-prolog -mthumb
  68              	@ -munaligned-access -mvectorize-with-neon-quad
  69              	
  70              		.text
  71              	.Ltext0:
  72              		.cfi_sections	.debug_frame
  73              		.align	1
  74              		.global	activateBuzzer
  75              		.arch armv7e-m
  76              		.syntax unified
  77              		.thumb
  78              		.thumb_func
  79              		.fpu softvfp
  80              		.type	activateBuzzer, %function
  81              	activateBuzzer:
  82              	.LVL0:
  83              	.LFB126:
  84              		.file 1 "buzzer.c"
   1:buzzer.c      **** #include "buzzer.h"
   2:buzzer.c      **** 
   3:buzzer.c      **** 
   4:buzzer.c      **** buzzer_t buzzer;
   5:buzzer.c      **** 
   6:buzzer.c      **** const uint8_t buzz_shortBeep[] = {
   7:buzzer.c      ****   10, 10, 0xFF
   8:buzzer.c      **** };
   9:buzzer.c      **** const uint8_t buzz_gyroCalibrated[] = {
  10:buzzer.c      ****   5, 15, 5, 15, 5, 15, 20, 15, 0xFF
  11:buzzer.c      **** };
  12:buzzer.c      **** const uint8_t buzz_disArmBeep[] = {
  13:buzzer.c      ****  5, 5, 15, 5, 5, 15, 30, 0xFF 
  14:buzzer.c      **** };
  15:buzzer.c      **** const uint8_t buzz_readyBeep[] = {
  16:buzzer.c      ****   4, 5, 4, 5, 8, 5, 15, 5, 8, 5, 4, 5, 4, 5, 0xFF
  17:buzzer.c      **** };
  18:buzzer.c      **** 
  19:buzzer.c      **** void activateBuzzer(const uint8_t* Sequence){
  85              		.loc 1 19 45 view -0
  86              		.cfi_startproc
  87              		@ args = 0, pretend = 0, frame = 0
  88              		@ frame_needed = 0, uses_anonymous_args = 0
  89              		@ link register save eliminated.
  20:buzzer.c      ****   buzzer.SequencePtr = Sequence;
  90              		.loc 1 20 3 view .LVU1
  91              	@ buzzer.c:20:   buzzer.SequencePtr = Sequence;
  92              		.loc 1 20 22 is_stmt 0 view .LVU2
  93 0000 024B     		ldr	r3, .L2	@ tmp111,
  94              	@ buzzer.c:21:   buzzer.Mode = ACTIVE;
ARM GAS  /var/folders/_2/qbh2zpt918qcm2b_6mgyydnm0000gn/T//ccliMEBq.s 			page 3


  21:buzzer.c      ****   buzzer.Mode = ACTIVE;
  95              		.loc 1 21 15 view .LVU3
  96 0002 0122     		movs	r2, #1	@ tmp114,
  97              	@ buzzer.c:20:   buzzer.SequencePtr = Sequence;
  20:buzzer.c      ****   buzzer.SequencePtr = Sequence;
  98              		.loc 1 20 22 view .LVU4
  99 0004 1860     		str	r0, [r3]	@ tmp115, buzzer.SequencePtr
 100              		.loc 1 21 3 is_stmt 1 view .LVU5
  22:buzzer.c      ****   buzzer.Pos = 0;
 101              		.loc 1 22 3 view .LVU6
 102              	@ buzzer.c:21:   buzzer.Mode = ACTIVE;
  21:buzzer.c      ****   buzzer.Mode = ACTIVE;
 103              		.loc 1 21 15 is_stmt 0 view .LVU7
 104 0006 9A80     		strh	r2, [r3, #4]	@ movhi	@ tmp114, MEM[(unsigned char *)&buzzer + 4B]
 105              	@ buzzer.c:23: };
  23:buzzer.c      **** };
 106              		.loc 1 23 1 view .LVU8
 107 0008 7047     		bx	lr	@
 108              	.L3:
 109 000a 00BF     		.align	2
 110              	.L2:
 111 000c 00000000 		.word	buzzer
 112              		.cfi_endproc
 113              	.LFE126:
 114              		.size	activateBuzzer, .-activateBuzzer
 115              		.align	1
 116              		.global	toggleBuzzer
 117              		.syntax unified
 118              		.thumb
 119              		.thumb_func
 120              		.fpu softvfp
 121              		.type	toggleBuzzer, %function
 122              	toggleBuzzer:
 123              	.LVL1:
 124              	.LFB129:
  24:buzzer.c      **** 
  25:buzzer.c      **** void subtaskUpdateBuzzer(uint32_t currentBuzzerUpdate){
  26:buzzer.c      ****   //If the buzzer has nothing to do the return
  27:buzzer.c      ****   if(buzzer.Mode == INACTIVE || buzzer.SequencePtr == NULL) return;
  28:buzzer.c      ****   
  29:buzzer.c      ****   //Otherwise check the buzzer sequence 
  30:buzzer.c      ****   if(!buzzer.IsOn && buzzer.NextToggleTime <= currentBuzzerUpdate){
  31:buzzer.c      ****     buzzer.IsOn = ON;
  32:buzzer.c      ****     if(buzzer.SequencePtr[buzzer.Pos] != 0) toggleBuzzer(ON);
  33:buzzer.c      ****     calculateBuzzer(currentBuzzerUpdate);
  34:buzzer.c      ****   };
  35:buzzer.c      **** 
  36:buzzer.c      ****   if(buzzer.IsOn && buzzer.NextToggleTime <= currentBuzzerUpdate){
  37:buzzer.c      ****     buzzer.IsOn = OFF;
  38:buzzer.c      ****     if(buzzer.SequencePtr[buzzer.Pos] != 0) toggleBuzzer(OFF);
  39:buzzer.c      ****     calculateBuzzer(currentBuzzerUpdate);
  40:buzzer.c      ****   };
  41:buzzer.c      **** 
  42:buzzer.c      **** };
  43:buzzer.c      **** 
  44:buzzer.c      **** void calculateBuzzer(uint32_t callingTime){
  45:buzzer.c      ****   if(buzzer.SequencePtr[buzzer.Pos] == 0xFF)
ARM GAS  /var/folders/_2/qbh2zpt918qcm2b_6mgyydnm0000gn/T//ccliMEBq.s 			page 4


  46:buzzer.c      ****   { //turn off 
  47:buzzer.c      ****     buzzer.IsOn = OFF;
  48:buzzer.c      ****     buzzer.Mode = INACTIVE;
  49:buzzer.c      ****     buzzer.SequencePtr = NULL;
  50:buzzer.c      ****     toggleBuzzer(OFF);
  51:buzzer.c      ****   } else 
  52:buzzer.c      ****     {
  53:buzzer.c      ****     buzzer.NextToggleTime = callingTime + 10 * 1000 * buzzer.SequencePtr[buzzer.Pos];
  54:buzzer.c      ****     buzzer.Pos ++;
  55:buzzer.c      ****     };
  56:buzzer.c      **** };
  57:buzzer.c      **** 
  58:buzzer.c      **** void toggleBuzzer(bool onoff){
 125              		.loc 1 58 30 is_stmt 1 view -0
 126              		.cfi_startproc
 127              		@ args = 0, pretend = 0, frame = 0
 128              		@ frame_needed = 0, uses_anonymous_args = 0
 129              		@ link register save eliminated.
  59:buzzer.c      ****   systemBeepPtr(onoff); //->beeperSpRaching 
 130              		.loc 1 59 3 view .LVU10
 131 0010 014B     		ldr	r3, .L5	@ tmp112,
 132 0012 1B68     		ldr	r3, [r3]	@ systemBeepPtr, systemBeepPtr
 133 0014 1847     		bx	r3	@ indirect register sibling call	@ systemBeepPtr
 134              	.LVL2:
 135              	.L6:
 136              		.loc 1 59 3 is_stmt 0 view .LVU11
 137 0016 00BF     		.align	2
 138              	.L5:
 139 0018 00000000 		.word	systemBeepPtr
 140              		.cfi_endproc
 141              	.LFE129:
 142              		.size	toggleBuzzer, .-toggleBuzzer
 143              		.align	1
 144              		.global	calculateBuzzer
 145              		.syntax unified
 146              		.thumb
 147              		.thumb_func
 148              		.fpu softvfp
 149              		.type	calculateBuzzer, %function
 150              	calculateBuzzer:
 151              	.LVL3:
 152              	.LFB128:
  44:buzzer.c      ****   if(buzzer.SequencePtr[buzzer.Pos] == 0xFF)
 153              		.loc 1 44 43 is_stmt 1 view -0
 154              		.cfi_startproc
 155              		@ args = 0, pretend = 0, frame = 0
 156              		@ frame_needed = 0, uses_anonymous_args = 0
 157              		@ link register save eliminated.
  45:buzzer.c      ****   { //turn off 
 158              		.loc 1 45 3 view .LVU13
 159              	@ buzzer.c:44: void calculateBuzzer(uint32_t callingTime){
  44:buzzer.c      ****   if(buzzer.SequencePtr[buzzer.Pos] == 0xFF)
 160              		.loc 1 44 43 is_stmt 0 view .LVU14
 161 001c 10B4     		push	{r4}	@
 162              	.LCFI0:
 163              		.cfi_def_cfa_offset 4
 164              		.cfi_offset 4, -4
ARM GAS  /var/folders/_2/qbh2zpt918qcm2b_6mgyydnm0000gn/T//ccliMEBq.s 			page 5


 165              	@ buzzer.c:45:   if(buzzer.SequencePtr[buzzer.Pos] == 0xFF)
  45:buzzer.c      ****   { //turn off 
 166              		.loc 1 45 31 view .LVU15
 167 001e 0B4B     		ldr	r3, .L9	@ tmp121,
 168 0020 5A79     		ldrb	r2, [r3, #5]	@ zero_extendqisi2	@ _2, buzzer.Pos
 169              	@ buzzer.c:45:   if(buzzer.SequencePtr[buzzer.Pos] == 0xFF)
  45:buzzer.c      ****   { //turn off 
 170              		.loc 1 45 24 view .LVU16
 171 0022 1968     		ldr	r1, [r3]	@ buzzer.SequencePtr, buzzer.SequencePtr
 172 0024 895C     		ldrb	r1, [r1, r2]	@ zero_extendqisi2	@ _5, *_4
 173              	@ buzzer.c:45:   if(buzzer.SequencePtr[buzzer.Pos] == 0xFF)
  45:buzzer.c      ****   { //turn off 
 174              		.loc 1 45 5 view .LVU17
 175 0026 FF29     		cmp	r1, #255	@ _5,
 176 0028 06D1     		bne	.L8		@,
 177              	.LBB4:
 178              	.LBI4:
  44:buzzer.c      ****   if(buzzer.SequencePtr[buzzer.Pos] == 0xFF)
 179              		.loc 1 44 6 is_stmt 1 view .LVU18
 180              	.LVL4:
 181              	.LBB5:
  47:buzzer.c      ****     buzzer.Mode = INACTIVE;
 182              		.loc 1 47 5 view .LVU19
 183              	@ buzzer.c:47:     buzzer.IsOn = OFF;
  47:buzzer.c      ****     buzzer.Mode = INACTIVE;
 184              		.loc 1 47 17 is_stmt 0 view .LVU20
 185 002a 0020     		movs	r0, #0	@ tmp125,
 186              	.LVL5:
  47:buzzer.c      ****     buzzer.Mode = INACTIVE;
 187              		.loc 1 47 17 view .LVU21
 188 002c 9871     		strb	r0, [r3, #6]	@ tmp125, buzzer.IsOn
  48:buzzer.c      ****     buzzer.SequencePtr = NULL;
 189              		.loc 1 48 5 is_stmt 1 view .LVU22
 190              	@ buzzer.c:48:     buzzer.Mode = INACTIVE;
  48:buzzer.c      ****     buzzer.SequencePtr = NULL;
 191              		.loc 1 48 17 is_stmt 0 view .LVU23
 192 002e 1871     		strb	r0, [r3, #4]	@ tmp125, buzzer.Mode
  49:buzzer.c      ****     toggleBuzzer(OFF);
 193              		.loc 1 49 5 is_stmt 1 view .LVU24
 194              	.LBE5:
 195              	.LBE4:
 196              	@ buzzer.c:56: };
  56:buzzer.c      **** 
 197              		.loc 1 56 1 is_stmt 0 view .LVU25
 198 0030 10BC     		pop	{r4}		@
 199              	.LCFI1:
 200              		.cfi_remember_state
 201              		.cfi_restore 4
 202              		.cfi_def_cfa_offset 0
 203              	.LBB7:
 204              	.LBB6:
 205              	@ buzzer.c:49:     buzzer.SequencePtr = NULL;
  49:buzzer.c      ****     toggleBuzzer(OFF);
 206              		.loc 1 49 24 view .LVU26
 207 0032 1860     		str	r0, [r3]	@ tmp125, buzzer.SequencePtr
  50:buzzer.c      ****   } else 
 208              		.loc 1 50 5 is_stmt 1 view .LVU27
ARM GAS  /var/folders/_2/qbh2zpt918qcm2b_6mgyydnm0000gn/T//ccliMEBq.s 			page 6


 209 0034 FFF7FEBF 		b	toggleBuzzer		@
 210              	.LVL6:
 211              	.L8:
 212              	.LCFI2:
 213              		.cfi_restore_state
  50:buzzer.c      ****   } else 
 214              		.loc 1 50 5 is_stmt 0 view .LVU28
 215              	.LBE6:
 216              	.LBE7:
  53:buzzer.c      ****     buzzer.Pos ++;
 217              		.loc 1 53 5 is_stmt 1 view .LVU29
 218              	@ buzzer.c:53:     buzzer.NextToggleTime = callingTime + 10 * 1000 * buzzer.SequencePtr[buzzer.Pos]
  53:buzzer.c      ****     buzzer.Pos ++;
 219              		.loc 1 53 41 is_stmt 0 view .LVU30
 220 0038 42F21074 		movw	r4, #10000	@ tmp134,
 221              	@ buzzer.c:54:     buzzer.Pos ++;
  54:buzzer.c      ****     };
 222              		.loc 1 54 16 view .LVU31
 223 003c 0132     		adds	r2, r2, #1	@ tmp137, _2,
 224              	@ buzzer.c:53:     buzzer.NextToggleTime = callingTime + 10 * 1000 * buzzer.SequencePtr[buzzer.Pos]
  53:buzzer.c      ****     buzzer.Pos ++;
 225              		.loc 1 53 41 view .LVU32
 226 003e 04FB0101 		mla	r1, r4, r1, r0	@ tmp135, tmp134, _5, callingTime
 227              	@ buzzer.c:54:     buzzer.Pos ++;
  54:buzzer.c      ****     };
 228              		.loc 1 54 16 view .LVU33
 229 0042 5A71     		strb	r2, [r3, #5]	@ tmp137, buzzer.Pos
 230              	@ buzzer.c:56: };
  56:buzzer.c      **** 
 231              		.loc 1 56 1 view .LVU34
 232 0044 10BC     		pop	{r4}		@
 233              	.LCFI3:
 234              		.cfi_restore 4
 235              		.cfi_def_cfa_offset 0
 236              	@ buzzer.c:53:     buzzer.NextToggleTime = callingTime + 10 * 1000 * buzzer.SequencePtr[buzzer.Pos]
  53:buzzer.c      ****     buzzer.Pos ++;
 237              		.loc 1 53 27 view .LVU35
 238 0046 9960     		str	r1, [r3, #8]	@ tmp135, buzzer.NextToggleTime
  54:buzzer.c      ****     };
 239              		.loc 1 54 5 is_stmt 1 view .LVU36
  55:buzzer.c      **** };
 240              		.loc 1 55 6 view .LVU37
 241              	@ buzzer.c:56: };
  56:buzzer.c      **** 
 242              		.loc 1 56 1 is_stmt 0 view .LVU38
 243 0048 7047     		bx	lr	@
 244              	.L10:
 245 004a 00BF     		.align	2
 246              	.L9:
 247 004c 00000000 		.word	buzzer
 248              		.cfi_endproc
 249              	.LFE128:
 250              		.size	calculateBuzzer, .-calculateBuzzer
 251              		.align	1
 252              		.global	subtaskUpdateBuzzer
 253              		.syntax unified
 254              		.thumb
ARM GAS  /var/folders/_2/qbh2zpt918qcm2b_6mgyydnm0000gn/T//ccliMEBq.s 			page 7


 255              		.thumb_func
 256              		.fpu softvfp
 257              		.type	subtaskUpdateBuzzer, %function
 258              	subtaskUpdateBuzzer:
 259              	.LVL7:
 260              	.LFB127:
  25:buzzer.c      ****   //If the buzzer has nothing to do the return
 261              		.loc 1 25 55 is_stmt 1 view -0
 262              		.cfi_startproc
 263              		@ args = 0, pretend = 0, frame = 0
 264              		@ frame_needed = 0, uses_anonymous_args = 0
  27:buzzer.c      ****   
 265              		.loc 1 27 3 view .LVU40
 266              	@ buzzer.c:25: void subtaskUpdateBuzzer(uint32_t currentBuzzerUpdate){
  25:buzzer.c      ****   //If the buzzer has nothing to do the return
 267              		.loc 1 25 55 is_stmt 0 view .LVU41
 268 0050 38B5     		push	{r3, r4, r5, lr}	@
 269              	.LCFI4:
 270              		.cfi_def_cfa_offset 16
 271              		.cfi_offset 3, -16
 272              		.cfi_offset 4, -12
 273              		.cfi_offset 5, -8
 274              		.cfi_offset 14, -4
 275              	@ buzzer.c:27:   if(buzzer.Mode == INACTIVE || buzzer.SequencePtr == NULL) return;
  27:buzzer.c      ****   
 276              		.loc 1 27 12 view .LVU42
 277 0052 154C     		ldr	r4, .L29	@ tmp126,
 278              	@ buzzer.c:27:   if(buzzer.Mode == INACTIVE || buzzer.SequencePtr == NULL) return;
  27:buzzer.c      ****   
 279              		.loc 1 27 5 view .LVU43
 280 0054 2379     		ldrb	r3, [r4, #4]	@ zero_extendqisi2	@ buzzer.Mode, buzzer.Mode
 281              	@ buzzer.c:25: void subtaskUpdateBuzzer(uint32_t currentBuzzerUpdate){
  25:buzzer.c      ****   //If the buzzer has nothing to do the return
 282              		.loc 1 25 55 view .LVU44
 283 0056 0546     		mov	r5, r0	@ currentBuzzerUpdate, tmp152
 284              	@ buzzer.c:27:   if(buzzer.Mode == INACTIVE || buzzer.SequencePtr == NULL) return;
  27:buzzer.c      ****   
 285              		.loc 1 27 5 view .LVU45
 286 0058 33B1     		cbz	r3, .L11	@ buzzer.Mode,
 287              	@ buzzer.c:27:   if(buzzer.Mode == INACTIVE || buzzer.SequencePtr == NULL) return;
  27:buzzer.c      ****   
 288              		.loc 1 27 39 discriminator 2 view .LVU46
 289 005a 2368     		ldr	r3, [r4]	@ _2, buzzer.SequencePtr
 290              	@ buzzer.c:27:   if(buzzer.Mode == INACTIVE || buzzer.SequencePtr == NULL) return;
  27:buzzer.c      ****   
 291              		.loc 1 27 30 discriminator 2 view .LVU47
 292 005c 23B1     		cbz	r3, .L11	@ _2,
  30:buzzer.c      ****     buzzer.IsOn = ON;
 293              		.loc 1 30 3 is_stmt 1 view .LVU48
 294              	@ buzzer.c:30:   if(!buzzer.IsOn && buzzer.NextToggleTime <= currentBuzzerUpdate){
  30:buzzer.c      ****     buzzer.IsOn = ON;
 295              		.loc 1 30 5 is_stmt 0 view .LVU49
 296 005e A279     		ldrb	r2, [r4, #6]	@ zero_extendqisi2	@ buzzer.IsOn, buzzer.IsOn
 297 0060 1AB1     		cbz	r2, .L15	@ buzzer.IsOn,
 298              	.LVL8:
 299              	.L18:
 300              	@ buzzer.c:36:   if(buzzer.IsOn && buzzer.NextToggleTime <= currentBuzzerUpdate){
ARM GAS  /var/folders/_2/qbh2zpt918qcm2b_6mgyydnm0000gn/T//ccliMEBq.s 			page 8


  36:buzzer.c      ****     buzzer.IsOn = OFF;
 301              		.loc 1 36 18 view .LVU50
 302 0062 A368     		ldr	r3, [r4, #8]	@ buzzer.NextToggleTime, buzzer.NextToggleTime
 303 0064 AB42     		cmp	r3, r5	@ buzzer.NextToggleTime, currentBuzzerUpdate
 304 0066 11D9     		bls	.L16		@,
 305              	.L11:
 306              	@ buzzer.c:42: };
  42:buzzer.c      **** 
 307              		.loc 1 42 1 view .LVU51
 308 0068 38BD     		pop	{r3, r4, r5, pc}	@
 309              	.LVL9:
 310              	.L15:
 311              	@ buzzer.c:30:   if(!buzzer.IsOn && buzzer.NextToggleTime <= currentBuzzerUpdate){
  30:buzzer.c      ****     buzzer.IsOn = ON;
 312              		.loc 1 30 19 discriminator 1 view .LVU52
 313 006a A268     		ldr	r2, [r4, #8]	@ buzzer.NextToggleTime, buzzer.NextToggleTime
 314 006c 9042     		cmp	r0, r2	@ currentBuzzerUpdate, buzzer.NextToggleTime
 315 006e FBD3     		bcc	.L11		@,
  31:buzzer.c      ****     if(buzzer.SequencePtr[buzzer.Pos] != 0) toggleBuzzer(ON);
 316              		.loc 1 31 5 is_stmt 1 view .LVU53
 317              	@ buzzer.c:32:     if(buzzer.SequencePtr[buzzer.Pos] != 0) toggleBuzzer(ON);
  32:buzzer.c      ****     calculateBuzzer(currentBuzzerUpdate);
 318              		.loc 1 32 33 is_stmt 0 view .LVU54
 319 0070 6279     		ldrb	r2, [r4, #5]	@ zero_extendqisi2	@ buzzer.Pos, buzzer.Pos
 320              	@ buzzer.c:31:     buzzer.IsOn = ON;
  31:buzzer.c      ****     if(buzzer.SequencePtr[buzzer.Pos] != 0) toggleBuzzer(ON);
 321              		.loc 1 31 17 view .LVU55
 322 0072 0120     		movs	r0, #1	@ tmp136,
 323              	.LVL10:
  31:buzzer.c      ****     if(buzzer.SequencePtr[buzzer.Pos] != 0) toggleBuzzer(ON);
 324              		.loc 1 31 17 view .LVU56
 325 0074 A071     		strb	r0, [r4, #6]	@ tmp136, buzzer.IsOn
  32:buzzer.c      ****     calculateBuzzer(currentBuzzerUpdate);
 326              		.loc 1 32 5 is_stmt 1 view .LVU57
 327              	@ buzzer.c:32:     if(buzzer.SequencePtr[buzzer.Pos] != 0) toggleBuzzer(ON);
  32:buzzer.c      ****     calculateBuzzer(currentBuzzerUpdate);
 328              		.loc 1 32 7 is_stmt 0 view .LVU58
 329 0076 9B5C     		ldrb	r3, [r3, r2]	@ zero_extendqisi2	@ *_7, *_7
 330 0078 0BB1     		cbz	r3, .L17	@ *_7,
  32:buzzer.c      ****     calculateBuzzer(currentBuzzerUpdate);
 331              		.loc 1 32 45 is_stmt 1 discriminator 1 view .LVU59
 332 007a FFF7FEFF 		bl	toggleBuzzer		@
 333              	.LVL11:
 334              	.L17:
  33:buzzer.c      ****   };
 335              		.loc 1 33 5 view .LVU60
 336 007e 2846     		mov	r0, r5	@, currentBuzzerUpdate
 337 0080 FFF7FEFF 		bl	calculateBuzzer		@
 338              	.LVL12:
  34:buzzer.c      **** 
 339              		.loc 1 34 4 view .LVU61
  36:buzzer.c      ****     buzzer.IsOn = OFF;
 340              		.loc 1 36 3 view .LVU62
 341              	@ buzzer.c:36:   if(buzzer.IsOn && buzzer.NextToggleTime <= currentBuzzerUpdate){
  36:buzzer.c      ****     buzzer.IsOn = OFF;
 342              		.loc 1 36 5 is_stmt 0 view .LVU63
 343 0084 A379     		ldrb	r3, [r4, #6]	@ zero_extendqisi2	@ buzzer.IsOn, buzzer.IsOn
ARM GAS  /var/folders/_2/qbh2zpt918qcm2b_6mgyydnm0000gn/T//ccliMEBq.s 			page 9


 344 0086 002B     		cmp	r3, #0	@ buzzer.IsOn
 345 0088 EED0     		beq	.L11	@
 346 008a EAE7     		b	.L18		@
 347              	.L16:
  37:buzzer.c      ****     if(buzzer.SequencePtr[buzzer.Pos] != 0) toggleBuzzer(OFF);
 348              		.loc 1 37 5 is_stmt 1 view .LVU64
 349              	@ buzzer.c:38:     if(buzzer.SequencePtr[buzzer.Pos] != 0) toggleBuzzer(OFF);
  38:buzzer.c      ****     calculateBuzzer(currentBuzzerUpdate);
 350              		.loc 1 38 33 is_stmt 0 view .LVU65
 351 008c 6379     		ldrb	r3, [r4, #5]	@ zero_extendqisi2	@ buzzer.Pos, buzzer.Pos
 352              	@ buzzer.c:38:     if(buzzer.SequencePtr[buzzer.Pos] != 0) toggleBuzzer(OFF);
  38:buzzer.c      ****     calculateBuzzer(currentBuzzerUpdate);
 353              		.loc 1 38 26 view .LVU66
 354 008e 2268     		ldr	r2, [r4]	@ buzzer.SequencePtr, buzzer.SequencePtr
 355              	@ buzzer.c:37:     buzzer.IsOn = OFF;
  37:buzzer.c      ****     if(buzzer.SequencePtr[buzzer.Pos] != 0) toggleBuzzer(OFF);
 356              		.loc 1 37 17 view .LVU67
 357 0090 0020     		movs	r0, #0	@ tmp144,
 358 0092 A071     		strb	r0, [r4, #6]	@ tmp144, buzzer.IsOn
  38:buzzer.c      ****     calculateBuzzer(currentBuzzerUpdate);
 359              		.loc 1 38 5 is_stmt 1 view .LVU68
 360              	@ buzzer.c:38:     if(buzzer.SequencePtr[buzzer.Pos] != 0) toggleBuzzer(OFF);
  38:buzzer.c      ****     calculateBuzzer(currentBuzzerUpdate);
 361              		.loc 1 38 7 is_stmt 0 view .LVU69
 362 0094 D35C     		ldrb	r3, [r2, r3]	@ zero_extendqisi2	@ *_14, *_14
 363 0096 0BB1     		cbz	r3, .L19	@ *_14,
  38:buzzer.c      ****     calculateBuzzer(currentBuzzerUpdate);
 364              		.loc 1 38 45 is_stmt 1 discriminator 1 view .LVU70
 365 0098 FFF7FEFF 		bl	toggleBuzzer		@
 366              	.LVL13:
 367              	.L19:
  39:buzzer.c      ****   };
 368              		.loc 1 39 5 view .LVU71
 369 009c 2846     		mov	r0, r5	@, currentBuzzerUpdate
 370              	@ buzzer.c:42: };
  42:buzzer.c      **** 
 371              		.loc 1 42 1 is_stmt 0 view .LVU72
 372 009e BDE83840 		pop	{r3, r4, r5, lr}	@
 373              	.LCFI5:
 374              		.cfi_restore 14
 375              		.cfi_restore 5
 376              		.cfi_restore 4
 377              		.cfi_restore 3
 378              		.cfi_def_cfa_offset 0
 379              	.LVL14:
 380              	@ buzzer.c:39:     calculateBuzzer(currentBuzzerUpdate);
  39:buzzer.c      ****   };
 381              		.loc 1 39 5 view .LVU73
 382 00a2 FFF7FEBF 		b	calculateBuzzer		@
 383              	.LVL15:
 384              	.L30:
  39:buzzer.c      ****   };
 385              		.loc 1 39 5 view .LVU74
 386 00a6 00BF     		.align	2
 387              	.L29:
 388 00a8 00000000 		.word	buzzer
 389              		.cfi_endproc
ARM GAS  /var/folders/_2/qbh2zpt918qcm2b_6mgyydnm0000gn/T//ccliMEBq.s 			page 10


 390              	.LFE127:
 391              		.size	subtaskUpdateBuzzer, .-subtaskUpdateBuzzer
 392              		.align	1
 393              		.global	beeperSpRacing
 394              		.syntax unified
 395              		.thumb
 396              		.thumb_func
 397              		.fpu softvfp
 398              		.type	beeperSpRacing, %function
 399              	beeperSpRacing:
 400              	.LVL16:
 401              	.LFB130:
  60:buzzer.c      **** };
  61:buzzer.c      **** 
  62:buzzer.c      **** void beeperSpRacing(bool onoff){
 402              		.loc 1 62 32 is_stmt 1 view -0
 403              		.cfi_startproc
 404              		@ args = 0, pretend = 0, frame = 0
 405              		@ frame_needed = 0, uses_anonymous_args = 0
 406              		@ link register save eliminated.
  63:buzzer.c      ****   if(onoff){
 407              		.loc 1 63 3 view .LVU76
 408              	@ buzzer.c:63:   if(onoff){
 409              		.loc 1 63 5 is_stmt 0 view .LVU77
 410 00ac 0246     		mov	r2, r0	@ onoff, tmp113
 411 00ae 00B1     		cbz	r0, .L32	@ onoff,
  64:buzzer.c      ****     GPIO_WriteBit(GPIOC, GPIO_Pin_15, Bit_SET); 
 412              		.loc 1 64 5 is_stmt 1 view .LVU78
 413 00b0 0122     		movs	r2, #1	@,
 414              	.L32:
  65:buzzer.c      ****   } else {
  66:buzzer.c      ****     GPIO_WriteBit(GPIOC, GPIO_Pin_15, Bit_RESET);  
 415              		.loc 1 66 5 view .LVU79
 416 00b2 0248     		ldr	r0, .L33	@,
 417              	.LVL17:
 418              		.loc 1 66 5 is_stmt 0 view .LVU80
 419 00b4 4FF40041 		mov	r1, #32768	@,
 420 00b8 FFF7FEBF 		b	GPIO_WriteBit		@
 421              	.LVL18:
 422              	.L34:
 423              		.align	2
 424              	.L33:
 425 00bc 00080048 		.word	1207961600
 426              		.cfi_endproc
 427              	.LFE130:
 428              		.size	beeperSpRacing, .-beeperSpRacing
 429              		.global	buzz_readyBeep
 430              		.global	buzz_disArmBeep
 431              		.global	buzz_gyroCalibrated
 432              		.global	buzz_shortBeep
 433              		.comm	buzzer,12,4
 434              		.comm	systemBeepPtr,4,4
 435              		.section	.rodata
 436              		.type	buzz_readyBeep, %object
 437              		.size	buzz_readyBeep, 15
 438              	buzz_readyBeep:
 439 0000 04050405 		.ascii	"\004\005\004\005\010\005\017\005\010\005\004\005\004"
ARM GAS  /var/folders/_2/qbh2zpt918qcm2b_6mgyydnm0000gn/T//ccliMEBq.s 			page 11


 439      08050F05 
 439      08050405 
 439      04
 440 000d 05FF     		.ascii	"\005\377"
 441              		.type	buzz_disArmBeep, %object
 442              		.size	buzz_disArmBeep, 8
 443              	buzz_disArmBeep:
 444 000f 05050F05 		.ascii	"\005\005\017\005\005\017\036\377"
 444      050F1EFF 
 445              		.type	buzz_gyroCalibrated, %object
 446              		.size	buzz_gyroCalibrated, 9
 447              	buzz_gyroCalibrated:
 448 0017 050F050F 		.ascii	"\005\017\005\017\005\017\024\017\377"
 448      050F140F 
 448      FF
 449              		.type	buzz_shortBeep, %object
 450              		.size	buzz_shortBeep, 3
 451              	buzz_shortBeep:
 452 0020 0A0AFF   		.ascii	"\012\012\377"
 453              		.text
 454              	.Letext0:
 455              		.file 2 "/usr/local/Cellar/arm-none-eabi-gcc/9-2019-q4-major/gcc/arm-none-eabi/include/machine/_de
 456              		.file 3 "/usr/local/Cellar/arm-none-eabi-gcc/9-2019-q4-major/gcc/arm-none-eabi/include/sys/_stdint
 457              		.file 4 "/Users/rdaneel/Binary/Roaming/C-Code/StmProjects/stm32f3x/lib/STM32F30x_DSP_StdPeriph_Lib
 458              		.file 5 "/Users/rdaneel/Binary/Roaming/C-Code/StmProjects/stm32f3x/lib/STM32F30x_DSP_StdPeriph_Lib
 459              		.file 6 "/Users/rdaneel/Binary/Roaming/C-Code/StmProjects/stm32f3x/lib/STM32F30x_DSP_StdPeriph_Lib
 460              		.file 7 "/usr/local/Cellar/arm-none-eabi-gcc/9-2019-q4-major/gcc/arm-none-eabi/include/sys/lock.h"
 461              		.file 8 "/usr/local/Cellar/arm-none-eabi-gcc/9-2019-q4-major/gcc/arm-none-eabi/include/sys/_types.
 462              		.file 9 "/usr/local/Cellar/arm-none-eabi-gcc/9-2019-q4-major/gcc/lib/gcc/arm-none-eabi/9.2.1/inclu
 463              		.file 10 "/usr/local/Cellar/arm-none-eabi-gcc/9-2019-q4-major/gcc/arm-none-eabi/include/sys/reent.
 464              		.file 11 "/usr/local/Cellar/arm-none-eabi-gcc/9-2019-q4-major/gcc/arm-none-eabi/include/stdlib.h"
 465              		.file 12 "buzzer.h"
 466              		.file 13 "/Users/rdaneel/Binary/Roaming/C-Code/StmProjects/stm32f3x/lib/STM32F30x_DSP_StdPeriph_Li
 467              		.section	.debug_info,"",%progbits
 468              	.Ldebug_info0:
 469 0000 860E0000 		.4byte	0xe86
 470 0004 0200     		.2byte	0x2
 471 0006 00000000 		.4byte	.Ldebug_abbrev0
 472 000a 04       		.byte	0x4
 473 000b 01       		.uleb128 0x1
 474 000c 83050000 		.4byte	.LASF163
 475 0010 0C       		.byte	0xc
 476 0011 05070000 		.4byte	.LASF164
 477 0015 4B030000 		.4byte	.LASF165
 478 0019 00000000 		.4byte	.Ltext0
 479 001d C0000000 		.4byte	.Letext0
 480 0021 00000000 		.4byte	.Ldebug_line0
 481 0025 02       		.uleb128 0x2
 482 0026 01       		.byte	0x1
 483 0027 06       		.byte	0x6
 484 0028 F7000000 		.4byte	.LASF0
 485 002c 03       		.uleb128 0x3
 486 002d 3C000000 		.4byte	.LASF3
 487 0031 02       		.byte	0x2
 488 0032 2B       		.byte	0x2b
 489 0033 18       		.byte	0x18
 490 0034 38000000 		.4byte	0x38
ARM GAS  /var/folders/_2/qbh2zpt918qcm2b_6mgyydnm0000gn/T//ccliMEBq.s 			page 12


 491 0038 02       		.uleb128 0x2
 492 0039 01       		.byte	0x1
 493 003a 08       		.byte	0x8
 494 003b 2B040000 		.4byte	.LASF1
 495 003f 02       		.uleb128 0x2
 496 0040 02       		.byte	0x2
 497 0041 05       		.byte	0x5
 498 0042 0C000000 		.4byte	.LASF2
 499 0046 03       		.uleb128 0x3
 500 0047 52050000 		.4byte	.LASF4
 501 004b 02       		.byte	0x2
 502 004c 39       		.byte	0x39
 503 004d 19       		.byte	0x19
 504 004e 52000000 		.4byte	0x52
 505 0052 02       		.uleb128 0x2
 506 0053 02       		.byte	0x2
 507 0054 07       		.byte	0x7
 508 0055 26060000 		.4byte	.LASF5
 509 0059 03       		.uleb128 0x3
 510 005a 5D050000 		.4byte	.LASF6
 511 005e 02       		.byte	0x2
 512 005f 4D       		.byte	0x4d
 513 0060 18       		.byte	0x18
 514 0061 65000000 		.4byte	0x65
 515 0065 02       		.uleb128 0x2
 516 0066 04       		.byte	0x4
 517 0067 05       		.byte	0x5
 518 0068 41010000 		.4byte	.LASF7
 519 006c 03       		.uleb128 0x3
 520 006d C0010000 		.4byte	.LASF8
 521 0071 02       		.byte	0x2
 522 0072 4F       		.byte	0x4f
 523 0073 19       		.byte	0x19
 524 0074 78000000 		.4byte	0x78
 525 0078 02       		.uleb128 0x2
 526 0079 04       		.byte	0x4
 527 007a 07       		.byte	0x7
 528 007b 53020000 		.4byte	.LASF9
 529 007f 02       		.uleb128 0x2
 530 0080 08       		.byte	0x8
 531 0081 05       		.byte	0x5
 532 0082 6A010000 		.4byte	.LASF10
 533 0086 02       		.uleb128 0x2
 534 0087 08       		.byte	0x8
 535 0088 07       		.byte	0x7
 536 0089 7C000000 		.4byte	.LASF11
 537 008d 04       		.uleb128 0x4
 538 008e 04       		.byte	0x4
 539 008f 05       		.byte	0x5
 540 0090 696E7400 		.ascii	"int\000"
 541 0094 02       		.uleb128 0x2
 542 0095 04       		.byte	0x4
 543 0096 07       		.byte	0x7
 544 0097 40050000 		.4byte	.LASF12
 545 009b 03       		.uleb128 0x3
 546 009c 90060000 		.4byte	.LASF13
 547 00a0 03       		.byte	0x3
ARM GAS  /var/folders/_2/qbh2zpt918qcm2b_6mgyydnm0000gn/T//ccliMEBq.s 			page 13


 548 00a1 18       		.byte	0x18
 549 00a2 13       		.byte	0x13
 550 00a3 2C000000 		.4byte	0x2c
 551 00a7 05       		.uleb128 0x5
 552 00a8 9B000000 		.4byte	0x9b
 553 00ac 03       		.uleb128 0x3
 554 00ad 78010000 		.4byte	.LASF14
 555 00b1 03       		.byte	0x3
 556 00b2 24       		.byte	0x24
 557 00b3 14       		.byte	0x14
 558 00b4 46000000 		.4byte	0x46
 559 00b8 06       		.uleb128 0x6
 560 00b9 AC000000 		.4byte	0xac
 561 00bd 03       		.uleb128 0x3
 562 00be 23040000 		.4byte	.LASF15
 563 00c2 03       		.byte	0x3
 564 00c3 2C       		.byte	0x2c
 565 00c4 13       		.byte	0x13
 566 00c5 59000000 		.4byte	0x59
 567 00c9 06       		.uleb128 0x6
 568 00ca BD000000 		.4byte	0xbd
 569 00ce 03       		.uleb128 0x3
 570 00cf 66060000 		.4byte	.LASF16
 571 00d3 03       		.byte	0x3
 572 00d4 30       		.byte	0x30
 573 00d5 14       		.byte	0x14
 574 00d6 6C000000 		.4byte	0x6c
 575 00da 06       		.uleb128 0x6
 576 00db CE000000 		.4byte	0xce
 577 00df 07       		.uleb128 0x7
 578 00e0 B6000000 		.4byte	.LASF17
 579 00e4 04       		.byte	0x4
 580 00e5 C206     		.2byte	0x6c2
 581 00e7 19       		.byte	0x19
 582 00e8 C9000000 		.4byte	0xc9
 583 00ec 01       		.byte	0x1
 584 00ed 01       		.byte	0x1
 585 00ee 08       		.uleb128 0x8
 586 00ef 33020000 		.4byte	.LASF18
 587 00f3 05       		.byte	0x5
 588 00f4 2F       		.byte	0x2f
 589 00f5 11       		.byte	0x11
 590 00f6 CE000000 		.4byte	0xce
 591 00fa 01       		.byte	0x1
 592 00fb 01       		.byte	0x1
 593 00fc 09       		.uleb128 0x9
 594 00fd 2C       		.byte	0x2c
 595 00fe 06       		.byte	0x6
 596 00ff 2E03     		.2byte	0x32e
 597 0101 09       		.byte	0x9
 598 0102 E7010000 		.4byte	0x1e7
 599 0106 0A       		.uleb128 0xa
 600 0107 76000000 		.4byte	.LASF19
 601 010b 06       		.byte	0x6
 602 010c 3003     		.2byte	0x330
 603 010e 11       		.byte	0x11
 604 010f DA000000 		.4byte	0xda
ARM GAS  /var/folders/_2/qbh2zpt918qcm2b_6mgyydnm0000gn/T//ccliMEBq.s 			page 14


 605 0113 02       		.byte	0x2
 606 0114 23       		.byte	0x23
 607 0115 00       		.uleb128 0
 608 0116 0A       		.uleb128 0xa
 609 0117 46000000 		.4byte	.LASF20
 610 011b 06       		.byte	0x6
 611 011c 3103     		.2byte	0x331
 612 011e 11       		.byte	0x11
 613 011f B8000000 		.4byte	0xb8
 614 0123 02       		.byte	0x2
 615 0124 23       		.byte	0x23
 616 0125 04       		.uleb128 0x4
 617 0126 0A       		.uleb128 0xa
 618 0127 E0030000 		.4byte	.LASF21
 619 012b 06       		.byte	0x6
 620 012c 3203     		.2byte	0x332
 621 012e 0C       		.byte	0xc
 622 012f AC000000 		.4byte	0xac
 623 0133 02       		.byte	0x2
 624 0134 23       		.byte	0x23
 625 0135 06       		.uleb128 0x6
 626 0136 0A       		.uleb128 0xa
 627 0137 B8010000 		.4byte	.LASF22
 628 013b 06       		.byte	0x6
 629 013c 3303     		.2byte	0x333
 630 013e 11       		.byte	0x11
 631 013f DA000000 		.4byte	0xda
 632 0143 02       		.byte	0x2
 633 0144 23       		.byte	0x23
 634 0145 08       		.uleb128 0x8
 635 0146 0A       		.uleb128 0xa
 636 0147 16000000 		.4byte	.LASF23
 637 014b 06       		.byte	0x6
 638 014c 3403     		.2byte	0x334
 639 014e 11       		.byte	0x11
 640 014f DA000000 		.4byte	0xda
 641 0153 02       		.byte	0x2
 642 0154 23       		.byte	0x23
 643 0155 0C       		.uleb128 0xc
 644 0156 0B       		.uleb128 0xb
 645 0157 49445200 		.ascii	"IDR\000"
 646 015b 06       		.byte	0x6
 647 015c 3503     		.2byte	0x335
 648 015e 11       		.byte	0x11
 649 015f B8000000 		.4byte	0xb8
 650 0163 02       		.byte	0x2
 651 0164 23       		.byte	0x23
 652 0165 10       		.uleb128 0x10
 653 0166 0A       		.uleb128 0xa
 654 0167 EA030000 		.4byte	.LASF24
 655 016b 06       		.byte	0x6
 656 016c 3603     		.2byte	0x336
 657 016e 0C       		.byte	0xc
 658 016f AC000000 		.4byte	0xac
 659 0173 02       		.byte	0x2
 660 0174 23       		.byte	0x23
 661 0175 12       		.uleb128 0x12
ARM GAS  /var/folders/_2/qbh2zpt918qcm2b_6mgyydnm0000gn/T//ccliMEBq.s 			page 15


 662 0176 0B       		.uleb128 0xb
 663 0177 4F445200 		.ascii	"ODR\000"
 664 017b 06       		.byte	0x6
 665 017c 3703     		.2byte	0x337
 666 017e 11       		.byte	0x11
 667 017f B8000000 		.4byte	0xb8
 668 0183 02       		.byte	0x2
 669 0184 23       		.byte	0x23
 670 0185 14       		.uleb128 0x14
 671 0186 0A       		.uleb128 0xa
 672 0187 F4030000 		.4byte	.LASF25
 673 018b 06       		.byte	0x6
 674 018c 3803     		.2byte	0x338
 675 018e 0C       		.byte	0xc
 676 018f AC000000 		.4byte	0xac
 677 0193 02       		.byte	0x2
 678 0194 23       		.byte	0x23
 679 0195 16       		.uleb128 0x16
 680 0196 0A       		.uleb128 0xa
 681 0197 03010000 		.4byte	.LASF26
 682 019b 06       		.byte	0x6
 683 019c 3903     		.2byte	0x339
 684 019e 11       		.byte	0x11
 685 019f DA000000 		.4byte	0xda
 686 01a3 02       		.byte	0x2
 687 01a4 23       		.byte	0x23
 688 01a5 18       		.uleb128 0x18
 689 01a6 0A       		.uleb128 0xa
 690 01a7 1C000000 		.4byte	.LASF27
 691 01ab 06       		.byte	0x6
 692 01ac 3A03     		.2byte	0x33a
 693 01ae 11       		.byte	0x11
 694 01af DA000000 		.4byte	0xda
 695 01b3 02       		.byte	0x2
 696 01b4 23       		.byte	0x23
 697 01b5 1C       		.uleb128 0x1c
 698 01b6 0B       		.uleb128 0xb
 699 01b7 41465200 		.ascii	"AFR\000"
 700 01bb 06       		.byte	0x6
 701 01bc 3B03     		.2byte	0x33b
 702 01be 11       		.byte	0x11
 703 01bf F7010000 		.4byte	0x1f7
 704 01c3 02       		.byte	0x2
 705 01c4 23       		.byte	0x23
 706 01c5 20       		.uleb128 0x20
 707 01c6 0B       		.uleb128 0xb
 708 01c7 42525200 		.ascii	"BRR\000"
 709 01cb 06       		.byte	0x6
 710 01cc 3C03     		.2byte	0x33c
 711 01ce 11       		.byte	0x11
 712 01cf B8000000 		.4byte	0xb8
 713 01d3 02       		.byte	0x2
 714 01d4 23       		.byte	0x23
 715 01d5 28       		.uleb128 0x28
 716 01d6 0A       		.uleb128 0xa
 717 01d7 FE030000 		.4byte	.LASF28
 718 01db 06       		.byte	0x6
ARM GAS  /var/folders/_2/qbh2zpt918qcm2b_6mgyydnm0000gn/T//ccliMEBq.s 			page 16


 719 01dc 3D03     		.2byte	0x33d
 720 01de 0C       		.byte	0xc
 721 01df AC000000 		.4byte	0xac
 722 01e3 02       		.byte	0x2
 723 01e4 23       		.byte	0x23
 724 01e5 2A       		.uleb128 0x2a
 725 01e6 00       		.byte	0
 726 01e7 0C       		.uleb128 0xc
 727 01e8 DA000000 		.4byte	0xda
 728 01ec F7010000 		.4byte	0x1f7
 729 01f0 0D       		.uleb128 0xd
 730 01f1 94000000 		.4byte	0x94
 731 01f5 01       		.byte	0x1
 732 01f6 00       		.byte	0
 733 01f7 06       		.uleb128 0x6
 734 01f8 E7010000 		.4byte	0x1e7
 735 01fc 0E       		.uleb128 0xe
 736 01fd 65020000 		.4byte	.LASF29
 737 0201 06       		.byte	0x6
 738 0202 3E03     		.2byte	0x33e
 739 0204 02       		.byte	0x2
 740 0205 FC000000 		.4byte	0xfc
 741 0209 0F       		.uleb128 0xf
 742 020a 07       		.byte	0x7
 743 020b 01       		.byte	0x1
 744 020c 38000000 		.4byte	0x38
 745 0210 0D       		.byte	0xd
 746 0211 84       		.byte	0x84
 747 0212 01       		.byte	0x1
 748 0213 24020000 		.4byte	0x224
 749 0217 10       		.uleb128 0x10
 750 0218 85030000 		.4byte	.LASF30
 751 021c 00       		.byte	0
 752 021d 10       		.uleb128 0x10
 753 021e F5020000 		.4byte	.LASF31
 754 0222 01       		.byte	0x1
 755 0223 00       		.byte	0
 756 0224 02       		.uleb128 0x2
 757 0225 08       		.byte	0x8
 758 0226 04       		.byte	0x4
 759 0227 19050000 		.4byte	.LASF32
 760 022b 11       		.uleb128 0x11
 761 022c 04       		.byte	0x4
 762 022d 03       		.uleb128 0x3
 763 022e B7020000 		.4byte	.LASF33
 764 0232 07       		.byte	0x7
 765 0233 22       		.byte	0x22
 766 0234 19       		.byte	0x19
 767 0235 39020000 		.4byte	0x239
 768 0239 12       		.uleb128 0x12
 769 023a 04       		.byte	0x4
 770 023b 3F020000 		.4byte	0x23f
 771 023f 13       		.uleb128 0x13
 772 0240 F2040000 		.4byte	.LASF140
 773 0244 01       		.byte	0x1
 774 0245 03       		.uleb128 0x3
 775 0246 E9000000 		.4byte	.LASF34
ARM GAS  /var/folders/_2/qbh2zpt918qcm2b_6mgyydnm0000gn/T//ccliMEBq.s 			page 17


 776 024a 08       		.byte	0x8
 777 024b 2C       		.byte	0x2c
 778 024c 0E       		.byte	0xe
 779 024d 65000000 		.4byte	0x65
 780 0251 03       		.uleb128 0x3
 781 0252 11050000 		.4byte	.LASF35
 782 0256 08       		.byte	0x8
 783 0257 72       		.byte	0x72
 784 0258 0E       		.byte	0xe
 785 0259 65000000 		.4byte	0x65
 786 025d 0E       		.uleb128 0xe
 787 025e B3030000 		.4byte	.LASF36
 788 0262 09       		.byte	0x9
 789 0263 5E01     		.2byte	0x15e
 790 0265 17       		.byte	0x17
 791 0266 94000000 		.4byte	0x94
 792 026a 14       		.uleb128 0x14
 793 026b 04       		.byte	0x4
 794 026c 08       		.byte	0x8
 795 026d A6       		.byte	0xa6
 796 026e 03       		.byte	0x3
 797 026f 8C020000 		.4byte	0x28c
 798 0273 15       		.uleb128 0x15
 799 0274 B1020000 		.4byte	.LASF37
 800 0278 08       		.byte	0x8
 801 0279 A8       		.byte	0xa8
 802 027a 0C       		.byte	0xc
 803 027b 5D020000 		.4byte	0x25d
 804 027f 15       		.uleb128 0x15
 805 0280 2C020000 		.4byte	.LASF38
 806 0284 08       		.byte	0x8
 807 0285 A9       		.byte	0xa9
 808 0286 13       		.byte	0x13
 809 0287 8C020000 		.4byte	0x28c
 810 028b 00       		.byte	0
 811 028c 0C       		.uleb128 0xc
 812 028d 38000000 		.4byte	0x38
 813 0291 9C020000 		.4byte	0x29c
 814 0295 0D       		.uleb128 0xd
 815 0296 94000000 		.4byte	0x94
 816 029a 03       		.byte	0x3
 817 029b 00       		.byte	0
 818 029c 16       		.uleb128 0x16
 819 029d 08       		.byte	0x8
 820 029e 08       		.byte	0x8
 821 029f A3       		.byte	0xa3
 822 02a0 09       		.byte	0x9
 823 02a1 C4020000 		.4byte	0x2c4
 824 02a5 17       		.uleb128 0x17
 825 02a6 EA040000 		.4byte	.LASF39
 826 02aa 08       		.byte	0x8
 827 02ab A5       		.byte	0xa5
 828 02ac 07       		.byte	0x7
 829 02ad 8D000000 		.4byte	0x8d
 830 02b1 02       		.byte	0x2
 831 02b2 23       		.byte	0x23
 832 02b3 00       		.uleb128 0
ARM GAS  /var/folders/_2/qbh2zpt918qcm2b_6mgyydnm0000gn/T//ccliMEBq.s 			page 18


 833 02b4 17       		.uleb128 0x17
 834 02b5 F9040000 		.4byte	.LASF40
 835 02b9 08       		.byte	0x8
 836 02ba AA       		.byte	0xaa
 837 02bb 05       		.byte	0x5
 838 02bc 6A020000 		.4byte	0x26a
 839 02c0 02       		.byte	0x2
 840 02c1 23       		.byte	0x23
 841 02c2 04       		.uleb128 0x4
 842 02c3 00       		.byte	0
 843 02c4 03       		.uleb128 0x3
 844 02c5 77040000 		.4byte	.LASF41
 845 02c9 08       		.byte	0x8
 846 02ca AB       		.byte	0xab
 847 02cb 03       		.byte	0x3
 848 02cc 9C020000 		.4byte	0x29c
 849 02d0 03       		.uleb128 0x3
 850 02d1 4E040000 		.4byte	.LASF42
 851 02d5 08       		.byte	0x8
 852 02d6 AF       		.byte	0xaf
 853 02d7 1B       		.byte	0x1b
 854 02d8 2D020000 		.4byte	0x22d
 855 02dc 03       		.uleb128 0x3
 856 02dd 3E060000 		.4byte	.LASF43
 857 02e1 0A       		.byte	0xa
 858 02e2 16       		.byte	0x16
 859 02e3 19       		.byte	0x19
 860 02e4 78000000 		.4byte	0x78
 861 02e8 18       		.uleb128 0x18
 862 02e9 08020000 		.4byte	.LASF48
 863 02ed 18       		.byte	0x18
 864 02ee 0A       		.byte	0xa
 865 02ef 2F       		.byte	0x2f
 866 02f0 08       		.byte	0x8
 867 02f1 4E030000 		.4byte	0x34e
 868 02f5 17       		.uleb128 0x17
 869 02f6 67050000 		.4byte	.LASF44
 870 02fa 0A       		.byte	0xa
 871 02fb 31       		.byte	0x31
 872 02fc 13       		.byte	0x13
 873 02fd 4E030000 		.4byte	0x34e
 874 0301 02       		.byte	0x2
 875 0302 23       		.byte	0x23
 876 0303 00       		.uleb128 0
 877 0304 19       		.uleb128 0x19
 878 0305 5F6B00   		.ascii	"_k\000"
 879 0308 0A       		.byte	0xa
 880 0309 32       		.byte	0x32
 881 030a 07       		.byte	0x7
 882 030b 8D000000 		.4byte	0x8d
 883 030f 02       		.byte	0x2
 884 0310 23       		.byte	0x23
 885 0311 04       		.uleb128 0x4
 886 0312 17       		.uleb128 0x17
 887 0313 D5040000 		.4byte	.LASF45
 888 0317 0A       		.byte	0xa
 889 0318 32       		.byte	0x32
ARM GAS  /var/folders/_2/qbh2zpt918qcm2b_6mgyydnm0000gn/T//ccliMEBq.s 			page 19


 890 0319 0B       		.byte	0xb
 891 031a 8D000000 		.4byte	0x8d
 892 031e 02       		.byte	0x2
 893 031f 23       		.byte	0x23
 894 0320 08       		.uleb128 0x8
 895 0321 17       		.uleb128 0x17
 896 0322 CB010000 		.4byte	.LASF46
 897 0326 0A       		.byte	0xa
 898 0327 32       		.byte	0x32
 899 0328 14       		.byte	0x14
 900 0329 8D000000 		.4byte	0x8d
 901 032d 02       		.byte	0x2
 902 032e 23       		.byte	0x23
 903 032f 0C       		.uleb128 0xc
 904 0330 17       		.uleb128 0x17
 905 0331 7C060000 		.4byte	.LASF47
 906 0335 0A       		.byte	0xa
 907 0336 32       		.byte	0x32
 908 0337 1B       		.byte	0x1b
 909 0338 8D000000 		.4byte	0x8d
 910 033c 02       		.byte	0x2
 911 033d 23       		.byte	0x23
 912 033e 10       		.uleb128 0x10
 913 033f 19       		.uleb128 0x19
 914 0340 5F7800   		.ascii	"_x\000"
 915 0343 0A       		.byte	0xa
 916 0344 33       		.byte	0x33
 917 0345 0B       		.byte	0xb
 918 0346 54030000 		.4byte	0x354
 919 034a 02       		.byte	0x2
 920 034b 23       		.byte	0x23
 921 034c 14       		.uleb128 0x14
 922 034d 00       		.byte	0
 923 034e 12       		.uleb128 0x12
 924 034f 04       		.byte	0x4
 925 0350 E8020000 		.4byte	0x2e8
 926 0354 0C       		.uleb128 0xc
 927 0355 DC020000 		.4byte	0x2dc
 928 0359 64030000 		.4byte	0x364
 929 035d 0D       		.uleb128 0xd
 930 035e 94000000 		.4byte	0x94
 931 0362 00       		.byte	0
 932 0363 00       		.byte	0
 933 0364 18       		.uleb128 0x18
 934 0365 27020000 		.4byte	.LASF49
 935 0369 24       		.byte	0x24
 936 036a 0A       		.byte	0xa
 937 036b 37       		.byte	0x37
 938 036c 08       		.byte	0x8
 939 036d F9030000 		.4byte	0x3f9
 940 0371 17       		.uleb128 0x17
 941 0372 E0000000 		.4byte	.LASF50
 942 0376 0A       		.byte	0xa
 943 0377 39       		.byte	0x39
 944 0378 09       		.byte	0x9
 945 0379 8D000000 		.4byte	0x8d
 946 037d 02       		.byte	0x2
ARM GAS  /var/folders/_2/qbh2zpt918qcm2b_6mgyydnm0000gn/T//ccliMEBq.s 			page 20


 947 037e 23       		.byte	0x23
 948 037f 00       		.uleb128 0
 949 0380 17       		.uleb128 0x17
 950 0381 FC060000 		.4byte	.LASF51
 951 0385 0A       		.byte	0xa
 952 0386 3A       		.byte	0x3a
 953 0387 09       		.byte	0x9
 954 0388 8D000000 		.4byte	0x8d
 955 038c 02       		.byte	0x2
 956 038d 23       		.byte	0x23
 957 038e 04       		.uleb128 0x4
 958 038f 17       		.uleb128 0x17
 959 0390 14010000 		.4byte	.LASF52
 960 0394 0A       		.byte	0xa
 961 0395 3B       		.byte	0x3b
 962 0396 09       		.byte	0x9
 963 0397 8D000000 		.4byte	0x8d
 964 039b 02       		.byte	0x2
 965 039c 23       		.byte	0x23
 966 039d 08       		.uleb128 0x8
 967 039e 17       		.uleb128 0x17
 968 039f 2D070000 		.4byte	.LASF53
 969 03a3 0A       		.byte	0xa
 970 03a4 3C       		.byte	0x3c
 971 03a5 09       		.byte	0x9
 972 03a6 8D000000 		.4byte	0x8d
 973 03aa 02       		.byte	0x2
 974 03ab 23       		.byte	0x23
 975 03ac 0C       		.uleb128 0xc
 976 03ad 17       		.uleb128 0x17
 977 03ae 7C030000 		.4byte	.LASF54
 978 03b2 0A       		.byte	0xa
 979 03b3 3D       		.byte	0x3d
 980 03b4 09       		.byte	0x9
 981 03b5 8D000000 		.4byte	0x8d
 982 03b9 02       		.byte	0x2
 983 03ba 23       		.byte	0x23
 984 03bb 10       		.uleb128 0x10
 985 03bc 17       		.uleb128 0x17
 986 03bd 14030000 		.4byte	.LASF55
 987 03c1 0A       		.byte	0xa
 988 03c2 3E       		.byte	0x3e
 989 03c3 09       		.byte	0x9
 990 03c4 8D000000 		.4byte	0x8d
 991 03c8 02       		.byte	0x2
 992 03c9 23       		.byte	0x23
 993 03ca 14       		.uleb128 0x14
 994 03cb 17       		.uleb128 0x17
 995 03cc 07050000 		.4byte	.LASF56
 996 03d0 0A       		.byte	0xa
 997 03d1 3F       		.byte	0x3f
 998 03d2 09       		.byte	0x9
 999 03d3 8D000000 		.4byte	0x8d
 1000 03d7 02       		.byte	0x2
 1001 03d8 23       		.byte	0x23
 1002 03d9 18       		.uleb128 0x18
 1003 03da 17       		.uleb128 0x17
ARM GAS  /var/folders/_2/qbh2zpt918qcm2b_6mgyydnm0000gn/T//ccliMEBq.s 			page 21


 1004 03db 57040000 		.4byte	.LASF57
 1005 03df 0A       		.byte	0xa
 1006 03e0 40       		.byte	0x40
 1007 03e1 09       		.byte	0x9
 1008 03e2 8D000000 		.4byte	0x8d
 1009 03e6 02       		.byte	0x2
 1010 03e7 23       		.byte	0x23
 1011 03e8 1C       		.uleb128 0x1c
 1012 03e9 17       		.uleb128 0x17
 1013 03ea E2060000 		.4byte	.LASF58
 1014 03ee 0A       		.byte	0xa
 1015 03ef 41       		.byte	0x41
 1016 03f0 09       		.byte	0x9
 1017 03f1 8D000000 		.4byte	0x8d
 1018 03f5 02       		.byte	0x2
 1019 03f6 23       		.byte	0x23
 1020 03f7 20       		.uleb128 0x20
 1021 03f8 00       		.byte	0
 1022 03f9 1A       		.uleb128 0x1a
 1023 03fa 23010000 		.4byte	.LASF59
 1024 03fe 0801     		.2byte	0x108
 1025 0400 0A       		.byte	0xa
 1026 0401 4A       		.byte	0x4a
 1027 0402 08       		.byte	0x8
 1028 0403 47040000 		.4byte	0x447
 1029 0407 17       		.uleb128 0x17
 1030 0408 21000000 		.4byte	.LASF60
 1031 040c 0A       		.byte	0xa
 1032 040d 4B       		.byte	0x4b
 1033 040e 0A       		.byte	0xa
 1034 040f 47040000 		.4byte	0x447
 1035 0413 02       		.byte	0x2
 1036 0414 23       		.byte	0x23
 1037 0415 00       		.uleb128 0
 1038 0416 17       		.uleb128 0x17
 1039 0417 00000000 		.4byte	.LASF61
 1040 041b 0A       		.byte	0xa
 1041 041c 4C       		.byte	0x4c
 1042 041d 09       		.byte	0x9
 1043 041e 47040000 		.4byte	0x447
 1044 0422 03       		.byte	0x3
 1045 0423 23       		.byte	0x23
 1046 0424 8001     		.uleb128 0x80
 1047 0426 17       		.uleb128 0x17
 1048 0427 7A050000 		.4byte	.LASF62
 1049 042b 0A       		.byte	0xa
 1050 042c 4E       		.byte	0x4e
 1051 042d 0A       		.byte	0xa
 1052 042e DC020000 		.4byte	0x2dc
 1053 0432 03       		.byte	0x3
 1054 0433 23       		.byte	0x23
 1055 0434 8002     		.uleb128 0x100
 1056 0436 17       		.uleb128 0x17
 1057 0437 51010000 		.4byte	.LASF63
 1058 043b 0A       		.byte	0xa
 1059 043c 51       		.byte	0x51
 1060 043d 0A       		.byte	0xa
ARM GAS  /var/folders/_2/qbh2zpt918qcm2b_6mgyydnm0000gn/T//ccliMEBq.s 			page 22


 1061 043e DC020000 		.4byte	0x2dc
 1062 0442 03       		.byte	0x3
 1063 0443 23       		.byte	0x23
 1064 0444 8402     		.uleb128 0x104
 1065 0446 00       		.byte	0
 1066 0447 0C       		.uleb128 0xc
 1067 0448 2B020000 		.4byte	0x22b
 1068 044c 57040000 		.4byte	0x457
 1069 0450 0D       		.uleb128 0xd
 1070 0451 94000000 		.4byte	0x94
 1071 0455 1F       		.byte	0x1f
 1072 0456 00       		.byte	0
 1073 0457 1A       		.uleb128 0x1a
 1074 0458 C0060000 		.4byte	.LASF64
 1075 045c 9001     		.2byte	0x190
 1076 045e 0A       		.byte	0xa
 1077 045f 5D       		.byte	0x5d
 1078 0460 08       		.byte	0x8
 1079 0461 A3040000 		.4byte	0x4a3
 1080 0465 17       		.uleb128 0x17
 1081 0466 67050000 		.4byte	.LASF44
 1082 046a 0A       		.byte	0xa
 1083 046b 5E       		.byte	0x5e
 1084 046c 12       		.byte	0x12
 1085 046d A3040000 		.4byte	0x4a3
 1086 0471 02       		.byte	0x2
 1087 0472 23       		.byte	0x23
 1088 0473 00       		.uleb128 0
 1089 0474 17       		.uleb128 0x17
 1090 0475 A5040000 		.4byte	.LASF65
 1091 0479 0A       		.byte	0xa
 1092 047a 5F       		.byte	0x5f
 1093 047b 06       		.byte	0x6
 1094 047c 8D000000 		.4byte	0x8d
 1095 0480 02       		.byte	0x2
 1096 0481 23       		.byte	0x23
 1097 0482 04       		.uleb128 0x4
 1098 0483 17       		.uleb128 0x17
 1099 0484 B3010000 		.4byte	.LASF66
 1100 0488 0A       		.byte	0xa
 1101 0489 61       		.byte	0x61
 1102 048a 09       		.byte	0x9
 1103 048b A9040000 		.4byte	0x4a9
 1104 048f 02       		.byte	0x2
 1105 0490 23       		.byte	0x23
 1106 0491 08       		.uleb128 0x8
 1107 0492 17       		.uleb128 0x17
 1108 0493 23010000 		.4byte	.LASF59
 1109 0497 0A       		.byte	0xa
 1110 0498 62       		.byte	0x62
 1111 0499 1E       		.byte	0x1e
 1112 049a F9030000 		.4byte	0x3f9
 1113 049e 03       		.byte	0x3
 1114 049f 23       		.byte	0x23
 1115 04a0 8801     		.uleb128 0x88
 1116 04a2 00       		.byte	0
 1117 04a3 12       		.uleb128 0x12
ARM GAS  /var/folders/_2/qbh2zpt918qcm2b_6mgyydnm0000gn/T//ccliMEBq.s 			page 23


 1118 04a4 04       		.byte	0x4
 1119 04a5 57040000 		.4byte	0x457
 1120 04a9 0C       		.uleb128 0xc
 1121 04aa B9040000 		.4byte	0x4b9
 1122 04ae B9040000 		.4byte	0x4b9
 1123 04b2 0D       		.uleb128 0xd
 1124 04b3 94000000 		.4byte	0x94
 1125 04b7 1F       		.byte	0x1f
 1126 04b8 00       		.byte	0
 1127 04b9 12       		.uleb128 0x12
 1128 04ba 04       		.byte	0x4
 1129 04bb BF040000 		.4byte	0x4bf
 1130 04bf 1B       		.uleb128 0x1b
 1131 04c0 01       		.byte	0x1
 1132 04c1 18       		.uleb128 0x18
 1133 04c2 61040000 		.4byte	.LASF67
 1134 04c6 08       		.byte	0x8
 1135 04c7 0A       		.byte	0xa
 1136 04c8 75       		.byte	0x75
 1137 04c9 08       		.byte	0x8
 1138 04ca ED040000 		.4byte	0x4ed
 1139 04ce 17       		.uleb128 0x17
 1140 04cf 0E010000 		.4byte	.LASF68
 1141 04d3 0A       		.byte	0xa
 1142 04d4 76       		.byte	0x76
 1143 04d5 11       		.byte	0x11
 1144 04d6 ED040000 		.4byte	0x4ed
 1145 04da 02       		.byte	0x2
 1146 04db 23       		.byte	0x23
 1147 04dc 00       		.uleb128 0
 1148 04dd 17       		.uleb128 0x17
 1149 04de 3A050000 		.4byte	.LASF69
 1150 04e2 0A       		.byte	0xa
 1151 04e3 77       		.byte	0x77
 1152 04e4 06       		.byte	0x6
 1153 04e5 8D000000 		.4byte	0x8d
 1154 04e9 02       		.byte	0x2
 1155 04ea 23       		.byte	0x23
 1156 04eb 04       		.uleb128 0x4
 1157 04ec 00       		.byte	0
 1158 04ed 12       		.uleb128 0x12
 1159 04ee 04       		.byte	0x4
 1160 04ef 38000000 		.4byte	0x38
 1161 04f3 18       		.uleb128 0x18
 1162 04f4 82040000 		.4byte	.LASF70
 1163 04f8 68       		.byte	0x68
 1164 04f9 0A       		.byte	0xa
 1165 04fa B5       		.byte	0xb5
 1166 04fb 08       		.byte	0x8
 1167 04fc 66060000 		.4byte	0x666
 1168 0500 19       		.uleb128 0x19
 1169 0501 5F7000   		.ascii	"_p\000"
 1170 0504 0A       		.byte	0xa
 1171 0505 B6       		.byte	0xb6
 1172 0506 12       		.byte	0x12
 1173 0507 ED040000 		.4byte	0x4ed
 1174 050b 02       		.byte	0x2
ARM GAS  /var/folders/_2/qbh2zpt918qcm2b_6mgyydnm0000gn/T//ccliMEBq.s 			page 24


 1175 050c 23       		.byte	0x23
 1176 050d 00       		.uleb128 0
 1177 050e 19       		.uleb128 0x19
 1178 050f 5F7200   		.ascii	"_r\000"
 1179 0512 0A       		.byte	0xa
 1180 0513 B7       		.byte	0xb7
 1181 0514 07       		.byte	0x7
 1182 0515 8D000000 		.4byte	0x8d
 1183 0519 02       		.byte	0x2
 1184 051a 23       		.byte	0x23
 1185 051b 04       		.uleb128 0x4
 1186 051c 19       		.uleb128 0x19
 1187 051d 5F7700   		.ascii	"_w\000"
 1188 0520 0A       		.byte	0xa
 1189 0521 B8       		.byte	0xb8
 1190 0522 07       		.byte	0x7
 1191 0523 8D000000 		.4byte	0x8d
 1192 0527 02       		.byte	0x2
 1193 0528 23       		.byte	0x23
 1194 0529 08       		.uleb128 0x8
 1195 052a 17       		.uleb128 0x17
 1196 052b 4A010000 		.4byte	.LASF71
 1197 052f 0A       		.byte	0xa
 1198 0530 B9       		.byte	0xb9
 1199 0531 09       		.byte	0x9
 1200 0532 3F000000 		.4byte	0x3f
 1201 0536 02       		.byte	0x2
 1202 0537 23       		.byte	0x23
 1203 0538 0C       		.uleb128 0xc
 1204 0539 17       		.uleb128 0x17
 1205 053a 72020000 		.4byte	.LASF72
 1206 053e 0A       		.byte	0xa
 1207 053f BA       		.byte	0xba
 1208 0540 09       		.byte	0x9
 1209 0541 3F000000 		.4byte	0x3f
 1210 0545 02       		.byte	0x2
 1211 0546 23       		.byte	0x23
 1212 0547 0E       		.uleb128 0xe
 1213 0548 19       		.uleb128 0x19
 1214 0549 5F626600 		.ascii	"_bf\000"
 1215 054d 0A       		.byte	0xa
 1216 054e BB       		.byte	0xbb
 1217 054f 11       		.byte	0x11
 1218 0550 C1040000 		.4byte	0x4c1
 1219 0554 02       		.byte	0x2
 1220 0555 23       		.byte	0x23
 1221 0556 10       		.uleb128 0x10
 1222 0557 17       		.uleb128 0x17
 1223 0558 93000000 		.4byte	.LASF73
 1224 055c 0A       		.byte	0xa
 1225 055d BC       		.byte	0xbc
 1226 055e 07       		.byte	0x7
 1227 055f 8D000000 		.4byte	0x8d
 1228 0563 02       		.byte	0x2
 1229 0564 23       		.byte	0x23
 1230 0565 18       		.uleb128 0x18
 1231 0566 17       		.uleb128 0x17
ARM GAS  /var/folders/_2/qbh2zpt918qcm2b_6mgyydnm0000gn/T//ccliMEBq.s 			page 25


 1232 0567 31010000 		.4byte	.LASF74
 1233 056b 0A       		.byte	0xa
 1234 056c C3       		.byte	0xc3
 1235 056d 0A       		.byte	0xa
 1236 056e 2B020000 		.4byte	0x22b
 1237 0572 02       		.byte	0x2
 1238 0573 23       		.byte	0x23
 1239 0574 1C       		.uleb128 0x1c
 1240 0575 17       		.uleb128 0x17
 1241 0576 21020000 		.4byte	.LASF75
 1242 057a 0A       		.byte	0xa
 1243 057b C5       		.byte	0xc5
 1244 057c 1D       		.byte	0x1d
 1245 057d 17080000 		.4byte	0x817
 1246 0581 02       		.byte	0x2
 1247 0582 23       		.byte	0x23
 1248 0583 20       		.uleb128 0x20
 1249 0584 17       		.uleb128 0x17
 1250 0585 0D030000 		.4byte	.LASF76
 1251 0589 0A       		.byte	0xa
 1252 058a C7       		.byte	0xc7
 1253 058b 1D       		.byte	0x1d
 1254 058c 42080000 		.4byte	0x842
 1255 0590 02       		.byte	0x2
 1256 0591 23       		.byte	0x23
 1257 0592 24       		.uleb128 0x24
 1258 0593 17       		.uleb128 0x17
 1259 0594 01050000 		.4byte	.LASF77
 1260 0598 0A       		.byte	0xa
 1261 0599 CA       		.byte	0xca
 1262 059a 0D       		.byte	0xd
 1263 059b 67080000 		.4byte	0x867
 1264 059f 02       		.byte	0x2
 1265 05a0 23       		.byte	0x23
 1266 05a1 28       		.uleb128 0x28
 1267 05a2 17       		.uleb128 0x17
 1268 05a3 F0000000 		.4byte	.LASF78
 1269 05a7 0A       		.byte	0xa
 1270 05a8 CB       		.byte	0xcb
 1271 05a9 09       		.byte	0x9
 1272 05aa 82080000 		.4byte	0x882
 1273 05ae 02       		.byte	0x2
 1274 05af 23       		.byte	0x23
 1275 05b0 2C       		.uleb128 0x2c
 1276 05b1 19       		.uleb128 0x19
 1277 05b2 5F756200 		.ascii	"_ub\000"
 1278 05b6 0A       		.byte	0xa
 1279 05b7 CE       		.byte	0xce
 1280 05b8 11       		.byte	0x11
 1281 05b9 C1040000 		.4byte	0x4c1
 1282 05bd 02       		.byte	0x2
 1283 05be 23       		.byte	0x23
 1284 05bf 30       		.uleb128 0x30
 1285 05c0 19       		.uleb128 0x19
 1286 05c1 5F757000 		.ascii	"_up\000"
 1287 05c5 0A       		.byte	0xa
 1288 05c6 CF       		.byte	0xcf
ARM GAS  /var/folders/_2/qbh2zpt918qcm2b_6mgyydnm0000gn/T//ccliMEBq.s 			page 26


 1289 05c7 12       		.byte	0x12
 1290 05c8 ED040000 		.4byte	0x4ed
 1291 05cc 02       		.byte	0x2
 1292 05cd 23       		.byte	0x23
 1293 05ce 38       		.uleb128 0x38
 1294 05cf 19       		.uleb128 0x19
 1295 05d0 5F757200 		.ascii	"_ur\000"
 1296 05d4 0A       		.byte	0xa
 1297 05d5 D0       		.byte	0xd0
 1298 05d6 07       		.byte	0x7
 1299 05d7 8D000000 		.4byte	0x8d
 1300 05db 02       		.byte	0x2
 1301 05dc 23       		.byte	0x23
 1302 05dd 3C       		.uleb128 0x3c
 1303 05de 17       		.uleb128 0x17
 1304 05df 08010000 		.4byte	.LASF79
 1305 05e3 0A       		.byte	0xa
 1306 05e4 D3       		.byte	0xd3
 1307 05e5 11       		.byte	0x11
 1308 05e6 88080000 		.4byte	0x888
 1309 05ea 02       		.byte	0x2
 1310 05eb 23       		.byte	0x23
 1311 05ec 40       		.uleb128 0x40
 1312 05ed 17       		.uleb128 0x17
 1313 05ee C8060000 		.4byte	.LASF80
 1314 05f2 0A       		.byte	0xa
 1315 05f3 D4       		.byte	0xd4
 1316 05f4 11       		.byte	0x11
 1317 05f5 98080000 		.4byte	0x898
 1318 05f9 02       		.byte	0x2
 1319 05fa 23       		.byte	0x23
 1320 05fb 43       		.uleb128 0x43
 1321 05fc 19       		.uleb128 0x19
 1322 05fd 5F6C6200 		.ascii	"_lb\000"
 1323 0601 0A       		.byte	0xa
 1324 0602 D7       		.byte	0xd7
 1325 0603 11       		.byte	0x11
 1326 0604 C1040000 		.4byte	0x4c1
 1327 0608 02       		.byte	0x2
 1328 0609 23       		.byte	0x23
 1329 060a 44       		.uleb128 0x44
 1330 060b 17       		.uleb128 0x17
 1331 060c 31050000 		.4byte	.LASF81
 1332 0610 0A       		.byte	0xa
 1333 0611 DA       		.byte	0xda
 1334 0612 07       		.byte	0x7
 1335 0613 8D000000 		.4byte	0x8d
 1336 0617 02       		.byte	0x2
 1337 0618 23       		.byte	0x23
 1338 0619 4C       		.uleb128 0x4c
 1339 061a 17       		.uleb128 0x17
 1340 061b 89010000 		.4byte	.LASF82
 1341 061f 0A       		.byte	0xa
 1342 0620 DB       		.byte	0xdb
 1343 0621 0A       		.byte	0xa
 1344 0622 45020000 		.4byte	0x245
 1345 0626 02       		.byte	0x2
ARM GAS  /var/folders/_2/qbh2zpt918qcm2b_6mgyydnm0000gn/T//ccliMEBq.s 			page 27


 1346 0627 23       		.byte	0x23
 1347 0628 50       		.uleb128 0x50
 1348 0629 17       		.uleb128 0x17
 1349 062a 78020000 		.4byte	.LASF83
 1350 062e 0A       		.byte	0xa
 1351 062f DE       		.byte	0xde
 1352 0630 12       		.byte	0x12
 1353 0631 85060000 		.4byte	0x685
 1354 0635 02       		.byte	0x2
 1355 0636 23       		.byte	0x23
 1356 0637 54       		.uleb128 0x54
 1357 0638 17       		.uleb128 0x17
 1358 0639 DC020000 		.4byte	.LASF84
 1359 063d 0A       		.byte	0xa
 1360 063e E2       		.byte	0xe2
 1361 063f 0C       		.byte	0xc
 1362 0640 D0020000 		.4byte	0x2d0
 1363 0644 02       		.byte	0x2
 1364 0645 23       		.byte	0x23
 1365 0646 58       		.uleb128 0x58
 1366 0647 17       		.uleb128 0x17
 1367 0648 8A040000 		.4byte	.LASF85
 1368 064c 0A       		.byte	0xa
 1369 064d E4       		.byte	0xe4
 1370 064e 0E       		.byte	0xe
 1371 064f C4020000 		.4byte	0x2c4
 1372 0653 02       		.byte	0x2
 1373 0654 23       		.byte	0x23
 1374 0655 5C       		.uleb128 0x5c
 1375 0656 17       		.uleb128 0x17
 1376 0657 68040000 		.4byte	.LASF86
 1377 065b 0A       		.byte	0xa
 1378 065c E5       		.byte	0xe5
 1379 065d 09       		.byte	0x9
 1380 065e 8D000000 		.4byte	0x8d
 1381 0662 02       		.byte	0x2
 1382 0663 23       		.byte	0x23
 1383 0664 64       		.uleb128 0x64
 1384 0665 00       		.byte	0
 1385 0666 1C       		.uleb128 0x1c
 1386 0667 01       		.byte	0x1
 1387 0668 8D000000 		.4byte	0x8d
 1388 066c 85060000 		.4byte	0x685
 1389 0670 1D       		.uleb128 0x1d
 1390 0671 85060000 		.4byte	0x685
 1391 0675 1D       		.uleb128 0x1d
 1392 0676 2B020000 		.4byte	0x22b
 1393 067a 1D       		.uleb128 0x1d
 1394 067b 05080000 		.4byte	0x805
 1395 067f 1D       		.uleb128 0x1d
 1396 0680 8D000000 		.4byte	0x8d
 1397 0684 00       		.byte	0
 1398 0685 12       		.uleb128 0x12
 1399 0686 04       		.byte	0x4
 1400 0687 90060000 		.4byte	0x690
 1401 068b 05       		.uleb128 0x5
 1402 068c 85060000 		.4byte	0x685
ARM GAS  /var/folders/_2/qbh2zpt918qcm2b_6mgyydnm0000gn/T//ccliMEBq.s 			page 28


 1403 0690 1E       		.uleb128 0x1e
 1404 0691 DD040000 		.4byte	.LASF87
 1405 0695 2804     		.2byte	0x428
 1406 0697 0A       		.byte	0xa
 1407 0698 6002     		.2byte	0x260
 1408 069a 08       		.byte	0x8
 1409 069b 05080000 		.4byte	0x805
 1410 069f 0A       		.uleb128 0xa
 1411 06a0 25050000 		.4byte	.LASF88
 1412 06a4 0A       		.byte	0xa
 1413 06a5 6202     		.2byte	0x262
 1414 06a7 07       		.byte	0x7
 1415 06a8 8D000000 		.4byte	0x8d
 1416 06ac 02       		.byte	0x2
 1417 06ad 23       		.byte	0x23
 1418 06ae 00       		.uleb128 0
 1419 06af 0A       		.uleb128 0xa
 1420 06b0 59010000 		.4byte	.LASF89
 1421 06b4 0A       		.byte	0xa
 1422 06b5 6702     		.2byte	0x267
 1423 06b7 0B       		.byte	0xb
 1424 06b8 FA080000 		.4byte	0x8fa
 1425 06bc 02       		.byte	0x2
 1426 06bd 23       		.byte	0x23
 1427 06be 04       		.uleb128 0x4
 1428 06bf 0A       		.uleb128 0xa
 1429 06c0 43020000 		.4byte	.LASF90
 1430 06c4 0A       		.byte	0xa
 1431 06c5 6702     		.2byte	0x267
 1432 06c7 14       		.byte	0x14
 1433 06c8 FA080000 		.4byte	0x8fa
 1434 06cc 02       		.byte	0x2
 1435 06cd 23       		.byte	0x23
 1436 06ce 08       		.uleb128 0x8
 1437 06cf 0A       		.uleb128 0xa
 1438 06d0 00020000 		.4byte	.LASF91
 1439 06d4 0A       		.byte	0xa
 1440 06d5 6702     		.2byte	0x267
 1441 06d7 1E       		.byte	0x1e
 1442 06d8 FA080000 		.4byte	0x8fa
 1443 06dc 02       		.byte	0x2
 1444 06dd 23       		.byte	0x23
 1445 06de 0C       		.uleb128 0xc
 1446 06df 0A       		.uleb128 0xa
 1447 06e0 A0040000 		.4byte	.LASF92
 1448 06e4 0A       		.byte	0xa
 1449 06e5 6902     		.2byte	0x269
 1450 06e7 08       		.byte	0x8
 1451 06e8 8D000000 		.4byte	0x8d
 1452 06ec 02       		.byte	0x2
 1453 06ed 23       		.byte	0x23
 1454 06ee 10       		.uleb128 0x10
 1455 06ef 0A       		.uleb128 0xa
 1456 06f0 31000000 		.4byte	.LASF93
 1457 06f4 0A       		.byte	0xa
 1458 06f5 6A02     		.2byte	0x26a
 1459 06f7 08       		.byte	0x8
ARM GAS  /var/folders/_2/qbh2zpt918qcm2b_6mgyydnm0000gn/T//ccliMEBq.s 			page 29


 1460 06f8 330B0000 		.4byte	0xb33
 1461 06fc 02       		.byte	0x2
 1462 06fd 23       		.byte	0x23
 1463 06fe 14       		.uleb128 0x14
 1464 06ff 0A       		.uleb128 0xa
 1465 0700 BC040000 		.4byte	.LASF94
 1466 0704 0A       		.byte	0xa
 1467 0705 6D02     		.2byte	0x26d
 1468 0707 07       		.byte	0x7
 1469 0708 8D000000 		.4byte	0x8d
 1470 070c 02       		.byte	0x2
 1471 070d 23       		.byte	0x23
 1472 070e 30       		.uleb128 0x30
 1473 070f 0A       		.uleb128 0xa
 1474 0710 AA040000 		.4byte	.LASF95
 1475 0714 0A       		.byte	0xa
 1476 0715 6E02     		.2byte	0x26e
 1477 0717 16       		.byte	0x16
 1478 0718 490B0000 		.4byte	0xb49
 1479 071c 02       		.byte	0x2
 1480 071d 23       		.byte	0x23
 1481 071e 34       		.uleb128 0x34
 1482 071f 0A       		.uleb128 0xa
 1483 0720 99030000 		.4byte	.LASF96
 1484 0724 0A       		.byte	0xa
 1485 0725 7002     		.2byte	0x270
 1486 0727 07       		.byte	0x7
 1487 0728 8D000000 		.4byte	0x8d
 1488 072c 02       		.byte	0x2
 1489 072d 23       		.byte	0x23
 1490 072e 38       		.uleb128 0x38
 1491 072f 0A       		.uleb128 0xa
 1492 0730 B2040000 		.4byte	.LASF97
 1493 0734 0A       		.byte	0xa
 1494 0735 7202     		.2byte	0x272
 1495 0737 0A       		.byte	0xa
 1496 0738 5B0B0000 		.4byte	0xb5b
 1497 073c 02       		.byte	0x2
 1498 073d 23       		.byte	0x23
 1499 073e 3C       		.uleb128 0x3c
 1500 073f 0A       		.uleb128 0xa
 1501 0740 A9020000 		.4byte	.LASF98
 1502 0744 0A       		.byte	0xa
 1503 0745 7502     		.2byte	0x275
 1504 0747 13       		.byte	0x13
 1505 0748 4E030000 		.4byte	0x34e
 1506 074c 02       		.byte	0x2
 1507 074d 23       		.byte	0x23
 1508 074e 40       		.uleb128 0x40
 1509 074f 0A       		.uleb128 0xa
 1510 0750 60010000 		.4byte	.LASF99
 1511 0754 0A       		.byte	0xa
 1512 0755 7602     		.2byte	0x276
 1513 0757 07       		.byte	0x7
 1514 0758 8D000000 		.4byte	0x8d
 1515 075c 02       		.byte	0x2
 1516 075d 23       		.byte	0x23
ARM GAS  /var/folders/_2/qbh2zpt918qcm2b_6mgyydnm0000gn/T//ccliMEBq.s 			page 30


 1517 075e 44       		.uleb128 0x44
 1518 075f 0A       		.uleb128 0xa
 1519 0760 21070000 		.4byte	.LASF100
 1520 0764 0A       		.byte	0xa
 1521 0765 7702     		.2byte	0x277
 1522 0767 13       		.byte	0x13
 1523 0768 4E030000 		.4byte	0x34e
 1524 076c 02       		.byte	0x2
 1525 076d 23       		.byte	0x23
 1526 076e 48       		.uleb128 0x48
 1527 076f 0A       		.uleb128 0xa
 1528 0770 C8030000 		.4byte	.LASF101
 1529 0774 0A       		.byte	0xa
 1530 0775 7802     		.2byte	0x278
 1531 0777 14       		.byte	0x14
 1532 0778 610B0000 		.4byte	0xb61
 1533 077c 02       		.byte	0x2
 1534 077d 23       		.byte	0x23
 1535 077e 4C       		.uleb128 0x4c
 1536 077f 0A       		.uleb128 0xa
 1537 0780 4B020000 		.4byte	.LASF102
 1538 0784 0A       		.byte	0xa
 1539 0785 7B02     		.2byte	0x27b
 1540 0787 07       		.byte	0x7
 1541 0788 8D000000 		.4byte	0x8d
 1542 078c 02       		.byte	0x2
 1543 078d 23       		.byte	0x23
 1544 078e 50       		.uleb128 0x50
 1545 078f 0A       		.uleb128 0xa
 1546 0790 81010000 		.4byte	.LASF103
 1547 0794 0A       		.byte	0xa
 1548 0795 7C02     		.2byte	0x27c
 1549 0797 09       		.byte	0x9
 1550 0798 05080000 		.4byte	0x805
 1551 079c 02       		.byte	0x2
 1552 079d 23       		.byte	0x23
 1553 079e 54       		.uleb128 0x54
 1554 079f 0A       		.uleb128 0xa
 1555 07a0 CE020000 		.4byte	.LASF104
 1556 07a4 0A       		.byte	0xa
 1557 07a5 9F02     		.2byte	0x29f
 1558 07a7 07       		.byte	0x7
 1559 07a8 0E0B0000 		.4byte	0xb0e
 1560 07ac 02       		.byte	0x2
 1561 07ad 23       		.byte	0x23
 1562 07ae 58       		.uleb128 0x58
 1563 07af 0A       		.uleb128 0xa
 1564 07b0 C0060000 		.4byte	.LASF64
 1565 07b4 0A       		.byte	0xa
 1566 07b5 A302     		.2byte	0x2a3
 1567 07b7 13       		.byte	0x13
 1568 07b8 A3040000 		.4byte	0x4a3
 1569 07bc 03       		.byte	0x3
 1570 07bd 23       		.byte	0x23
 1571 07be C802     		.uleb128 0x148
 1572 07c0 0A       		.uleb128 0xa
 1573 07c1 4D000000 		.4byte	.LASF105
ARM GAS  /var/folders/_2/qbh2zpt918qcm2b_6mgyydnm0000gn/T//ccliMEBq.s 			page 31


 1574 07c5 0A       		.byte	0xa
 1575 07c6 A402     		.2byte	0x2a4
 1576 07c8 12       		.byte	0x12
 1577 07c9 57040000 		.4byte	0x457
 1578 07cd 03       		.byte	0x3
 1579 07ce 23       		.byte	0x23
 1580 07cf CC02     		.uleb128 0x14c
 1581 07d1 0A       		.uleb128 0xa
 1582 07d2 A2060000 		.4byte	.LASF106
 1583 07d6 0A       		.byte	0xa
 1584 07d7 A802     		.2byte	0x2a8
 1585 07d9 0C       		.byte	0xc
 1586 07da 730B0000 		.4byte	0xb73
 1587 07de 03       		.byte	0x3
 1588 07df 23       		.byte	0x23
 1589 07e0 DC05     		.uleb128 0x2dc
 1590 07e2 0A       		.uleb128 0xa
 1591 07e3 39010000 		.4byte	.LASF107
 1592 07e7 0A       		.byte	0xa
 1593 07e8 AD02     		.2byte	0x2ad
 1594 07ea 10       		.byte	0x10
 1595 07eb B5080000 		.4byte	0x8b5
 1596 07ef 03       		.byte	0x3
 1597 07f0 23       		.byte	0x23
 1598 07f1 E005     		.uleb128 0x2e0
 1599 07f3 0A       		.uleb128 0xa
 1600 07f4 1E010000 		.4byte	.LASF108
 1601 07f8 0A       		.byte	0xa
 1602 07f9 AF02     		.2byte	0x2af
 1603 07fb 0A       		.byte	0xa
 1604 07fc 7F0B0000 		.4byte	0xb7f
 1605 0800 03       		.byte	0x3
 1606 0801 23       		.byte	0x23
 1607 0802 EC05     		.uleb128 0x2ec
 1608 0804 00       		.byte	0
 1609 0805 12       		.uleb128 0x12
 1610 0806 04       		.byte	0x4
 1611 0807 0B080000 		.4byte	0x80b
 1612 080b 02       		.uleb128 0x2
 1613 080c 01       		.byte	0x1
 1614 080d 08       		.byte	0x8
 1615 080e 2C050000 		.4byte	.LASF109
 1616 0812 05       		.uleb128 0x5
 1617 0813 0B080000 		.4byte	0x80b
 1618 0817 12       		.uleb128 0x12
 1619 0818 04       		.byte	0x4
 1620 0819 66060000 		.4byte	0x666
 1621 081d 1C       		.uleb128 0x1c
 1622 081e 01       		.byte	0x1
 1623 081f 8D000000 		.4byte	0x8d
 1624 0823 3C080000 		.4byte	0x83c
 1625 0827 1D       		.uleb128 0x1d
 1626 0828 85060000 		.4byte	0x685
 1627 082c 1D       		.uleb128 0x1d
 1628 082d 2B020000 		.4byte	0x22b
 1629 0831 1D       		.uleb128 0x1d
 1630 0832 3C080000 		.4byte	0x83c
ARM GAS  /var/folders/_2/qbh2zpt918qcm2b_6mgyydnm0000gn/T//ccliMEBq.s 			page 32


 1631 0836 1D       		.uleb128 0x1d
 1632 0837 8D000000 		.4byte	0x8d
 1633 083b 00       		.byte	0
 1634 083c 12       		.uleb128 0x12
 1635 083d 04       		.byte	0x4
 1636 083e 12080000 		.4byte	0x812
 1637 0842 12       		.uleb128 0x12
 1638 0843 04       		.byte	0x4
 1639 0844 1D080000 		.4byte	0x81d
 1640 0848 1C       		.uleb128 0x1c
 1641 0849 01       		.byte	0x1
 1642 084a 51020000 		.4byte	0x251
 1643 084e 67080000 		.4byte	0x867
 1644 0852 1D       		.uleb128 0x1d
 1645 0853 85060000 		.4byte	0x685
 1646 0857 1D       		.uleb128 0x1d
 1647 0858 2B020000 		.4byte	0x22b
 1648 085c 1D       		.uleb128 0x1d
 1649 085d 51020000 		.4byte	0x251
 1650 0861 1D       		.uleb128 0x1d
 1651 0862 8D000000 		.4byte	0x8d
 1652 0866 00       		.byte	0
 1653 0867 12       		.uleb128 0x12
 1654 0868 04       		.byte	0x4
 1655 0869 48080000 		.4byte	0x848
 1656 086d 1C       		.uleb128 0x1c
 1657 086e 01       		.byte	0x1
 1658 086f 8D000000 		.4byte	0x8d
 1659 0873 82080000 		.4byte	0x882
 1660 0877 1D       		.uleb128 0x1d
 1661 0878 85060000 		.4byte	0x685
 1662 087c 1D       		.uleb128 0x1d
 1663 087d 2B020000 		.4byte	0x22b
 1664 0881 00       		.byte	0
 1665 0882 12       		.uleb128 0x12
 1666 0883 04       		.byte	0x4
 1667 0884 6D080000 		.4byte	0x86d
 1668 0888 0C       		.uleb128 0xc
 1669 0889 38000000 		.4byte	0x38
 1670 088d 98080000 		.4byte	0x898
 1671 0891 0D       		.uleb128 0xd
 1672 0892 94000000 		.4byte	0x94
 1673 0896 02       		.byte	0x2
 1674 0897 00       		.byte	0
 1675 0898 0C       		.uleb128 0xc
 1676 0899 38000000 		.4byte	0x38
 1677 089d A8080000 		.4byte	0x8a8
 1678 08a1 0D       		.uleb128 0xd
 1679 08a2 94000000 		.4byte	0x94
 1680 08a6 00       		.byte	0
 1681 08a7 00       		.byte	0
 1682 08a8 0E       		.uleb128 0xe
 1683 08a9 70040000 		.4byte	.LASF110
 1684 08ad 0A       		.byte	0xa
 1685 08ae 1F01     		.2byte	0x11f
 1686 08b0 1A       		.byte	0x1a
 1687 08b1 F3040000 		.4byte	0x4f3
ARM GAS  /var/folders/_2/qbh2zpt918qcm2b_6mgyydnm0000gn/T//ccliMEBq.s 			page 33


 1688 08b5 1F       		.uleb128 0x1f
 1689 08b6 81060000 		.4byte	.LASF111
 1690 08ba 0C       		.byte	0xc
 1691 08bb 0A       		.byte	0xa
 1692 08bc 2301     		.2byte	0x123
 1693 08be 08       		.byte	0x8
 1694 08bf F4080000 		.4byte	0x8f4
 1695 08c3 0A       		.uleb128 0xa
 1696 08c4 67050000 		.4byte	.LASF44
 1697 08c8 0A       		.byte	0xa
 1698 08c9 2501     		.2byte	0x125
 1699 08cb 11       		.byte	0x11
 1700 08cc F4080000 		.4byte	0x8f4
 1701 08d0 02       		.byte	0x2
 1702 08d1 23       		.byte	0x23
 1703 08d2 00       		.uleb128 0
 1704 08d3 0A       		.uleb128 0xa
 1705 08d4 7E020000 		.4byte	.LASF112
 1706 08d8 0A       		.byte	0xa
 1707 08d9 2601     		.2byte	0x126
 1708 08db 07       		.byte	0x7
 1709 08dc 8D000000 		.4byte	0x8d
 1710 08e0 02       		.byte	0x2
 1711 08e1 23       		.byte	0x23
 1712 08e2 04       		.uleb128 0x4
 1713 08e3 0A       		.uleb128 0xa
 1714 08e4 39040000 		.4byte	.LASF113
 1715 08e8 0A       		.byte	0xa
 1716 08e9 2701     		.2byte	0x127
 1717 08eb 0B       		.byte	0xb
 1718 08ec FA080000 		.4byte	0x8fa
 1719 08f0 02       		.byte	0x2
 1720 08f1 23       		.byte	0x23
 1721 08f2 08       		.uleb128 0x8
 1722 08f3 00       		.byte	0
 1723 08f4 12       		.uleb128 0x12
 1724 08f5 04       		.byte	0x4
 1725 08f6 B5080000 		.4byte	0x8b5
 1726 08fa 12       		.uleb128 0x12
 1727 08fb 04       		.byte	0x4
 1728 08fc A8080000 		.4byte	0x8a8
 1729 0900 1F       		.uleb128 0x1f
 1730 0901 29000000 		.4byte	.LASF114
 1731 0905 0E       		.byte	0xe
 1732 0906 0A       		.byte	0xa
 1733 0907 3F01     		.2byte	0x13f
 1734 0909 08       		.byte	0x8
 1735 090a 3F090000 		.4byte	0x93f
 1736 090e 0A       		.uleb128 0xa
 1737 090f E4040000 		.4byte	.LASF115
 1738 0913 0A       		.byte	0xa
 1739 0914 4001     		.2byte	0x140
 1740 0916 12       		.byte	0x12
 1741 0917 3F090000 		.4byte	0x93f
 1742 091b 02       		.byte	0x2
 1743 091c 23       		.byte	0x23
 1744 091d 00       		.uleb128 0
ARM GAS  /var/folders/_2/qbh2zpt918qcm2b_6mgyydnm0000gn/T//ccliMEBq.s 			page 34


 1745 091e 0A       		.uleb128 0xa
 1746 091f E2020000 		.4byte	.LASF116
 1747 0923 0A       		.byte	0xa
 1748 0924 4101     		.2byte	0x141
 1749 0926 12       		.byte	0x12
 1750 0927 3F090000 		.4byte	0x93f
 1751 092b 02       		.byte	0x2
 1752 092c 23       		.byte	0x23
 1753 092d 06       		.uleb128 0x6
 1754 092e 0A       		.uleb128 0xa
 1755 092f 39060000 		.4byte	.LASF117
 1756 0933 0A       		.byte	0xa
 1757 0934 4201     		.2byte	0x142
 1758 0936 12       		.byte	0x12
 1759 0937 52000000 		.4byte	0x52
 1760 093b 02       		.byte	0x2
 1761 093c 23       		.byte	0x23
 1762 093d 0C       		.uleb128 0xc
 1763 093e 00       		.byte	0
 1764 093f 0C       		.uleb128 0xc
 1765 0940 52000000 		.4byte	0x52
 1766 0944 4F090000 		.4byte	0x94f
 1767 0948 0D       		.uleb128 0xd
 1768 0949 94000000 		.4byte	0x94
 1769 094d 02       		.byte	0x2
 1770 094e 00       		.byte	0
 1771 094f 09       		.uleb128 0x9
 1772 0950 D0       		.byte	0xd0
 1773 0951 0A       		.byte	0xa
 1774 0952 8002     		.2byte	0x280
 1775 0954 07       		.byte	0x7
 1776 0955 930A0000 		.4byte	0xa93
 1777 0959 0A       		.uleb128 0xa
 1778 095a 6F060000 		.4byte	.LASF118
 1779 095e 0A       		.byte	0xa
 1780 095f 8202     		.2byte	0x282
 1781 0961 18       		.byte	0x18
 1782 0962 94000000 		.4byte	0x94
 1783 0966 02       		.byte	0x2
 1784 0967 23       		.byte	0x23
 1785 0968 00       		.uleb128 0
 1786 0969 0A       		.uleb128 0xa
 1787 096a 6D050000 		.4byte	.LASF119
 1788 096e 0A       		.byte	0xa
 1789 096f 8302     		.2byte	0x283
 1790 0971 12       		.byte	0x12
 1791 0972 05080000 		.4byte	0x805
 1792 0976 02       		.byte	0x2
 1793 0977 23       		.byte	0x23
 1794 0978 04       		.uleb128 0x4
 1795 0979 0A       		.uleb128 0xa
 1796 097a 9C020000 		.4byte	.LASF120
 1797 097e 0A       		.byte	0xa
 1798 097f 8402     		.2byte	0x284
 1799 0981 10       		.byte	0x10
 1800 0982 930A0000 		.4byte	0xa93
 1801 0986 02       		.byte	0x2
ARM GAS  /var/folders/_2/qbh2zpt918qcm2b_6mgyydnm0000gn/T//ccliMEBq.s 			page 35


 1802 0987 23       		.byte	0x23
 1803 0988 08       		.uleb128 0x8
 1804 0989 0A       		.uleb128 0xa
 1805 098a ED060000 		.4byte	.LASF121
 1806 098e 0A       		.byte	0xa
 1807 098f 8502     		.2byte	0x285
 1808 0991 17       		.byte	0x17
 1809 0992 64030000 		.4byte	0x364
 1810 0996 02       		.byte	0x2
 1811 0997 23       		.byte	0x23
 1812 0998 24       		.uleb128 0x24
 1813 0999 0A       		.uleb128 0xa
 1814 099a A4030000 		.4byte	.LASF122
 1815 099e 0A       		.byte	0xa
 1816 099f 8602     		.2byte	0x286
 1817 09a1 0F       		.byte	0xf
 1818 09a2 8D000000 		.4byte	0x8d
 1819 09a6 02       		.byte	0x2
 1820 09a7 23       		.byte	0x23
 1821 09a8 48       		.uleb128 0x48
 1822 09a9 0A       		.uleb128 0xa
 1823 09aa 85020000 		.4byte	.LASF123
 1824 09ae 0A       		.byte	0xa
 1825 09af 8702     		.2byte	0x287
 1826 09b1 2C       		.byte	0x2c
 1827 09b2 86000000 		.4byte	0x86
 1828 09b6 02       		.byte	0x2
 1829 09b7 23       		.byte	0x23
 1830 09b8 50       		.uleb128 0x50
 1831 09b9 0A       		.uleb128 0xa
 1832 09ba 0E070000 		.4byte	.LASF124
 1833 09be 0A       		.byte	0xa
 1834 09bf 8802     		.2byte	0x288
 1835 09c1 1A       		.byte	0x1a
 1836 09c2 00090000 		.4byte	0x900
 1837 09c6 02       		.byte	0x2
 1838 09c7 23       		.byte	0x23
 1839 09c8 58       		.uleb128 0x58
 1840 09c9 0A       		.uleb128 0xa
 1841 09ca 93040000 		.4byte	.LASF125
 1842 09ce 0A       		.byte	0xa
 1843 09cf 8902     		.2byte	0x289
 1844 09d1 16       		.byte	0x16
 1845 09d2 C4020000 		.4byte	0x2c4
 1846 09d6 02       		.byte	0x2
 1847 09d7 23       		.byte	0x23
 1848 09d8 68       		.uleb128 0x68
 1849 09d9 0A       		.uleb128 0xa
 1850 09da 13070000 		.4byte	.LASF126
 1851 09de 0A       		.byte	0xa
 1852 09df 8A02     		.2byte	0x28a
 1853 09e1 16       		.byte	0x16
 1854 09e2 C4020000 		.4byte	0x2c4
 1855 09e6 02       		.byte	0x2
 1856 09e7 23       		.byte	0x23
 1857 09e8 70       		.uleb128 0x70
 1858 09e9 0A       		.uleb128 0xa
ARM GAS  /var/folders/_2/qbh2zpt918qcm2b_6mgyydnm0000gn/T//ccliMEBq.s 			page 36


 1859 09ea D2000000 		.4byte	.LASF127
 1860 09ee 0A       		.byte	0xa
 1861 09ef 8B02     		.2byte	0x28b
 1862 09f1 16       		.byte	0x16
 1863 09f2 C4020000 		.4byte	0x2c4
 1864 09f6 02       		.byte	0x2
 1865 09f7 23       		.byte	0x23
 1866 09f8 78       		.uleb128 0x78
 1867 09f9 0A       		.uleb128 0xa
 1868 09fa 98060000 		.4byte	.LASF128
 1869 09fe 0A       		.byte	0xa
 1870 09ff 8C02     		.2byte	0x28c
 1871 0a01 10       		.byte	0x10
 1872 0a02 A30A0000 		.4byte	0xaa3
 1873 0a06 03       		.byte	0x3
 1874 0a07 23       		.byte	0x23
 1875 0a08 8001     		.uleb128 0x80
 1876 0a0a 0A       		.uleb128 0xa
 1877 0a0b 90020000 		.4byte	.LASF129
 1878 0a0f 0A       		.byte	0xa
 1879 0a10 8D02     		.2byte	0x28d
 1880 0a12 10       		.byte	0x10
 1881 0a13 B30A0000 		.4byte	0xab3
 1882 0a17 03       		.byte	0x3
 1883 0a18 23       		.byte	0x23
 1884 0a19 8801     		.uleb128 0x88
 1885 0a1b 0A       		.uleb128 0xa
 1886 0a1c 46060000 		.4byte	.LASF130
 1887 0a20 0A       		.byte	0xa
 1888 0a21 8E02     		.2byte	0x28e
 1889 0a23 0F       		.byte	0xf
 1890 0a24 8D000000 		.4byte	0x8d
 1891 0a28 03       		.byte	0x3
 1892 0a29 23       		.byte	0x23
 1893 0a2a A001     		.uleb128 0xa0
 1894 0a2c 0A       		.uleb128 0xa
 1895 0a2d 96010000 		.4byte	.LASF131
 1896 0a31 0A       		.byte	0xa
 1897 0a32 8F02     		.2byte	0x28f
 1898 0a34 16       		.byte	0x16
 1899 0a35 C4020000 		.4byte	0x2c4
 1900 0a39 03       		.byte	0x3
 1901 0a3a 23       		.byte	0x23
 1902 0a3b A401     		.uleb128 0xa4
 1903 0a3d 0A       		.uleb128 0xa
 1904 0a3e C3000000 		.4byte	.LASF132
 1905 0a42 0A       		.byte	0xa
 1906 0a43 9002     		.2byte	0x290
 1907 0a45 16       		.byte	0x16
 1908 0a46 C4020000 		.4byte	0x2c4
 1909 0a4a 03       		.byte	0x3
 1910 0a4b 23       		.byte	0x23
 1911 0a4c AC01     		.uleb128 0xac
 1912 0a4e 0A       		.uleb128 0xa
 1913 0a4f 10020000 		.4byte	.LASF133
 1914 0a53 0A       		.byte	0xa
 1915 0a54 9102     		.2byte	0x291
ARM GAS  /var/folders/_2/qbh2zpt918qcm2b_6mgyydnm0000gn/T//ccliMEBq.s 			page 37


 1916 0a56 16       		.byte	0x16
 1917 0a57 C4020000 		.4byte	0x2c4
 1918 0a5b 03       		.byte	0x3
 1919 0a5c 23       		.byte	0x23
 1920 0a5d B401     		.uleb128 0xb4
 1921 0a5f 0A       		.uleb128 0xa
 1922 0a60 56000000 		.4byte	.LASF134
 1923 0a64 0A       		.byte	0xa
 1924 0a65 9202     		.2byte	0x292
 1925 0a67 16       		.byte	0x16
 1926 0a68 C4020000 		.4byte	0x2c4
 1927 0a6c 03       		.byte	0x3
 1928 0a6d 23       		.byte	0x23
 1929 0a6e BC01     		.uleb128 0xbc
 1930 0a70 0A       		.uleb128 0xa
 1931 0a71 65000000 		.4byte	.LASF135
 1932 0a75 0A       		.byte	0xa
 1933 0a76 9302     		.2byte	0x293
 1934 0a78 16       		.byte	0x16
 1935 0a79 C4020000 		.4byte	0x2c4
 1936 0a7d 03       		.byte	0x3
 1937 0a7e 23       		.byte	0x23
 1938 0a7f C401     		.uleb128 0xc4
 1939 0a81 0A       		.uleb128 0xa
 1940 0a82 45040000 		.4byte	.LASF136
 1941 0a86 0A       		.byte	0xa
 1942 0a87 9402     		.2byte	0x294
 1943 0a89 08       		.byte	0x8
 1944 0a8a 8D000000 		.4byte	0x8d
 1945 0a8e 03       		.byte	0x3
 1946 0a8f 23       		.byte	0x23
 1947 0a90 CC01     		.uleb128 0xcc
 1948 0a92 00       		.byte	0
 1949 0a93 0C       		.uleb128 0xc
 1950 0a94 0B080000 		.4byte	0x80b
 1951 0a98 A30A0000 		.4byte	0xaa3
 1952 0a9c 0D       		.uleb128 0xd
 1953 0a9d 94000000 		.4byte	0x94
 1954 0aa1 19       		.byte	0x19
 1955 0aa2 00       		.byte	0
 1956 0aa3 0C       		.uleb128 0xc
 1957 0aa4 0B080000 		.4byte	0x80b
 1958 0aa8 B30A0000 		.4byte	0xab3
 1959 0aac 0D       		.uleb128 0xd
 1960 0aad 94000000 		.4byte	0x94
 1961 0ab1 07       		.byte	0x7
 1962 0ab2 00       		.byte	0
 1963 0ab3 0C       		.uleb128 0xc
 1964 0ab4 0B080000 		.4byte	0x80b
 1965 0ab8 C30A0000 		.4byte	0xac3
 1966 0abc 0D       		.uleb128 0xd
 1967 0abd 94000000 		.4byte	0x94
 1968 0ac1 17       		.byte	0x17
 1969 0ac2 00       		.byte	0
 1970 0ac3 09       		.uleb128 0x9
 1971 0ac4 F0       		.byte	0xf0
 1972 0ac5 0A       		.byte	0xa
ARM GAS  /var/folders/_2/qbh2zpt918qcm2b_6mgyydnm0000gn/T//ccliMEBq.s 			page 38


 1973 0ac6 9902     		.2byte	0x299
 1974 0ac8 07       		.byte	0x7
 1975 0ac9 EE0A0000 		.4byte	0xaee
 1976 0acd 0A       		.uleb128 0xa
 1977 0ace 75030000 		.4byte	.LASF137
 1978 0ad2 0A       		.byte	0xa
 1979 0ad3 9C02     		.2byte	0x29c
 1980 0ad5 1B       		.byte	0x1b
 1981 0ad6 EE0A0000 		.4byte	0xaee
 1982 0ada 02       		.byte	0x2
 1983 0adb 23       		.byte	0x23
 1984 0adc 00       		.uleb128 0
 1985 0add 0A       		.uleb128 0xa
 1986 0ade 1E030000 		.4byte	.LASF138
 1987 0ae2 0A       		.byte	0xa
 1988 0ae3 9D02     		.2byte	0x29d
 1989 0ae5 18       		.byte	0x18
 1990 0ae6 FE0A0000 		.4byte	0xafe
 1991 0aea 02       		.byte	0x2
 1992 0aeb 23       		.byte	0x23
 1993 0aec 78       		.uleb128 0x78
 1994 0aed 00       		.byte	0
 1995 0aee 0C       		.uleb128 0xc
 1996 0aef ED040000 		.4byte	0x4ed
 1997 0af3 FE0A0000 		.4byte	0xafe
 1998 0af7 0D       		.uleb128 0xd
 1999 0af8 94000000 		.4byte	0x94
 2000 0afc 1D       		.byte	0x1d
 2001 0afd 00       		.byte	0
 2002 0afe 0C       		.uleb128 0xc
 2003 0aff 94000000 		.4byte	0x94
 2004 0b03 0E0B0000 		.4byte	0xb0e
 2005 0b07 0D       		.uleb128 0xd
 2006 0b08 94000000 		.4byte	0x94
 2007 0b0c 1D       		.byte	0x1d
 2008 0b0d 00       		.byte	0
 2009 0b0e 20       		.uleb128 0x20
 2010 0b0f F0       		.byte	0xf0
 2011 0b10 0A       		.byte	0xa
 2012 0b11 7E02     		.2byte	0x27e
 2013 0b13 03       		.byte	0x3
 2014 0b14 330B0000 		.4byte	0xb33
 2015 0b18 21       		.uleb128 0x21
 2016 0b19 DD040000 		.4byte	.LASF87
 2017 0b1d 0A       		.byte	0xa
 2018 0b1e 9502     		.2byte	0x295
 2019 0b20 0B       		.byte	0xb
 2020 0b21 4F090000 		.4byte	0x94f
 2021 0b25 21       		.uleb128 0x21
 2022 0b26 CE060000 		.4byte	.LASF139
 2023 0b2a 0A       		.byte	0xa
 2024 0b2b 9E02     		.2byte	0x29e
 2025 0b2d 0B       		.byte	0xb
 2026 0b2e C30A0000 		.4byte	0xac3
 2027 0b32 00       		.byte	0
 2028 0b33 0C       		.uleb128 0xc
 2029 0b34 0B080000 		.4byte	0x80b
ARM GAS  /var/folders/_2/qbh2zpt918qcm2b_6mgyydnm0000gn/T//ccliMEBq.s 			page 39


 2030 0b38 430B0000 		.4byte	0xb43
 2031 0b3c 0D       		.uleb128 0xd
 2032 0b3d 94000000 		.4byte	0x94
 2033 0b41 18       		.byte	0x18
 2034 0b42 00       		.byte	0
 2035 0b43 13       		.uleb128 0x13
 2036 0b44 9C000000 		.4byte	.LASF141
 2037 0b48 01       		.byte	0x1
 2038 0b49 12       		.uleb128 0x12
 2039 0b4a 04       		.byte	0x4
 2040 0b4b 430B0000 		.4byte	0xb43
 2041 0b4f 22       		.uleb128 0x22
 2042 0b50 01       		.byte	0x1
 2043 0b51 5B0B0000 		.4byte	0xb5b
 2044 0b55 1D       		.uleb128 0x1d
 2045 0b56 85060000 		.4byte	0x685
 2046 0b5a 00       		.byte	0
 2047 0b5b 12       		.uleb128 0x12
 2048 0b5c 04       		.byte	0x4
 2049 0b5d 4F0B0000 		.4byte	0xb4f
 2050 0b61 12       		.uleb128 0x12
 2051 0b62 04       		.byte	0x4
 2052 0b63 4E030000 		.4byte	0x34e
 2053 0b67 22       		.uleb128 0x22
 2054 0b68 01       		.byte	0x1
 2055 0b69 730B0000 		.4byte	0xb73
 2056 0b6d 1D       		.uleb128 0x1d
 2057 0b6e 8D000000 		.4byte	0x8d
 2058 0b72 00       		.byte	0
 2059 0b73 12       		.uleb128 0x12
 2060 0b74 04       		.byte	0x4
 2061 0b75 790B0000 		.4byte	0xb79
 2062 0b79 12       		.uleb128 0x12
 2063 0b7a 04       		.byte	0x4
 2064 0b7b 670B0000 		.4byte	0xb67
 2065 0b7f 0C       		.uleb128 0xc
 2066 0b80 A8080000 		.4byte	0x8a8
 2067 0b84 8F0B0000 		.4byte	0xb8f
 2068 0b88 0D       		.uleb128 0xd
 2069 0b89 94000000 		.4byte	0x94
 2070 0b8d 02       		.byte	0x2
 2071 0b8e 00       		.byte	0
 2072 0b8f 07       		.uleb128 0x7
 2073 0b90 F4010000 		.4byte	.LASF142
 2074 0b94 0A       		.byte	0xa
 2075 0b95 2E03     		.2byte	0x32e
 2076 0b97 17       		.byte	0x17
 2077 0b98 85060000 		.4byte	0x685
 2078 0b9c 01       		.byte	0x1
 2079 0b9d 01       		.byte	0x1
 2080 0b9e 07       		.uleb128 0x7
 2081 0b9f 53060000 		.4byte	.LASF143
 2082 0ba3 0A       		.byte	0xa
 2083 0ba4 2F03     		.2byte	0x32f
 2084 0ba6 1D       		.byte	0x1d
 2085 0ba7 8B060000 		.4byte	0x68b
 2086 0bab 01       		.byte	0x1
ARM GAS  /var/folders/_2/qbh2zpt918qcm2b_6mgyydnm0000gn/T//ccliMEBq.s 			page 40


 2087 0bac 01       		.byte	0x1
 2088 0bad 08       		.uleb128 0x8
 2089 0bae 8F030000 		.4byte	.LASF144
 2090 0bb2 0B       		.byte	0xb
 2091 0bb3 64       		.byte	0x64
 2092 0bb4 0E       		.byte	0xe
 2093 0bb5 05080000 		.4byte	0x805
 2094 0bb9 01       		.byte	0x1
 2095 0bba 01       		.byte	0x1
 2096 0bbb 0C       		.uleb128 0xc
 2097 0bbc A7000000 		.4byte	0xa7
 2098 0bc0 C60B0000 		.4byte	0xbc6
 2099 0bc4 23       		.uleb128 0x23
 2100 0bc5 00       		.byte	0
 2101 0bc6 05       		.uleb128 0x5
 2102 0bc7 BB0B0000 		.4byte	0xbbb
 2103 0bcb 08       		.uleb128 0x8
 2104 0bcc A7000000 		.4byte	.LASF145
 2105 0bd0 0C       		.byte	0xc
 2106 0bd1 0C       		.byte	0xc
 2107 0bd2 16       		.byte	0x16
 2108 0bd3 C60B0000 		.4byte	0xbc6
 2109 0bd7 01       		.byte	0x1
 2110 0bd8 01       		.byte	0x1
 2111 0bd9 08       		.uleb128 0x8
 2112 0bda 37030000 		.4byte	.LASF146
 2113 0bde 0C       		.byte	0xc
 2114 0bdf 0D       		.byte	0xd
 2115 0be0 16       		.byte	0x16
 2116 0be1 C60B0000 		.4byte	0xbc6
 2117 0be5 01       		.byte	0x1
 2118 0be6 01       		.byte	0x1
 2119 0be7 08       		.uleb128 0x8
 2120 0be8 D1010000 		.4byte	.LASF147
 2121 0bec 0C       		.byte	0xc
 2122 0bed 0E       		.byte	0xe
 2123 0bee 16       		.byte	0x16
 2124 0bef C60B0000 		.4byte	0xbc6
 2125 0bf3 01       		.byte	0x1
 2126 0bf4 01       		.byte	0x1
 2127 0bf5 08       		.uleb128 0x8
 2128 0bf6 FD020000 		.4byte	.LASF148
 2129 0bfa 0C       		.byte	0xc
 2130 0bfb 0F       		.byte	0xf
 2131 0bfc 16       		.byte	0x16
 2132 0bfd C60B0000 		.4byte	0xbc6
 2133 0c01 01       		.byte	0x1
 2134 0c02 01       		.byte	0x1
 2135 0c03 18       		.uleb128 0x18
 2136 0c04 14040000 		.4byte	.LASF149
 2137 0c08 0C       		.byte	0xc
 2138 0c09 0C       		.byte	0xc
 2139 0c0a 11       		.byte	0x11
 2140 0c0b 10       		.byte	0x10
 2141 0c0c 5C0C0000 		.4byte	0xc5c
 2142 0c10 17       		.uleb128 0x17
 2143 0c11 08040000 		.4byte	.LASF150
ARM GAS  /var/folders/_2/qbh2zpt918qcm2b_6mgyydnm0000gn/T//ccliMEBq.s 			page 41


 2144 0c15 0C       		.byte	0xc
 2145 0c16 12       		.byte	0x12
 2146 0c17 12       		.byte	0x12
 2147 0c18 5C0C0000 		.4byte	0xc5c
 2148 0c1c 02       		.byte	0x2
 2149 0c1d 23       		.byte	0x23
 2150 0c1e 00       		.uleb128 0
 2151 0c1f 17       		.uleb128 0x17
 2152 0c20 4D050000 		.4byte	.LASF151
 2153 0c24 0C       		.byte	0xc
 2154 0c25 13       		.byte	0x13
 2155 0c26 0B       		.byte	0xb
 2156 0c27 9B000000 		.4byte	0x9b
 2157 0c2b 02       		.byte	0x2
 2158 0c2c 23       		.byte	0x23
 2159 0c2d 04       		.uleb128 0x4
 2160 0c2e 19       		.uleb128 0x19
 2161 0c2f 506F7300 		.ascii	"Pos\000"
 2162 0c33 0C       		.byte	0xc
 2163 0c34 14       		.byte	0x14
 2164 0c35 0B       		.byte	0xb
 2165 0c36 9B000000 		.4byte	0x9b
 2166 0c3a 02       		.byte	0x2
 2167 0c3b 23       		.byte	0x23
 2168 0c3c 05       		.uleb128 0x5
 2169 0c3d 17       		.uleb128 0x17
 2170 0c3e 91010000 		.4byte	.LASF152
 2171 0c42 0C       		.byte	0xc
 2172 0c43 15       		.byte	0x15
 2173 0c44 0B       		.byte	0xb
 2174 0c45 9B000000 		.4byte	0x9b
 2175 0c49 02       		.byte	0x2
 2176 0c4a 23       		.byte	0x23
 2177 0c4b 06       		.uleb128 0x6
 2178 0c4c 17       		.uleb128 0x17
 2179 0c4d 37070000 		.4byte	.LASF153
 2180 0c51 0C       		.byte	0xc
 2181 0c52 16       		.byte	0x16
 2182 0c53 0C       		.byte	0xc
 2183 0c54 CE000000 		.4byte	0xce
 2184 0c58 02       		.byte	0x2
 2185 0c59 23       		.byte	0x23
 2186 0c5a 08       		.uleb128 0x8
 2187 0c5b 00       		.byte	0
 2188 0c5c 12       		.uleb128 0x12
 2189 0c5d 04       		.byte	0x4
 2190 0c5e A7000000 		.4byte	0xa7
 2191 0c62 03       		.uleb128 0x3
 2192 0c63 D3020000 		.4byte	.LASF154
 2193 0c67 0C       		.byte	0xc
 2194 0c68 17       		.byte	0x17
 2195 0c69 03       		.byte	0x3
 2196 0c6a 030C0000 		.4byte	0xc03
 2197 0c6e 08       		.uleb128 0x8
 2198 0c6f 26070000 		.4byte	.LASF155
 2199 0c73 0C       		.byte	0xc
 2200 0c74 18       		.byte	0x18
ARM GAS  /var/folders/_2/qbh2zpt918qcm2b_6mgyydnm0000gn/T//ccliMEBq.s 			page 42


 2201 0c75 11       		.byte	0x11
 2202 0c76 620C0000 		.4byte	0xc62
 2203 0c7a 01       		.byte	0x1
 2204 0c7b 01       		.byte	0x1
 2205 0c7c 22       		.uleb128 0x22
 2206 0c7d 01       		.byte	0x1
 2207 0c7e 880C0000 		.4byte	0xc88
 2208 0c82 1D       		.uleb128 0x1d
 2209 0c83 880C0000 		.4byte	0xc88
 2210 0c87 00       		.byte	0
 2211 0c88 02       		.uleb128 0x2
 2212 0c89 01       		.byte	0x1
 2213 0c8a 02       		.byte	0x2
 2214 0c8b 1D040000 		.4byte	.LASF156
 2215 0c8f 24       		.uleb128 0x24
 2216 0c90 BA030000 		.4byte	.LASF157
 2217 0c94 0C       		.byte	0xc
 2218 0c95 1C       		.byte	0x1c
 2219 0c96 08       		.byte	0x8
 2220 0c97 A20C0000 		.4byte	0xca2
 2221 0c9b 01       		.byte	0x1
 2222 0c9c 05       		.byte	0x5
 2223 0c9d 03       		.byte	0x3
 2224 0c9e 00000000 		.4byte	systemBeepPtr
 2225 0ca2 12       		.uleb128 0x12
 2226 0ca3 04       		.byte	0x4
 2227 0ca4 7C0C0000 		.4byte	0xc7c
 2228 0ca8 25       		.uleb128 0x25
 2229 0ca9 6E0C0000 		.4byte	0xc6e
 2230 0cad 01       		.byte	0x1
 2231 0cae 04       		.byte	0x4
 2232 0caf 0A       		.byte	0xa
 2233 0cb0 05       		.byte	0x5
 2234 0cb1 03       		.byte	0x3
 2235 0cb2 00000000 		.4byte	buzzer
 2236 0cb6 25       		.uleb128 0x25
 2237 0cb7 CB0B0000 		.4byte	0xbcb
 2238 0cbb 01       		.byte	0x1
 2239 0cbc 06       		.byte	0x6
 2240 0cbd 0F       		.byte	0xf
 2241 0cbe 05       		.byte	0x5
 2242 0cbf 03       		.byte	0x3
 2243 0cc0 00000000 		.4byte	buzz_shortBeep
 2244 0cc4 25       		.uleb128 0x25
 2245 0cc5 D90B0000 		.4byte	0xbd9
 2246 0cc9 01       		.byte	0x1
 2247 0cca 09       		.byte	0x9
 2248 0ccb 0F       		.byte	0xf
 2249 0ccc 05       		.byte	0x5
 2250 0ccd 03       		.byte	0x3
 2251 0cce 00000000 		.4byte	buzz_gyroCalibrated
 2252 0cd2 25       		.uleb128 0x25
 2253 0cd3 F50B0000 		.4byte	0xbf5
 2254 0cd7 01       		.byte	0x1
 2255 0cd8 0C       		.byte	0xc
 2256 0cd9 0F       		.byte	0xf
 2257 0cda 05       		.byte	0x5
ARM GAS  /var/folders/_2/qbh2zpt918qcm2b_6mgyydnm0000gn/T//ccliMEBq.s 			page 43


 2258 0cdb 03       		.byte	0x3
 2259 0cdc 00000000 		.4byte	buzz_disArmBeep
 2260 0ce0 25       		.uleb128 0x25
 2261 0ce1 E70B0000 		.4byte	0xbe7
 2262 0ce5 01       		.byte	0x1
 2263 0ce6 0F       		.byte	0xf
 2264 0ce7 0F       		.byte	0xf
 2265 0ce8 05       		.byte	0x5
 2266 0ce9 03       		.byte	0x3
 2267 0cea 00000000 		.4byte	buzz_readyBeep
 2268 0cee 26       		.uleb128 0x26
 2269 0cef 01       		.byte	0x1
 2270 0cf0 A4010000 		.4byte	.LASF159
 2271 0cf4 01       		.byte	0x1
 2272 0cf5 3E       		.byte	0x3e
 2273 0cf6 06       		.byte	0x6
 2274 0cf7 01       		.byte	0x1
 2275 0cf8 AC000000 		.4byte	.LFB130
 2276 0cfc C0000000 		.4byte	.LFE130
 2277 0d00 02       		.byte	0x2
 2278 0d01 7D       		.byte	0x7d
 2279 0d02 00       		.sleb128 0
 2280 0d03 01       		.byte	0x1
 2281 0d04 380D0000 		.4byte	0xd38
 2282 0d08 27       		.uleb128 0x27
 2283 0d09 3F040000 		.4byte	.LASF158
 2284 0d0d 01       		.byte	0x1
 2285 0d0e 3E       		.byte	0x3e
 2286 0d0f 1A       		.byte	0x1a
 2287 0d10 880C0000 		.4byte	0xc88
 2288 0d14 04000000 		.4byte	.LLST6
 2289 0d18 00000000 		.4byte	.LVUS6
 2290 0d1c 28       		.uleb128 0x28
 2291 0d1d BC000000 		.4byte	.LVL18
 2292 0d21 01       		.byte	0x1
 2293 0d22 7A0E0000 		.4byte	0xe7a
 2294 0d26 29       		.uleb128 0x29
 2295 0d27 01       		.byte	0x1
 2296 0d28 50       		.byte	0x50
 2297 0d29 05       		.byte	0x5
 2298 0d2a 0C       		.byte	0xc
 2299 0d2b 00080048 		.4byte	0x48000800
 2300 0d2f 29       		.uleb128 0x29
 2301 0d30 01       		.byte	0x1
 2302 0d31 51       		.byte	0x51
 2303 0d32 03       		.byte	0x3
 2304 0d33 0B       		.byte	0xb
 2305 0d34 0080     		.2byte	0x8000
 2306 0d36 00       		.byte	0
 2307 0d37 00       		.byte	0
 2308 0d38 2A       		.uleb128 0x2a
 2309 0d39 01       		.byte	0x1
 2310 0d3a E8020000 		.4byte	.LASF166
 2311 0d3e 01       		.byte	0x1
 2312 0d3f 3A       		.byte	0x3a
 2313 0d40 06       		.byte	0x6
 2314 0d41 01       		.byte	0x1
ARM GAS  /var/folders/_2/qbh2zpt918qcm2b_6mgyydnm0000gn/T//ccliMEBq.s 			page 44


 2315 0d42 10000000 		.4byte	.LFB129
 2316 0d46 1C000000 		.4byte	.LFE129
 2317 0d4a 02       		.byte	0x2
 2318 0d4b 7D       		.byte	0x7d
 2319 0d4c 00       		.sleb128 0
 2320 0d4d 660D0000 		.4byte	0xd66
 2321 0d51 27       		.uleb128 0x27
 2322 0d52 3F040000 		.4byte	.LASF158
 2323 0d56 01       		.byte	0x1
 2324 0d57 3A       		.byte	0x3a
 2325 0d58 18       		.byte	0x18
 2326 0d59 880C0000 		.4byte	0xc88
 2327 0d5d 29000000 		.4byte	.LLST0
 2328 0d61 25000000 		.4byte	.LVUS0
 2329 0d65 00       		.byte	0
 2330 0d66 2B       		.uleb128 0x2b
 2331 0d67 01       		.byte	0x1
 2332 0d68 27030000 		.4byte	.LASF167
 2333 0d6c 01       		.byte	0x1
 2334 0d6d 2C       		.byte	0x2c
 2335 0d6e 06       		.byte	0x6
 2336 0d6f 01       		.byte	0x1
 2337 0d70 01       		.byte	0x1
 2338 0d71 820D0000 		.4byte	0xd82
 2339 0d75 2C       		.uleb128 0x2c
 2340 0d76 D6060000 		.4byte	.LASF168
 2341 0d7a 01       		.byte	0x1
 2342 0d7b 2C       		.byte	0x2c
 2343 0d7c 1F       		.byte	0x1f
 2344 0d7d CE000000 		.4byte	0xce
 2345 0d81 00       		.byte	0
 2346 0d82 2D       		.uleb128 0x2d
 2347 0d83 01       		.byte	0x1
 2348 0d84 AC060000 		.4byte	.LASF160
 2349 0d88 01       		.byte	0x1
 2350 0d89 19       		.byte	0x19
 2351 0d8a 06       		.byte	0x6
 2352 0d8b 01       		.byte	0x1
 2353 0d8c 50000000 		.4byte	.LFB127
 2354 0d90 AC000000 		.4byte	.LFE127
 2355 0d94 4A000000 		.4byte	.LLST4
 2356 0d98 01       		.byte	0x1
 2357 0d99 FE0D0000 		.4byte	0xdfe
 2358 0d9d 27       		.uleb128 0x27
 2359 0d9e E0010000 		.4byte	.LASF161
 2360 0da2 01       		.byte	0x1
 2361 0da3 19       		.byte	0x19
 2362 0da4 23       		.byte	0x23
 2363 0da5 CE000000 		.4byte	0xce
 2364 0da9 82000000 		.4byte	.LLST5
 2365 0dad 76000000 		.4byte	.LVUS5
 2366 0db1 2E       		.uleb128 0x2e
 2367 0db2 7E000000 		.4byte	.LVL11
 2368 0db6 380D0000 		.4byte	0xd38
 2369 0dba C40D0000 		.4byte	0xdc4
 2370 0dbe 29       		.uleb128 0x29
 2371 0dbf 01       		.byte	0x1
ARM GAS  /var/folders/_2/qbh2zpt918qcm2b_6mgyydnm0000gn/T//ccliMEBq.s 			page 45


 2372 0dc0 50       		.byte	0x50
 2373 0dc1 01       		.byte	0x1
 2374 0dc2 31       		.byte	0x31
 2375 0dc3 00       		.byte	0
 2376 0dc4 2E       		.uleb128 0x2e
 2377 0dc5 84000000 		.4byte	.LVL12
 2378 0dc9 660D0000 		.4byte	0xd66
 2379 0dcd D80D0000 		.4byte	0xdd8
 2380 0dd1 29       		.uleb128 0x29
 2381 0dd2 01       		.byte	0x1
 2382 0dd3 50       		.byte	0x50
 2383 0dd4 02       		.byte	0x2
 2384 0dd5 75       		.byte	0x75
 2385 0dd6 00       		.sleb128 0
 2386 0dd7 00       		.byte	0
 2387 0dd8 2E       		.uleb128 0x2e
 2388 0dd9 9C000000 		.4byte	.LVL13
 2389 0ddd 380D0000 		.4byte	0xd38
 2390 0de1 EB0D0000 		.4byte	0xdeb
 2391 0de5 29       		.uleb128 0x29
 2392 0de6 01       		.byte	0x1
 2393 0de7 50       		.byte	0x50
 2394 0de8 01       		.byte	0x1
 2395 0de9 30       		.byte	0x30
 2396 0dea 00       		.byte	0
 2397 0deb 28       		.uleb128 0x28
 2398 0dec A6000000 		.4byte	.LVL15
 2399 0df0 01       		.byte	0x1
 2400 0df1 660D0000 		.4byte	0xd66
 2401 0df5 29       		.uleb128 0x29
 2402 0df6 01       		.byte	0x1
 2403 0df7 50       		.byte	0x50
 2404 0df8 03       		.byte	0x3
 2405 0df9 F3       		.byte	0xf3
 2406 0dfa 01       		.uleb128 0x1
 2407 0dfb 50       		.byte	0x50
 2408 0dfc 00       		.byte	0
 2409 0dfd 00       		.byte	0
 2410 0dfe 26       		.uleb128 0x26
 2411 0dff 01       		.byte	0x1
 2412 0e00 BF020000 		.4byte	.LASF162
 2413 0e04 01       		.byte	0x1
 2414 0e05 13       		.byte	0x13
 2415 0e06 06       		.byte	0x6
 2416 0e07 01       		.byte	0x1
 2417 0e08 00000000 		.4byte	.LFB126
 2418 0e0c 10000000 		.4byte	.LFE126
 2419 0e10 02       		.byte	0x2
 2420 0e11 7D       		.byte	0x7d
 2421 0e12 00       		.sleb128 0
 2422 0e13 01       		.byte	0x1
 2423 0e14 270E0000 		.4byte	0xe27
 2424 0e18 2F       		.uleb128 0x2f
 2425 0e19 87060000 		.4byte	.LASF169
 2426 0e1d 01       		.byte	0x1
 2427 0e1e 13       		.byte	0x13
 2428 0e1f 24       		.byte	0x24
ARM GAS  /var/folders/_2/qbh2zpt918qcm2b_6mgyydnm0000gn/T//ccliMEBq.s 			page 46


 2429 0e20 5C0C0000 		.4byte	0xc5c
 2430 0e24 01       		.byte	0x1
 2431 0e25 50       		.byte	0x50
 2432 0e26 00       		.byte	0
 2433 0e27 30       		.uleb128 0x30
 2434 0e28 660D0000 		.4byte	0xd66
 2435 0e2c 1C000000 		.4byte	.LFB128
 2436 0e30 50000000 		.4byte	.LFE128
 2437 0e34 CF000000 		.4byte	.LLST1
 2438 0e38 01       		.byte	0x1
 2439 0e39 7A0E0000 		.4byte	0xe7a
 2440 0e3d 31       		.uleb128 0x31
 2441 0e3e 750D0000 		.4byte	0xd75
 2442 0e42 19010000 		.4byte	.LLST2
 2443 0e46 13010000 		.4byte	.LVUS2
 2444 0e4a 32       		.uleb128 0x32
 2445 0e4b 660D0000 		.4byte	0xd66
 2446 0e4f 2A000000 		.4byte	.LBI4
 2447 0e53 00       		.byte	.LVU18
 2448 0e54 00000000 		.4byte	.Ldebug_ranges0+0
 2449 0e58 01       		.byte	0x1
 2450 0e59 2C       		.byte	0x2c
 2451 0e5a 06       		.byte	0x6
 2452 0e5b 31       		.uleb128 0x31
 2453 0e5c 750D0000 		.4byte	0xd75
 2454 0e60 49010000 		.4byte	.LLST3
 2455 0e64 45010000 		.4byte	.LVUS3
 2456 0e68 28       		.uleb128 0x28
 2457 0e69 38000000 		.4byte	.LVL6
 2458 0e6d 01       		.byte	0x1
 2459 0e6e 380D0000 		.4byte	0xd38
 2460 0e72 29       		.uleb128 0x29
 2461 0e73 01       		.byte	0x1
 2462 0e74 50       		.byte	0x50
 2463 0e75 01       		.byte	0x1
 2464 0e76 30       		.byte	0x30
 2465 0e77 00       		.byte	0
 2466 0e78 00       		.byte	0
 2467 0e79 00       		.byte	0
 2468 0e7a 33       		.uleb128 0x33
 2469 0e7b 01       		.byte	0x1
 2470 0e7c 01       		.byte	0x1
 2471 0e7d D2030000 		.4byte	.LASF170
 2472 0e81 D2030000 		.4byte	.LASF170
 2473 0e85 0D       		.byte	0xd
 2474 0e86 8101     		.2byte	0x181
 2475 0e88 06       		.byte	0x6
 2476 0e89 00       		.byte	0
 2477              		.section	.debug_abbrev,"",%progbits
 2478              	.Ldebug_abbrev0:
 2479 0000 01       		.uleb128 0x1
 2480 0001 11       		.uleb128 0x11
 2481 0002 01       		.byte	0x1
 2482 0003 25       		.uleb128 0x25
 2483 0004 0E       		.uleb128 0xe
 2484 0005 13       		.uleb128 0x13
 2485 0006 0B       		.uleb128 0xb
ARM GAS  /var/folders/_2/qbh2zpt918qcm2b_6mgyydnm0000gn/T//ccliMEBq.s 			page 47


 2486 0007 03       		.uleb128 0x3
 2487 0008 0E       		.uleb128 0xe
 2488 0009 1B       		.uleb128 0x1b
 2489 000a 0E       		.uleb128 0xe
 2490 000b 11       		.uleb128 0x11
 2491 000c 01       		.uleb128 0x1
 2492 000d 12       		.uleb128 0x12
 2493 000e 01       		.uleb128 0x1
 2494 000f 10       		.uleb128 0x10
 2495 0010 06       		.uleb128 0x6
 2496 0011 00       		.byte	0
 2497 0012 00       		.byte	0
 2498 0013 02       		.uleb128 0x2
 2499 0014 24       		.uleb128 0x24
 2500 0015 00       		.byte	0
 2501 0016 0B       		.uleb128 0xb
 2502 0017 0B       		.uleb128 0xb
 2503 0018 3E       		.uleb128 0x3e
 2504 0019 0B       		.uleb128 0xb
 2505 001a 03       		.uleb128 0x3
 2506 001b 0E       		.uleb128 0xe
 2507 001c 00       		.byte	0
 2508 001d 00       		.byte	0
 2509 001e 03       		.uleb128 0x3
 2510 001f 16       		.uleb128 0x16
 2511 0020 00       		.byte	0
 2512 0021 03       		.uleb128 0x3
 2513 0022 0E       		.uleb128 0xe
 2514 0023 3A       		.uleb128 0x3a
 2515 0024 0B       		.uleb128 0xb
 2516 0025 3B       		.uleb128 0x3b
 2517 0026 0B       		.uleb128 0xb
 2518 0027 39       		.uleb128 0x39
 2519 0028 0B       		.uleb128 0xb
 2520 0029 49       		.uleb128 0x49
 2521 002a 13       		.uleb128 0x13
 2522 002b 00       		.byte	0
 2523 002c 00       		.byte	0
 2524 002d 04       		.uleb128 0x4
 2525 002e 24       		.uleb128 0x24
 2526 002f 00       		.byte	0
 2527 0030 0B       		.uleb128 0xb
 2528 0031 0B       		.uleb128 0xb
 2529 0032 3E       		.uleb128 0x3e
 2530 0033 0B       		.uleb128 0xb
 2531 0034 03       		.uleb128 0x3
 2532 0035 08       		.uleb128 0x8
 2533 0036 00       		.byte	0
 2534 0037 00       		.byte	0
 2535 0038 05       		.uleb128 0x5
 2536 0039 26       		.uleb128 0x26
 2537 003a 00       		.byte	0
 2538 003b 49       		.uleb128 0x49
 2539 003c 13       		.uleb128 0x13
 2540 003d 00       		.byte	0
 2541 003e 00       		.byte	0
 2542 003f 06       		.uleb128 0x6
ARM GAS  /var/folders/_2/qbh2zpt918qcm2b_6mgyydnm0000gn/T//ccliMEBq.s 			page 48


 2543 0040 35       		.uleb128 0x35
 2544 0041 00       		.byte	0
 2545 0042 49       		.uleb128 0x49
 2546 0043 13       		.uleb128 0x13
 2547 0044 00       		.byte	0
 2548 0045 00       		.byte	0
 2549 0046 07       		.uleb128 0x7
 2550 0047 34       		.uleb128 0x34
 2551 0048 00       		.byte	0
 2552 0049 03       		.uleb128 0x3
 2553 004a 0E       		.uleb128 0xe
 2554 004b 3A       		.uleb128 0x3a
 2555 004c 0B       		.uleb128 0xb
 2556 004d 3B       		.uleb128 0x3b
 2557 004e 05       		.uleb128 0x5
 2558 004f 39       		.uleb128 0x39
 2559 0050 0B       		.uleb128 0xb
 2560 0051 49       		.uleb128 0x49
 2561 0052 13       		.uleb128 0x13
 2562 0053 3F       		.uleb128 0x3f
 2563 0054 0C       		.uleb128 0xc
 2564 0055 3C       		.uleb128 0x3c
 2565 0056 0C       		.uleb128 0xc
 2566 0057 00       		.byte	0
 2567 0058 00       		.byte	0
 2568 0059 08       		.uleb128 0x8
 2569 005a 34       		.uleb128 0x34
 2570 005b 00       		.byte	0
 2571 005c 03       		.uleb128 0x3
 2572 005d 0E       		.uleb128 0xe
 2573 005e 3A       		.uleb128 0x3a
 2574 005f 0B       		.uleb128 0xb
 2575 0060 3B       		.uleb128 0x3b
 2576 0061 0B       		.uleb128 0xb
 2577 0062 39       		.uleb128 0x39
 2578 0063 0B       		.uleb128 0xb
 2579 0064 49       		.uleb128 0x49
 2580 0065 13       		.uleb128 0x13
 2581 0066 3F       		.uleb128 0x3f
 2582 0067 0C       		.uleb128 0xc
 2583 0068 3C       		.uleb128 0x3c
 2584 0069 0C       		.uleb128 0xc
 2585 006a 00       		.byte	0
 2586 006b 00       		.byte	0
 2587 006c 09       		.uleb128 0x9
 2588 006d 13       		.uleb128 0x13
 2589 006e 01       		.byte	0x1
 2590 006f 0B       		.uleb128 0xb
 2591 0070 0B       		.uleb128 0xb
 2592 0071 3A       		.uleb128 0x3a
 2593 0072 0B       		.uleb128 0xb
 2594 0073 3B       		.uleb128 0x3b
 2595 0074 05       		.uleb128 0x5
 2596 0075 39       		.uleb128 0x39
 2597 0076 0B       		.uleb128 0xb
 2598 0077 01       		.uleb128 0x1
 2599 0078 13       		.uleb128 0x13
ARM GAS  /var/folders/_2/qbh2zpt918qcm2b_6mgyydnm0000gn/T//ccliMEBq.s 			page 49


 2600 0079 00       		.byte	0
 2601 007a 00       		.byte	0
 2602 007b 0A       		.uleb128 0xa
 2603 007c 0D       		.uleb128 0xd
 2604 007d 00       		.byte	0
 2605 007e 03       		.uleb128 0x3
 2606 007f 0E       		.uleb128 0xe
 2607 0080 3A       		.uleb128 0x3a
 2608 0081 0B       		.uleb128 0xb
 2609 0082 3B       		.uleb128 0x3b
 2610 0083 05       		.uleb128 0x5
 2611 0084 39       		.uleb128 0x39
 2612 0085 0B       		.uleb128 0xb
 2613 0086 49       		.uleb128 0x49
 2614 0087 13       		.uleb128 0x13
 2615 0088 38       		.uleb128 0x38
 2616 0089 0A       		.uleb128 0xa
 2617 008a 00       		.byte	0
 2618 008b 00       		.byte	0
 2619 008c 0B       		.uleb128 0xb
 2620 008d 0D       		.uleb128 0xd
 2621 008e 00       		.byte	0
 2622 008f 03       		.uleb128 0x3
 2623 0090 08       		.uleb128 0x8
 2624 0091 3A       		.uleb128 0x3a
 2625 0092 0B       		.uleb128 0xb
 2626 0093 3B       		.uleb128 0x3b
 2627 0094 05       		.uleb128 0x5
 2628 0095 39       		.uleb128 0x39
 2629 0096 0B       		.uleb128 0xb
 2630 0097 49       		.uleb128 0x49
 2631 0098 13       		.uleb128 0x13
 2632 0099 38       		.uleb128 0x38
 2633 009a 0A       		.uleb128 0xa
 2634 009b 00       		.byte	0
 2635 009c 00       		.byte	0
 2636 009d 0C       		.uleb128 0xc
 2637 009e 01       		.uleb128 0x1
 2638 009f 01       		.byte	0x1
 2639 00a0 49       		.uleb128 0x49
 2640 00a1 13       		.uleb128 0x13
 2641 00a2 01       		.uleb128 0x1
 2642 00a3 13       		.uleb128 0x13
 2643 00a4 00       		.byte	0
 2644 00a5 00       		.byte	0
 2645 00a6 0D       		.uleb128 0xd
 2646 00a7 21       		.uleb128 0x21
 2647 00a8 00       		.byte	0
 2648 00a9 49       		.uleb128 0x49
 2649 00aa 13       		.uleb128 0x13
 2650 00ab 2F       		.uleb128 0x2f
 2651 00ac 0B       		.uleb128 0xb
 2652 00ad 00       		.byte	0
 2653 00ae 00       		.byte	0
 2654 00af 0E       		.uleb128 0xe
 2655 00b0 16       		.uleb128 0x16
 2656 00b1 00       		.byte	0
ARM GAS  /var/folders/_2/qbh2zpt918qcm2b_6mgyydnm0000gn/T//ccliMEBq.s 			page 50


 2657 00b2 03       		.uleb128 0x3
 2658 00b3 0E       		.uleb128 0xe
 2659 00b4 3A       		.uleb128 0x3a
 2660 00b5 0B       		.uleb128 0xb
 2661 00b6 3B       		.uleb128 0x3b
 2662 00b7 05       		.uleb128 0x5
 2663 00b8 39       		.uleb128 0x39
 2664 00b9 0B       		.uleb128 0xb
 2665 00ba 49       		.uleb128 0x49
 2666 00bb 13       		.uleb128 0x13
 2667 00bc 00       		.byte	0
 2668 00bd 00       		.byte	0
 2669 00be 0F       		.uleb128 0xf
 2670 00bf 04       		.uleb128 0x4
 2671 00c0 01       		.byte	0x1
 2672 00c1 3E       		.uleb128 0x3e
 2673 00c2 0B       		.uleb128 0xb
 2674 00c3 0B       		.uleb128 0xb
 2675 00c4 0B       		.uleb128 0xb
 2676 00c5 49       		.uleb128 0x49
 2677 00c6 13       		.uleb128 0x13
 2678 00c7 3A       		.uleb128 0x3a
 2679 00c8 0B       		.uleb128 0xb
 2680 00c9 3B       		.uleb128 0x3b
 2681 00ca 0B       		.uleb128 0xb
 2682 00cb 39       		.uleb128 0x39
 2683 00cc 0B       		.uleb128 0xb
 2684 00cd 01       		.uleb128 0x1
 2685 00ce 13       		.uleb128 0x13
 2686 00cf 00       		.byte	0
 2687 00d0 00       		.byte	0
 2688 00d1 10       		.uleb128 0x10
 2689 00d2 28       		.uleb128 0x28
 2690 00d3 00       		.byte	0
 2691 00d4 03       		.uleb128 0x3
 2692 00d5 0E       		.uleb128 0xe
 2693 00d6 1C       		.uleb128 0x1c
 2694 00d7 0B       		.uleb128 0xb
 2695 00d8 00       		.byte	0
 2696 00d9 00       		.byte	0
 2697 00da 11       		.uleb128 0x11
 2698 00db 0F       		.uleb128 0xf
 2699 00dc 00       		.byte	0
 2700 00dd 0B       		.uleb128 0xb
 2701 00de 0B       		.uleb128 0xb
 2702 00df 00       		.byte	0
 2703 00e0 00       		.byte	0
 2704 00e1 12       		.uleb128 0x12
 2705 00e2 0F       		.uleb128 0xf
 2706 00e3 00       		.byte	0
 2707 00e4 0B       		.uleb128 0xb
 2708 00e5 0B       		.uleb128 0xb
 2709 00e6 49       		.uleb128 0x49
 2710 00e7 13       		.uleb128 0x13
 2711 00e8 00       		.byte	0
 2712 00e9 00       		.byte	0
 2713 00ea 13       		.uleb128 0x13
ARM GAS  /var/folders/_2/qbh2zpt918qcm2b_6mgyydnm0000gn/T//ccliMEBq.s 			page 51


 2714 00eb 13       		.uleb128 0x13
 2715 00ec 00       		.byte	0
 2716 00ed 03       		.uleb128 0x3
 2717 00ee 0E       		.uleb128 0xe
 2718 00ef 3C       		.uleb128 0x3c
 2719 00f0 0C       		.uleb128 0xc
 2720 00f1 00       		.byte	0
 2721 00f2 00       		.byte	0
 2722 00f3 14       		.uleb128 0x14
 2723 00f4 17       		.uleb128 0x17
 2724 00f5 01       		.byte	0x1
 2725 00f6 0B       		.uleb128 0xb
 2726 00f7 0B       		.uleb128 0xb
 2727 00f8 3A       		.uleb128 0x3a
 2728 00f9 0B       		.uleb128 0xb
 2729 00fa 3B       		.uleb128 0x3b
 2730 00fb 0B       		.uleb128 0xb
 2731 00fc 39       		.uleb128 0x39
 2732 00fd 0B       		.uleb128 0xb
 2733 00fe 01       		.uleb128 0x1
 2734 00ff 13       		.uleb128 0x13
 2735 0100 00       		.byte	0
 2736 0101 00       		.byte	0
 2737 0102 15       		.uleb128 0x15
 2738 0103 0D       		.uleb128 0xd
 2739 0104 00       		.byte	0
 2740 0105 03       		.uleb128 0x3
 2741 0106 0E       		.uleb128 0xe
 2742 0107 3A       		.uleb128 0x3a
 2743 0108 0B       		.uleb128 0xb
 2744 0109 3B       		.uleb128 0x3b
 2745 010a 0B       		.uleb128 0xb
 2746 010b 39       		.uleb128 0x39
 2747 010c 0B       		.uleb128 0xb
 2748 010d 49       		.uleb128 0x49
 2749 010e 13       		.uleb128 0x13
 2750 010f 00       		.byte	0
 2751 0110 00       		.byte	0
 2752 0111 16       		.uleb128 0x16
 2753 0112 13       		.uleb128 0x13
 2754 0113 01       		.byte	0x1
 2755 0114 0B       		.uleb128 0xb
 2756 0115 0B       		.uleb128 0xb
 2757 0116 3A       		.uleb128 0x3a
 2758 0117 0B       		.uleb128 0xb
 2759 0118 3B       		.uleb128 0x3b
 2760 0119 0B       		.uleb128 0xb
 2761 011a 39       		.uleb128 0x39
 2762 011b 0B       		.uleb128 0xb
 2763 011c 01       		.uleb128 0x1
 2764 011d 13       		.uleb128 0x13
 2765 011e 00       		.byte	0
 2766 011f 00       		.byte	0
 2767 0120 17       		.uleb128 0x17
 2768 0121 0D       		.uleb128 0xd
 2769 0122 00       		.byte	0
 2770 0123 03       		.uleb128 0x3
ARM GAS  /var/folders/_2/qbh2zpt918qcm2b_6mgyydnm0000gn/T//ccliMEBq.s 			page 52


 2771 0124 0E       		.uleb128 0xe
 2772 0125 3A       		.uleb128 0x3a
 2773 0126 0B       		.uleb128 0xb
 2774 0127 3B       		.uleb128 0x3b
 2775 0128 0B       		.uleb128 0xb
 2776 0129 39       		.uleb128 0x39
 2777 012a 0B       		.uleb128 0xb
 2778 012b 49       		.uleb128 0x49
 2779 012c 13       		.uleb128 0x13
 2780 012d 38       		.uleb128 0x38
 2781 012e 0A       		.uleb128 0xa
 2782 012f 00       		.byte	0
 2783 0130 00       		.byte	0
 2784 0131 18       		.uleb128 0x18
 2785 0132 13       		.uleb128 0x13
 2786 0133 01       		.byte	0x1
 2787 0134 03       		.uleb128 0x3
 2788 0135 0E       		.uleb128 0xe
 2789 0136 0B       		.uleb128 0xb
 2790 0137 0B       		.uleb128 0xb
 2791 0138 3A       		.uleb128 0x3a
 2792 0139 0B       		.uleb128 0xb
 2793 013a 3B       		.uleb128 0x3b
 2794 013b 0B       		.uleb128 0xb
 2795 013c 39       		.uleb128 0x39
 2796 013d 0B       		.uleb128 0xb
 2797 013e 01       		.uleb128 0x1
 2798 013f 13       		.uleb128 0x13
 2799 0140 00       		.byte	0
 2800 0141 00       		.byte	0
 2801 0142 19       		.uleb128 0x19
 2802 0143 0D       		.uleb128 0xd
 2803 0144 00       		.byte	0
 2804 0145 03       		.uleb128 0x3
 2805 0146 08       		.uleb128 0x8
 2806 0147 3A       		.uleb128 0x3a
 2807 0148 0B       		.uleb128 0xb
 2808 0149 3B       		.uleb128 0x3b
 2809 014a 0B       		.uleb128 0xb
 2810 014b 39       		.uleb128 0x39
 2811 014c 0B       		.uleb128 0xb
 2812 014d 49       		.uleb128 0x49
 2813 014e 13       		.uleb128 0x13
 2814 014f 38       		.uleb128 0x38
 2815 0150 0A       		.uleb128 0xa
 2816 0151 00       		.byte	0
 2817 0152 00       		.byte	0
 2818 0153 1A       		.uleb128 0x1a
 2819 0154 13       		.uleb128 0x13
 2820 0155 01       		.byte	0x1
 2821 0156 03       		.uleb128 0x3
 2822 0157 0E       		.uleb128 0xe
 2823 0158 0B       		.uleb128 0xb
 2824 0159 05       		.uleb128 0x5
 2825 015a 3A       		.uleb128 0x3a
 2826 015b 0B       		.uleb128 0xb
 2827 015c 3B       		.uleb128 0x3b
ARM GAS  /var/folders/_2/qbh2zpt918qcm2b_6mgyydnm0000gn/T//ccliMEBq.s 			page 53


 2828 015d 0B       		.uleb128 0xb
 2829 015e 39       		.uleb128 0x39
 2830 015f 0B       		.uleb128 0xb
 2831 0160 01       		.uleb128 0x1
 2832 0161 13       		.uleb128 0x13
 2833 0162 00       		.byte	0
 2834 0163 00       		.byte	0
 2835 0164 1B       		.uleb128 0x1b
 2836 0165 15       		.uleb128 0x15
 2837 0166 00       		.byte	0
 2838 0167 27       		.uleb128 0x27
 2839 0168 0C       		.uleb128 0xc
 2840 0169 00       		.byte	0
 2841 016a 00       		.byte	0
 2842 016b 1C       		.uleb128 0x1c
 2843 016c 15       		.uleb128 0x15
 2844 016d 01       		.byte	0x1
 2845 016e 27       		.uleb128 0x27
 2846 016f 0C       		.uleb128 0xc
 2847 0170 49       		.uleb128 0x49
 2848 0171 13       		.uleb128 0x13
 2849 0172 01       		.uleb128 0x1
 2850 0173 13       		.uleb128 0x13
 2851 0174 00       		.byte	0
 2852 0175 00       		.byte	0
 2853 0176 1D       		.uleb128 0x1d
 2854 0177 05       		.uleb128 0x5
 2855 0178 00       		.byte	0
 2856 0179 49       		.uleb128 0x49
 2857 017a 13       		.uleb128 0x13
 2858 017b 00       		.byte	0
 2859 017c 00       		.byte	0
 2860 017d 1E       		.uleb128 0x1e
 2861 017e 13       		.uleb128 0x13
 2862 017f 01       		.byte	0x1
 2863 0180 03       		.uleb128 0x3
 2864 0181 0E       		.uleb128 0xe
 2865 0182 0B       		.uleb128 0xb
 2866 0183 05       		.uleb128 0x5
 2867 0184 3A       		.uleb128 0x3a
 2868 0185 0B       		.uleb128 0xb
 2869 0186 3B       		.uleb128 0x3b
 2870 0187 05       		.uleb128 0x5
 2871 0188 39       		.uleb128 0x39
 2872 0189 0B       		.uleb128 0xb
 2873 018a 01       		.uleb128 0x1
 2874 018b 13       		.uleb128 0x13
 2875 018c 00       		.byte	0
 2876 018d 00       		.byte	0
 2877 018e 1F       		.uleb128 0x1f
 2878 018f 13       		.uleb128 0x13
 2879 0190 01       		.byte	0x1
 2880 0191 03       		.uleb128 0x3
 2881 0192 0E       		.uleb128 0xe
 2882 0193 0B       		.uleb128 0xb
 2883 0194 0B       		.uleb128 0xb
 2884 0195 3A       		.uleb128 0x3a
ARM GAS  /var/folders/_2/qbh2zpt918qcm2b_6mgyydnm0000gn/T//ccliMEBq.s 			page 54


 2885 0196 0B       		.uleb128 0xb
 2886 0197 3B       		.uleb128 0x3b
 2887 0198 05       		.uleb128 0x5
 2888 0199 39       		.uleb128 0x39
 2889 019a 0B       		.uleb128 0xb
 2890 019b 01       		.uleb128 0x1
 2891 019c 13       		.uleb128 0x13
 2892 019d 00       		.byte	0
 2893 019e 00       		.byte	0
 2894 019f 20       		.uleb128 0x20
 2895 01a0 17       		.uleb128 0x17
 2896 01a1 01       		.byte	0x1
 2897 01a2 0B       		.uleb128 0xb
 2898 01a3 0B       		.uleb128 0xb
 2899 01a4 3A       		.uleb128 0x3a
 2900 01a5 0B       		.uleb128 0xb
 2901 01a6 3B       		.uleb128 0x3b
 2902 01a7 05       		.uleb128 0x5
 2903 01a8 39       		.uleb128 0x39
 2904 01a9 0B       		.uleb128 0xb
 2905 01aa 01       		.uleb128 0x1
 2906 01ab 13       		.uleb128 0x13
 2907 01ac 00       		.byte	0
 2908 01ad 00       		.byte	0
 2909 01ae 21       		.uleb128 0x21
 2910 01af 0D       		.uleb128 0xd
 2911 01b0 00       		.byte	0
 2912 01b1 03       		.uleb128 0x3
 2913 01b2 0E       		.uleb128 0xe
 2914 01b3 3A       		.uleb128 0x3a
 2915 01b4 0B       		.uleb128 0xb
 2916 01b5 3B       		.uleb128 0x3b
 2917 01b6 05       		.uleb128 0x5
 2918 01b7 39       		.uleb128 0x39
 2919 01b8 0B       		.uleb128 0xb
 2920 01b9 49       		.uleb128 0x49
 2921 01ba 13       		.uleb128 0x13
 2922 01bb 00       		.byte	0
 2923 01bc 00       		.byte	0
 2924 01bd 22       		.uleb128 0x22
 2925 01be 15       		.uleb128 0x15
 2926 01bf 01       		.byte	0x1
 2927 01c0 27       		.uleb128 0x27
 2928 01c1 0C       		.uleb128 0xc
 2929 01c2 01       		.uleb128 0x1
 2930 01c3 13       		.uleb128 0x13
 2931 01c4 00       		.byte	0
 2932 01c5 00       		.byte	0
 2933 01c6 23       		.uleb128 0x23
 2934 01c7 21       		.uleb128 0x21
 2935 01c8 00       		.byte	0
 2936 01c9 00       		.byte	0
 2937 01ca 00       		.byte	0
 2938 01cb 24       		.uleb128 0x24
 2939 01cc 34       		.uleb128 0x34
 2940 01cd 00       		.byte	0
 2941 01ce 03       		.uleb128 0x3
ARM GAS  /var/folders/_2/qbh2zpt918qcm2b_6mgyydnm0000gn/T//ccliMEBq.s 			page 55


 2942 01cf 0E       		.uleb128 0xe
 2943 01d0 3A       		.uleb128 0x3a
 2944 01d1 0B       		.uleb128 0xb
 2945 01d2 3B       		.uleb128 0x3b
 2946 01d3 0B       		.uleb128 0xb
 2947 01d4 39       		.uleb128 0x39
 2948 01d5 0B       		.uleb128 0xb
 2949 01d6 49       		.uleb128 0x49
 2950 01d7 13       		.uleb128 0x13
 2951 01d8 3F       		.uleb128 0x3f
 2952 01d9 0C       		.uleb128 0xc
 2953 01da 02       		.uleb128 0x2
 2954 01db 0A       		.uleb128 0xa
 2955 01dc 00       		.byte	0
 2956 01dd 00       		.byte	0
 2957 01de 25       		.uleb128 0x25
 2958 01df 34       		.uleb128 0x34
 2959 01e0 00       		.byte	0
 2960 01e1 47       		.uleb128 0x47
 2961 01e2 13       		.uleb128 0x13
 2962 01e3 3A       		.uleb128 0x3a
 2963 01e4 0B       		.uleb128 0xb
 2964 01e5 3B       		.uleb128 0x3b
 2965 01e6 0B       		.uleb128 0xb
 2966 01e7 39       		.uleb128 0x39
 2967 01e8 0B       		.uleb128 0xb
 2968 01e9 02       		.uleb128 0x2
 2969 01ea 0A       		.uleb128 0xa
 2970 01eb 00       		.byte	0
 2971 01ec 00       		.byte	0
 2972 01ed 26       		.uleb128 0x26
 2973 01ee 2E       		.uleb128 0x2e
 2974 01ef 01       		.byte	0x1
 2975 01f0 3F       		.uleb128 0x3f
 2976 01f1 0C       		.uleb128 0xc
 2977 01f2 03       		.uleb128 0x3
 2978 01f3 0E       		.uleb128 0xe
 2979 01f4 3A       		.uleb128 0x3a
 2980 01f5 0B       		.uleb128 0xb
 2981 01f6 3B       		.uleb128 0x3b
 2982 01f7 0B       		.uleb128 0xb
 2983 01f8 39       		.uleb128 0x39
 2984 01f9 0B       		.uleb128 0xb
 2985 01fa 27       		.uleb128 0x27
 2986 01fb 0C       		.uleb128 0xc
 2987 01fc 11       		.uleb128 0x11
 2988 01fd 01       		.uleb128 0x1
 2989 01fe 12       		.uleb128 0x12
 2990 01ff 01       		.uleb128 0x1
 2991 0200 40       		.uleb128 0x40
 2992 0201 0A       		.uleb128 0xa
 2993 0202 9742     		.uleb128 0x2117
 2994 0204 0C       		.uleb128 0xc
 2995 0205 01       		.uleb128 0x1
 2996 0206 13       		.uleb128 0x13
 2997 0207 00       		.byte	0
 2998 0208 00       		.byte	0
ARM GAS  /var/folders/_2/qbh2zpt918qcm2b_6mgyydnm0000gn/T//ccliMEBq.s 			page 56


 2999 0209 27       		.uleb128 0x27
 3000 020a 05       		.uleb128 0x5
 3001 020b 00       		.byte	0
 3002 020c 03       		.uleb128 0x3
 3003 020d 0E       		.uleb128 0xe
 3004 020e 3A       		.uleb128 0x3a
 3005 020f 0B       		.uleb128 0xb
 3006 0210 3B       		.uleb128 0x3b
 3007 0211 0B       		.uleb128 0xb
 3008 0212 39       		.uleb128 0x39
 3009 0213 0B       		.uleb128 0xb
 3010 0214 49       		.uleb128 0x49
 3011 0215 13       		.uleb128 0x13
 3012 0216 02       		.uleb128 0x2
 3013 0217 06       		.uleb128 0x6
 3014 0218 B742     		.uleb128 0x2137
 3015 021a 06       		.uleb128 0x6
 3016 021b 00       		.byte	0
 3017 021c 00       		.byte	0
 3018 021d 28       		.uleb128 0x28
 3019 021e 898201   		.uleb128 0x4109
 3020 0221 01       		.byte	0x1
 3021 0222 11       		.uleb128 0x11
 3022 0223 01       		.uleb128 0x1
 3023 0224 9542     		.uleb128 0x2115
 3024 0226 0C       		.uleb128 0xc
 3025 0227 31       		.uleb128 0x31
 3026 0228 13       		.uleb128 0x13
 3027 0229 00       		.byte	0
 3028 022a 00       		.byte	0
 3029 022b 29       		.uleb128 0x29
 3030 022c 8A8201   		.uleb128 0x410a
 3031 022f 00       		.byte	0
 3032 0230 02       		.uleb128 0x2
 3033 0231 0A       		.uleb128 0xa
 3034 0232 9142     		.uleb128 0x2111
 3035 0234 0A       		.uleb128 0xa
 3036 0235 00       		.byte	0
 3037 0236 00       		.byte	0
 3038 0237 2A       		.uleb128 0x2a
 3039 0238 2E       		.uleb128 0x2e
 3040 0239 01       		.byte	0x1
 3041 023a 3F       		.uleb128 0x3f
 3042 023b 0C       		.uleb128 0xc
 3043 023c 03       		.uleb128 0x3
 3044 023d 0E       		.uleb128 0xe
 3045 023e 3A       		.uleb128 0x3a
 3046 023f 0B       		.uleb128 0xb
 3047 0240 3B       		.uleb128 0x3b
 3048 0241 0B       		.uleb128 0xb
 3049 0242 39       		.uleb128 0x39
 3050 0243 0B       		.uleb128 0xb
 3051 0244 27       		.uleb128 0x27
 3052 0245 0C       		.uleb128 0xc
 3053 0246 11       		.uleb128 0x11
 3054 0247 01       		.uleb128 0x1
 3055 0248 12       		.uleb128 0x12
ARM GAS  /var/folders/_2/qbh2zpt918qcm2b_6mgyydnm0000gn/T//ccliMEBq.s 			page 57


 3056 0249 01       		.uleb128 0x1
 3057 024a 40       		.uleb128 0x40
 3058 024b 0A       		.uleb128 0xa
 3059 024c 01       		.uleb128 0x1
 3060 024d 13       		.uleb128 0x13
 3061 024e 00       		.byte	0
 3062 024f 00       		.byte	0
 3063 0250 2B       		.uleb128 0x2b
 3064 0251 2E       		.uleb128 0x2e
 3065 0252 01       		.byte	0x1
 3066 0253 3F       		.uleb128 0x3f
 3067 0254 0C       		.uleb128 0xc
 3068 0255 03       		.uleb128 0x3
 3069 0256 0E       		.uleb128 0xe
 3070 0257 3A       		.uleb128 0x3a
 3071 0258 0B       		.uleb128 0xb
 3072 0259 3B       		.uleb128 0x3b
 3073 025a 0B       		.uleb128 0xb
 3074 025b 39       		.uleb128 0x39
 3075 025c 0B       		.uleb128 0xb
 3076 025d 27       		.uleb128 0x27
 3077 025e 0C       		.uleb128 0xc
 3078 025f 20       		.uleb128 0x20
 3079 0260 0B       		.uleb128 0xb
 3080 0261 01       		.uleb128 0x1
 3081 0262 13       		.uleb128 0x13
 3082 0263 00       		.byte	0
 3083 0264 00       		.byte	0
 3084 0265 2C       		.uleb128 0x2c
 3085 0266 05       		.uleb128 0x5
 3086 0267 00       		.byte	0
 3087 0268 03       		.uleb128 0x3
 3088 0269 0E       		.uleb128 0xe
 3089 026a 3A       		.uleb128 0x3a
 3090 026b 0B       		.uleb128 0xb
 3091 026c 3B       		.uleb128 0x3b
 3092 026d 0B       		.uleb128 0xb
 3093 026e 39       		.uleb128 0x39
 3094 026f 0B       		.uleb128 0xb
 3095 0270 49       		.uleb128 0x49
 3096 0271 13       		.uleb128 0x13
 3097 0272 00       		.byte	0
 3098 0273 00       		.byte	0
 3099 0274 2D       		.uleb128 0x2d
 3100 0275 2E       		.uleb128 0x2e
 3101 0276 01       		.byte	0x1
 3102 0277 3F       		.uleb128 0x3f
 3103 0278 0C       		.uleb128 0xc
 3104 0279 03       		.uleb128 0x3
 3105 027a 0E       		.uleb128 0xe
 3106 027b 3A       		.uleb128 0x3a
 3107 027c 0B       		.uleb128 0xb
 3108 027d 3B       		.uleb128 0x3b
 3109 027e 0B       		.uleb128 0xb
 3110 027f 39       		.uleb128 0x39
 3111 0280 0B       		.uleb128 0xb
 3112 0281 27       		.uleb128 0x27
ARM GAS  /var/folders/_2/qbh2zpt918qcm2b_6mgyydnm0000gn/T//ccliMEBq.s 			page 58


 3113 0282 0C       		.uleb128 0xc
 3114 0283 11       		.uleb128 0x11
 3115 0284 01       		.uleb128 0x1
 3116 0285 12       		.uleb128 0x12
 3117 0286 01       		.uleb128 0x1
 3118 0287 40       		.uleb128 0x40
 3119 0288 06       		.uleb128 0x6
 3120 0289 9742     		.uleb128 0x2117
 3121 028b 0C       		.uleb128 0xc
 3122 028c 01       		.uleb128 0x1
 3123 028d 13       		.uleb128 0x13
 3124 028e 00       		.byte	0
 3125 028f 00       		.byte	0
 3126 0290 2E       		.uleb128 0x2e
 3127 0291 898201   		.uleb128 0x4109
 3128 0294 01       		.byte	0x1
 3129 0295 11       		.uleb128 0x11
 3130 0296 01       		.uleb128 0x1
 3131 0297 31       		.uleb128 0x31
 3132 0298 13       		.uleb128 0x13
 3133 0299 01       		.uleb128 0x1
 3134 029a 13       		.uleb128 0x13
 3135 029b 00       		.byte	0
 3136 029c 00       		.byte	0
 3137 029d 2F       		.uleb128 0x2f
 3138 029e 05       		.uleb128 0x5
 3139 029f 00       		.byte	0
 3140 02a0 03       		.uleb128 0x3
 3141 02a1 0E       		.uleb128 0xe
 3142 02a2 3A       		.uleb128 0x3a
 3143 02a3 0B       		.uleb128 0xb
 3144 02a4 3B       		.uleb128 0x3b
 3145 02a5 0B       		.uleb128 0xb
 3146 02a6 39       		.uleb128 0x39
 3147 02a7 0B       		.uleb128 0xb
 3148 02a8 49       		.uleb128 0x49
 3149 02a9 13       		.uleb128 0x13
 3150 02aa 02       		.uleb128 0x2
 3151 02ab 0A       		.uleb128 0xa
 3152 02ac 00       		.byte	0
 3153 02ad 00       		.byte	0
 3154 02ae 30       		.uleb128 0x30
 3155 02af 2E       		.uleb128 0x2e
 3156 02b0 01       		.byte	0x1
 3157 02b1 31       		.uleb128 0x31
 3158 02b2 13       		.uleb128 0x13
 3159 02b3 11       		.uleb128 0x11
 3160 02b4 01       		.uleb128 0x1
 3161 02b5 12       		.uleb128 0x12
 3162 02b6 01       		.uleb128 0x1
 3163 02b7 40       		.uleb128 0x40
 3164 02b8 06       		.uleb128 0x6
 3165 02b9 9742     		.uleb128 0x2117
 3166 02bb 0C       		.uleb128 0xc
 3167 02bc 01       		.uleb128 0x1
 3168 02bd 13       		.uleb128 0x13
 3169 02be 00       		.byte	0
ARM GAS  /var/folders/_2/qbh2zpt918qcm2b_6mgyydnm0000gn/T//ccliMEBq.s 			page 59


 3170 02bf 00       		.byte	0
 3171 02c0 31       		.uleb128 0x31
 3172 02c1 05       		.uleb128 0x5
 3173 02c2 00       		.byte	0
 3174 02c3 31       		.uleb128 0x31
 3175 02c4 13       		.uleb128 0x13
 3176 02c5 02       		.uleb128 0x2
 3177 02c6 06       		.uleb128 0x6
 3178 02c7 B742     		.uleb128 0x2137
 3179 02c9 06       		.uleb128 0x6
 3180 02ca 00       		.byte	0
 3181 02cb 00       		.byte	0
 3182 02cc 32       		.uleb128 0x32
 3183 02cd 1D       		.uleb128 0x1d
 3184 02ce 01       		.byte	0x1
 3185 02cf 31       		.uleb128 0x31
 3186 02d0 13       		.uleb128 0x13
 3187 02d1 52       		.uleb128 0x52
 3188 02d2 01       		.uleb128 0x1
 3189 02d3 B842     		.uleb128 0x2138
 3190 02d5 0B       		.uleb128 0xb
 3191 02d6 55       		.uleb128 0x55
 3192 02d7 06       		.uleb128 0x6
 3193 02d8 58       		.uleb128 0x58
 3194 02d9 0B       		.uleb128 0xb
 3195 02da 59       		.uleb128 0x59
 3196 02db 0B       		.uleb128 0xb
 3197 02dc 57       		.uleb128 0x57
 3198 02dd 0B       		.uleb128 0xb
 3199 02de 00       		.byte	0
 3200 02df 00       		.byte	0
 3201 02e0 33       		.uleb128 0x33
 3202 02e1 2E       		.uleb128 0x2e
 3203 02e2 00       		.byte	0
 3204 02e3 3F       		.uleb128 0x3f
 3205 02e4 0C       		.uleb128 0xc
 3206 02e5 3C       		.uleb128 0x3c
 3207 02e6 0C       		.uleb128 0xc
 3208 02e7 8740     		.uleb128 0x2007
 3209 02e9 0E       		.uleb128 0xe
 3210 02ea 03       		.uleb128 0x3
 3211 02eb 0E       		.uleb128 0xe
 3212 02ec 3A       		.uleb128 0x3a
 3213 02ed 0B       		.uleb128 0xb
 3214 02ee 3B       		.uleb128 0x3b
 3215 02ef 05       		.uleb128 0x5
 3216 02f0 39       		.uleb128 0x39
 3217 02f1 0B       		.uleb128 0xb
 3218 02f2 00       		.byte	0
 3219 02f3 00       		.byte	0
 3220 02f4 00       		.byte	0
 3221              		.section	.debug_loc,"",%progbits
 3222              	.Ldebug_loc0:
 3223              	.LVUS6:
 3224 0000 00       		.uleb128 0
 3225 0001 00       		.uleb128 .LVU80
 3226 0002 00       		.uleb128 .LVU80
ARM GAS  /var/folders/_2/qbh2zpt918qcm2b_6mgyydnm0000gn/T//ccliMEBq.s 			page 60


 3227 0003 00       		.uleb128 0
 3228              	.LLST6:
 3229 0004 AC000000 		.4byte	.LVL16-.Ltext0
 3230 0008 B4000000 		.4byte	.LVL17-.Ltext0
 3231 000c 0100     		.2byte	0x1
 3232 000e 50       		.byte	0x50
 3233 000f B4000000 		.4byte	.LVL17-.Ltext0
 3234 0013 C0000000 		.4byte	.LFE130-.Ltext0
 3235 0017 0400     		.2byte	0x4
 3236 0019 F3       		.byte	0xf3
 3237 001a 01       		.uleb128 0x1
 3238 001b 50       		.byte	0x50
 3239 001c 9F       		.byte	0x9f
 3240 001d 00000000 		.4byte	0
 3241 0021 00000000 		.4byte	0
 3242              	.LVUS0:
 3243 0025 00       		.uleb128 0
 3244 0026 00       		.uleb128 .LVU11
 3245 0027 00       		.uleb128 .LVU11
 3246 0028 00       		.uleb128 0
 3247              	.LLST0:
 3248 0029 10000000 		.4byte	.LVL1-.Ltext0
 3249 002d 15000000 		.4byte	.LVL2-1-.Ltext0
 3250 0031 0100     		.2byte	0x1
 3251 0033 50       		.byte	0x50
 3252 0034 15000000 		.4byte	.LVL2-1-.Ltext0
 3253 0038 1C000000 		.4byte	.LFE129-.Ltext0
 3254 003c 0400     		.2byte	0x4
 3255 003e F3       		.byte	0xf3
 3256 003f 01       		.uleb128 0x1
 3257 0040 50       		.byte	0x50
 3258 0041 9F       		.byte	0x9f
 3259 0042 00000000 		.4byte	0
 3260 0046 00000000 		.4byte	0
 3261              	.LLST4:
 3262 004a 50000000 		.4byte	.LFB127-.Ltext0
 3263 004e 52000000 		.4byte	.LCFI4-.Ltext0
 3264 0052 0200     		.2byte	0x2
 3265 0054 7D       		.byte	0x7d
 3266 0055 00       		.sleb128 0
 3267 0056 52000000 		.4byte	.LCFI4-.Ltext0
 3268 005a A2000000 		.4byte	.LCFI5-.Ltext0
 3269 005e 0200     		.2byte	0x2
 3270 0060 7D       		.byte	0x7d
 3271 0061 10       		.sleb128 16
 3272 0062 A2000000 		.4byte	.LCFI5-.Ltext0
 3273 0066 AC000000 		.4byte	.LFE127-.Ltext0
 3274 006a 0200     		.2byte	0x2
 3275 006c 7D       		.byte	0x7d
 3276 006d 00       		.sleb128 0
 3277 006e 00000000 		.4byte	0
 3278 0072 00000000 		.4byte	0
 3279              	.LVUS5:
 3280 0076 00       		.uleb128 0
 3281 0077 00       		.uleb128 .LVU50
 3282 0078 00       		.uleb128 .LVU50
 3283 0079 00       		.uleb128 .LVU52
ARM GAS  /var/folders/_2/qbh2zpt918qcm2b_6mgyydnm0000gn/T//ccliMEBq.s 			page 61


 3284 007a 00       		.uleb128 .LVU52
 3285 007b 00       		.uleb128 .LVU56
 3286 007c 00       		.uleb128 .LVU56
 3287 007d 00       		.uleb128 .LVU73
 3288 007e 00       		.uleb128 .LVU73
 3289 007f 00       		.uleb128 .LVU74
 3290 0080 00       		.uleb128 .LVU74
 3291 0081 00       		.uleb128 0
 3292              	.LLST5:
 3293 0082 50000000 		.4byte	.LVL7-.Ltext0
 3294 0086 62000000 		.4byte	.LVL8-.Ltext0
 3295 008a 0100     		.2byte	0x1
 3296 008c 50       		.byte	0x50
 3297 008d 62000000 		.4byte	.LVL8-.Ltext0
 3298 0091 6A000000 		.4byte	.LVL9-.Ltext0
 3299 0095 0100     		.2byte	0x1
 3300 0097 55       		.byte	0x55
 3301 0098 6A000000 		.4byte	.LVL9-.Ltext0
 3302 009c 74000000 		.4byte	.LVL10-.Ltext0
 3303 00a0 0100     		.2byte	0x1
 3304 00a2 50       		.byte	0x50
 3305 00a3 74000000 		.4byte	.LVL10-.Ltext0
 3306 00a7 A2000000 		.4byte	.LVL14-.Ltext0
 3307 00ab 0100     		.2byte	0x1
 3308 00ad 55       		.byte	0x55
 3309 00ae A2000000 		.4byte	.LVL14-.Ltext0
 3310 00b2 A5000000 		.4byte	.LVL15-1-.Ltext0
 3311 00b6 0100     		.2byte	0x1
 3312 00b8 50       		.byte	0x50
 3313 00b9 A5000000 		.4byte	.LVL15-1-.Ltext0
 3314 00bd AC000000 		.4byte	.LFE127-.Ltext0
 3315 00c1 0400     		.2byte	0x4
 3316 00c3 F3       		.byte	0xf3
 3317 00c4 01       		.uleb128 0x1
 3318 00c5 50       		.byte	0x50
 3319 00c6 9F       		.byte	0x9f
 3320 00c7 00000000 		.4byte	0
 3321 00cb 00000000 		.4byte	0
 3322              	.LLST1:
 3323 00cf 1C000000 		.4byte	.LFB128-.Ltext0
 3324 00d3 1E000000 		.4byte	.LCFI0-.Ltext0
 3325 00d7 0200     		.2byte	0x2
 3326 00d9 7D       		.byte	0x7d
 3327 00da 00       		.sleb128 0
 3328 00db 1E000000 		.4byte	.LCFI0-.Ltext0
 3329 00df 32000000 		.4byte	.LCFI1-.Ltext0
 3330 00e3 0200     		.2byte	0x2
 3331 00e5 7D       		.byte	0x7d
 3332 00e6 04       		.sleb128 4
 3333 00e7 32000000 		.4byte	.LCFI1-.Ltext0
 3334 00eb 38000000 		.4byte	.LCFI2-.Ltext0
 3335 00ef 0200     		.2byte	0x2
 3336 00f1 7D       		.byte	0x7d
 3337 00f2 00       		.sleb128 0
 3338 00f3 38000000 		.4byte	.LCFI2-.Ltext0
 3339 00f7 46000000 		.4byte	.LCFI3-.Ltext0
 3340 00fb 0200     		.2byte	0x2
ARM GAS  /var/folders/_2/qbh2zpt918qcm2b_6mgyydnm0000gn/T//ccliMEBq.s 			page 62


 3341 00fd 7D       		.byte	0x7d
 3342 00fe 04       		.sleb128 4
 3343 00ff 46000000 		.4byte	.LCFI3-.Ltext0
 3344 0103 50000000 		.4byte	.LFE128-.Ltext0
 3345 0107 0200     		.2byte	0x2
 3346 0109 7D       		.byte	0x7d
 3347 010a 00       		.sleb128 0
 3348 010b 00000000 		.4byte	0
 3349 010f 00000000 		.4byte	0
 3350              	.LVUS2:
 3351 0113 00       		.uleb128 0
 3352 0114 00       		.uleb128 .LVU21
 3353 0115 00       		.uleb128 .LVU21
 3354 0116 00       		.uleb128 .LVU28
 3355 0117 00       		.uleb128 .LVU28
 3356 0118 00       		.uleb128 0
 3357              	.LLST2:
 3358 0119 1C000000 		.4byte	.LVL3-.Ltext0
 3359 011d 2C000000 		.4byte	.LVL5-.Ltext0
 3360 0121 0100     		.2byte	0x1
 3361 0123 50       		.byte	0x50
 3362 0124 2C000000 		.4byte	.LVL5-.Ltext0
 3363 0128 38000000 		.4byte	.LVL6-.Ltext0
 3364 012c 0400     		.2byte	0x4
 3365 012e F3       		.byte	0xf3
 3366 012f 01       		.uleb128 0x1
 3367 0130 50       		.byte	0x50
 3368 0131 9F       		.byte	0x9f
 3369 0132 38000000 		.4byte	.LVL6-.Ltext0
 3370 0136 50000000 		.4byte	.LFE128-.Ltext0
 3371 013a 0100     		.2byte	0x1
 3372 013c 50       		.byte	0x50
 3373 013d 00000000 		.4byte	0
 3374 0141 00000000 		.4byte	0
 3375              	.LVUS3:
 3376 0145 01       		.uleb128 .LVU19
 3377 0146 00       		.uleb128 .LVU21
 3378 0147 00       		.uleb128 .LVU21
 3379 0148 00       		.uleb128 .LVU28
 3380              	.LLST3:
 3381 0149 2A000000 		.4byte	.LVL4-.Ltext0
 3382 014d 2C000000 		.4byte	.LVL5-.Ltext0
 3383 0151 0100     		.2byte	0x1
 3384 0153 50       		.byte	0x50
 3385 0154 2C000000 		.4byte	.LVL5-.Ltext0
 3386 0158 38000000 		.4byte	.LVL6-.Ltext0
 3387 015c 0400     		.2byte	0x4
 3388 015e F3       		.byte	0xf3
 3389 015f 01       		.uleb128 0x1
 3390 0160 50       		.byte	0x50
 3391 0161 9F       		.byte	0x9f
 3392 0162 00000000 		.4byte	0
 3393 0166 00000000 		.4byte	0
 3394              		.section	.debug_aranges,"",%progbits
 3395 0000 1C000000 		.4byte	0x1c
 3396 0004 0200     		.2byte	0x2
 3397 0006 00000000 		.4byte	.Ldebug_info0
ARM GAS  /var/folders/_2/qbh2zpt918qcm2b_6mgyydnm0000gn/T//ccliMEBq.s 			page 63


 3398 000a 04       		.byte	0x4
 3399 000b 00       		.byte	0
 3400 000c 0000     		.2byte	0
 3401 000e 0000     		.2byte	0
 3402 0010 00000000 		.4byte	.Ltext0
 3403 0014 C0000000 		.4byte	.Letext0-.Ltext0
 3404 0018 00000000 		.4byte	0
 3405 001c 00000000 		.4byte	0
 3406              		.section	.debug_ranges,"",%progbits
 3407              	.Ldebug_ranges0:
 3408 0000 2A000000 		.4byte	.LBB4-.Ltext0
 3409 0004 30000000 		.4byte	.LBE4-.Ltext0
 3410 0008 32000000 		.4byte	.LBB7-.Ltext0
 3411 000c 38000000 		.4byte	.LBE7-.Ltext0
 3412 0010 00000000 		.4byte	0
 3413 0014 00000000 		.4byte	0
 3414              		.section	.debug_line,"",%progbits
 3415              	.Ldebug_line0:
 3416 0000 02050000 		.section	.debug_str,"MS",%progbits,1
 3416      0300AE03 
 3416      00000201 
 3416      FB0E0D00 
 3416      01010101 
 3417              	.LASF61:
 3418 0000 5F64736F 		.ascii	"_dso_handle\000"
 3418      5F68616E 
 3418      646C6500 
 3419              	.LASF2:
 3420 000c 73686F72 		.ascii	"short int\000"
 3420      7420696E 
 3420      7400
 3421              	.LASF23:
 3422 0016 50555044 		.ascii	"PUPDR\000"
 3422      5200
 3423              	.LASF27:
 3424 001c 4C434B52 		.ascii	"LCKR\000"
 3424      00
 3425              	.LASF60:
 3426 0021 5F666E61 		.ascii	"_fnargs\000"
 3426      72677300 
 3427              	.LASF114:
 3428 0029 5F72616E 		.ascii	"_rand48\000"
 3428      64343800 
 3429              	.LASF93:
 3430 0031 5F656D65 		.ascii	"_emergency\000"
 3430      7267656E 
 3430      637900
 3431              	.LASF3:
 3432 003c 5F5F7569 		.ascii	"__uint8_t\000"
 3432      6E74385F 
 3432      7400
 3433              	.LASF20:
 3434 0046 4F545950 		.ascii	"OTYPER\000"
 3434      455200
 3435              	.LASF105:
 3436 004d 5F617465 		.ascii	"_atexit0\000"
 3436      78697430 
ARM GAS  /var/folders/_2/qbh2zpt918qcm2b_6mgyydnm0000gn/T//ccliMEBq.s 			page 64


 3436      00
 3437              	.LASF134:
 3438 0056 5F776372 		.ascii	"_wcrtomb_state\000"
 3438      746F6D62 
 3438      5F737461 
 3438      746500
 3439              	.LASF135:
 3440 0065 5F776373 		.ascii	"_wcsrtombs_state\000"
 3440      72746F6D 
 3440      62735F73 
 3440      74617465 
 3440      00
 3441              	.LASF19:
 3442 0076 4D4F4445 		.ascii	"MODER\000"
 3442      5200
 3443              	.LASF11:
 3444 007c 6C6F6E67 		.ascii	"long long unsigned int\000"
 3444      206C6F6E 
 3444      6720756E 
 3444      7369676E 
 3444      65642069 
 3445              	.LASF73:
 3446 0093 5F6C6266 		.ascii	"_lbfsize\000"
 3446      73697A65 
 3446      00
 3447              	.LASF141:
 3448 009c 5F5F6C6F 		.ascii	"__locale_t\000"
 3448      63616C65 
 3448      5F7400
 3449              	.LASF145:
 3450 00a7 62757A7A 		.ascii	"buzz_shortBeep\000"
 3450      5F73686F 
 3450      72744265 
 3450      657000
 3451              	.LASF17:
 3452 00b6 49544D5F 		.ascii	"ITM_RxBuffer\000"
 3452      52784275 
 3452      66666572 
 3452      00
 3453              	.LASF132:
 3454 00c3 5F6D6272 		.ascii	"_mbrtowc_state\000"
 3454      746F7763 
 3454      5F737461 
 3454      746500
 3455              	.LASF127:
 3456 00d2 5F776374 		.ascii	"_wctomb_state\000"
 3456      6F6D625F 
 3456      73746174 
 3456      6500
 3457              	.LASF50:
 3458 00e0 5F5F746D 		.ascii	"__tm_sec\000"
 3458      5F736563 
 3458      00
 3459              	.LASF34:
 3460 00e9 5F6F6666 		.ascii	"_off_t\000"
 3460      5F7400
 3461              	.LASF78:
ARM GAS  /var/folders/_2/qbh2zpt918qcm2b_6mgyydnm0000gn/T//ccliMEBq.s 			page 65


 3462 00f0 5F636C6F 		.ascii	"_close\000"
 3462      736500
 3463              	.LASF0:
 3464 00f7 7369676E 		.ascii	"signed char\000"
 3464      65642063 
 3464      68617200 
 3465              	.LASF26:
 3466 0103 42535252 		.ascii	"BSRR\000"
 3466      00
 3467              	.LASF79:
 3468 0108 5F756275 		.ascii	"_ubuf\000"
 3468      6600
 3469              	.LASF68:
 3470 010e 5F626173 		.ascii	"_base\000"
 3470      6500
 3471              	.LASF52:
 3472 0114 5F5F746D 		.ascii	"__tm_hour\000"
 3472      5F686F75 
 3472      7200
 3473              	.LASF108:
 3474 011e 5F5F7366 		.ascii	"__sf\000"
 3474      00
 3475              	.LASF59:
 3476 0123 5F6F6E5F 		.ascii	"_on_exit_args\000"
 3476      65786974 
 3476      5F617267 
 3476      7300
 3477              	.LASF74:
 3478 0131 5F636F6F 		.ascii	"_cookie\000"
 3478      6B696500 
 3479              	.LASF107:
 3480 0139 5F5F7367 		.ascii	"__sglue\000"
 3480      6C756500 
 3481              	.LASF7:
 3482 0141 6C6F6E67 		.ascii	"long int\000"
 3482      20696E74 
 3482      00
 3483              	.LASF71:
 3484 014a 5F666C61 		.ascii	"_flags\000"
 3484      677300
 3485              	.LASF63:
 3486 0151 5F69735F 		.ascii	"_is_cxa\000"
 3486      63786100 
 3487              	.LASF89:
 3488 0159 5F737464 		.ascii	"_stdin\000"
 3488      696E00
 3489              	.LASF99:
 3490 0160 5F726573 		.ascii	"_result_k\000"
 3490      756C745F 
 3490      6B00
 3491              	.LASF10:
 3492 016a 6C6F6E67 		.ascii	"long long int\000"
 3492      206C6F6E 
 3492      6720696E 
 3492      7400
 3493              	.LASF14:
 3494 0178 75696E74 		.ascii	"uint16_t\000"
ARM GAS  /var/folders/_2/qbh2zpt918qcm2b_6mgyydnm0000gn/T//ccliMEBq.s 			page 66


 3494      31365F74 
 3494      00
 3495              	.LASF103:
 3496 0181 5F637674 		.ascii	"_cvtbuf\000"
 3496      62756600 
 3497              	.LASF82:
 3498 0189 5F6F6666 		.ascii	"_offset\000"
 3498      73657400 
 3499              	.LASF152:
 3500 0191 49734F6E 		.ascii	"IsOn\000"
 3500      00
 3501              	.LASF131:
 3502 0196 5F6D6272 		.ascii	"_mbrlen_state\000"
 3502      6C656E5F 
 3502      73746174 
 3502      6500
 3503              	.LASF159:
 3504 01a4 62656570 		.ascii	"beeperSpRacing\000"
 3504      65725370 
 3504      52616369 
 3504      6E6700
 3505              	.LASF66:
 3506 01b3 5F666E73 		.ascii	"_fns\000"
 3506      00
 3507              	.LASF22:
 3508 01b8 4F535045 		.ascii	"OSPEEDR\000"
 3508      45445200 
 3509              	.LASF8:
 3510 01c0 5F5F7569 		.ascii	"__uint32_t\000"
 3510      6E743332 
 3510      5F7400
 3511              	.LASF46:
 3512 01cb 5F736967 		.ascii	"_sign\000"
 3512      6E00
 3513              	.LASF147:
 3514 01d1 62757A7A 		.ascii	"buzz_readyBeep\000"
 3514      5F726561 
 3514      64794265 
 3514      657000
 3515              	.LASF161:
 3516 01e0 63757272 		.ascii	"currentBuzzerUpdate\000"
 3516      656E7442 
 3516      757A7A65 
 3516      72557064 
 3516      61746500 
 3517              	.LASF142:
 3518 01f4 5F696D70 		.ascii	"_impure_ptr\000"
 3518      7572655F 
 3518      70747200 
 3519              	.LASF91:
 3520 0200 5F737464 		.ascii	"_stderr\000"
 3520      65727200 
 3521              	.LASF48:
 3522 0208 5F426967 		.ascii	"_Bigint\000"
 3522      696E7400 
 3523              	.LASF133:
 3524 0210 5F6D6273 		.ascii	"_mbsrtowcs_state\000"
ARM GAS  /var/folders/_2/qbh2zpt918qcm2b_6mgyydnm0000gn/T//ccliMEBq.s 			page 67


 3524      72746F77 
 3524      63735F73 
 3524      74617465 
 3524      00
 3525              	.LASF75:
 3526 0221 5F726561 		.ascii	"_read\000"
 3526      6400
 3527              	.LASF49:
 3528 0227 5F5F746D 		.ascii	"__tm\000"
 3528      00
 3529              	.LASF38:
 3530 022c 5F5F7763 		.ascii	"__wchb\000"
 3530      686200
 3531              	.LASF18:
 3532 0233 53797374 		.ascii	"SystemCoreClock\000"
 3532      656D436F 
 3532      7265436C 
 3532      6F636B00 
 3533              	.LASF90:
 3534 0243 5F737464 		.ascii	"_stdout\000"
 3534      6F757400 
 3535              	.LASF102:
 3536 024b 5F637674 		.ascii	"_cvtlen\000"
 3536      6C656E00 
 3537              	.LASF9:
 3538 0253 6C6F6E67 		.ascii	"long unsigned int\000"
 3538      20756E73 
 3538      69676E65 
 3538      6420696E 
 3538      7400
 3539              	.LASF29:
 3540 0265 4750494F 		.ascii	"GPIO_TypeDef\000"
 3540      5F547970 
 3540      65446566 
 3540      00
 3541              	.LASF72:
 3542 0272 5F66696C 		.ascii	"_file\000"
 3542      6500
 3543              	.LASF83:
 3544 0278 5F646174 		.ascii	"_data\000"
 3544      6100
 3545              	.LASF112:
 3546 027e 5F6E696F 		.ascii	"_niobs\000"
 3546      627300
 3547              	.LASF123:
 3548 0285 5F72616E 		.ascii	"_rand_next\000"
 3548      645F6E65 
 3548      787400
 3549              	.LASF129:
 3550 0290 5F736967 		.ascii	"_signal_buf\000"
 3550      6E616C5F 
 3550      62756600 
 3551              	.LASF120:
 3552 029c 5F617363 		.ascii	"_asctime_buf\000"
 3552      74696D65 
 3552      5F627566 
 3552      00
ARM GAS  /var/folders/_2/qbh2zpt918qcm2b_6mgyydnm0000gn/T//ccliMEBq.s 			page 68


 3553              	.LASF98:
 3554 02a9 5F726573 		.ascii	"_result\000"
 3554      756C7400 
 3555              	.LASF37:
 3556 02b1 5F5F7763 		.ascii	"__wch\000"
 3556      6800
 3557              	.LASF33:
 3558 02b7 5F4C4F43 		.ascii	"_LOCK_T\000"
 3558      4B5F5400 
 3559              	.LASF162:
 3560 02bf 61637469 		.ascii	"activateBuzzer\000"
 3560      76617465 
 3560      42757A7A 
 3560      657200
 3561              	.LASF104:
 3562 02ce 5F6E6577 		.ascii	"_new\000"
 3562      00
 3563              	.LASF154:
 3564 02d3 62757A7A 		.ascii	"buzzer_t\000"
 3564      65725F74 
 3564      00
 3565              	.LASF84:
 3566 02dc 5F6C6F63 		.ascii	"_lock\000"
 3566      6B00
 3567              	.LASF116:
 3568 02e2 5F6D756C 		.ascii	"_mult\000"
 3568      7400
 3569              	.LASF166:
 3570 02e8 746F6767 		.ascii	"toggleBuzzer\000"
 3570      6C654275 
 3570      7A7A6572 
 3570      00
 3571              	.LASF31:
 3572 02f5 4269745F 		.ascii	"Bit_SET\000"
 3572      53455400 
 3573              	.LASF148:
 3574 02fd 62757A7A 		.ascii	"buzz_disArmBeep\000"
 3574      5F646973 
 3574      41726D42 
 3574      65657000 
 3575              	.LASF76:
 3576 030d 5F777269 		.ascii	"_write\000"
 3576      746500
 3577              	.LASF55:
 3578 0314 5F5F746D 		.ascii	"__tm_year\000"
 3578      5F796561 
 3578      7200
 3579              	.LASF138:
 3580 031e 5F6E6D61 		.ascii	"_nmalloc\000"
 3580      6C6C6F63 
 3580      00
 3581              	.LASF167:
 3582 0327 63616C63 		.ascii	"calculateBuzzer\000"
 3582      756C6174 
 3582      6542757A 
 3582      7A657200 
 3583              	.LASF146:
ARM GAS  /var/folders/_2/qbh2zpt918qcm2b_6mgyydnm0000gn/T//ccliMEBq.s 			page 69


 3584 0337 62757A7A 		.ascii	"buzz_gyroCalibrated\000"
 3584      5F677972 
 3584      6F43616C 
 3584      69627261 
 3584      74656400 
 3585              	.LASF165:
 3586 034b 2F557365 		.ascii	"/Users/rdaneel/Desktop/brightflight_015.4\000"
 3586      72732F72 
 3586      64616E65 
 3586      656C2F44 
 3586      65736B74 
 3587              	.LASF137:
 3588 0375 5F6E6578 		.ascii	"_nextf\000"
 3588      746600
 3589              	.LASF54:
 3590 037c 5F5F746D 		.ascii	"__tm_mon\000"
 3590      5F6D6F6E 
 3590      00
 3591              	.LASF30:
 3592 0385 4269745F 		.ascii	"Bit_RESET\000"
 3592      52455345 
 3592      5400
 3593              	.LASF144:
 3594 038f 7375626F 		.ascii	"suboptarg\000"
 3594      70746172 
 3594      6700
 3595              	.LASF96:
 3596 0399 5F5F7364 		.ascii	"__sdidinit\000"
 3596      6964696E 
 3596      697400
 3597              	.LASF122:
 3598 03a4 5F67616D 		.ascii	"_gamma_signgam\000"
 3598      6D615F73 
 3598      69676E67 
 3598      616D00
 3599              	.LASF36:
 3600 03b3 77696E74 		.ascii	"wint_t\000"
 3600      5F7400
 3601              	.LASF157:
 3602 03ba 73797374 		.ascii	"systemBeepPtr\000"
 3602      656D4265 
 3602      65705074 
 3602      7200
 3603              	.LASF101:
 3604 03c8 5F667265 		.ascii	"_freelist\000"
 3604      656C6973 
 3604      7400
 3605              	.LASF170:
 3606 03d2 4750494F 		.ascii	"GPIO_WriteBit\000"
 3606      5F577269 
 3606      74654269 
 3606      7400
 3607              	.LASF21:
 3608 03e0 52455345 		.ascii	"RESERVED0\000"
 3608      52564544 
 3608      3000
 3609              	.LASF24:
ARM GAS  /var/folders/_2/qbh2zpt918qcm2b_6mgyydnm0000gn/T//ccliMEBq.s 			page 70


 3610 03ea 52455345 		.ascii	"RESERVED1\000"
 3610      52564544 
 3610      3100
 3611              	.LASF25:
 3612 03f4 52455345 		.ascii	"RESERVED2\000"
 3612      52564544 
 3612      3200
 3613              	.LASF28:
 3614 03fe 52455345 		.ascii	"RESERVED3\000"
 3614      52564544 
 3614      3300
 3615              	.LASF150:
 3616 0408 53657175 		.ascii	"SequencePtr\000"
 3616      656E6365 
 3616      50747200 
 3617              	.LASF149:
 3618 0414 62757A7A 		.ascii	"buzzer_s\000"
 3618      65725F73 
 3618      00
 3619              	.LASF156:
 3620 041d 5F426F6F 		.ascii	"_Bool\000"
 3620      6C00
 3621              	.LASF15:
 3622 0423 696E7433 		.ascii	"int32_t\000"
 3622      325F7400 
 3623              	.LASF1:
 3624 042b 756E7369 		.ascii	"unsigned char\000"
 3624      676E6564 
 3624      20636861 
 3624      7200
 3625              	.LASF113:
 3626 0439 5F696F62 		.ascii	"_iobs\000"
 3626      7300
 3627              	.LASF158:
 3628 043f 6F6E6F66 		.ascii	"onoff\000"
 3628      6600
 3629              	.LASF136:
 3630 0445 5F685F65 		.ascii	"_h_errno\000"
 3630      72726E6F 
 3630      00
 3631              	.LASF42:
 3632 044e 5F666C6F 		.ascii	"_flock_t\000"
 3632      636B5F74 
 3632      00
 3633              	.LASF57:
 3634 0457 5F5F746D 		.ascii	"__tm_yday\000"
 3634      5F796461 
 3634      7900
 3635              	.LASF67:
 3636 0461 5F5F7362 		.ascii	"__sbuf\000"
 3636      756600
 3637              	.LASF86:
 3638 0468 5F666C61 		.ascii	"_flags2\000"
 3638      67733200 
 3639              	.LASF110:
 3640 0470 5F5F4649 		.ascii	"__FILE\000"
 3640      4C4500
ARM GAS  /var/folders/_2/qbh2zpt918qcm2b_6mgyydnm0000gn/T//ccliMEBq.s 			page 71


 3641              	.LASF41:
 3642 0477 5F6D6273 		.ascii	"_mbstate_t\000"
 3642      74617465 
 3642      5F7400
 3643              	.LASF70:
 3644 0482 5F5F7346 		.ascii	"__sFILE\000"
 3644      494C4500 
 3645              	.LASF85:
 3646 048a 5F6D6273 		.ascii	"_mbstate\000"
 3646      74617465 
 3646      00
 3647              	.LASF125:
 3648 0493 5F6D626C 		.ascii	"_mblen_state\000"
 3648      656E5F73 
 3648      74617465 
 3648      00
 3649              	.LASF92:
 3650 04a0 5F696E63 		.ascii	"_inc\000"
 3650      00
 3651              	.LASF65:
 3652 04a5 5F696E64 		.ascii	"_ind\000"
 3652      00
 3653              	.LASF95:
 3654 04aa 5F6C6F63 		.ascii	"_locale\000"
 3654      616C6500 
 3655              	.LASF97:
 3656 04b2 5F5F636C 		.ascii	"__cleanup\000"
 3656      65616E75 
 3656      7000
 3657              	.LASF94:
 3658 04bc 5F756E73 		.ascii	"_unspecified_locale_info\000"
 3658      70656369 
 3658      66696564 
 3658      5F6C6F63 
 3658      616C655F 
 3659              	.LASF45:
 3660 04d5 5F6D6178 		.ascii	"_maxwds\000"
 3660      77647300 
 3661              	.LASF87:
 3662 04dd 5F726565 		.ascii	"_reent\000"
 3662      6E7400
 3663              	.LASF115:
 3664 04e4 5F736565 		.ascii	"_seed\000"
 3664      6400
 3665              	.LASF39:
 3666 04ea 5F5F636F 		.ascii	"__count\000"
 3666      756E7400 
 3667              	.LASF140:
 3668 04f2 5F5F6C6F 		.ascii	"__lock\000"
 3668      636B00
 3669              	.LASF40:
 3670 04f9 5F5F7661 		.ascii	"__value\000"
 3670      6C756500 
 3671              	.LASF77:
 3672 0501 5F736565 		.ascii	"_seek\000"
 3672      6B00
 3673              	.LASF56:
ARM GAS  /var/folders/_2/qbh2zpt918qcm2b_6mgyydnm0000gn/T//ccliMEBq.s 			page 72


 3674 0507 5F5F746D 		.ascii	"__tm_wday\000"
 3674      5F776461 
 3674      7900
 3675              	.LASF35:
 3676 0511 5F66706F 		.ascii	"_fpos_t\000"
 3676      735F7400 
 3677              	.LASF32:
 3678 0519 6C6F6E67 		.ascii	"long double\000"
 3678      20646F75 
 3678      626C6500 
 3679              	.LASF88:
 3680 0525 5F657272 		.ascii	"_errno\000"
 3680      6E6F00
 3681              	.LASF109:
 3682 052c 63686172 		.ascii	"char\000"
 3682      00
 3683              	.LASF81:
 3684 0531 5F626C6B 		.ascii	"_blksize\000"
 3684      73697A65 
 3684      00
 3685              	.LASF69:
 3686 053a 5F73697A 		.ascii	"_size\000"
 3686      6500
 3687              	.LASF12:
 3688 0540 756E7369 		.ascii	"unsigned int\000"
 3688      676E6564 
 3688      20696E74 
 3688      00
 3689              	.LASF151:
 3690 054d 4D6F6465 		.ascii	"Mode\000"
 3690      00
 3691              	.LASF4:
 3692 0552 5F5F7569 		.ascii	"__uint16_t\000"
 3692      6E743136 
 3692      5F7400
 3693              	.LASF6:
 3694 055d 5F5F696E 		.ascii	"__int32_t\000"
 3694      7433325F 
 3694      7400
 3695              	.LASF44:
 3696 0567 5F6E6578 		.ascii	"_next\000"
 3696      7400
 3697              	.LASF119:
 3698 056d 5F737472 		.ascii	"_strtok_last\000"
 3698      746F6B5F 
 3698      6C617374 
 3698      00
 3699              	.LASF62:
 3700 057a 5F666E74 		.ascii	"_fntypes\000"
 3700      79706573 
 3700      00
 3701              	.LASF163:
 3702 0583 474E5520 		.ascii	"GNU C17 9.2.1 20191025 (release) [ARM/arm-9-branch "
 3702      43313720 
 3702      392E322E 
 3702      31203230 
 3702      31393130 
ARM GAS  /var/folders/_2/qbh2zpt918qcm2b_6mgyydnm0000gn/T//ccliMEBq.s 			page 73


 3703 05b6 72657669 		.ascii	"revision 277599] -mcpu=cortex-m4 -mthumb -mfloat-ab"
 3703      73696F6E 
 3703      20323737 
 3703      3539395D 
 3703      202D6D63 
 3704 05e9 693D736F 		.ascii	"i=soft -march=armv7e-m -g -gdwarf-2 -Os -fomit-fram"
 3704      6674202D 
 3704      6D617263 
 3704      683D6172 
 3704      6D763765 
 3705 061c 652D706F 		.ascii	"e-pointer\000"
 3705      696E7465 
 3705      7200
 3706              	.LASF5:
 3707 0626 73686F72 		.ascii	"short unsigned int\000"
 3707      7420756E 
 3707      7369676E 
 3707      65642069 
 3707      6E7400
 3708              	.LASF117:
 3709 0639 5F616464 		.ascii	"_add\000"
 3709      00
 3710              	.LASF43:
 3711 063e 5F5F554C 		.ascii	"__ULong\000"
 3711      6F6E6700 
 3712              	.LASF130:
 3713 0646 5F676574 		.ascii	"_getdate_err\000"
 3713      64617465 
 3713      5F657272 
 3713      00
 3714              	.LASF143:
 3715 0653 5F676C6F 		.ascii	"_global_impure_ptr\000"
 3715      62616C5F 
 3715      696D7075 
 3715      72655F70 
 3715      747200
 3716              	.LASF16:
 3717 0666 75696E74 		.ascii	"uint32_t\000"
 3717      33325F74 
 3717      00
 3718              	.LASF118:
 3719 066f 5F756E75 		.ascii	"_unused_rand\000"
 3719      7365645F 
 3719      72616E64 
 3719      00
 3720              	.LASF47:
 3721 067c 5F776473 		.ascii	"_wds\000"
 3721      00
 3722              	.LASF111:
 3723 0681 5F676C75 		.ascii	"_glue\000"
 3723      6500
 3724              	.LASF169:
 3725 0687 53657175 		.ascii	"Sequence\000"
 3725      656E6365 
 3725      00
 3726              	.LASF13:
 3727 0690 75696E74 		.ascii	"uint8_t\000"
ARM GAS  /var/folders/_2/qbh2zpt918qcm2b_6mgyydnm0000gn/T//ccliMEBq.s 			page 74


 3727      385F7400 
 3728              	.LASF128:
 3729 0698 5F6C3634 		.ascii	"_l64a_buf\000"
 3729      615F6275 
 3729      6600
 3730              	.LASF106:
 3731 06a2 5F736967 		.ascii	"_sig_func\000"
 3731      5F66756E 
 3731      6300
 3732              	.LASF160:
 3733 06ac 73756274 		.ascii	"subtaskUpdateBuzzer\000"
 3733      61736B55 
 3733      70646174 
 3733      6542757A 
 3733      7A657200 
 3734              	.LASF64:
 3735 06c0 5F617465 		.ascii	"_atexit\000"
 3735      78697400 
 3736              	.LASF80:
 3737 06c8 5F6E6275 		.ascii	"_nbuf\000"
 3737      6600
 3738              	.LASF139:
 3739 06ce 5F756E75 		.ascii	"_unused\000"
 3739      73656400 
 3740              	.LASF168:
 3741 06d6 63616C6C 		.ascii	"callingTime\000"
 3741      696E6754 
 3741      696D6500 
 3742              	.LASF58:
 3743 06e2 5F5F746D 		.ascii	"__tm_isdst\000"
 3743      5F697364 
 3743      737400
 3744              	.LASF121:
 3745 06ed 5F6C6F63 		.ascii	"_localtime_buf\000"
 3745      616C7469 
 3745      6D655F62 
 3745      756600
 3746              	.LASF51:
 3747 06fc 5F5F746D 		.ascii	"__tm_min\000"
 3747      5F6D696E 
 3747      00
 3748              	.LASF164:
 3749 0705 62757A7A 		.ascii	"buzzer.c\000"
 3749      65722E63 
 3749      00
 3750              	.LASF124:
 3751 070e 5F723438 		.ascii	"_r48\000"
 3751      00
 3752              	.LASF126:
 3753 0713 5F6D6274 		.ascii	"_mbtowc_state\000"
 3753      6F77635F 
 3753      73746174 
 3753      6500
 3754              	.LASF100:
 3755 0721 5F703573 		.ascii	"_p5s\000"
 3755      00
 3756              	.LASF155:
ARM GAS  /var/folders/_2/qbh2zpt918qcm2b_6mgyydnm0000gn/T//ccliMEBq.s 			page 75


 3757 0726 62757A7A 		.ascii	"buzzer\000"
 3757      657200
 3758              	.LASF53:
 3759 072d 5F5F746D 		.ascii	"__tm_mday\000"
 3759      5F6D6461 
 3759      7900
 3760              	.LASF153:
 3761 0737 4E657874 		.ascii	"NextToggleTime\000"
 3761      546F6767 
 3761      6C655469 
 3761      6D6500
 3762              		.ident	"GCC: (GNU Tools for Arm Embedded Processors 9-2019-q4-major) 9.2.1 20191025 (release) [ARM
ARM GAS  /var/folders/_2/qbh2zpt918qcm2b_6mgyydnm0000gn/T//ccliMEBq.s 			page 76


DEFINED SYMBOLS
                            *ABS*:0000000000000000 buzzer.c
/var/folders/_2/qbh2zpt918qcm2b_6mgyydnm0000gn/T//ccliMEBq.s:73     .text:0000000000000000 $t
/var/folders/_2/qbh2zpt918qcm2b_6mgyydnm0000gn/T//ccliMEBq.s:81     .text:0000000000000000 activateBuzzer
/var/folders/_2/qbh2zpt918qcm2b_6mgyydnm0000gn/T//ccliMEBq.s:111    .text:000000000000000c $d
                            *COM*:000000000000000c buzzer
/var/folders/_2/qbh2zpt918qcm2b_6mgyydnm0000gn/T//ccliMEBq.s:115    .text:0000000000000010 $t
/var/folders/_2/qbh2zpt918qcm2b_6mgyydnm0000gn/T//ccliMEBq.s:122    .text:0000000000000010 toggleBuzzer
/var/folders/_2/qbh2zpt918qcm2b_6mgyydnm0000gn/T//ccliMEBq.s:139    .text:0000000000000018 $d
                            *COM*:0000000000000004 systemBeepPtr
/var/folders/_2/qbh2zpt918qcm2b_6mgyydnm0000gn/T//ccliMEBq.s:143    .text:000000000000001c $t
/var/folders/_2/qbh2zpt918qcm2b_6mgyydnm0000gn/T//ccliMEBq.s:150    .text:000000000000001c calculateBuzzer
/var/folders/_2/qbh2zpt918qcm2b_6mgyydnm0000gn/T//ccliMEBq.s:247    .text:000000000000004c $d
/var/folders/_2/qbh2zpt918qcm2b_6mgyydnm0000gn/T//ccliMEBq.s:251    .text:0000000000000050 $t
/var/folders/_2/qbh2zpt918qcm2b_6mgyydnm0000gn/T//ccliMEBq.s:258    .text:0000000000000050 subtaskUpdateBuzzer
/var/folders/_2/qbh2zpt918qcm2b_6mgyydnm0000gn/T//ccliMEBq.s:388    .text:00000000000000a8 $d
/var/folders/_2/qbh2zpt918qcm2b_6mgyydnm0000gn/T//ccliMEBq.s:392    .text:00000000000000ac $t
/var/folders/_2/qbh2zpt918qcm2b_6mgyydnm0000gn/T//ccliMEBq.s:399    .text:00000000000000ac beeperSpRacing
/var/folders/_2/qbh2zpt918qcm2b_6mgyydnm0000gn/T//ccliMEBq.s:425    .text:00000000000000bc $d
/var/folders/_2/qbh2zpt918qcm2b_6mgyydnm0000gn/T//ccliMEBq.s:438    .rodata:0000000000000000 buzz_readyBeep
/var/folders/_2/qbh2zpt918qcm2b_6mgyydnm0000gn/T//ccliMEBq.s:443    .rodata:000000000000000f buzz_disArmBeep
/var/folders/_2/qbh2zpt918qcm2b_6mgyydnm0000gn/T//ccliMEBq.s:447    .rodata:0000000000000017 buzz_gyroCalibrated
/var/folders/_2/qbh2zpt918qcm2b_6mgyydnm0000gn/T//ccliMEBq.s:451    .rodata:0000000000000020 buzz_shortBeep

UNDEFINED SYMBOLS
GPIO_WriteBit
