ARM GAS  /var/folders/_2/qbh2zpt918qcm2b_6mgyydnm0000gn/T//ccDQ2Nov.s 			page 1


   1              		.cpu cortex-m4
   2              		.eabi_attribute 20, 1	@ Tag_ABI_FP_denormal
   3              		.eabi_attribute 21, 1	@ Tag_ABI_FP_exceptions
   4              		.eabi_attribute 23, 3	@ Tag_ABI_FP_number_model
   5              		.eabi_attribute 24, 1	@ Tag_ABI_align8_needed
   6              		.eabi_attribute 25, 1	@ Tag_ABI_align8_preserved
   7              		.eabi_attribute 26, 1	@ Tag_ABI_enum_size
   8              		.eabi_attribute 30, 4	@ Tag_ABI_optimization_goals
   9              		.eabi_attribute 34, 1	@ Tag_CPU_unaligned_access
  10              		.eabi_attribute 18, 4	@ Tag_ABI_PCS_wchar_t
  11              		.file	"fc_config.c"
  12              	@ GNU C17 (GNU Tools for Arm Embedded Processors 9-2019-q4-major) version 9.2.1 20191025 (release) 
  13              	@	compiled by GNU C version 4.2.1 Compatible Apple LLVM 9.0.0 (clang-900.0.39.2), GMP version 6.1.0
  14              	
  15              	@ GGC heuristics: --param ggc-min-expand=100 --param ggc-min-heapsize=131072
  16              	@ options passed:  -I .
  17              	@ -I /Users/rdaneel/Binary/Roaming/C-Code/StmProjects/stm32f3x/lib/STM32F30x_DSP_StdPeriph_Lib_V1.2
  18              	@ -I /Users/rdaneel/Binary/Roaming/C-Code/StmProjects/stm32f3x/lib/STM32F30x_DSP_StdPeriph_Lib_V1.2
  19              	@ -I /Users/rdaneel/Binary/Roaming/C-Code/StmProjects/stm32f3x/lib/STM32F30x_DSP_StdPeriph_Lib_V1.2
  20              	@ -imultilib thumb/v7e-m/nofp
  21              	@ -iprefix /usr/local/Cellar/arm-none-eabi-gcc/9-2019-q4-major/gcc/bin/../lib/gcc/arm-none-eabi/9.2
  22              	@ -isysroot /usr/local/Cellar/arm-none-eabi-gcc/9-2019-q4-major/gcc/bin/../arm-none-eabi
  23              	@ -D__USES_INITFINI__ -D STM32F30X_MD -D USE_STDPERIPH_DRIVER
  24              	@ -D HSE_VALUE=8000000 -D RUN_FROM_FLASH=1 fc_config.c -mcpu=cortex-m4
  25              	@ -mthumb -mfloat-abi=soft -march=armv7e-m -auxbase-strip fc_config.o -g
  26              	@ -gdwarf-2 -Os -Wall -fomit-frame-pointer -fverbose-asm
  27              	@ options enabled:  -faggressive-loop-optimizations -fassume-phsa
  28              	@ -fauto-inc-dec -fbranch-count-reg -fcaller-saves -fcode-hoisting
  29              	@ -fcombine-stack-adjustments -fcommon -fcompare-elim -fcprop-registers
  30              	@ -fcrossjumping -fcse-follow-jumps -fdefer-pop
  31              	@ -fdelete-null-pointer-checks -fdevirtualize -fdevirtualize-speculatively
  32              	@ -fdwarf2-cfi-asm -fearly-inlining -feliminate-unused-debug-types
  33              	@ -fexpensive-optimizations -fforward-propagate -ffp-int-builtin-inexact
  34              	@ -ffunction-cse -fgcse -fgcse-lm -fgnu-runtime -fgnu-unique
  35              	@ -fguess-branch-probability -fhoist-adjacent-loads -fident -fif-conversion
  36              	@ -fif-conversion2 -findirect-inlining -finline -finline-atomics
  37              	@ -finline-functions -finline-functions-called-once
  38              	@ -finline-small-functions -fipa-bit-cp -fipa-cp -fipa-icf
  39              	@ -fipa-icf-functions -fipa-icf-variables -fipa-profile -fipa-pure-const
  40              	@ -fipa-ra -fipa-reference -fipa-reference-addressable -fipa-sra
  41              	@ -fipa-stack-alignment -fipa-vrp -fira-hoist-pressure
  42              	@ -fira-share-save-slots -fira-share-spill-slots
  43              	@ -fisolate-erroneous-paths-dereference -fivopts -fkeep-static-consts
  44              	@ -fleading-underscore -flifetime-dse -flra-remat -flto-odr-type-merging
  45              	@ -fmath-errno -fmerge-constants -fmerge-debug-strings
  46              	@ -fmove-loop-invariants -fomit-frame-pointer -foptimize-sibling-calls
  47              	@ -fpartial-inlining -fpeephole -fpeephole2 -fplt -fprefetch-loop-arrays
  48              	@ -freg-struct-return -freorder-blocks -freorder-functions
  49              	@ -frerun-cse-after-loop -fsched-critical-path-heuristic
  50              	@ -fsched-dep-count-heuristic -fsched-group-heuristic -fsched-interblock
  51              	@ -fsched-last-insn-heuristic -fsched-pressure -fsched-rank-heuristic
  52              	@ -fsched-spec -fsched-spec-insn-heuristic -fsched-stalled-insns-dep
  53              	@ -fschedule-insns2 -fsection-anchors -fsemantic-interposition
  54              	@ -fshow-column -fshrink-wrap-separate -fsigned-zeros
  55              	@ -fsplit-ivs-in-unroller -fsplit-wide-types -fssa-backprop -fssa-phiopt
  56              	@ -fstdarg-opt -fstore-merging -fstrict-aliasing
  57              	@ -fstrict-volatile-bitfields -fsync-libcalls -fthread-jumps
ARM GAS  /var/folders/_2/qbh2zpt918qcm2b_6mgyydnm0000gn/T//ccDQ2Nov.s 			page 2


  58              	@ -ftoplevel-reorder -ftrapping-math -ftree-bit-ccp -ftree-builtin-call-dce
  59              	@ -ftree-ccp -ftree-ch -ftree-coalesce-vars -ftree-copy-prop -ftree-cselim
  60              	@ -ftree-dce -ftree-dominator-opts -ftree-dse -ftree-forwprop -ftree-fre
  61              	@ -ftree-loop-if-convert -ftree-loop-im -ftree-loop-ivcanon
  62              	@ -ftree-loop-optimize -ftree-parallelize-loops= -ftree-phiprop -ftree-pre
  63              	@ -ftree-pta -ftree-reassoc -ftree-scev-cprop -ftree-sink -ftree-slsr
  64              	@ -ftree-sra -ftree-switch-conversion -ftree-tail-merge -ftree-ter
  65              	@ -ftree-vrp -funit-at-a-time -fvar-tracking -fvar-tracking-assignments
  66              	@ -fverbose-asm -fzero-initialized-in-bss -masm-syntax-unified -mbe32
  67              	@ -mlittle-endian -mpic-data-is-text-relative -msched-prolog -mthumb
  68              	@ -munaligned-access -mvectorize-with-neon-quad
  69              	
  70              		.text
  71              	.Ltext0:
  72              		.cfi_sections	.debug_frame
  73              		.align	1
  74              		.global	printIntro
  75              		.arch armv7e-m
  76              		.syntax unified
  77              		.thumb
  78              		.thumb_func
  79              		.fpu softvfp
  80              		.type	printIntro, %function
  81              	printIntro:
  82              	.LFB126:
  83              		.file 1 "fc_config.c"
   1:fc_config.c   **** #include "fc_config.h"
   2:fc_config.c   **** 
   3:fc_config.c   **** void printIntro(void){
  84              		.loc 1 3 22 view -0
  85              		.cfi_startproc
  86              		@ args = 0, pretend = 0, frame = 0
  87              		@ frame_needed = 0, uses_anonymous_args = 0
   4:fc_config.c   ****   uint16_t lines; 
  88              		.loc 1 4 3 view .LVU1
   5:fc_config.c   ****   uint16_t lengthOfLine;  
  89              		.loc 1 5 3 view .LVU2
   6:fc_config.c   ****   
   7:fc_config.c   ****   lines = sizeof(introBuffer)/sizeof(introBuffer[0]);
  90              		.loc 1 7 3 view .LVU3
  91              	.LVL0:
   8:fc_config.c   ****   for( int i = 0; i < lines; i++){
  92              		.loc 1 8 3 view .LVU4
  93              	.LBB2:
  94              		.loc 1 8 8 view .LVU5
  95              		.loc 1 8 19 view .LVU6
  96              	.LBE2:
  97              	@ fc_config.c:3: void printIntro(void){
   3:fc_config.c   ****   
  98              		.loc 1 3 22 is_stmt 0 view .LVU7
  99 0000 2DE9F041 		push	{r4, r5, r6, r7, r8, lr}	@
 100              	.LCFI0:
 101              		.cfi_def_cfa_offset 24
 102              		.cfi_offset 4, -24
 103              		.cfi_offset 5, -20
 104              		.cfi_offset 6, -16
 105              		.cfi_offset 7, -12
ARM GAS  /var/folders/_2/qbh2zpt918qcm2b_6mgyydnm0000gn/T//ccDQ2Nov.s 			page 3


 106              		.cfi_offset 8, -8
 107              		.cfi_offset 14, -4
 108 0004 DFF83C80 		ldr	r8, .L7+8	@ ivtmp.19,
 109              	.LBB3:
 110              	@ fc_config.c:9:     while(!usart1TransferComplete);
   9:fc_config.c   ****     while(!usart1TransferComplete);
 111              		.loc 1 9 11 view .LVU8
 112 0008 0C4D     		ldr	r5, .L7	@ tmp119,
 113              	@ fc_config.c:11:     DMA1_Channel4->CNDTR = lengthOfLine; //Setting the size of the buffer dynamic
  10:fc_config.c   ****     lengthOfLine = strlen(introBuffer[i].text);
  11:fc_config.c   ****     DMA1_Channel4->CNDTR = lengthOfLine; //Setting the size of the buffer dynamically;
 114              		.loc 1 11 26 view .LVU9
 115 000a 0D4E     		ldr	r6, .L7+4	@ tmp124,
 116              	@ fc_config.c:8:   for( int i = 0; i < lines; i++){
   8:fc_config.c   ****     while(!usart1TransferComplete);
 117              		.loc 1 8 12 view .LVU10
 118 000c 0024     		movs	r4, #0	@ i,
 119              	.LVL1:
 120              	.L2:
   9:fc_config.c   ****     while(!usart1TransferComplete);
 121              		.loc 1 9 35 is_stmt 1 discriminator 1 view .LVU11
   9:fc_config.c   ****     while(!usart1TransferComplete);
 122              		.loc 1 9 10 discriminator 1 view .LVU12
 123              	@ fc_config.c:9:     while(!usart1TransferComplete);
   9:fc_config.c   ****     while(!usart1TransferComplete);
 124              		.loc 1 9 11 is_stmt 0 discriminator 1 view .LVU13
 125 000e 2B78     		ldrb	r3, [r5]	@ zero_extendqisi2	@ usart1TransferComplete, usart1TransferComplete
 126              	@ fc_config.c:9:     while(!usart1TransferComplete);
   9:fc_config.c   ****     while(!usart1TransferComplete);
 127              		.loc 1 9 10 discriminator 1 view .LVU14
 128 0010 002B     		cmp	r3, #0	@ usart1TransferComplete
 129 0012 FCD0     		beq	.L2	@
  10:fc_config.c   ****     lengthOfLine = strlen(introBuffer[i].text);
 130              		.loc 1 10 5 is_stmt 1 discriminator 2 view .LVU15
 131              	@ fc_config.c:10:     lengthOfLine = strlen(introBuffer[i].text);
  10:fc_config.c   ****     lengthOfLine = strlen(introBuffer[i].text);
 132              		.loc 1 10 41 is_stmt 0 discriminator 2 view .LVU16
 133 0014 58F8047B 		ldr	r7, [r8], #4	@ _2, MEM[base: _15, offset: 0B]
 134              	@ fc_config.c:10:     lengthOfLine = strlen(introBuffer[i].text);
  10:fc_config.c   ****     lengthOfLine = strlen(introBuffer[i].text);
 135              		.loc 1 10 20 discriminator 2 view .LVU17
 136 0018 3846     		mov	r0, r7	@, _2
 137 001a FFF7FEFF 		bl	strlen		@
 138              	.LVL2:
 139              		.loc 1 11 5 is_stmt 1 discriminator 2 view .LVU18
 140 001e 80B2     		uxth	r0, r0	@ _7, tmp131
 141              	@ fc_config.c:11:     DMA1_Channel4->CNDTR = lengthOfLine; //Setting the size of the buffer dynamic
 142              		.loc 1 11 26 is_stmt 0 discriminator 2 view .LVU19
 143 0020 7060     		str	r0, [r6, #4]	@ _7, MEM[(struct DMA_Channel_TypeDef *)1073872964B].CNDTR
  12:fc_config.c   ****     DMA1_Channel4->CMAR = (uint32_t)introBuffer[i].text;
 144              		.loc 1 12 5 is_stmt 1 discriminator 2 view .LVU20
 145              	@ fc_config.c:13:     DMA_Cmd(DMA1_Channel4, ENABLE);
  13:fc_config.c   ****     DMA_Cmd(DMA1_Channel4, ENABLE);
 146              		.loc 1 13 5 is_stmt 0 discriminator 2 view .LVU21
 147 0022 0121     		movs	r1, #1	@,
 148 0024 0648     		ldr	r0, .L7+4	@,
 149              	.LVL3:
ARM GAS  /var/folders/_2/qbh2zpt918qcm2b_6mgyydnm0000gn/T//ccDQ2Nov.s 			page 4


 150              	@ fc_config.c:12:     DMA1_Channel4->CMAR = (uint32_t)introBuffer[i].text;
  12:fc_config.c   ****     DMA1_Channel4->CMAR = (uint32_t)introBuffer[i].text;
 151              		.loc 1 12 25 discriminator 2 view .LVU22
 152 0026 F760     		str	r7, [r6, #12]	@ _2, MEM[(struct DMA_Channel_TypeDef *)1073872964B].CMAR
 153              	.LVL4:
 154              		.loc 1 13 5 is_stmt 1 discriminator 2 view .LVU23
 155              	@ fc_config.c:8:   for( int i = 0; i < lines; i++){
   8:fc_config.c   ****     while(!usart1TransferComplete);
 156              		.loc 1 8 31 is_stmt 0 discriminator 2 view .LVU24
 157 0028 0134     		adds	r4, r4, #1	@ i, i,
 158              	@ fc_config.c:13:     DMA_Cmd(DMA1_Channel4, ENABLE);
 159              		.loc 1 13 5 discriminator 2 view .LVU25
 160 002a FFF7FEFF 		bl	DMA_Cmd		@
 161              	.LVL5:
  14:fc_config.c   ****     usart1TransferComplete = 0;
 162              		.loc 1 14 5 is_stmt 1 discriminator 2 view .LVU26
 163              	@ fc_config.c:14:     usart1TransferComplete = 0;
 164              		.loc 1 14 28 is_stmt 0 discriminator 2 view .LVU27
 165 002e 0023     		movs	r3, #0	@ tmp128,
 166              	@ fc_config.c:8:   for( int i = 0; i < lines; i++){
   8:fc_config.c   ****     while(!usart1TransferComplete);
 167              		.loc 1 8 3 discriminator 2 view .LVU28
 168 0030 072C     		cmp	r4, #7	@ i,
 169              	@ fc_config.c:14:     usart1TransferComplete = 0;
 170              		.loc 1 14 28 discriminator 2 view .LVU29
 171 0032 2B70     		strb	r3, [r5]	@ tmp128, usart1TransferComplete
   8:fc_config.c   ****     while(!usart1TransferComplete);
 172              		.loc 1 8 30 is_stmt 1 discriminator 2 view .LVU30
 173              	.LVL6:
   8:fc_config.c   ****     while(!usart1TransferComplete);
 174              		.loc 1 8 19 discriminator 2 view .LVU31
 175              	@ fc_config.c:8:   for( int i = 0; i < lines; i++){
   8:fc_config.c   ****     while(!usart1TransferComplete);
 176              		.loc 1 8 3 is_stmt 0 discriminator 2 view .LVU32
 177 0034 EBD1     		bne	.L2		@,
 178              	.LBE3:
 179              	@ fc_config.c:16: };
  15:fc_config.c   ****   };  
  16:fc_config.c   **** };
 180              		.loc 1 16 1 view .LVU33
 181 0036 BDE8F081 		pop	{r4, r5, r6, r7, r8, pc}	@
 182              	.LVL7:
 183              	.L8:
 184              		.loc 1 16 1 view .LVU34
 185 003a 00BF     		.align	2
 186              	.L7:
 187 003c 00000000 		.word	usart1TransferComplete
 188 0040 44000240 		.word	1073872964
 189 0044 00000000 		.word	.LANCHOR0
 190              		.cfi_endproc
 191              	.LFE126:
 192              		.size	printIntro, .-printIntro
 193              		.section	.rodata.str1.1,"aMS",%progbits,1
 194              	.LC0:
 195 0000 5363616E 		.ascii	"Scanning address spectrum 1 - 127 for i2c device \012"
 195      6E696E67 
 195      20616464 
ARM GAS  /var/folders/_2/qbh2zpt918qcm2b_6mgyydnm0000gn/T//ccDQ2Nov.s 			page 5


 195      72657373 
 195      20737065 
 196 0032 00       		.ascii	"\000"
 197              	.LC1:
 198 0033 44657669 		.ascii	"Device found at: \000"
 198      63652066 
 198      6F756E64 
 198      2061743A 
 198      2000
 199              	.LC2:
 200 0045 0A00     		.ascii	"\012\000"
 201              		.text
 202              		.align	1
 203              		.global	i2cScanner
 204              		.syntax unified
 205              		.thumb
 206              		.thumb_func
 207              		.fpu softvfp
 208              		.type	i2cScanner, %function
 209              	i2cScanner:
 210              	.LFB127:
  17:fc_config.c   **** 
  18:fc_config.c   **** void i2cScanner(void){
 211              		.loc 1 18 22 is_stmt 1 view -0
 212              		.cfi_startproc
 213              		@ args = 0, pretend = 0, frame = 0
 214              		@ frame_needed = 0, uses_anonymous_args = 0
  19:fc_config.c   **** 	uint8_t address, returnValue;
 215              		.loc 1 19 2 view .LVU36
  20:fc_config.c   **** 	uint16_t deviceFound;
 216              		.loc 1 20 2 view .LVU37
  21:fc_config.c   **** 	
  22:fc_config.c   **** 	while(!usart1TransferComplete);	
 217              		.loc 1 22 2 view .LVU38
 218              	@ fc_config.c:22: 	while(!usart1TransferComplete);	
 219              		.loc 1 22 8 is_stmt 0 view .LVU39
 220 0048 154B     		ldr	r3, .L19	@ tmp117,
 221              	@ fc_config.c:18: void i2cScanner(void){
  18:fc_config.c   **** 	uint8_t address, returnValue;
 222              		.loc 1 18 22 view .LVU40
 223 004a 2DE9F041 		push	{r4, r5, r6, r7, r8, lr}	@
 224              	.LCFI1:
 225              		.cfi_def_cfa_offset 24
 226              		.cfi_offset 4, -24
 227              		.cfi_offset 5, -20
 228              		.cfi_offset 6, -16
 229              		.cfi_offset 7, -12
 230              		.cfi_offset 8, -8
 231              		.cfi_offset 14, -4
 232 004e 1D46     		mov	r5, r3	@ tmp131, tmp117
 233              	.L10:
 234              		.loc 1 22 32 is_stmt 1 discriminator 1 view .LVU41
 235              		.loc 1 22 7 discriminator 1 view .LVU42
 236              	@ fc_config.c:22: 	while(!usart1TransferComplete);	
 237              		.loc 1 22 8 is_stmt 0 discriminator 1 view .LVU43
 238 0050 1A78     		ldrb	r2, [r3]	@ zero_extendqisi2	@ usart1TransferComplete, usart1TransferComplete
 239              	@ fc_config.c:22: 	while(!usart1TransferComplete);	
ARM GAS  /var/folders/_2/qbh2zpt918qcm2b_6mgyydnm0000gn/T//ccDQ2Nov.s 			page 6


 240              		.loc 1 22 7 discriminator 1 view .LVU44
 241 0052 002A     		cmp	r2, #0	@ usart1TransferComplete
 242 0054 FCD0     		beq	.L10	@
  23:fc_config.c   **** 	  queueTextToBuf("Scanning address spectrum 1 - 127 for i2c device \n");
 243              		.loc 1 23 4 is_stmt 1 view .LVU45
 244 0056 1348     		ldr	r0, .L19+4	@,
 245              	@ fc_config.c:27: 	  returnValue = I2C_getStatus(I2C1, (address & 0x7f)<<1 );
  24:fc_config.c   **** 	  sendBufferOverUart1();
  25:fc_config.c   **** 
  26:fc_config.c   **** 	for(address = 1; address < 127; address++){
  27:fc_config.c   **** 	  returnValue = I2C_getStatus(I2C1, (address & 0x7f)<<1 );
 246              		.loc 1 27 18 is_stmt 0 view .LVU46
 247 0058 134E     		ldr	r6, .L19+8	@ tmp132,
 248              	@ fc_config.c:32: 	        queueTextToBuf("Device found at: ");
  28:fc_config.c   **** 	  
  29:fc_config.c   **** 	  switch(returnValue){
  30:fc_config.c   **** 	    case 1:
  31:fc_config.c   **** 	      while(!usart1TransferComplete);	
  32:fc_config.c   **** 	        queueTextToBuf("Device found at: ");
 249              		.loc 1 32 10 view .LVU47
 250 005a 144F     		ldr	r7, .L19+12	@ tmp133,
 251              	@ fc_config.c:34: 	        queueTextToBuf("\n");	
  33:fc_config.c   **** 	        queueIntToBuf(address);
  34:fc_config.c   **** 	        queueTextToBuf("\n");	
 252              		.loc 1 34 10 view .LVU48
 253 005c DFF85080 		ldr	r8, .L19+16	@ tmp134,
 254              	@ fc_config.c:23: 	  queueTextToBuf("Scanning address spectrum 1 - 127 for i2c device \n");
  23:fc_config.c   **** 	  sendBufferOverUart1();
 255              		.loc 1 23 4 view .LVU49
 256 0060 FFF7FEFF 		bl	queueTextToBuf		@
 257              	.LVL8:
  24:fc_config.c   **** 
 258              		.loc 1 24 4 is_stmt 1 view .LVU50
 259 0064 FFF7FEFF 		bl	sendBufferOverUart1		@
 260              	.LVL9:
  26:fc_config.c   **** 	  returnValue = I2C_getStatus(I2C1, (address & 0x7f)<<1 );
 261              		.loc 1 26 2 view .LVU51
  26:fc_config.c   **** 	  returnValue = I2C_getStatus(I2C1, (address & 0x7f)<<1 );
 262              		.loc 1 26 19 view .LVU52
 263              	@ fc_config.c:24: 	  sendBufferOverUart1();
  24:fc_config.c   **** 
 264              		.loc 1 24 4 is_stmt 0 view .LVU53
 265 0068 0124     		movs	r4, #1	@ ivtmp.32,
 266              	.LVL10:
 267              	.L13:
  27:fc_config.c   **** 	  
 268              		.loc 1 27 4 is_stmt 1 view .LVU54
 269              	@ fc_config.c:27: 	  returnValue = I2C_getStatus(I2C1, (address & 0x7f)<<1 );
  27:fc_config.c   **** 	  
 270              		.loc 1 27 18 is_stmt 0 view .LVU55
 271 006a 6100     		lsls	r1, r4, #1	@ tmp122, ivtmp.32,
 272 006c 01F0FE01 		and	r1, r1, #254	@, tmp122,
 273 0070 3046     		mov	r0, r6	@, tmp132
 274 0072 FFF7FEFF 		bl	I2C_getStatus		@
 275              	.LVL11:
  29:fc_config.c   **** 	    case 1:
 276              		.loc 1 29 4 is_stmt 1 view .LVU56
ARM GAS  /var/folders/_2/qbh2zpt918qcm2b_6mgyydnm0000gn/T//ccDQ2Nov.s 			page 7


 277 0076 0128     		cmp	r0, #1	@ tmp135,
 278 0078 0DD1     		bne	.L11		@,
 279              	.L12:
  31:fc_config.c   **** 	        queueTextToBuf("Device found at: ");
 280              		.loc 1 31 38 discriminator 1 view .LVU57
  31:fc_config.c   **** 	        queueTextToBuf("Device found at: ");
 281              		.loc 1 31 13 discriminator 1 view .LVU58
 282              	@ fc_config.c:31: 	      while(!usart1TransferComplete);	
  31:fc_config.c   **** 	        queueTextToBuf("Device found at: ");
 283              		.loc 1 31 14 is_stmt 0 discriminator 1 view .LVU59
 284 007a 2B78     		ldrb	r3, [r5]	@ zero_extendqisi2	@ usart1TransferComplete, usart1TransferComplete
 285              	@ fc_config.c:31: 	      while(!usart1TransferComplete);	
  31:fc_config.c   **** 	        queueTextToBuf("Device found at: ");
 286              		.loc 1 31 13 discriminator 1 view .LVU60
 287 007c 002B     		cmp	r3, #0	@ usart1TransferComplete
 288 007e FCD0     		beq	.L12	@
  32:fc_config.c   **** 	        queueIntToBuf(address);
 289              		.loc 1 32 10 is_stmt 1 view .LVU61
 290 0080 3846     		mov	r0, r7	@, tmp133
 291              	.LVL12:
  32:fc_config.c   **** 	        queueIntToBuf(address);
 292              		.loc 1 32 10 is_stmt 0 view .LVU62
 293 0082 FFF7FEFF 		bl	queueTextToBuf		@
 294              	.LVL13:
  33:fc_config.c   **** 	        queueTextToBuf("\n");	
 295              		.loc 1 33 10 is_stmt 1 view .LVU63
 296 0086 2046     		mov	r0, r4	@, ivtmp.32
 297 0088 FFF7FEFF 		bl	queueIntToBuf		@
 298              	.LVL14:
 299              		.loc 1 34 10 view .LVU64
 300 008c 4046     		mov	r0, r8	@, tmp134
 301 008e FFF7FEFF 		bl	queueTextToBuf		@
 302              	.LVL15:
  35:fc_config.c   **** 	        sendBufferOverUart1();
 303              		.loc 1 35 10 view .LVU65
 304 0092 FFF7FEFF 		bl	sendBufferOverUart1		@
 305              	.LVL16:
  36:fc_config.c   **** 	        deviceFound++;
 306              		.loc 1 36 10 view .LVU66
  37:fc_config.c   **** 	      break;
 307              		.loc 1 37 8 view .LVU67
 308              	.L11:
  38:fc_config.c   **** 	    default:
  39:fc_config.c   **** 	      break;
  40:fc_config.c   **** 	  };   
 309              		.loc 1 40 5 discriminator 2 view .LVU68
  26:fc_config.c   **** 	  returnValue = I2C_getStatus(I2C1, (address & 0x7f)<<1 );
 310              		.loc 1 26 34 discriminator 2 view .LVU69
  26:fc_config.c   **** 	  returnValue = I2C_getStatus(I2C1, (address & 0x7f)<<1 );
 311              		.loc 1 26 19 discriminator 2 view .LVU70
 312 0096 0134     		adds	r4, r4, #1	@ ivtmp.32, ivtmp.32,
 313              	.LVL17:
 314              	@ fc_config.c:26: 	for(address = 1; address < 127; address++){
  26:fc_config.c   **** 	  returnValue = I2C_getStatus(I2C1, (address & 0x7f)<<1 );
 315              		.loc 1 26 2 is_stmt 0 discriminator 2 view .LVU71
 316 0098 7F2C     		cmp	r4, #127	@ ivtmp.32,
 317 009a E6D1     		bne	.L13		@,
ARM GAS  /var/folders/_2/qbh2zpt918qcm2b_6mgyydnm0000gn/T//ccDQ2Nov.s 			page 8


 318              	@ fc_config.c:42: };
  41:fc_config.c   **** 	};
  42:fc_config.c   **** };
 319              		.loc 1 42 1 view .LVU72
 320 009c BDE8F081 		pop	{r4, r5, r6, r7, r8, pc}	@
 321              	.L20:
 322              		.align	2
 323              	.L19:
 324 00a0 00000000 		.word	usart1TransferComplete
 325 00a4 00000000 		.word	.LC0
 326 00a8 00540040 		.word	1073763328
 327 00ac 33000000 		.word	.LC1
 328 00b0 45000000 		.word	.LC2
 329              		.cfi_endproc
 330              	.LFE127:
 331              		.size	i2cScanner, .-i2cScanner
 332              		.section	.rodata.str1.1
 333              	.LC3:
 334 0047 200A00   		.ascii	" \012\000"
 335              		.text
 336              		.align	1
 337              		.global	escCalibration
 338              		.syntax unified
 339              		.thumb
 340              		.thumb_func
 341              		.fpu softvfp
 342              		.type	escCalibration, %function
 343              	escCalibration:
 344              	.LFB129:
  43:fc_config.c   **** 	
  44:fc_config.c   **** void checkReceivedCommandAndPerformAction(){
  45:fc_config.c   ****   uint8_t command;
  46:fc_config.c   ****   uint8_t exitFlag;
  47:fc_config.c   ****   exitFlag = 0;
  48:fc_config.c   ****   command = 0;
  49:fc_config.c   **** 
  50:fc_config.c   ****   while(!exitFlag){
  51:fc_config.c   ****     while(uart1VTable.serialRxTotalBytesWaiting()){ 
  52:fc_config.c   ****     command = uart1VTable.serialRead();  
  53:fc_config.c   **** 	    delay_millis(10);
  54:fc_config.c   **** 	    /**
  55:fc_config.c   **** 	    * Uart request needs some time, otherwise the 
  56:fc_config.c   **** 	    * system will hang up
  57:fc_config.c   **** 	    */
  58:fc_config.c   ****     };
  59:fc_config.c   ****     switch(command) {
  60:fc_config.c   ****       case 97://a
  61:fc_config.c   ****         command = 0;
  62:fc_config.c   **** 	/**
  63:fc_config.c   **** 	 * print pwm receiversignals
  64:fc_config.c   **** 	 */		
  65:fc_config.c   **** 	break;
  66:fc_config.c   **** 	case 98: //
  67:fc_config.c   **** 	  i2cScanner();
  68:fc_config.c   **** 	  command = 0;
  69:fc_config.c   **** 	  break;
  70:fc_config.c   **** 	case 112: //p
ARM GAS  /var/folders/_2/qbh2zpt918qcm2b_6mgyydnm0000gn/T//ccDQ2Nov.s 			page 9


  71:fc_config.c   **** 	  queueTextToBuf("Please increase the throttle to max - wait - and decrease it to min in the next 
  72:fc_config.c   **** 	  sendBufferOverUart1();
  73:fc_config.c   **** 	  escCalibration();
  74:fc_config.c   **** 	  command = 0;
  75:fc_config.c   **** 	  break;
  76:fc_config.c   **** 	case 113: //q
  77:fc_config.c   **** 	  exitFlag = 1;
  78:fc_config.c   **** 	default:
  79:fc_config.c   **** 	  break;
  80:fc_config.c   ****     };
  81:fc_config.c   ****    flashBoardLed(2000);		
  82:fc_config.c   ****   }; 
  83:fc_config.c   **** };
  84:fc_config.c   **** 
  85:fc_config.c   **** void escCalibration(){
 345              		.loc 1 85 22 is_stmt 1 view -0
 346              		.cfi_startproc
 347              		@ args = 0, pretend = 0, frame = 32
 348              		@ frame_needed = 0, uses_anonymous_args = 0
  86:fc_config.c   ****   int32_t receiverInput[8];
 349              		.loc 1 86 3 view .LVU74
  87:fc_config.c   ****   uint32_t timeout;  
 350              		.loc 1 87 3 view .LVU75
  88:fc_config.c   ****   timeout = millis();
 351              		.loc 1 88 3 view .LVU76
 352              	@ fc_config.c:85: void escCalibration(){
  85:fc_config.c   ****   int32_t receiverInput[8];
 353              		.loc 1 85 22 is_stmt 0 view .LVU77
 354 00b4 2DE9F047 		push	{r4, r5, r6, r7, r8, r9, r10, lr}	@
 355              	.LCFI2:
 356              		.cfi_def_cfa_offset 32
 357              		.cfi_offset 4, -32
 358              		.cfi_offset 5, -28
 359              		.cfi_offset 6, -24
 360              		.cfi_offset 7, -20
 361              		.cfi_offset 8, -16
 362              		.cfi_offset 9, -12
 363              		.cfi_offset 10, -8
 364              		.cfi_offset 14, -4
 365 00b8 88B0     		sub	sp, sp, #32	@,,
 366              	.LCFI3:
 367              		.cfi_def_cfa_offset 64
 368              	@ fc_config.c:88:   timeout = millis();
 369              		.loc 1 88 13 view .LVU78
 370 00ba FFF7FEFF 		bl	millis		@
 371              	.LVL18:
 372              	@ fc_config.c:89:   esc1 = 1;
  89:fc_config.c   ****   esc1 = 1;
 373              		.loc 1 89 8 view .LVU79
 374 00be 2B4C     		ldr	r4, .L29	@ tmp120,
 375              	@ fc_config.c:90:   esc2 = 1;
  90:fc_config.c   ****   esc2 = 1;
 376              		.loc 1 90 8 view .LVU80
 377 00c0 2B4D     		ldr	r5, .L29+4	@ tmp122,
 378              	@ fc_config.c:91:   esc3 = 1;
  91:fc_config.c   ****   esc3 = 1;
 379              		.loc 1 91 8 view .LVU81
ARM GAS  /var/folders/_2/qbh2zpt918qcm2b_6mgyydnm0000gn/T//ccDQ2Nov.s 			page 10


 380 00c2 2C4E     		ldr	r6, .L29+8	@ tmp124,
 381              	@ fc_config.c:92:   esc4 = 1;
  92:fc_config.c   ****   esc4 = 1;
 382              		.loc 1 92 8 view .LVU82
 383 00c4 2C4F     		ldr	r7, .L29+12	@ tmp126,
 384              	@ fc_config.c:89:   esc1 = 1;
  89:fc_config.c   ****   esc2 = 1;
 385              		.loc 1 89 8 view .LVU83
 386 00c6 0123     		movs	r3, #1	@ tmp121,
 387 00c8 2360     		str	r3, [r4]	@ tmp121, esc1
 388              	@ fc_config.c:90:   esc2 = 1;
  90:fc_config.c   ****   esc3 = 1;
 389              		.loc 1 90 8 view .LVU84
 390 00ca 2B60     		str	r3, [r5]	@ tmp121, esc2
 391              	@ fc_config.c:91:   esc3 = 1;
  91:fc_config.c   ****   esc4 = 1;
 392              		.loc 1 91 8 view .LVU85
 393 00cc 3360     		str	r3, [r6]	@ tmp121, esc3
 394              	@ fc_config.c:92:   esc4 = 1;
 395              		.loc 1 92 8 view .LVU86
 396 00ce 3B60     		str	r3, [r7]	@ tmp121, esc4
 397              	@ fc_config.c:88:   timeout = millis();
  88:fc_config.c   ****   esc1 = 1;
 398              		.loc 1 88 13 view .LVU87
 399 00d0 8046     		mov	r8, r0	@ timeout, tmp157
 400              	.LVL19:
  89:fc_config.c   ****   esc2 = 1;
 401              		.loc 1 89 3 is_stmt 1 view .LVU88
  90:fc_config.c   ****   esc3 = 1;
 402              		.loc 1 90 3 view .LVU89
  91:fc_config.c   ****   esc4 = 1;
 403              		.loc 1 91 3 view .LVU90
 404              		.loc 1 92 3 view .LVU91
  93:fc_config.c   ****   updatePWMTimerRegistersForMotors();  
 405              		.loc 1 93 3 view .LVU92
 406 00d2 FFF7FEFF 		bl	updatePWMTimerRegistersForMotors		@
 407              	.LVL20:
  94:fc_config.c   ****   delay_millis(1000);
 408              		.loc 1 94 3 view .LVU93
 409 00d6 4FF47A70 		mov	r0, #1000	@,
 410 00da FFF7FEFF 		bl	delay_millis		@
 411              	.LVL21:
  95:fc_config.c   ****   while(millis() - timeout < 5000 || receiverInput[3] < 1900){
 412              		.loc 1 95 3 view .LVU94
 413              	@ fc_config.c:95:   while(millis() - timeout < 5000 || receiverInput[3] < 1900){
 414              		.loc 1 95 8 is_stmt 0 view .LVU95
 415 00de 41F2873A 		movw	r10, #4999	@ tmp130,
 416              	@ fc_config.c:95:   while(millis() - timeout < 5000 || receiverInput[3] < 1900){
 417              		.loc 1 95 35 view .LVU96
 418 00e2 40F26B79 		movw	r9, #1899	@ tmp155,
 419              	.L22:
 420              		.loc 1 95 8 is_stmt 1 view .LVU97
 421              	@ fc_config.c:95:   while(millis() - timeout < 5000 || receiverInput[3] < 1900){
 422              		.loc 1 95 9 is_stmt 0 view .LVU98
 423 00e6 FFF7FEFF 		bl	millis		@
 424              	.LVL22:
 425              	@ fc_config.c:95:   while(millis() - timeout < 5000 || receiverInput[3] < 1900){
ARM GAS  /var/folders/_2/qbh2zpt918qcm2b_6mgyydnm0000gn/T//ccDQ2Nov.s 			page 11


 426              		.loc 1 95 18 view .LVU99
 427 00ea A0EB0800 		sub	r0, r0, r8	@ tmp129, tmp158, timeout
 428              	@ fc_config.c:95:   while(millis() - timeout < 5000 || receiverInput[3] < 1900){
 429              		.loc 1 95 8 view .LVU100
 430 00ee 5045     		cmp	r0, r10	@ tmp129, tmp130
 431 00f0 0FD9     		bls	.L23		@,
 432              	@ fc_config.c:95:   while(millis() - timeout < 5000 || receiverInput[3] < 1900){
 433              		.loc 1 95 51 discriminator 1 view .LVU101
 434 00f2 039B     		ldr	r3, [sp, #12]	@ _4, receiverInput
 435              	@ fc_config.c:95:   while(millis() - timeout < 5000 || receiverInput[3] < 1900){
 436              		.loc 1 95 35 discriminator 1 view .LVU102
 437 00f4 4B45     		cmp	r3, r9	@ _4, tmp155
 438 00f6 0CDD     		ble	.L23		@,
  96:fc_config.c   ****     flashBoardLed(1000);
  97:fc_config.c   ****     getReceiverInputValues(receiverInput); 
  98:fc_config.c   ****     queueIntToBuf(receiverInput[3]);
  99:fc_config.c   ****     sendBufferOverUart1(); 
 100:fc_config.c   ****   };
 439              		.loc 1 100 4 is_stmt 1 view .LVU103
 101:fc_config.c   ****   
 102:fc_config.c   ****   if(receiverInput[3] > 1900){
 440              		.loc 1 102 3 view .LVU104
 441              	@ fc_config.c:102:   if(receiverInput[3] > 1900){
 442              		.loc 1 102 5 is_stmt 0 view .LVU105
 443 00f8 40F26C72 		movw	r2, #1900	@ tmp132,
 444 00fc 9342     		cmp	r3, r2	@ _4, tmp132
 445 00fe 15D1     		bne	.L24		@,
 446              	.L27:
 103:fc_config.c   ****     timeout = millis();
 104:fc_config.c   ****     while(millis() - timeout < 10000 ){ 
 105:fc_config.c   ****      getReceiverInputValues(receiverInput);
 106:fc_config.c   ****      esc1 = receiverInput[3];
 107:fc_config.c   ****      esc2 = receiverInput[3];
 108:fc_config.c   ****      esc3 = receiverInput[3];
 109:fc_config.c   ****      esc4 = receiverInput[3];
 110:fc_config.c   ****      queueIntToBuf(receiverInput[3]);
 111:fc_config.c   ****      queueTextToBuf(" \n");
 112:fc_config.c   ****      sendBufferOverUart1(); 
 113:fc_config.c   ****      updatePWMTimerRegistersForMotors();
 114:fc_config.c   ****     };
 447              		.loc 1 114 6 is_stmt 1 view .LVU106
 115:fc_config.c   ****   };
 448              		.loc 1 115 4 view .LVU107
 116:fc_config.c   ****   esc1 = 985;
 449              		.loc 1 116 3 view .LVU108
 450              	@ fc_config.c:116:   esc1 = 985;
 451              		.loc 1 116 8 is_stmt 0 view .LVU109
 452 0100 40F2D933 		movw	r3, #985	@ tmp134,
 453 0104 2360     		str	r3, [r4]	@ tmp134, esc1
 117:fc_config.c   ****   esc2 = 985;
 454              		.loc 1 117 3 is_stmt 1 view .LVU110
 455              	@ fc_config.c:117:   esc2 = 985;
 456              		.loc 1 117 8 is_stmt 0 view .LVU111
 457 0106 2B60     		str	r3, [r5]	@ tmp134, esc2
 118:fc_config.c   ****   esc3 = 985;
 458              		.loc 1 118 3 is_stmt 1 view .LVU112
 459              	@ fc_config.c:118:   esc3 = 985;
ARM GAS  /var/folders/_2/qbh2zpt918qcm2b_6mgyydnm0000gn/T//ccDQ2Nov.s 			page 12


 460              		.loc 1 118 8 is_stmt 0 view .LVU113
 461 0108 3360     		str	r3, [r6]	@ tmp134, esc3
 119:fc_config.c   ****   esc4 = 985;
 462              		.loc 1 119 3 is_stmt 1 view .LVU114
 463              	@ fc_config.c:119:   esc4 = 985;
 464              		.loc 1 119 8 is_stmt 0 view .LVU115
 465 010a 3B60     		str	r3, [r7]	@ tmp134, esc4
 466              	@ fc_config.c:120: };
 120:fc_config.c   **** };
 467              		.loc 1 120 1 view .LVU116
 468 010c 08B0     		add	sp, sp, #32	@,,
 469              	.LCFI4:
 470              		.cfi_remember_state
 471              		.cfi_def_cfa_offset 32
 472              		@ sp needed	@
 473 010e BDE8F087 		pop	{r4, r5, r6, r7, r8, r9, r10, pc}	@
 474              	.LVL23:
 475              	.L23:
 476              	.LCFI5:
 477              		.cfi_restore_state
  96:fc_config.c   ****     getReceiverInputValues(receiverInput); 
 478              		.loc 1 96 5 is_stmt 1 view .LVU117
 479 0112 4FF47A70 		mov	r0, #1000	@,
 480 0116 FFF7FEFF 		bl	flashBoardLed		@
 481              	.LVL24:
  97:fc_config.c   ****     queueIntToBuf(receiverInput[3]);
 482              		.loc 1 97 5 view .LVU118
 483 011a 6846     		mov	r0, sp	@,
 484 011c FFF7FEFF 		bl	getReceiverInputValues		@
 485              	.LVL25:
  98:fc_config.c   ****     sendBufferOverUart1(); 
 486              		.loc 1 98 5 view .LVU119
 487 0120 0398     		ldr	r0, [sp, #12]	@, receiverInput
 488 0122 FFF7FEFF 		bl	queueIntToBuf		@
 489              	.LVL26:
  99:fc_config.c   ****   };
 490              		.loc 1 99 5 view .LVU120
 491 0126 FFF7FEFF 		bl	sendBufferOverUart1		@
 492              	.LVL27:
 493 012a DCE7     		b	.L22		@
 494              	.L24:
 103:fc_config.c   ****     while(millis() - timeout < 10000 ){ 
 495              		.loc 1 103 5 view .LVU121
 496              	@ fc_config.c:103:     timeout = millis();
 103:fc_config.c   ****     while(millis() - timeout < 10000 ){ 
 497              		.loc 1 103 15 is_stmt 0 view .LVU122
 498 012c FFF7FEFF 		bl	millis		@
 499              	.LVL28:
 500              	@ fc_config.c:111:      queueTextToBuf(" \n");
 111:fc_config.c   ****      sendBufferOverUart1(); 
 501              		.loc 1 111 6 view .LVU123
 502 0130 DFF848A0 		ldr	r10, .L29+16	@ tmp154,
 503              	@ fc_config.c:103:     timeout = millis();
 103:fc_config.c   ****     while(millis() - timeout < 10000 ){ 
 504              		.loc 1 103 15 view .LVU124
 505 0134 8046     		mov	r8, r0	@ timeout, tmp159
 506              	.LVL29:
ARM GAS  /var/folders/_2/qbh2zpt918qcm2b_6mgyydnm0000gn/T//ccDQ2Nov.s 			page 13


 104:fc_config.c   ****      getReceiverInputValues(receiverInput);
 507              		.loc 1 104 5 is_stmt 1 view .LVU125
 508              	@ fc_config.c:104:     while(millis() - timeout < 10000 ){ 
 104:fc_config.c   ****      getReceiverInputValues(receiverInput);
 509              		.loc 1 104 10 is_stmt 0 view .LVU126
 510 0136 42F20F79 		movw	r9, #9999	@ tmp148,
 511              	.LVL30:
 512              	.L25:
 104:fc_config.c   ****      getReceiverInputValues(receiverInput);
 513              		.loc 1 104 10 is_stmt 1 view .LVU127
 514              	@ fc_config.c:104:     while(millis() - timeout < 10000 ){ 
 104:fc_config.c   ****      getReceiverInputValues(receiverInput);
 515              		.loc 1 104 11 is_stmt 0 view .LVU128
 516 013a FFF7FEFF 		bl	millis		@
 517              	.LVL31:
 518              	@ fc_config.c:104:     while(millis() - timeout < 10000 ){ 
 104:fc_config.c   ****      getReceiverInputValues(receiverInput);
 519              		.loc 1 104 20 view .LVU129
 520 013e A0EB0800 		sub	r0, r0, r8	@ tmp147, tmp160, timeout
 521              	@ fc_config.c:104:     while(millis() - timeout < 10000 ){ 
 104:fc_config.c   ****      getReceiverInputValues(receiverInput);
 522              		.loc 1 104 10 view .LVU130
 523 0142 4845     		cmp	r0, r9	@ tmp147, tmp148
 524 0144 DCD8     		bhi	.L27		@,
 105:fc_config.c   ****      esc1 = receiverInput[3];
 525              		.loc 1 105 6 is_stmt 1 view .LVU131
 526 0146 6846     		mov	r0, sp	@,
 527 0148 FFF7FEFF 		bl	getReceiverInputValues		@
 528              	.LVL32:
 106:fc_config.c   ****      esc2 = receiverInput[3];
 529              		.loc 1 106 6 view .LVU132
 530              	@ fc_config.c:106:      esc1 = receiverInput[3];
 106:fc_config.c   ****      esc2 = receiverInput[3];
 531              		.loc 1 106 26 is_stmt 0 view .LVU133
 532 014c 0398     		ldr	r0, [sp, #12]	@ _6, receiverInput
 533              	@ fc_config.c:106:      esc1 = receiverInput[3];
 106:fc_config.c   ****      esc2 = receiverInput[3];
 534              		.loc 1 106 11 view .LVU134
 535 014e 2060     		str	r0, [r4]	@ _6, esc1
 107:fc_config.c   ****      esc3 = receiverInput[3];
 536              		.loc 1 107 6 is_stmt 1 view .LVU135
 537              	@ fc_config.c:107:      esc2 = receiverInput[3];
 107:fc_config.c   ****      esc3 = receiverInput[3];
 538              		.loc 1 107 11 is_stmt 0 view .LVU136
 539 0150 2860     		str	r0, [r5]	@ _6, esc2
 108:fc_config.c   ****      esc4 = receiverInput[3];
 540              		.loc 1 108 6 is_stmt 1 view .LVU137
 541              	@ fc_config.c:108:      esc3 = receiverInput[3];
 108:fc_config.c   ****      esc4 = receiverInput[3];
 542              		.loc 1 108 11 is_stmt 0 view .LVU138
 543 0152 3060     		str	r0, [r6]	@ _6, esc3
 109:fc_config.c   ****      queueIntToBuf(receiverInput[3]);
 544              		.loc 1 109 6 is_stmt 1 view .LVU139
 545              	@ fc_config.c:109:      esc4 = receiverInput[3];
 109:fc_config.c   ****      queueIntToBuf(receiverInput[3]);
 546              		.loc 1 109 11 is_stmt 0 view .LVU140
 547 0154 3860     		str	r0, [r7]	@ _6, esc4
ARM GAS  /var/folders/_2/qbh2zpt918qcm2b_6mgyydnm0000gn/T//ccDQ2Nov.s 			page 14


 110:fc_config.c   ****      queueTextToBuf(" \n");
 548              		.loc 1 110 6 is_stmt 1 view .LVU141
 549 0156 FFF7FEFF 		bl	queueIntToBuf		@
 550              	.LVL33:
 111:fc_config.c   ****      sendBufferOverUart1(); 
 551              		.loc 1 111 6 view .LVU142
 552 015a 5046     		mov	r0, r10	@, tmp154
 553 015c FFF7FEFF 		bl	queueTextToBuf		@
 554              	.LVL34:
 112:fc_config.c   ****      updatePWMTimerRegistersForMotors();
 555              		.loc 1 112 6 view .LVU143
 556 0160 FFF7FEFF 		bl	sendBufferOverUart1		@
 557              	.LVL35:
 113:fc_config.c   ****     };
 558              		.loc 1 113 6 view .LVU144
 559 0164 FFF7FEFF 		bl	updatePWMTimerRegistersForMotors		@
 560              	.LVL36:
 561 0168 E7E7     		b	.L25		@
 562              	.L30:
 563 016a 00BF     		.align	2
 564              	.L29:
 565 016c 00000000 		.word	esc1
 566 0170 00000000 		.word	esc2
 567 0174 00000000 		.word	esc3
 568 0178 00000000 		.word	esc4
 569 017c 47000000 		.word	.LC3
 570              		.cfi_endproc
 571              	.LFE129:
 572              		.size	escCalibration, .-escCalibration
 573              		.section	.rodata.str1.1
 574              	.LC4:
 575 004a 506C6561 		.ascii	"Please increase the throttle to max - wait - and de"
 575      73652069 
 575      6E637265 
 575      61736520 
 575      74686520 
 576 007d 63726561 		.ascii	"crease it to min in the next 10 sec \012\000"
 576      73652069 
 576      7420746F 
 576      206D696E 
 576      20696E20 
 577              		.text
 578              		.align	1
 579              		.global	checkReceivedCommandAndPerformAction
 580              		.syntax unified
 581              		.thumb
 582              		.thumb_func
 583              		.fpu softvfp
 584              		.type	checkReceivedCommandAndPerformAction, %function
 585              	checkReceivedCommandAndPerformAction:
 586              	.LFB128:
  44:fc_config.c   ****   uint8_t command;
 587              		.loc 1 44 44 view -0
 588              		.cfi_startproc
 589              		@ args = 0, pretend = 0, frame = 0
 590              		@ frame_needed = 0, uses_anonymous_args = 0
  45:fc_config.c   ****   uint8_t exitFlag;
ARM GAS  /var/folders/_2/qbh2zpt918qcm2b_6mgyydnm0000gn/T//ccDQ2Nov.s 			page 15


 591              		.loc 1 45 3 view .LVU146
  46:fc_config.c   ****   exitFlag = 0;
 592              		.loc 1 46 3 view .LVU147
  47:fc_config.c   ****   command = 0;
 593              		.loc 1 47 3 view .LVU148
 594              	.LVL37:
  48:fc_config.c   **** 
 595              		.loc 1 48 3 view .LVU149
  50:fc_config.c   ****     while(uart1VTable.serialRxTotalBytesWaiting()){ 
 596              		.loc 1 50 3 view .LVU150
  50:fc_config.c   ****     while(uart1VTable.serialRxTotalBytesWaiting()){ 
 597              		.loc 1 50 8 view .LVU151
 598              	@ fc_config.c:44: void checkReceivedCommandAndPerformAction(){
  44:fc_config.c   ****   uint8_t command;
 599              		.loc 1 44 44 is_stmt 0 view .LVU152
 600 0180 F8B5     		push	{r3, r4, r5, r6, r7, lr}	@
 601              	.LCFI6:
 602              		.cfi_def_cfa_offset 24
 603              		.cfi_offset 3, -24
 604              		.cfi_offset 4, -20
 605              		.cfi_offset 5, -16
 606              		.cfi_offset 6, -12
 607              		.cfi_offset 7, -8
 608              		.cfi_offset 14, -4
 609              	@ fc_config.c:51:     while(uart1VTable.serialRxTotalBytesWaiting()){ 
  51:fc_config.c   ****     command = uart1VTable.serialRead();  
 610              		.loc 1 51 22 view .LVU153
 611 0182 164E     		ldr	r6, .L43	@ tmp119,
 612              	@ fc_config.c:71: 	  queueTextToBuf("Please increase the throttle to max - wait - and decrease it t
  71:fc_config.c   **** 	  sendBufferOverUart1();
 613              		.loc 1 71 4 view .LVU154
 614 0184 164F     		ldr	r7, .L43+4	@ tmp129,
 615              	@ fc_config.c:48:   command = 0;
  48:fc_config.c   **** 
 616              		.loc 1 48 11 view .LVU155
 617 0186 0025     		movs	r5, #0	@ command,
 618              	.LVL38:
 619              	.L32:
  51:fc_config.c   ****     command = uart1VTable.serialRead();  
 620              		.loc 1 51 10 is_stmt 1 view .LVU156
 621              	@ fc_config.c:51:     while(uart1VTable.serialRxTotalBytesWaiting()){ 
  51:fc_config.c   ****     command = uart1VTable.serialRead();  
 622              		.loc 1 51 11 is_stmt 0 view .LVU157
 623 0188 3368     		ldr	r3, [r6]	@ uart1VTable.serialRxTotalBytesWaiting, uart1VTable.serialRxTotalBytesWaiting
 624 018a 9847     		blx	r3		@ uart1VTable.serialRxTotalBytesWaiting
 625              	.LVL39:
 626              	@ fc_config.c:51:     while(uart1VTable.serialRxTotalBytesWaiting()){ 
  51:fc_config.c   ****     command = uart1VTable.serialRead();  
 627              		.loc 1 51 10 view .LVU158
 628 018c 0446     		mov	r4, r0	@ tmp121, tmp131
 629 018e 68B9     		cbnz	r0, .L33	@ tmp121,
  58:fc_config.c   ****     switch(command) {
 630              		.loc 1 58 6 is_stmt 1 view .LVU159
  59:fc_config.c   ****       case 97://a
 631              		.loc 1 59 5 view .LVU160
 632 0190 702D     		cmp	r5, #112	@ command,
 633 0192 1BD0     		beq	.L34		@,
ARM GAS  /var/folders/_2/qbh2zpt918qcm2b_6mgyydnm0000gn/T//ccDQ2Nov.s 			page 16


 634 0194 11D8     		bhi	.L35		@,
 635 0196 612D     		cmp	r5, #97	@ command,
 636 0198 16D0     		beq	.L39		@,
 637 019a 622D     		cmp	r5, #98	@ command,
 638 019c 12D0     		beq	.L37		@,
 639              	.L36:
 640              	.LVL40:
  80:fc_config.c   ****    flashBoardLed(2000);		
 641              		.loc 1 80 6 view .LVU161
  81:fc_config.c   ****   }; 
 642              		.loc 1 81 4 view .LVU162
 643 019e 4FF4FA60 		mov	r0, #2000	@,
 644 01a2 FFF7FEFF 		bl	flashBoardLed		@
 645              	.LVL41:
  50:fc_config.c   ****     while(uart1VTable.serialRxTotalBytesWaiting()){ 
 646              		.loc 1 50 8 view .LVU163
 647 01a6 002C     		cmp	r4, #0	@ exitFlag
 648 01a8 EED0     		beq	.L32	@
 649              	@ fc_config.c:83: };
  83:fc_config.c   **** 
 650              		.loc 1 83 1 is_stmt 0 view .LVU164
 651 01aa F8BD     		pop	{r3, r4, r5, r6, r7, pc}	@
 652              	.LVL42:
 653              	.L33:
  52:fc_config.c   **** 	    delay_millis(10);
 654              		.loc 1 52 5 is_stmt 1 view .LVU165
 655              	@ fc_config.c:52:     command = uart1VTable.serialRead();  
  52:fc_config.c   **** 	    delay_millis(10);
 656              		.loc 1 52 15 is_stmt 0 view .LVU166
 657 01ac 7368     		ldr	r3, [r6, #4]	@ uart1VTable.serialRead, uart1VTable.serialRead
 658 01ae 9847     		blx	r3		@ uart1VTable.serialRead
 659              	.LVL43:
 660 01b0 0546     		mov	r5, r0	@ command, tmp130
  53:fc_config.c   **** 	    /**
 661              		.loc 1 53 6 is_stmt 1 view .LVU167
 662 01b2 0A20     		movs	r0, #10	@,
 663 01b4 FFF7FEFF 		bl	delay_millis		@
 664              	.LVL44:
 665 01b8 E6E7     		b	.L32		@
 666              	.L35:
  53:fc_config.c   **** 	    /**
 667              		.loc 1 53 6 is_stmt 0 view .LVU168
 668 01ba A5F17103 		sub	r3, r5, #113	@, command,
 669 01be 5C42     		rsbs	r4, r3, #0	@ exitFlag,,
 670 01c0 5C41     		adcs	r4, r4, r3	@ exitFlag, exitFlag,
 671 01c2 ECE7     		b	.L36		@
 672              	.L37:
  67:fc_config.c   **** 	  command = 0;
 673              		.loc 1 67 4 is_stmt 1 view .LVU169
 674 01c4 FFF7FEFF 		bl	i2cScanner		@
 675              	.LVL45:
  68:fc_config.c   **** 	  break;
 676              		.loc 1 68 4 view .LVU170
  69:fc_config.c   **** 	case 112: //p
 677              		.loc 1 69 4 view .LVU171
 678              	.L39:
 679              	@ fc_config.c:59:     switch(command) {
ARM GAS  /var/folders/_2/qbh2zpt918qcm2b_6mgyydnm0000gn/T//ccDQ2Nov.s 			page 17


  59:fc_config.c   ****       case 97://a
 680              		.loc 1 59 5 is_stmt 0 view .LVU172
 681 01c8 2546     		mov	r5, r4	@ command, tmp121
 682 01ca E8E7     		b	.L36		@
 683              	.L34:
  71:fc_config.c   **** 	  sendBufferOverUart1();
 684              		.loc 1 71 4 is_stmt 1 view .LVU173
 685 01cc 3846     		mov	r0, r7	@, tmp129
 686 01ce FFF7FEFF 		bl	queueTextToBuf		@
 687              	.LVL46:
  72:fc_config.c   **** 	  escCalibration();
 688              		.loc 1 72 4 view .LVU174
 689 01d2 FFF7FEFF 		bl	sendBufferOverUart1		@
 690              	.LVL47:
  73:fc_config.c   **** 	  command = 0;
 691              		.loc 1 73 4 view .LVU175
 692 01d6 FFF7FEFF 		bl	escCalibration		@
 693              	.LVL48:
  74:fc_config.c   **** 	  break;
 694              		.loc 1 74 4 view .LVU176
  75:fc_config.c   **** 	case 113: //q
 695              		.loc 1 75 4 view .LVU177
 696 01da F5E7     		b	.L39		@
 697              	.L44:
 698              		.align	2
 699              	.L43:
 700 01dc 00000000 		.word	uart1VTable
 701 01e0 4A000000 		.word	.LC4
 702              		.cfi_endproc
 703              	.LFE128:
 704              		.size	checkReceivedCommandAndPerformAction, .-checkReceivedCommandAndPerformAction
 705              		.align	1
 706              		.global	calibrate_esc
 707              		.syntax unified
 708              		.thumb
 709              		.thumb_func
 710              		.fpu softvfp
 711              		.type	calibrate_esc, %function
 712              	calibrate_esc:
 713              	.LFB130:
 121:fc_config.c   **** 
 122:fc_config.c   **** void calibrate_esc(void){
 714              		.loc 1 122 25 view -0
 715              		.cfi_startproc
 716              		@ args = 0, pretend = 0, frame = 0
 717              		@ frame_needed = 0, uses_anonymous_args = 0
 123:fc_config.c   **** 	esc1=2000;
 718              		.loc 1 123 2 view .LVU179
 719              	@ fc_config.c:122: void calibrate_esc(void){
 122:fc_config.c   **** 	esc1=2000;
 720              		.loc 1 122 25 is_stmt 0 view .LVU180
 721 01e4 70B5     		push	{r4, r5, r6, lr}	@
 722              	.LCFI7:
 723              		.cfi_def_cfa_offset 16
 724              		.cfi_offset 4, -16
 725              		.cfi_offset 5, -12
 726              		.cfi_offset 6, -8
ARM GAS  /var/folders/_2/qbh2zpt918qcm2b_6mgyydnm0000gn/T//ccDQ2Nov.s 			page 18


 727              		.cfi_offset 14, -4
 728              	@ fc_config.c:126: 	esc4=2000;
 124:fc_config.c   **** 	esc2=2000;
 125:fc_config.c   **** 	esc3=2000;
 126:fc_config.c   **** 	esc4=2000;
 729              		.loc 1 126 6 view .LVU181
 730 01e6 0E4A     		ldr	r2, .L46	@ tmp116,
 731              	@ fc_config.c:123: 	esc1=2000;
 123:fc_config.c   **** 	esc2=2000;
 732              		.loc 1 123 6 view .LVU182
 733 01e8 0E4E     		ldr	r6, .L46+4	@ tmp110,
 734              	@ fc_config.c:124: 	esc2=2000;
 124:fc_config.c   **** 	esc2=2000;
 735              		.loc 1 124 6 view .LVU183
 736 01ea 0F4D     		ldr	r5, .L46+8	@ tmp112,
 737              	@ fc_config.c:125: 	esc3=2000;
 125:fc_config.c   **** 	esc4=2000;
 738              		.loc 1 125 6 view .LVU184
 739 01ec 0F4C     		ldr	r4, .L46+12	@ tmp114,
 740              	@ fc_config.c:123: 	esc1=2000;
 123:fc_config.c   **** 	esc2=2000;
 741              		.loc 1 123 6 view .LVU185
 742 01ee 4FF4FA63 		mov	r3, #2000	@ tmp111,
 743 01f2 3360     		str	r3, [r6]	@ tmp111, esc1
 124:fc_config.c   **** 	esc2=2000;
 744              		.loc 1 124 2 is_stmt 1 view .LVU186
 745              	@ fc_config.c:124: 	esc2=2000;
 124:fc_config.c   **** 	esc2=2000;
 746              		.loc 1 124 6 is_stmt 0 view .LVU187
 747 01f4 2B60     		str	r3, [r5]	@ tmp111, esc2
 125:fc_config.c   **** 	esc4=2000;
 748              		.loc 1 125 2 is_stmt 1 view .LVU188
 749              	@ fc_config.c:125: 	esc3=2000;
 125:fc_config.c   **** 	esc4=2000;
 750              		.loc 1 125 6 is_stmt 0 view .LVU189
 751 01f6 2360     		str	r3, [r4]	@ tmp111, esc3
 752              		.loc 1 126 2 is_stmt 1 view .LVU190
 753              	@ fc_config.c:126: 	esc4=2000;
 754              		.loc 1 126 6 is_stmt 0 view .LVU191
 755 01f8 1360     		str	r3, [r2]	@ tmp111, esc4
 127:fc_config.c   **** 	updatePWMTimerRegistersForMotors();
 756              		.loc 1 127 2 is_stmt 1 view .LVU192
 757 01fa FFF7FEFF 		bl	updatePWMTimerRegistersForMotors		@
 758              	.LVL49:
 128:fc_config.c   **** 	delay_millis(8000);
 759              		.loc 1 128 2 view .LVU193
 760 01fe 4FF4FA50 		mov	r0, #8000	@,
 761 0202 FFF7FEFF 		bl	delay_millis		@
 762              	.LVL50:
 129:fc_config.c   **** 	esc1=1000;
 763              		.loc 1 129 2 view .LVU194
 764              	@ fc_config.c:129: 	esc1=1000;
 765              		.loc 1 129 6 is_stmt 0 view .LVU195
 766 0206 4FF47A73 		mov	r3, #1000	@ tmp119,
 767 020a 3360     		str	r3, [r6]	@ tmp119, esc1
 130:fc_config.c   **** 	esc2=1000;
 768              		.loc 1 130 2 is_stmt 1 view .LVU196
ARM GAS  /var/folders/_2/qbh2zpt918qcm2b_6mgyydnm0000gn/T//ccDQ2Nov.s 			page 19


 769              	@ fc_config.c:130: 	esc2=1000;
 770              		.loc 1 130 6 is_stmt 0 view .LVU197
 771 020c 2B60     		str	r3, [r5]	@ tmp119, esc2
 131:fc_config.c   **** 	esc3=1000;
 772              		.loc 1 131 2 is_stmt 1 view .LVU198
 773              	@ fc_config.c:131: 	esc3=1000;
 774              		.loc 1 131 6 is_stmt 0 view .LVU199
 775 020e 2360     		str	r3, [r4]	@ tmp119, esc3
 132:fc_config.c   **** 	esc3=1000;
 776              		.loc 1 132 2 is_stmt 1 view .LVU200
 133:fc_config.c   **** 	updatePWMTimerRegistersForMotors();
 777              		.loc 1 133 2 view .LVU201
 778 0210 FFF7FEFF 		bl	updatePWMTimerRegistersForMotors		@
 779              	.LVL51:
 134:fc_config.c   **** 	delay_millis(8000);
 780              		.loc 1 134 2 view .LVU202
 781              	@ fc_config.c:135: };
 135:fc_config.c   **** };
 782              		.loc 1 135 1 is_stmt 0 view .LVU203
 783 0214 BDE87040 		pop	{r4, r5, r6, lr}	@
 784              	.LCFI8:
 785              		.cfi_restore 14
 786              		.cfi_restore 6
 787              		.cfi_restore 5
 788              		.cfi_restore 4
 789              		.cfi_def_cfa_offset 0
 790              	@ fc_config.c:134: 	delay_millis(8000);
 134:fc_config.c   **** 	delay_millis(8000);
 791              		.loc 1 134 2 view .LVU204
 792 0218 4FF4FA50 		mov	r0, #8000	@,
 793 021c FFF7FEBF 		b	delay_millis		@
 794              	.LVL52:
 795              	.L47:
 796              		.align	2
 797              	.L46:
 798 0220 00000000 		.word	esc4
 799 0224 00000000 		.word	esc1
 800 0228 00000000 		.word	esc2
 801 022c 00000000 		.word	esc3
 802              		.cfi_endproc
 803              	.LFE130:
 804              		.size	calibrate_esc, .-calibrate_esc
 805              		.comm	uart1VTable,8,4
 806              		.section	.rodata.str1.1
 807              	.LC5:
 808 00a3 54686973 		.ascii	"This is the BRIghtFlight FlightController - Intro \012"
 808      20697320 
 808      74686520 
 808      42524967 
 808      6874466C 
 809 00d6 00       		.ascii	"\000"
 810              	.LC6:
 811 00d7 596F7520 		.ascii	"You pluged in the FlightController for setting purp"
 811      706C7567 
 811      65642069 
 811      6E207468 
 811      6520466C 
ARM GAS  /var/folders/_2/qbh2zpt918qcm2b_6mgyydnm0000gn/T//ccDQ2Nov.s 			page 20


 812 010a 6F736520 		.ascii	"ose \012\000"
 812      0A00
 813              	.LC7:
 814 0110 506C6561 		.ascii	"Please select the option \012\000"
 814      73652073 
 814      656C6563 
 814      74207468 
 814      65206F70 
 815              	.LC8:
 816 012b 61203D20 		.ascii	"a = Check the all reveiver input pulses \012\000"
 816      43686563 
 816      6B207468 
 816      6520616C 
 816      6C207265 
 817              	.LC9:
 818 0155 62203D20 		.ascii	"b = i2c Scanner \012\000"
 818      69326320 
 818      5363616E 
 818      6E657220 
 818      0A00
 819              	.LC10:
 820 0167 70203D20 		.ascii	"p = Calibrate the ESC \012\000"
 820      43616C69 
 820      62726174 
 820      65207468 
 820      65204553 
 821              	.LC11:
 822 017f 71203D20 		.ascii	"q = Quit and show Debugvalues \012\000"
 822      51756974 
 822      20616E64 
 822      2073686F 
 822      77204465 
 823              		.comm	gyroRawData,14,1
 824              		.section	.rodata
 825              		.align	2
 826              		.set	.LANCHOR0,. + 0
 827              		.type	introBuffer, %object
 828              		.size	introBuffer, 28
 829              	introBuffer:
 830              	@ text:
 831 0000 A3000000 		.word	.LC5
 832              	@ text:
 833 0004 D7000000 		.word	.LC6
 834              	@ text:
 835 0008 10010000 		.word	.LC7
 836              	@ text:
 837 000c 2B010000 		.word	.LC8
 838              	@ text:
 839 0010 55010000 		.word	.LC9
 840              	@ text:
 841 0014 67010000 		.word	.LC10
 842              	@ text:
 843 0018 7F010000 		.word	.LC11
 844              		.text
 845              	.Letext0:
 846              		.file 2 "/usr/local/Cellar/arm-none-eabi-gcc/9-2019-q4-major/gcc/arm-none-eabi/include/machine/_de
 847              		.file 3 "/usr/local/Cellar/arm-none-eabi-gcc/9-2019-q4-major/gcc/arm-none-eabi/include/sys/lock.h"
ARM GAS  /var/folders/_2/qbh2zpt918qcm2b_6mgyydnm0000gn/T//ccDQ2Nov.s 			page 21


 848              		.file 4 "/usr/local/Cellar/arm-none-eabi-gcc/9-2019-q4-major/gcc/arm-none-eabi/include/sys/_types.
 849              		.file 5 "/usr/local/Cellar/arm-none-eabi-gcc/9-2019-q4-major/gcc/lib/gcc/arm-none-eabi/9.2.1/inclu
 850              		.file 6 "/usr/local/Cellar/arm-none-eabi-gcc/9-2019-q4-major/gcc/arm-none-eabi/include/sys/reent.h
 851              		.file 7 "/usr/local/Cellar/arm-none-eabi-gcc/9-2019-q4-major/gcc/arm-none-eabi/include/stdlib.h"
 852              		.file 8 "/usr/local/Cellar/arm-none-eabi-gcc/9-2019-q4-major/gcc/arm-none-eabi/include/sys/_stdint
 853              		.file 9 "/Users/rdaneel/Binary/Roaming/C-Code/StmProjects/stm32f3x/lib/STM32F30x_DSP_StdPeriph_Lib
 854              		.file 10 "/Users/rdaneel/Binary/Roaming/C-Code/StmProjects/stm32f3x/lib/STM32F30x_DSP_StdPeriph_Li
 855              		.file 11 "/Users/rdaneel/Binary/Roaming/C-Code/StmProjects/stm32f3x/lib/STM32F30x_DSP_StdPeriph_Li
 856              		.file 12 "i2c.h"
 857              		.file 13 "serialOutStandardText.h"
 858              		.file 14 "usart.h"
 859              		.file 15 "fc_config.h"
 860              		.file 16 "/usr/local/Cellar/arm-none-eabi-gcc/9-2019-q4-major/gcc/arm-none-eabi/include/string.h"
 861              		.file 17 "/Users/rdaneel/Binary/Roaming/C-Code/StmProjects/stm32f3x/lib/STM32F30x_DSP_StdPeriph_Li