ARM GAS  /var/folders/_2/qbh2zpt918qcm2b_6mgyydnm0000gn/T//ccIdySvu.s 			page 1


   1              		.cpu cortex-m4
   2              		.eabi_attribute 20, 1	@ Tag_ABI_FP_denormal
   3              		.eabi_attribute 21, 1	@ Tag_ABI_FP_exceptions
   4              		.eabi_attribute 23, 3	@ Tag_ABI_FP_number_model
   5              		.eabi_attribute 24, 1	@ Tag_ABI_align8_needed
   6              		.eabi_attribute 25, 1	@ Tag_ABI_align8_preserved
   7              		.eabi_attribute 26, 1	@ Tag_ABI_enum_size
   8              		.eabi_attribute 30, 4	@ Tag_ABI_optimization_goals
   9              		.eabi_attribute 34, 1	@ Tag_CPU_unaligned_access
  10              		.eabi_attribute 18, 4	@ Tag_ABI_PCS_wchar_t
  11              		.file	"filter.c"
  12              	@ GNU C17 (GNU Tools for Arm Embedded Processors 9-2019-q4-major) version 9.2.1 20191025 (release) 
  13              	@	compiled by GNU C version 4.2.1 Compatible Apple LLVM 9.0.0 (clang-900.0.39.2), GMP version 6.1.0
  14              	
  15              	@ GGC heuristics: --param ggc-min-expand=100 --param ggc-min-heapsize=131072
  16              	@ options passed:  -I .
  17              	@ -I /Users/rdaneel/Binary/Roaming/C-Code/StmProjects/stm32f3x/lib/STM32F30x_DSP_StdPeriph_Lib_V1.2
  18              	@ -I /Users/rdaneel/Binary/Roaming/C-Code/StmProjects/stm32f3x/lib/STM32F30x_DSP_StdPeriph_Lib_V1.2
  19              	@ -I /Users/rdaneel/Binary/Roaming/C-Code/StmProjects/stm32f3x/lib/STM32F30x_DSP_StdPeriph_Lib_V1.2
  20              	@ -imultilib thumb/v7e-m/nofp
  21              	@ -iprefix /usr/local/Cellar/arm-none-eabi-gcc/9-2019-q4-major/gcc/bin/../lib/gcc/arm-none-eabi/9.2
  22              	@ -isysroot /usr/local/Cellar/arm-none-eabi-gcc/9-2019-q4-major/gcc/bin/../arm-none-eabi
  23              	@ -D__USES_INITFINI__ -D STM32F30X_MD -D USE_STDPERIPH_DRIVER
  24              	@ -D HSE_VALUE=8000000 -D RUN_FROM_FLASH=1 filter.c -mcpu=cortex-m4 -mthumb
  25              	@ -mfloat-abi=soft -march=armv7e-m -auxbase-strip filter.o -g -gdwarf-2 -Os
  26              	@ -Wall -fomit-frame-pointer -fverbose-asm
  27              	@ options enabled:  -faggressive-loop-optimizations -fassume-phsa
  28              	@ -fauto-inc-dec -fbranch-count-reg -fcaller-saves -fcode-hoisting
  29              	@ -fcombine-stack-adjustments -fcommon -fcompare-elim -fcprop-registers
  30              	@ -fcrossjumping -fcse-follow-jumps -fdefer-pop
  31              	@ -fdelete-null-pointer-checks -fdevirtualize -fdevirtualize-speculatively
  32              	@ -fdwarf2-cfi-asm -fearly-inlining -feliminate-unused-debug-types
  33              	@ -fexpensive-optimizations -fforward-propagate -ffp-int-builtin-inexact
  34              	@ -ffunction-cse -fgcse -fgcse-lm -fgnu-runtime -fgnu-unique
  35              	@ -fguess-branch-probability -fhoist-adjacent-loads -fident -fif-conversion
  36              	@ -fif-conversion2 -findirect-inlining -finline -finline-atomics
  37              	@ -finline-functions -finline-functions-called-once
  38              	@ -finline-small-functions -fipa-bit-cp -fipa-cp -fipa-icf
  39              	@ -fipa-icf-functions -fipa-icf-variables -fipa-profile -fipa-pure-const
  40              	@ -fipa-ra -fipa-reference -fipa-reference-addressable -fipa-sra
  41              	@ -fipa-stack-alignment -fipa-vrp -fira-hoist-pressure
  42              	@ -fira-share-save-slots -fira-share-spill-slots
  43              	@ -fisolate-erroneous-paths-dereference -fivopts -fkeep-static-consts
  44              	@ -fleading-underscore -flifetime-dse -flra-remat -flto-odr-type-merging
  45              	@ -fmath-errno -fmerge-constants -fmerge-debug-strings
  46              	@ -fmove-loop-invariants -fomit-frame-pointer -foptimize-sibling-calls
  47              	@ -fpartial-inlining -fpeephole -fpeephole2 -fplt -fprefetch-loop-arrays
  48              	@ -freg-struct-return -freorder-blocks -freorder-functions
  49              	@ -frerun-cse-after-loop -fsched-critical-path-heuristic
  50              	@ -fsched-dep-count-heuristic -fsched-group-heuristic -fsched-interblock
  51              	@ -fsched-last-insn-heuristic -fsched-pressure -fsched-rank-heuristic
  52              	@ -fsched-spec -fsched-spec-insn-heuristic -fsched-stalled-insns-dep
  53              	@ -fschedule-insns2 -fsection-anchors -fsemantic-interposition
  54              	@ -fshow-column -fshrink-wrap-separate -fsigned-zeros
  55              	@ -fsplit-ivs-in-unroller -fsplit-wide-types -fssa-backprop -fssa-phiopt
  56              	@ -fstdarg-opt -fstore-merging -fstrict-aliasing
  57              	@ -fstrict-volatile-bitfields -fsync-libcalls -fthread-jumps
ARM GAS  /var/folders/_2/qbh2zpt918qcm2b_6mgyydnm0000gn/T//ccIdySvu.s 			page 2


  58              	@ -ftoplevel-reorder -ftrapping-math -ftree-bit-ccp -ftree-builtin-call-dce
  59              	@ -ftree-ccp -ftree-ch -ftree-coalesce-vars -ftree-copy-prop -ftree-cselim
  60              	@ -ftree-dce -ftree-dominator-opts -ftree-dse -ftree-forwprop -ftree-fre
  61              	@ -ftree-loop-if-convert -ftree-loop-im -ftree-loop-ivcanon
  62              	@ -ftree-loop-optimize -ftree-parallelize-loops= -ftree-phiprop -ftree-pre
  63              	@ -ftree-pta -ftree-reassoc -ftree-scev-cprop -ftree-sink -ftree-slsr
  64              	@ -ftree-sra -ftree-switch-conversion -ftree-tail-merge -ftree-ter
  65              	@ -ftree-vrp -funit-at-a-time -fvar-tracking -fvar-tracking-assignments
  66              	@ -fverbose-asm -fzero-initialized-in-bss -masm-syntax-unified -mbe32
  67              	@ -mlittle-endian -mpic-data-is-text-relative -msched-prolog -mthumb
  68              	@ -munaligned-access -mvectorize-with-neon-quad
  69              	
  70              		.text
  71              	.Ltext0:
  72              		.cfi_sections	.debug_frame
  73              		.global	__aeabi_fsub
  74              		.global	__aeabi_fmul
  75              		.global	__aeabi_fadd
  76              		.align	1
  77              		.global	pt1FilterApply
  78              		.arch armv7e-m
  79              		.syntax unified
  80              		.thumb
  81              		.thumb_func
  82              		.fpu softvfp
  83              		.type	pt1FilterApply, %function
  84              	pt1FilterApply:
  85              	.LVL0:
  86              	.LFB11:
  87              		.file 1 "filter.c"
   1:filter.c      **** #include "filter.h"
   2:filter.c      **** #include "maths.h"
   3:filter.c      **** #include <math.h>
   4:filter.c      **** 
   5:filter.c      **** gyroSensor_t gyroSensor; //Initalizing the gyro with the variables that holds the filter functions 
   6:filter.c      **** 
   7:filter.c      **** void gyroInitFilters (gyroSensor_t *gyroSensor){
   8:filter.c      **** 	gyroInitLowPassFilter(gyroSensor, FILTER_LOWPASS, gyroConfig.gyro_lowpass_type, gyroConfig.gyro_lo
   9:filter.c      **** 	gyroInitLowPassFilter(gyroSensor, FILTER_LOWPASS2, gyroConfig.gyro_lowpass2_type, gyroConfig.gyro_
  10:filter.c      **** 	gyroInitFilterNotch1(gyroSensor, gyroConfig.gyro_soft_notch_hz_1, gyroConfig.gyro_soft_notch_cutof
  11:filter.c      **** 	gyroInitFilterNotch2(gyroSensor, gyroConfig.gyro_soft_notch_hz_2, gyroConfig.gyro_soft_notch_cutof
  12:filter.c      **** 	gyroInitFilterDynNotch(gyroSensor);
  13:filter.c      **** 	
  14:filter.c      **** };
  15:filter.c      **** 
  16:filter.c      **** void initDtermNotchFilter(){	
  17:filter.c      **** 	
  18:filter.c      **** 	dtermNotchFilterApply = nullFilterApply;
  19:filter.c      **** 	uint16_t notchHz;
  20:filter.c      **** 	
  21:filter.c      **** 	//Initalization of the dterm Notch filter
  22:filter.c      **** 	if(dtermFilterSettings.dterm_notch_hz && dtermFilterSettings.dterm_notch_cutoff_hz){
  23:filter.c      **** 		notchHz = calculateNyquistAdjustNotchHz(dtermFilterSettings.dterm_notch_hz, dtermFilterSettings.d
  24:filter.c      **** 		dtermNotchFilterApply = (filterApplyPtr) biquadFilterApply;
  25:filter.c      **** 		const float notchQ = filterGetNotchQ(notchHz, dtermFilterSettings.dterm_notch_cutoff_hz);
  26:filter.c      **** 		for(int axis = 0; axis < 3; ++axis){
  27:filter.c      **** 			biquadFilterInit(&dtermNotch[axis], notchHz, gyro.targetLoopTime, notchQ, FILTER_NOTCH);
ARM GAS  /var/folders/_2/qbh2zpt918qcm2b_6mgyydnm0000gn/T//ccIdySvu.s 			page 3


  28:filter.c      **** 		};
  29:filter.c      **** 	};
  30:filter.c      **** };
  31:filter.c      **** 
  32:filter.c      **** void initDtermLowpassFilter(void){	
  33:filter.c      **** 
  34:filter.c      **** 	dtermLowpassFilter2Apply = nullFilterApply;
  35:filter.c      **** 	
  36:filter.c      **** 	//Initalization of the 2nd LowpassFilter pt1Filter
  37:filter.c      **** 	if(dtermFilterSettings.dterm_lowpass2_hz){
  38:filter.c      **** 		dtermLowpassFilter2Apply = (filterApplyPtr) pt1FilterApply;
  39:filter.c      **** 		for(int axis = 0; axis < 3; ++axis){
  40:filter.c      **** 			pt1FilterInit(&dtermPT1[axis], pt1FilterGain(dtermFilterSettings.dterm_lowpass2_hz, gyro.targetL
  41:filter.c      **** 		};	
  42:filter.c      **** 	};
  43:filter.c      **** };
  44:filter.c      **** 
  45:filter.c      **** void initDtermLpfFilter(uint8_t lpf_type){
  46:filter.c      **** 	
  47:filter.c      **** 	dtermLowpassFilterApply = nullFilterApply;
  48:filter.c      **** 
  49:filter.c      **** 	//Initalization of the 	1st LowPassFilter pt1Filter or BIQUAD
  50:filter.c      **** 	if(lpf_type){
  51:filter.c      **** 		switch(dtermFilterSettings.dterm_lowpass_type){
  52:filter.c      **** 			case FILTER_PT1:
  53:filter.c      **** 				dtermLowpassFilterApply = (filterApplyPtr) pt1FilterApply;
  54:filter.c      **** 				for(int axis = 0; axis < 3; ++axis){
  55:filter.c      **** 					pt1FilterInit(&dtermLowpass[axis].pt1Filter, pt1FilterGain(dtermFilterSettings.dterm_lowpass_h
  56:filter.c      **** 				};
  57:filter.c      **** 			break;
  58:filter.c      **** 			case FILTER_BIQUAD:
  59:filter.c      **** 				dtermLowpassFilterApply = (filterApplyPtr) biquadFilterApply;
  60:filter.c      **** 				for(int axis = 0; axis < 3; ++axis){
  61:filter.c      **** 					biquadFilterInit(&dtermLowpass[axis].biquadFilter, dtermFilterSettings.dterm_lowpass_hz, gyro.
  62:filter.c      **** 				};
  63:filter.c      **** 			break;
  64:filter.c      **** 			default:
  65:filter.c      **** 			break;
  66:filter.c      **** 		};
  67:filter.c      **** 	};
  68:filter.c      **** };
  69:filter.c      **** 
  70:filter.c      **** 
  71:filter.c      **** void accelInitLowPassFilter(biquadFilter_t *filter, float accLpfHz, uint16_t refreshrate, float Q, 
  72:filter.c      **** 	for(int axis =0; axis < 3; ++axis){
  73:filter.c      **** 		 biquadFilterInit(&filter[axis], accLpfHz, refreshrate, Q, type);
  74:filter.c      **** 	}
  75:filter.c      **** };
  76:filter.c      **** 
  77:filter.c      **** 
  78:filter.c      **** void gyroInitLowPassFilter(gyroSensor_t *gyroSensor, int slot, int type, uint16_t lpfHz){
  79:filter.c      **** 	filterApplyPtr* lowpassFilterApplyFn; //filterApplyPTr** because we point to a Pointer that points
  80:filter.c      **** 	gyroLowpassFilter_t* lowpassFilter = NULL;
  81:filter.c      **** 
  82:filter.c      **** 	// Define the lowpassFilter function in the gyroSensor Structure
  83:filter.c      **** 	switch(slot){
  84:filter.c      **** 		case FILTER_LOWPASS: // PT1 Filter
ARM GAS  /var/folders/_2/qbh2zpt918qcm2b_6mgyydnm0000gn/T//ccIdySvu.s 			page 4


  85:filter.c      **** 			lowpassFilterApplyFn = &gyroSensor->lowpassFilterApplyFn;
  86:filter.c      **** 			lowpassFilter = &gyroSensor->lowpassFilter[0]; //one possible way
  87:filter.c      **** 		break;
  88:filter.c      **** 		case FILTER_LOWPASS2: 
  89:filter.c      **** 			lowpassFilterApplyFn = &gyroSensor->lowpass2FilterApplyFn;
  90:filter.c      **** 			lowpassFilter = gyroSensor->lowpass2Filter; //second possbile way
  91:filter.c      **** 		break;
  92:filter.c      **** 		default:
  93:filter.c      **** 		return;
  94:filter.c      **** 	};
  95:filter.c      **** 	
  96:filter.c      **** 	// Calculation of constants that need to be used 
  97:filter.c      **** 	const uint32_t gyroFrequencyNyquist = (1e6/2/gyro.targetLoopTime);
  98:filter.c      **** 	const float gyroDt = gyro.targetLoopTime * 1.0e-6f;
  99:filter.c      **** 	const float gain = pt1FilterGain(lpfHz, gyroDt);
 100:filter.c      **** 	
 101:filter.c      **** 	//Dereference the pointer lowpassFilerApplyFn because it´s a pointer pointer (filterApplyPtr) and
 102:filter.c      **** 	//gyroSensor->lowpassFilterApplyFn should be the address of the function nullFilerApply.
 103:filter.c      **** 	// if the lpfHz is specified it must be lower then Nyquist frequenzy otherwise no filter will be a
 104:filter.c      **** 	*lowpassFilterApplyFn = nullFilterApply; //dereferenzing because lowpassFilterApplyFn is from Type
 105:filter.c      **** 	if(lpfHz && lpfHz <= gyroFrequencyNyquist){
 106:filter.c      **** 		switch (type){
 107:filter.c      **** 		case FILTER_PT1:
 108:filter.c      **** 			*lowpassFilterApplyFn = (filterApplyPtr) pt1FilterApply;
 109:filter.c      **** 			for (int axis = 0; axis < XYZ_AXIS_COUNT; ++axis){
 110:filter.c      **** 				pt1FilterInit(&lowpassFilter[axis].pt1FilterState, gain);
 111:filter.c      **** 			};
 112:filter.c      **** 		break;
 113:filter.c      **** 		case FILTER_BIQUAD:
 114:filter.c      **** 			*lowpassFilterApplyFn = (filterApplyPtr) biquadFilterApply;
 115:filter.c      **** 			for (int axis = 0; axis < XYZ_AXIS_COUNT; ++axis){
 116:filter.c      **** 				biquadFilterInit(&lowpassFilter[axis].biquadFilterState, lpfHz, gyro.targetLoopTime, BIQUAD_Q, 
 117:filter.c      **** 			};
 118:filter.c      **** 		break;
 119:filter.c      **** 		};
 120:filter.c      **** 	};
 121:filter.c      **** };
 122:filter.c      **** 
 123:filter.c      **** 
 124:filter.c      **** void gyroInitFilterNotch1(gyroSensor_t *gyroSensor, uint16_t notchHz, uint16_t notchCutoffHz){
 125:filter.c      **** 	gyroSensor->notchFilter1ApplyFn = nullFilterApply;
 126:filter.c      **** 	notchHz = calculateNyquistAdjustNotchHz(notchHz, notchCutoffHz);
 127:filter.c      **** 	
 128:filter.c      **** 	if (notchHz != 0 && notchCutoffHz != 0) {
 129:filter.c      **** 		gyroSensor->notchFilter1ApplyFn = (filterApplyPtr) biquadFilterApply;
 130:filter.c      **** 		const float notchQ = filterGetNotchQ(notchHz, notchCutoffHz);
 131:filter.c      **** 		for (int axis = 0; axis < XYZ_AXIS_COUNT; ++axis) {
 132:filter.c      **** 			biquadFilterInit(&gyroSensor->notchFilter1[axis], notchHz, gyro.targetLoopTime, notchQ, FILTER_N
 133:filter.c      **** 		};
 134:filter.c      **** 	};	
 135:filter.c      **** };
 136:filter.c      **** 
 137:filter.c      **** void gyroInitFilterNotch2(gyroSensor_t *gyroSensor, uint16_t notchHz, uint16_t notchCutoffHz){
 138:filter.c      **** 	gyroSensor->notchFilter2ApplyFn = nullFilterApply;
 139:filter.c      **** 	notchHz = calculateNyquistAdjustNotchHz(notchHz, notchCutoffHz);
 140:filter.c      **** 	
 141:filter.c      **** 	if (notchHz != 0 && notchCutoffHz != 0) {
ARM GAS  /var/folders/_2/qbh2zpt918qcm2b_6mgyydnm0000gn/T//ccIdySvu.s 			page 5


 142:filter.c      **** 		gyroSensor->notchFilter2ApplyFn = (filterApplyPtr) biquadFilterApply;
 143:filter.c      **** 		const float notchQ = filterGetNotchQ(notchHz, notchCutoffHz);
 144:filter.c      **** 		for (int axis = 0; axis < XYZ_AXIS_COUNT; ++axis) {
 145:filter.c      **** 			biquadFilterInit(&gyroSensor->notchFilter2[axis], notchHz, gyro.targetLoopTime, notchQ, FILTER_N
 146:filter.c      **** 		};
 147:filter.c      **** 	};	
 148:filter.c      **** }
 149:filter.c      **** 
 150:filter.c      **** float pt1FilterApply(pt1Filter_t *filter, float input){
  88              		.loc 1 150 55 view -0
  89              		.cfi_startproc
  90              		@ args = 0, pretend = 0, frame = 0
  91              		@ frame_needed = 0, uses_anonymous_args = 0
 151:filter.c      **** 	filter->state = filter->state + filter->k * (input - filter->state);
  92              		.loc 1 151 2 view .LVU1
  93              	@ filter.c:150: float pt1FilterApply(pt1Filter_t *filter, float input){
 150:filter.c      **** 	filter->state = filter->state + filter->k * (input - filter->state);
  94              		.loc 1 150 55 is_stmt 0 view .LVU2
  95 0000 38B5     		push	{r3, r4, r5, lr}	@
  96              	.LCFI0:
  97              		.cfi_def_cfa_offset 16
  98              		.cfi_offset 3, -16
  99              		.cfi_offset 4, -12
 100              		.cfi_offset 5, -8
 101              		.cfi_offset 14, -4
 102              	@ filter.c:150: float pt1FilterApply(pt1Filter_t *filter, float input){
 150:filter.c      **** 	filter->state = filter->state + filter->k * (input - filter->state);
 103              		.loc 1 150 55 view .LVU3
 104 0002 0446     		mov	r4, r0	@ filter, tmp121
 105 0004 0846     		mov	r0, r1	@ tmp122, input
 106              	.LVL1:
 107              	@ filter.c:151: 	filter->state = filter->state + filter->k * (input - filter->state);
 108              		.loc 1 151 24 view .LVU4
 109 0006 2568     		ldr	r5, [r4]	@ float	@ _1, filter_7(D)->state
 110              	@ filter.c:151: 	filter->state = filter->state + filter->k * (input - filter->state);
 111              		.loc 1 151 53 view .LVU5
 112 0008 2946     		mov	r1, r5	@, _1
 113              	.LVL2:
 114              		.loc 1 151 53 view .LVU6
 115 000a FFF7FEFF 		bl	__aeabi_fsub		@
 116              	.LVL3:
 117              	@ filter.c:151: 	filter->state = filter->state + filter->k * (input - filter->state);
 118              		.loc 1 151 44 view .LVU7
 119 000e 6168     		ldr	r1, [r4, #4]	@ float	@, filter_7(D)->k
 120 0010 FFF7FEFF 		bl	__aeabi_fmul		@
 121              	.LVL4:
 122              	@ filter.c:151: 	filter->state = filter->state + filter->k * (input - filter->state);
 123              		.loc 1 151 32 view .LVU8
 124 0014 2946     		mov	r1, r5	@, _1
 125 0016 FFF7FEFF 		bl	__aeabi_fadd		@
 126              	.LVL5:
 127              	@ filter.c:151: 	filter->state = filter->state + filter->k * (input - filter->state);
 128              		.loc 1 151 16 view .LVU9
 129 001a 2060     		str	r0, [r4]	@ float	@ tmp123, filter_7(D)->state
 152:filter.c      **** 	return filter->state;
 130              		.loc 1 152 2 is_stmt 1 view .LVU10
 131              	@ filter.c:153: };
ARM GAS  /var/folders/_2/qbh2zpt918qcm2b_6mgyydnm0000gn/T//ccIdySvu.s 			page 6


 153:filter.c      **** };
 132              		.loc 1 153 1 is_stmt 0 view .LVU11
 133 001c 38BD     		pop	{r3, r4, r5, pc}	@
 134              		.loc 1 153 1 view .LVU12
 135              		.cfi_endproc
 136              	.LFE11:
 137              		.size	pt1FilterApply, .-pt1FilterApply
 138              		.align	1
 139              		.global	biquadFilterApply
 140              		.syntax unified
 141              		.thumb
 142              		.thumb_func
 143              		.fpu softvfp
 144              		.type	biquadFilterApply, %function
 145              	biquadFilterApply:
 146              	.LVL6:
 147              	.LFB12:
 154:filter.c      **** 
 155:filter.c      **** float biquadFilterApply(biquadFilter_t *filter, float input){
 148              		.loc 1 155 61 is_stmt 1 view -0
 149              		.cfi_startproc
 150              		@ args = 0, pretend = 0, frame = 0
 151              		@ frame_needed = 0, uses_anonymous_args = 0
 156:filter.c      **** 	const float result = filter->b0 * input + filter->x1;
 152              		.loc 1 156 2 view .LVU14
 153              	@ filter.c:155: float biquadFilterApply(biquadFilter_t *filter, float input){
 155:filter.c      **** 	const float result = filter->b0 * input + filter->x1;
 154              		.loc 1 155 61 is_stmt 0 view .LVU15
 155 001e F8B5     		push	{r3, r4, r5, r6, r7, lr}	@
 156              	.LCFI1:
 157              		.cfi_def_cfa_offset 24
 158              		.cfi_offset 3, -24
 159              		.cfi_offset 4, -20
 160              		.cfi_offset 5, -16
 161              		.cfi_offset 6, -12
 162              		.cfi_offset 7, -8
 163              		.cfi_offset 14, -4
 164              	@ filter.c:155: float biquadFilterApply(biquadFilter_t *filter, float input){
 155:filter.c      **** 	const float result = filter->b0 * input + filter->x1;
 165              		.loc 1 155 61 view .LVU16
 166 0020 0446     		mov	r4, r0	@ filter, tmp138
 167 0022 0E46     		mov	r6, r1	@ input, tmp139
 168              	@ filter.c:156: 	const float result = filter->b0 * input + filter->x1;
 169              		.loc 1 156 34 view .LVU17
 170 0024 0168     		ldr	r1, [r0]	@ float	@, filter_17(D)->b0
 171              	.LVL7:
 172              		.loc 1 156 34 view .LVU18
 173 0026 3046     		mov	r0, r6	@, input
 174              	.LVL8:
 175              		.loc 1 156 34 view .LVU19
 176 0028 FFF7FEFF 		bl	__aeabi_fmul		@
 177              	.LVL9:
 178              	@ filter.c:156: 	const float result = filter->b0 * input + filter->x1;
 179              		.loc 1 156 14 view .LVU20
 180 002c 6169     		ldr	r1, [r4, #20]	@ float	@, filter_17(D)->x1
 181 002e FFF7FEFF 		bl	__aeabi_fadd		@
 182              	.LVL10:
ARM GAS  /var/folders/_2/qbh2zpt918qcm2b_6mgyydnm0000gn/T//ccIdySvu.s 			page 7


 183              	@ filter.c:157: 	filter->x1 = filter->b1 * input - filter->a1 * result  + filter->x2;
 157:filter.c      **** 	filter->x1 = filter->b1 * input - filter->a1 * result  + filter->x2;
 184              		.loc 1 157 26 view .LVU21
 185 0032 6168     		ldr	r1, [r4, #4]	@ float	@, filter_17(D)->b1
 186              	@ filter.c:156: 	const float result = filter->b0 * input + filter->x1;
 156:filter.c      **** 	const float result = filter->b0 * input + filter->x1;
 187              		.loc 1 156 14 view .LVU22
 188 0034 0546     		mov	r5, r0	@ tmp129, tmp140
 189              	.LVL11:
 190              		.loc 1 157 2 is_stmt 1 view .LVU23
 191              	@ filter.c:157: 	filter->x1 = filter->b1 * input - filter->a1 * result  + filter->x2;
 192              		.loc 1 157 26 is_stmt 0 view .LVU24
 193 0036 3046     		mov	r0, r6	@, input
 194              	.LVL12:
 195              		.loc 1 157 26 view .LVU25
 196 0038 FFF7FEFF 		bl	__aeabi_fmul		@
 197              	.LVL13:
 198              	@ filter.c:157: 	filter->x1 = filter->b1 * input - filter->a1 * result  + filter->x2;
 199              		.loc 1 157 47 view .LVU26
 200 003c E168     		ldr	r1, [r4, #12]	@ float	@, filter_17(D)->a1
 201              	@ filter.c:157: 	filter->x1 = filter->b1 * input - filter->a1 * result  + filter->x2;
 202              		.loc 1 157 26 view .LVU27
 203 003e 0746     		mov	r7, r0	@ tmp130, tmp141
 204              	@ filter.c:157: 	filter->x1 = filter->b1 * input - filter->a1 * result  + filter->x2;
 205              		.loc 1 157 47 view .LVU28
 206 0040 2846     		mov	r0, r5	@, tmp129
 207 0042 FFF7FEFF 		bl	__aeabi_fmul		@
 208              	.LVL14:
 209 0046 0146     		mov	r1, r0	@ tmp142,
 210              	@ filter.c:157: 	filter->x1 = filter->b1 * input - filter->a1 * result  + filter->x2;
 211              		.loc 1 157 34 view .LVU29
 212 0048 3846     		mov	r0, r7	@, tmp130
 213 004a FFF7FEFF 		bl	__aeabi_fsub		@
 214              	.LVL15:
 215              	@ filter.c:157: 	filter->x1 = filter->b1 * input - filter->a1 * result  + filter->x2;
 216              		.loc 1 157 57 view .LVU30
 217 004e A169     		ldr	r1, [r4, #24]	@ float	@, filter_17(D)->x2
 218 0050 FFF7FEFF 		bl	__aeabi_fadd		@
 219              	.LVL16:
 220              	@ filter.c:158: 	filter->x2 = filter->b2 * input - filter->a2 * result;
 158:filter.c      **** 	filter->x2 = filter->b2 * input - filter->a2 * result;
 221              		.loc 1 158 26 view .LVU31
 222 0054 A168     		ldr	r1, [r4, #8]	@ float	@, filter_17(D)->b2
 223              	@ filter.c:157: 	filter->x1 = filter->b1 * input - filter->a1 * result  + filter->x2;
 157:filter.c      **** 	filter->x1 = filter->b1 * input - filter->a1 * result  + filter->x2;
 224              		.loc 1 157 13 view .LVU32
 225 0056 6061     		str	r0, [r4, #20]	@ float	@ tmp143, filter_17(D)->x1
 226              		.loc 1 158 2 is_stmt 1 view .LVU33
 227              	@ filter.c:158: 	filter->x2 = filter->b2 * input - filter->a2 * result;
 228              		.loc 1 158 26 is_stmt 0 view .LVU34
 229 0058 3046     		mov	r0, r6	@, input
 230 005a FFF7FEFF 		bl	__aeabi_fmul		@
 231              	.LVL17:
 232              	@ filter.c:158: 	filter->x2 = filter->b2 * input - filter->a2 * result;
 233              		.loc 1 158 47 view .LVU35
 234 005e 2169     		ldr	r1, [r4, #16]	@ float	@, filter_17(D)->a2
 235              	@ filter.c:158: 	filter->x2 = filter->b2 * input - filter->a2 * result;
ARM GAS  /var/folders/_2/qbh2zpt918qcm2b_6mgyydnm0000gn/T//ccIdySvu.s 			page 8


 236              		.loc 1 158 26 view .LVU36
 237 0060 0646     		mov	r6, r0	@ tmp134, tmp144
 238              	.LVL18:
 239              	@ filter.c:158: 	filter->x2 = filter->b2 * input - filter->a2 * result;
 240              		.loc 1 158 47 view .LVU37
 241 0062 2846     		mov	r0, r5	@, tmp129
 242 0064 FFF7FEFF 		bl	__aeabi_fmul		@
 243              	.LVL19:
 244 0068 0146     		mov	r1, r0	@ tmp145,
 245              	@ filter.c:158: 	filter->x2 = filter->b2 * input - filter->a2 * result;
 246              		.loc 1 158 34 view .LVU38
 247 006a 3046     		mov	r0, r6	@, tmp134
 248 006c FFF7FEFF 		bl	__aeabi_fsub		@
 249              	.LVL20:
 250              	@ filter.c:158: 	filter->x2 = filter->b2 * input - filter->a2 * result;
 251              		.loc 1 158 13 view .LVU39
 252 0070 A061     		str	r0, [r4, #24]	@ float	@ tmp146, filter_17(D)->x2
 159:filter.c      **** 	return result;
 253              		.loc 1 159 2 is_stmt 1 view .LVU40
 254              	@ filter.c:160: };
 160:filter.c      **** };
 255              		.loc 1 160 1 is_stmt 0 view .LVU41
 256 0072 2846     		mov	r0, r5	@, tmp129
 257 0074 F8BD     		pop	{r3, r4, r5, r6, r7, pc}	@
 258              		.loc 1 160 1 view .LVU42
 259              		.cfi_endproc
 260              	.LFE12:
 261              		.size	biquadFilterApply, .-biquadFilterApply
 262              		.align	1
 263              		.global	biquadFilterApplyDyn
 264              		.syntax unified
 265              		.thumb
 266              		.thumb_func
 267              		.fpu softvfp
 268              		.type	biquadFilterApplyDyn, %function
 269              	biquadFilterApplyDyn:
 270              	.LVL21:
 271              	.LFB13:
 161:filter.c      **** 
 162:filter.c      **** float biquadFilterApplyDyn(biquadFilter_t *filter, float input){
 272              		.loc 1 162 64 is_stmt 1 view -0
 273              		.cfi_startproc
 274              		@ args = 0, pretend = 0, frame = 0
 275              		@ frame_needed = 0, uses_anonymous_args = 0
 163:filter.c      **** 	/* compute result */
 164:filter.c      **** 	const float result = filter->b0 * input + filter->b1 * filter->x1 + filter->b2 * filter->x2 - filt
 276              		.loc 1 164 2 view .LVU44
 277              	@ filter.c:162: float biquadFilterApplyDyn(biquadFilter_t *filter, float input){
 162:filter.c      **** 	/* compute result */
 278              		.loc 1 162 64 is_stmt 0 view .LVU45
 279 0076 2DE9F041 		push	{r4, r5, r6, r7, r8, lr}	@
 280              	.LCFI2:
 281              		.cfi_def_cfa_offset 24
 282              		.cfi_offset 4, -24
 283              		.cfi_offset 5, -20
 284              		.cfi_offset 6, -16
 285              		.cfi_offset 7, -12
ARM GAS  /var/folders/_2/qbh2zpt918qcm2b_6mgyydnm0000gn/T//ccIdySvu.s 			page 9


 286              		.cfi_offset 8, -8
 287              		.cfi_offset 14, -4
 288              	@ filter.c:162: float biquadFilterApplyDyn(biquadFilter_t *filter, float input){
 162:filter.c      **** 	/* compute result */
 289              		.loc 1 162 64 view .LVU46
 290 007a 0D46     		mov	r5, r1	@ input, tmp141
 291 007c 0446     		mov	r4, r0	@ filter, tmp140
 292              	@ filter.c:164: 	const float result = filter->b0 * input + filter->b1 * filter->x1 + filter->b2 * f
 293              		.loc 1 164 34 view .LVU47
 294 007e 0168     		ldr	r1, [r0]	@ float	@, filter_19(D)->b0
 295              	.LVL22:
 296              	@ filter.c:164: 	const float result = filter->b0 * input + filter->b1 * filter->x1 + filter->b2 * f
 297              		.loc 1 164 63 view .LVU48
 298 0080 D0F81480 		ldr	r8, [r0, #20]	@ float	@ _4, filter_19(D)->x1
 299              	@ filter.c:164: 	const float result = filter->b0 * input + filter->b1 * filter->x1 + filter->b2 * f
 300              		.loc 1 164 115 view .LVU49
 301 0084 C769     		ldr	r7, [r0, #28]	@ float	@ _12, filter_19(D)->y1
 302              	@ filter.c:164: 	const float result = filter->b0 * input + filter->b1 * filter->x1 + filter->b2 * f
 303              		.loc 1 164 34 view .LVU50
 304 0086 2846     		mov	r0, r5	@, input
 305              	.LVL23:
 306              		.loc 1 164 34 view .LVU51
 307 0088 FFF7FEFF 		bl	__aeabi_fmul		@
 308              	.LVL24:
 309              	@ filter.c:164: 	const float result = filter->b0 * input + filter->b1 * filter->x1 + filter->b2 * f
 310              		.loc 1 164 55 view .LVU52
 311 008c 6168     		ldr	r1, [r4, #4]	@ float	@, filter_19(D)->b1
 312              	@ filter.c:164: 	const float result = filter->b0 * input + filter->b1 * filter->x1 + filter->b2 * f
 313              		.loc 1 164 34 view .LVU53
 314 008e 0646     		mov	r6, r0	@ tmp130, tmp142
 315              	@ filter.c:164: 	const float result = filter->b0 * input + filter->b1 * filter->x1 + filter->b2 * f
 316              		.loc 1 164 55 view .LVU54
 317 0090 4046     		mov	r0, r8	@, _4
 318 0092 FFF7FEFF 		bl	__aeabi_fmul		@
 319              	.LVL25:
 320 0096 0146     		mov	r1, r0	@ tmp143,
 321              	@ filter.c:164: 	const float result = filter->b0 * input + filter->b1 * filter->x1 + filter->b2 * f
 322              		.loc 1 164 42 view .LVU55
 323 0098 3046     		mov	r0, r6	@, tmp130
 324 009a FFF7FEFF 		bl	__aeabi_fadd		@
 325              	.LVL26:
 326              	@ filter.c:164: 	const float result = filter->b0 * input + filter->b1 * filter->x1 + filter->b2 * f
 327              		.loc 1 164 81 view .LVU56
 328 009e A169     		ldr	r1, [r4, #24]	@ float	@, filter_19(D)->x2
 329              	@ filter.c:164: 	const float result = filter->b0 * input + filter->b1 * filter->x1 + filter->b2 * f
 330              		.loc 1 164 42 view .LVU57
 331 00a0 0646     		mov	r6, r0	@ tmp132, tmp144
 332              	@ filter.c:164: 	const float result = filter->b0 * input + filter->b1 * filter->x1 + filter->b2 * f
 333              		.loc 1 164 81 view .LVU58
 334 00a2 A068     		ldr	r0, [r4, #8]	@ float	@, filter_19(D)->b2
 335 00a4 FFF7FEFF 		bl	__aeabi_fmul		@
 336              	.LVL27:
 337 00a8 0146     		mov	r1, r0	@ tmp145,
 338              	@ filter.c:164: 	const float result = filter->b0 * input + filter->b1 * filter->x1 + filter->b2 * f
 339              		.loc 1 164 68 view .LVU59
 340 00aa 3046     		mov	r0, r6	@, tmp132
 341 00ac FFF7FEFF 		bl	__aeabi_fadd		@
ARM GAS  /var/folders/_2/qbh2zpt918qcm2b_6mgyydnm0000gn/T//ccIdySvu.s 			page 10


 342              	.LVL28:
 343              	@ filter.c:164: 	const float result = filter->b0 * input + filter->b1 * filter->x1 + filter->b2 * f
 344              		.loc 1 164 107 view .LVU60
 345 00b0 E168     		ldr	r1, [r4, #12]	@ float	@, filter_19(D)->a1
 346              	@ filter.c:164: 	const float result = filter->b0 * input + filter->b1 * filter->x1 + filter->b2 * f
 347              		.loc 1 164 68 view .LVU61
 348 00b2 0646     		mov	r6, r0	@ tmp134, tmp146
 349              	@ filter.c:164: 	const float result = filter->b0 * input + filter->b1 * filter->x1 + filter->b2 * f
 350              		.loc 1 164 107 view .LVU62
 351 00b4 3846     		mov	r0, r7	@, _12
 352 00b6 FFF7FEFF 		bl	__aeabi_fmul		@
 353              	.LVL29:
 354 00ba 0146     		mov	r1, r0	@ tmp147,
 355              	@ filter.c:164: 	const float result = filter->b0 * input + filter->b1 * filter->x1 + filter->b2 * f
 356              		.loc 1 164 94 view .LVU63
 357 00bc 3046     		mov	r0, r6	@, tmp134
 358 00be FFF7FEFF 		bl	__aeabi_fsub		@
 359              	.LVL30:
 360              	@ filter.c:164: 	const float result = filter->b0 * input + filter->b1 * filter->x1 + filter->b2 * f
 361              		.loc 1 164 133 view .LVU64
 362 00c2 216A     		ldr	r1, [r4, #32]	@ float	@, filter_19(D)->y2
 363              	@ filter.c:164: 	const float result = filter->b0 * input + filter->b1 * filter->x1 + filter->b2 * f
 364              		.loc 1 164 94 view .LVU65
 365 00c4 0646     		mov	r6, r0	@ tmp136, tmp148
 366              	@ filter.c:164: 	const float result = filter->b0 * input + filter->b1 * filter->x1 + filter->b2 * f
 367              		.loc 1 164 133 view .LVU66
 368 00c6 2069     		ldr	r0, [r4, #16]	@ float	@, filter_19(D)->a2
 369 00c8 FFF7FEFF 		bl	__aeabi_fmul		@
 370              	.LVL31:
 371 00cc 0146     		mov	r1, r0	@ tmp149,
 372              	@ filter.c:164: 	const float result = filter->b0 * input + filter->b1 * filter->x1 + filter->b2 * f
 373              		.loc 1 164 14 view .LVU67
 374 00ce 3046     		mov	r0, r6	@, tmp136
 375 00d0 FFF7FEFF 		bl	__aeabi_fsub		@
 376              	.LVL32:
 165:filter.c      **** 
 166:filter.c      **** 	/* shift x1 to x2, input to x1 */
 167:filter.c      **** 	filter->x2 = filter->x1;
 377              		.loc 1 167 2 is_stmt 1 view .LVU68
 378              	@ filter.c:167: 	filter->x2 = filter->x1;
 379              		.loc 1 167 13 is_stmt 0 view .LVU69
 380 00d4 C4F81880 		str	r8, [r4, #24]	@ float	@ _4, filter_19(D)->x2
 168:filter.c      **** 	filter->x1 = input;
 381              		.loc 1 168 2 is_stmt 1 view .LVU70
 382              	@ filter.c:168: 	filter->x1 = input;
 383              		.loc 1 168 13 is_stmt 0 view .LVU71
 384 00d8 6561     		str	r5, [r4, #20]	@ float	@ input, filter_19(D)->x1
 169:filter.c      **** 
 170:filter.c      **** 	/* shift y1 to y2, result to y1 */
 171:filter.c      **** 	filter->y2 = filter->y1;
 385              		.loc 1 171 2 is_stmt 1 view .LVU72
 386              	@ filter.c:171: 	filter->y2 = filter->y1;
 387              		.loc 1 171 13 is_stmt 0 view .LVU73
 388 00da 2762     		str	r7, [r4, #32]	@ float	@ _12, filter_19(D)->y2
 172:filter.c      **** 	filter->y1 = result;
 389              		.loc 1 172 2 is_stmt 1 view .LVU74
 390              	@ filter.c:172: 	filter->y1 = result;
ARM GAS  /var/folders/_2/qbh2zpt918qcm2b_6mgyydnm0000gn/T//ccIdySvu.s 			page 11


 391              		.loc 1 172 13 is_stmt 0 view .LVU75
 392 00dc E061     		str	r0, [r4, #28]	@ float	@ tmp150, filter_19(D)->y1
 173:filter.c      **** 
 174:filter.c      **** 	return result;
 393              		.loc 1 174 2 is_stmt 1 view .LVU76
 394              	@ filter.c:175: };
 175:filter.c      **** };
 395              		.loc 1 175 1 is_stmt 0 view .LVU77
 396 00de BDE8F081 		pop	{r4, r5, r6, r7, r8, pc}	@
 397              		.loc 1 175 1 view .LVU78
 398              		.cfi_endproc
 399              	.LFE13:
 400              		.size	biquadFilterApplyDyn, .-biquadFilterApplyDyn
 401              		.align	1
 402              		.global	nullFilterApply
 403              		.syntax unified
 404              		.thumb
 405              		.thumb_func
 406              		.fpu softvfp
 407              		.type	nullFilterApply, %function
 408              	nullFilterApply:
 409              	.LVL33:
 410              	.LFB14:
 176:filter.c      **** 	
 177:filter.c      **** float nullFilterApply(filter_t* filter, float input){
 411              		.loc 1 177 53 is_stmt 1 view -0
 412              		.cfi_startproc
 413              		@ args = 0, pretend = 0, frame = 0
 414              		@ frame_needed = 0, uses_anonymous_args = 0
 415              		@ link register save eliminated.
 178:filter.c      **** 	(void)(filter);
 416              		.loc 1 178 2 view .LVU80
 179:filter.c      **** 	return input;
 417              		.loc 1 179 2 view .LVU81
 418              	@ filter.c:180: };
 180:filter.c      **** };
 419              		.loc 1 180 1 is_stmt 0 view .LVU82
 420 00e2 0846     		mov	r0, r1	@, tmp114
 421              	.LVL34:
 422              		.loc 1 180 1 view .LVU83
 423 00e4 7047     		bx	lr	@
 424              		.cfi_endproc
 425              	.LFE14:
 426              		.size	nullFilterApply, .-nullFilterApply
 427              		.global	__aeabi_i2d
 428              		.global	__aeabi_dmul
 429              		.global	__aeabi_ddiv
 430              		.global	__aeabi_d2f
 431              		.global	__aeabi_fdiv
 432              		.align	1
 433              		.global	pt1FilterGain
 434              		.syntax unified
 435              		.thumb
 436              		.thumb_func
 437              		.fpu softvfp
 438              		.type	pt1FilterGain, %function
 439              	pt1FilterGain:
ARM GAS  /var/folders/_2/qbh2zpt918qcm2b_6mgyydnm0000gn/T//ccIdySvu.s 			page 12


 440              	.LVL35:
 441              	.LFB15:
 181:filter.c      **** 
 182:filter.c      **** float pt1FilterGain(uint16_t f_cut, float dt){
 442              		.loc 1 182 46 is_stmt 1 view -0
 443              		.cfi_startproc
 444              		@ args = 0, pretend = 0, frame = 0
 445              		@ frame_needed = 0, uses_anonymous_args = 0
 183:filter.c      **** 	float RC = 1.0 / (2.0  * M_PI_FLOAT * f_cut);
 446              		.loc 1 183 2 view .LVU85
 184:filter.c      **** 	return dt / (RC + dt);
 447              		.loc 1 184 2 view .LVU86
 448              	@ filter.c:182: float pt1FilterGain(uint16_t f_cut, float dt){
 182:filter.c      **** 	float RC = 1.0 / (2.0  * M_PI_FLOAT * f_cut);
 449              		.loc 1 182 46 is_stmt 0 view .LVU87
 450 00e6 10B5     		push	{r4, lr}	@
 451              	.LCFI3:
 452              		.cfi_def_cfa_offset 8
 453              		.cfi_offset 4, -8
 454              		.cfi_offset 14, -4
 455              	@ filter.c:182: float pt1FilterGain(uint16_t f_cut, float dt){
 182:filter.c      **** 	float RC = 1.0 / (2.0  * M_PI_FLOAT * f_cut);
 456              		.loc 1 182 46 view .LVU88
 457 00e8 0C46     		mov	r4, r1	@ dt, tmp126
 458              	@ filter.c:183: 	float RC = 1.0 / (2.0  * M_PI_FLOAT * f_cut);
 183:filter.c      **** 	float RC = 1.0 / (2.0  * M_PI_FLOAT * f_cut);
 459              		.loc 1 183 38 view .LVU89
 460 00ea FFF7FEFF 		bl	__aeabi_i2d		@
 461              	.LVL36:
 183:filter.c      **** 	float RC = 1.0 / (2.0  * M_PI_FLOAT * f_cut);
 462              		.loc 1 183 38 view .LVU90
 463 00ee 0AA3     		adr	r3, .L6	@,
 464 00f0 D3E90023 		ldrd	r2, [r3]	@,
 465 00f4 FFF7FEFF 		bl	__aeabi_dmul		@
 466              	.LVL37:
 467 00f8 0246     		mov	r2, r0	@ tmp127,
 468 00fa 0B46     		mov	r3, r1	@,
 469              	@ filter.c:183: 	float RC = 1.0 / (2.0  * M_PI_FLOAT * f_cut);
 183:filter.c      **** 	float RC = 1.0 / (2.0  * M_PI_FLOAT * f_cut);
 470              		.loc 1 183 17 view .LVU91
 471 00fc 0020     		movs	r0, #0	@,
 472 00fe 0849     		ldr	r1, .L6+8	@,
 473 0100 FFF7FEFF 		bl	__aeabi_ddiv		@
 474              	.LVL38:
 475              	@ filter.c:183: 	float RC = 1.0 / (2.0  * M_PI_FLOAT * f_cut);
 183:filter.c      **** 	float RC = 1.0 / (2.0  * M_PI_FLOAT * f_cut);
 476              		.loc 1 183 8 view .LVU92
 477 0104 FFF7FEFF 		bl	__aeabi_d2f		@
 478              	.LVL39:
 479              	@ filter.c:184: 	return dt / (RC + dt);
 480              		.loc 1 184 18 view .LVU93
 481 0108 2146     		mov	r1, r4	@, dt
 482 010a FFF7FEFF 		bl	__aeabi_fadd		@
 483              	.LVL40:
 484 010e 0146     		mov	r1, r0	@ tmp128,
 485              	@ filter.c:184: 	return dt / (RC + dt);
 486              		.loc 1 184 12 view .LVU94
ARM GAS  /var/folders/_2/qbh2zpt918qcm2b_6mgyydnm0000gn/T//ccIdySvu.s 			page 13


 487 0110 2046     		mov	r0, r4	@, dt
 488 0112 FFF7FEFF 		bl	__aeabi_fdiv		@
 489              	.LVL41:
 490              	@ filter.c:185: };
 185:filter.c      **** };
 491              		.loc 1 185 1 view .LVU95
 492 0116 10BD     		pop	{r4, pc}	@
 493              	.LVL42:
 494              	.L7:
 495              		.loc 1 185 1 view .LVU96
 496              		.align	3
 497              	.L6:
 498 0118 00000060 		.word	1610612736
 499 011c FB211940 		.word	1075388923
 500 0120 0000F03F 		.word	1072693248
 501              		.cfi_endproc
 502              	.LFE15:
 503              		.size	pt1FilterGain, .-pt1FilterGain
 504              		.global	__aeabi_ui2f
 505              		.align	1
 506              		.global	initDtermLowpassFilter
 507              		.syntax unified
 508              		.thumb
 509              		.thumb_func
 510              		.fpu softvfp
 511              		.type	initDtermLowpassFilter, %function
 512              	initDtermLowpassFilter:
 513              	.LFB5:
  32:filter.c      **** 
 514              		.loc 1 32 34 is_stmt 1 view -0
 515              		.cfi_startproc
 516              		@ args = 0, pretend = 0, frame = 0
 517              		@ frame_needed = 0, uses_anonymous_args = 0
  34:filter.c      **** 	
 518              		.loc 1 34 2 view .LVU98
 519              	@ filter.c:34: 	dtermLowpassFilter2Apply = nullFilterApply;
  34:filter.c      **** 	
 520              		.loc 1 34 27 is_stmt 0 view .LVU99
 521 0124 0E4B     		ldr	r3, .L13	@ tmp115,
 522 0126 0F4A     		ldr	r2, .L13+4	@ tmp116,
 523              	@ filter.c:32: void initDtermLowpassFilter(void){	
  32:filter.c      **** 
 524              		.loc 1 32 34 view .LVU100
 525 0128 10B5     		push	{r4, lr}	@
 526              	.LCFI4:
 527              		.cfi_def_cfa_offset 8
 528              		.cfi_offset 4, -8
 529              		.cfi_offset 14, -4
 530              	@ filter.c:34: 	dtermLowpassFilter2Apply = nullFilterApply;
  34:filter.c      **** 	
 531              		.loc 1 34 27 view .LVU101
 532 012a 1A60     		str	r2, [r3]	@ tmp116, dtermLowpassFilter2Apply
  37:filter.c      **** 		dtermLowpassFilter2Apply = (filterApplyPtr) pt1FilterApply;
 533              		.loc 1 37 2 is_stmt 1 view .LVU102
 534              	@ filter.c:37: 	if(dtermFilterSettings.dterm_lowpass2_hz){
  37:filter.c      **** 		dtermLowpassFilter2Apply = (filterApplyPtr) pt1FilterApply;
 535              		.loc 1 37 24 is_stmt 0 view .LVU103
ARM GAS  /var/folders/_2/qbh2zpt918qcm2b_6mgyydnm0000gn/T//ccIdySvu.s 			page 14


 536 012c 0E4A     		ldr	r2, .L13+8	@ tmp117,
 537 012e 9488     		ldrh	r4, [r2, #4]	@ _1, dtermFilterSettings.dterm_lowpass2_hz
 538              	@ filter.c:37: 	if(dtermFilterSettings.dterm_lowpass2_hz){
  37:filter.c      **** 		dtermLowpassFilter2Apply = (filterApplyPtr) pt1FilterApply;
 539              		.loc 1 37 4 view .LVU104
 540 0130 A4B1     		cbz	r4, .L8	@ _1,
  38:filter.c      **** 		for(int axis = 0; axis < 3; ++axis){
 541              		.loc 1 38 3 is_stmt 1 view .LVU105
 542              	@ filter.c:38: 		dtermLowpassFilter2Apply = (filterApplyPtr) pt1FilterApply;
  38:filter.c      **** 		for(int axis = 0; axis < 3; ++axis){
 543              		.loc 1 38 28 is_stmt 0 view .LVU106
 544 0132 0E4A     		ldr	r2, .L13+12	@ tmp119,
 545 0134 1A60     		str	r2, [r3]	@ tmp119, dtermLowpassFilter2Apply
  39:filter.c      **** 			pt1FilterInit(&dtermPT1[axis], pt1FilterGain(dtermFilterSettings.dterm_lowpass2_hz, gyro.targetL
 546              		.loc 1 39 3 is_stmt 1 view .LVU107
 547              	.LBB21:
  39:filter.c      **** 			pt1FilterInit(&dtermPT1[axis], pt1FilterGain(dtermFilterSettings.dterm_lowpass2_hz, gyro.targetL
 548              		.loc 1 39 7 view .LVU108
 549              	.LVL43:
  39:filter.c      **** 			pt1FilterInit(&dtermPT1[axis], pt1FilterGain(dtermFilterSettings.dterm_lowpass2_hz, gyro.targetL
 550              		.loc 1 39 21 view .LVU109
 551              	@ filter.c:40: 			pt1FilterInit(&dtermPT1[axis], pt1FilterGain(dtermFilterSettings.dterm_lowpass2_h
  40:filter.c      **** 		};	
 552              		.loc 1 40 92 is_stmt 0 view .LVU110
 553 0136 0E4B     		ldr	r3, .L13+16	@ tmp120,
 554              	@ filter.c:40: 			pt1FilterInit(&dtermPT1[axis], pt1FilterGain(dtermFilterSettings.dterm_lowpass2_h
  40:filter.c      **** 		};	
 555              		.loc 1 40 4 view .LVU111
 556 0138 1868     		ldr	r0, [r3]	@, gyro.targetLoopTime
 557 013a FFF7FEFF 		bl	__aeabi_ui2f		@
 558              	.LVL44:
 559 013e 0D49     		ldr	r1, .L13+20	@,
 560 0140 FFF7FEFF 		bl	__aeabi_fmul		@
 561              	.LVL45:
 562 0144 0146     		mov	r1, r0	@ tmp132,
 563 0146 2046     		mov	r0, r4	@, _1
 564 0148 FFF7FEFF 		bl	pt1FilterGain		@
 565              	.LVL46:
  40:filter.c      **** 		};	
 566              		.loc 1 40 4 is_stmt 1 view .LVU112
 567              	.LBB22:
 568              	.LBI22:
 186:filter.c      **** 
 187:filter.c      **** void pt1FilterInit(pt1Filter_t* filter, float k){
 569              		.loc 1 187 6 view .LVU113
 570              	.LBB23:
 188:filter.c      **** 	filter->state = 0.0f;
 571              		.loc 1 188 2 view .LVU114
 572              	@ filter.c:188: 	filter->state = 0.0f;
 573              		.loc 1 188 16 is_stmt 0 view .LVU115
 574 014c 0A4B     		ldr	r3, .L13+24	@ tmp123,
 575 014e 0022     		movs	r2, #0	@ tmp124,
 576 0150 1A60     		str	r2, [r3]	@ float	@ tmp124, MEM[(struct pt1Filter_t *)&dtermPT1][0].state
 189:filter.c      **** 	filter->k = k;
 577              		.loc 1 189 2 is_stmt 1 view .LVU116
 578              	@ filter.c:189: 	filter->k = k;
 579              		.loc 1 189 12 is_stmt 0 view .LVU117
ARM GAS  /var/folders/_2/qbh2zpt918qcm2b_6mgyydnm0000gn/T//ccIdySvu.s 			page 15


 580 0152 5860     		str	r0, [r3, #4]	@ float	@ _5, MEM[(struct pt1Filter_t *)&dtermPT1][0].k
 581              	.LVL47:
 582              		.loc 1 189 12 view .LVU118
 583              	.LBE23:
 584              	.LBE22:
  39:filter.c      **** 			pt1FilterInit(&dtermPT1[axis], pt1FilterGain(dtermFilterSettings.dterm_lowpass2_hz, gyro.targetL
 585              		.loc 1 39 31 is_stmt 1 view .LVU119
  39:filter.c      **** 			pt1FilterInit(&dtermPT1[axis], pt1FilterGain(dtermFilterSettings.dterm_lowpass2_hz, gyro.targetL
 586              		.loc 1 39 21 view .LVU120
  40:filter.c      **** 		};	
 587              		.loc 1 40 4 view .LVU121
 588              	.LBB26:
 187:filter.c      **** 	filter->state = 0.0f;
 589              		.loc 1 187 6 view .LVU122
 590              	.LBB24:
 188:filter.c      **** 	filter->k = k;
 591              		.loc 1 188 2 view .LVU123
 592              	@ filter.c:188: 	filter->state = 0.0f;
 188:filter.c      **** 	filter->k = k;
 593              		.loc 1 188 16 is_stmt 0 view .LVU124
 594 0154 9A60     		str	r2, [r3, #8]	@ float	@ tmp124, MEM[(struct pt1Filter_t *)&dtermPT1][1].state
 595              		.loc 1 189 2 is_stmt 1 view .LVU125
 596              	@ filter.c:189: 	filter->k = k;
 597              		.loc 1 189 12 is_stmt 0 view .LVU126
 598 0156 D860     		str	r0, [r3, #12]	@ float	@ _5, MEM[(struct pt1Filter_t *)&dtermPT1][1].k
 599              	.LVL48:
 600              		.loc 1 189 12 view .LVU127
 601              	.LBE24:
 602              	.LBE26:
  39:filter.c      **** 			pt1FilterInit(&dtermPT1[axis], pt1FilterGain(dtermFilterSettings.dterm_lowpass2_hz, gyro.targetL
 603              		.loc 1 39 31 is_stmt 1 view .LVU128
  39:filter.c      **** 			pt1FilterInit(&dtermPT1[axis], pt1FilterGain(dtermFilterSettings.dterm_lowpass2_hz, gyro.targetL
 604              		.loc 1 39 21 view .LVU129
  40:filter.c      **** 		};	
 605              		.loc 1 40 4 view .LVU130
 606              	.LBB27:
 187:filter.c      **** 	filter->state = 0.0f;
 607              		.loc 1 187 6 view .LVU131
 608              	.LBB25:
 188:filter.c      **** 	filter->k = k;
 609              		.loc 1 188 2 view .LVU132
 610              	@ filter.c:188: 	filter->state = 0.0f;
 188:filter.c      **** 	filter->k = k;
 611              		.loc 1 188 16 is_stmt 0 view .LVU133
 612 0158 1A61     		str	r2, [r3, #16]	@ float	@ tmp124, MEM[(struct pt1Filter_t *)&dtermPT1][2].state
 613              		.loc 1 189 2 is_stmt 1 view .LVU134
 614              	@ filter.c:189: 	filter->k = k;
 615              		.loc 1 189 12 is_stmt 0 view .LVU135
 616 015a 5861     		str	r0, [r3, #20]	@ float	@ _5, MEM[(struct pt1Filter_t *)&dtermPT1][2].k
 617              	.LVL49:
 618              		.loc 1 189 12 view .LVU136
 619              	.LBE25:
 620              	.LBE27:
  39:filter.c      **** 			pt1FilterInit(&dtermPT1[axis], pt1FilterGain(dtermFilterSettings.dterm_lowpass2_hz, gyro.targetL
 621              		.loc 1 39 31 is_stmt 1 view .LVU137
  39:filter.c      **** 			pt1FilterInit(&dtermPT1[axis], pt1FilterGain(dtermFilterSettings.dterm_lowpass2_hz, gyro.targetL
 622              		.loc 1 39 21 view .LVU138
ARM GAS  /var/folders/_2/qbh2zpt918qcm2b_6mgyydnm0000gn/T//ccIdySvu.s 			page 16


 623              	.LBE21:
  41:filter.c      **** 	};
 624              		.loc 1 41 4 view .LVU139
  42:filter.c      **** };
 625              		.loc 1 42 3 view .LVU140
 626              	.L8:
 627              	@ filter.c:43: };
  43:filter.c      **** 
 628              		.loc 1 43 1 is_stmt 0 view .LVU141
 629 015c 10BD     		pop	{r4, pc}	@
 630              	.L14:
 631 015e 00BF     		.align	2
 632              	.L13:
 633 0160 00000000 		.word	dtermLowpassFilter2Apply
 634 0164 00000000 		.word	nullFilterApply
 635 0168 00000000 		.word	dtermFilterSettings
 636 016c 00000000 		.word	pt1FilterApply
 637 0170 00000000 		.word	gyro
 638 0174 BD378635 		.word	897988541
 639 0178 00000000 		.word	dtermPT1
 640              		.cfi_endproc
 641              	.LFE5:
 642              		.size	initDtermLowpassFilter, .-initDtermLowpassFilter
 643              		.align	1
 644              		.global	pt1FilterInit
 645              		.syntax unified
 646              		.thumb
 647              		.thumb_func
 648              		.fpu softvfp
 649              		.type	pt1FilterInit, %function
 650              	pt1FilterInit:
 651              	.LVL50:
 652              	.LFB16:
 187:filter.c      **** 	filter->state = 0.0f;
 653              		.loc 1 187 49 is_stmt 1 view -0
 654              		.cfi_startproc
 655              		@ args = 0, pretend = 0, frame = 0
 656              		@ frame_needed = 0, uses_anonymous_args = 0
 657              		@ link register save eliminated.
 188:filter.c      **** 	filter->k = k;
 658              		.loc 1 188 2 view .LVU143
 659              	@ filter.c:188: 	filter->state = 0.0f;
 188:filter.c      **** 	filter->k = k;
 660              		.loc 1 188 16 is_stmt 0 view .LVU144
 661 017c 0023     		movs	r3, #0	@ tmp112,
 662 017e 0360     		str	r3, [r0]	@ float	@ tmp112, filter_2(D)->state
 663              		.loc 1 189 2 is_stmt 1 view .LVU145
 664              	@ filter.c:189: 	filter->k = k;
 665              		.loc 1 189 12 is_stmt 0 view .LVU146
 666 0180 4160     		str	r1, [r0, #4]	@ float	@ tmp114, filter_2(D)->k
 667              	@ filter.c:190: };
 190:filter.c      **** };
 668              		.loc 1 190 1 view .LVU147
 669 0182 7047     		bx	lr	@
 670              		.cfi_endproc
 671              	.LFE16:
 672              		.size	pt1FilterInit, .-pt1FilterInit
ARM GAS  /var/folders/_2/qbh2zpt918qcm2b_6mgyydnm0000gn/T//ccIdySvu.s 			page 17


 673              		.align	1
 674              		.global	biquadFilterInit
 675              		.syntax unified
 676              		.thumb
 677              		.thumb_func
 678              		.fpu softvfp
 679              		.type	biquadFilterInit, %function
 680              	biquadFilterInit:
 681              	.LVL51:
 682              	.LFB18:
 191:filter.c      **** 
 192:filter.c      **** void gyroInitFilterDynNotch(gyroSensor_t *gyroSensor){
 193:filter.c      **** 	gyroSensor->notchFilterDynApplyFn = nullFilterApply;	
 194:filter.c      **** 	if (gyroConfig.DynNotchFilterActive){
 195:filter.c      **** 		gyroSensor->notchFilterDynApplyFn = (filterApplyPtr)biquadFilterApplyDyn;
 196:filter.c      **** 		const float notchQ = filterGetNotchQ(400, 390);
 197:filter.c      **** 		for(int axis = 0; axis < XYZ_AXIS_COUNT; axis++){
 198:filter.c      **** 			biquadFilterInit(&gyroSensor->notchFilterDyn[axis], 400, gyro.targetLoopTime, notchQ, FILTER_NOT
 199:filter.c      **** 		};
 200:filter.c      **** 	};
 201:filter.c      **** };
 202:filter.c      **** 
 203:filter.c      **** void biquadFilterInit(biquadFilter_t *filter, float freq, uint32_t refreshrate, float Q, biquadFilt
 683              		.loc 1 203 120 is_stmt 1 view -0
 684              		.cfi_startproc
 685              		@ args = 4, pretend = 0, frame = 8
 686              		@ frame_needed = 0, uses_anonymous_args = 0
 204:filter.c      **** 	//setup the variable
 205:filter.c      **** 	const float omega = 2.0f * M_PI_FLOAT * freq * refreshrate * 1.0e-6f;
 687              		.loc 1 205 2 view .LVU149
 688              	@ filter.c:203: void biquadFilterInit(biquadFilter_t *filter, float freq, uint32_t refreshrate, flo
 203:filter.c      **** 	//setup the variable
 689              		.loc 1 203 120 is_stmt 0 view .LVU150
 690 0184 2DE9F74F 		push	{r0, r1, r2, r4, r5, r6, r7, r8, r9, r10, fp, lr}	@
 691              	.LCFI5:
 692              		.cfi_def_cfa_offset 48
 693              		.cfi_offset 4, -36
 694              		.cfi_offset 5, -32
 695              		.cfi_offset 6, -28
 696              		.cfi_offset 7, -24
 697              		.cfi_offset 8, -20
 698              		.cfi_offset 9, -16
 699              		.cfi_offset 10, -12
 700              		.cfi_offset 11, -8
 701              		.cfi_offset 14, -4
 702              	@ filter.c:203: void biquadFilterInit(biquadFilter_t *filter, float freq, uint32_t refreshrate, flo
 203:filter.c      **** 	//setup the variable
 703              		.loc 1 203 120 view .LVU151
 704 0188 0546     		mov	r5, r0	@ filter, tmp161
 705 018a 0846     		mov	r0, r1	@ tmp162, freq
 706              	.LVL52:
 707              	@ filter.c:205: 	const float omega = 2.0f * M_PI_FLOAT * freq * refreshrate * 1.0e-6f;
 708              		.loc 1 205 40 view .LVU152
 709 018c 5049     		ldr	r1, .L21	@,
 710              	.LVL53:
 711              	@ filter.c:203: void biquadFilterInit(biquadFilter_t *filter, float freq, uint32_t refreshrate, flo
 203:filter.c      **** 	//setup the variable
ARM GAS  /var/folders/_2/qbh2zpt918qcm2b_6mgyydnm0000gn/T//ccIdySvu.s 			page 18


 712              		.loc 1 203 120 view .LVU153
 713 018e 9DF83040 		ldrb	r4, [sp, #48]	@ zero_extendqisi2	@ FilterType, FilterType
 714 0192 1746     		mov	r7, r2	@ refreshrate, tmp163
 715 0194 9846     		mov	r8, r3	@ Q, tmp164
 716              	@ filter.c:205: 	const float omega = 2.0f * M_PI_FLOAT * freq * refreshrate * 1.0e-6f;
 717              		.loc 1 205 40 view .LVU154
 718 0196 FFF7FEFF 		bl	__aeabi_fmul		@
 719              	.LVL54:
 720              		.loc 1 205 40 view .LVU155
 721 019a 0646     		mov	r6, r0	@ tmp134, tmp165
 722              	@ filter.c:205: 	const float omega = 2.0f * M_PI_FLOAT * freq * refreshrate * 1.0e-6f;
 723              		.loc 1 205 47 view .LVU156
 724 019c 3846     		mov	r0, r7	@, refreshrate
 725 019e FFF7FEFF 		bl	__aeabi_ui2f		@
 726              	.LVL55:
 727 01a2 0146     		mov	r1, r0	@ tmp166,
 728 01a4 3046     		mov	r0, r6	@, tmp134
 729 01a6 FFF7FEFF 		bl	__aeabi_fmul		@
 730              	.LVL56:
 731              	@ filter.c:205: 	const float omega = 2.0f * M_PI_FLOAT * freq * refreshrate * 1.0e-6f;
 732              		.loc 1 205 14 view .LVU157
 733 01aa 4A49     		ldr	r1, .L21+4	@,
 734 01ac FFF7FEFF 		bl	__aeabi_fmul		@
 735              	.LVL57:
 736 01b0 0746     		mov	r7, r0	@ tmp137, tmp167
 737              	.LVL58:
 206:filter.c      **** 	const float sn = sin_approx(omega);
 738              		.loc 1 206 2 is_stmt 1 view .LVU158
 739              	@ filter.c:206: 	const float sn = sin_approx(omega);
 740              		.loc 1 206 19 is_stmt 0 view .LVU159
 741 01b2 FFF7FEFF 		bl	sin_approx		@
 742              	.LVL59:
 743              		.loc 1 206 19 view .LVU160
 744 01b6 0646     		mov	r6, r0	@ sn, tmp168
 745              	.LVL60:
 207:filter.c      **** 	const float cs = cos_approx(omega);
 746              		.loc 1 207 2 is_stmt 1 view .LVU161
 747              	@ filter.c:207: 	const float cs = cos_approx(omega);
 748              		.loc 1 207 19 is_stmt 0 view .LVU162
 749 01b8 3846     		mov	r0, r7	@, tmp137
 750              	.LVL61:
 751              		.loc 1 207 19 view .LVU163
 752 01ba FFF7FEFF 		bl	cos_approx		@
 753              	.LVL62:
 754              	@ filter.c:208: 	const float alpha = sn / (2.0f * Q);
 208:filter.c      **** 	const float alpha = sn / (2.0f * Q);
 755              		.loc 1 208 33 view .LVU164
 756 01be 4146     		mov	r1, r8	@, Q
 757              	@ filter.c:207: 	const float cs = cos_approx(omega);
 207:filter.c      **** 	const float cs = cos_approx(omega);
 758              		.loc 1 207 19 view .LVU165
 759 01c0 0746     		mov	r7, r0	@ cs, tmp169
 760              	.LVL63:
 761              		.loc 1 208 2 is_stmt 1 view .LVU166
 762              	@ filter.c:208: 	const float alpha = sn / (2.0f * Q);
 763              		.loc 1 208 33 is_stmt 0 view .LVU167
 764 01c2 4046     		mov	r0, r8	@, tmp1
ARM GAS  /var/folders/_2/qbh2zpt918qcm2b_6mgyydnm0000gn/T//ccIdySvu.s 			page 19


 765              	.LVL64:
 766              		.loc 1 208 33 view .LVU168
 767 01c4 FFF7FEFF 		bl	__aeabi_fadd		@
 768              	.LVL65:
 769 01c8 0146     		mov	r1, r0	@ tmp170,
 770              	@ filter.c:208: 	const float alpha = sn / (2.0f * Q);
 771              		.loc 1 208 14 view .LVU169
 772 01ca 3046     		mov	r0, r6	@, sn
 773 01cc FFF7FEFF 		bl	__aeabi_fdiv		@
 774              	.LVL66:
 775              	@ filter.c:210: 	switch (FilterType){
 209:filter.c      **** 	float b0 = 0.0, b1 = 0.0, b2 = 0.0, a0 = 0.0, a1 = 0.0, a2 = 0.0;
 210:filter.c      **** 	switch (FilterType){
 776              		.loc 1 210 2 view .LVU170
 777 01d0 012C     		cmp	r4, #1	@ FilterType,
 778              	@ filter.c:208: 	const float alpha = sn / (2.0f * Q);
 208:filter.c      **** 	const float alpha = sn / (2.0f * Q);
 779              		.loc 1 208 14 view .LVU171
 780 01d2 8146     		mov	r9, r0	@ tmp139, tmp171
 781              	.LVL67:
 209:filter.c      **** 	float b0 = 0.0, b1 = 0.0, b2 = 0.0, a0 = 0.0, a1 = 0.0, a2 = 0.0;
 782              		.loc 1 209 2 is_stmt 1 view .LVU172
 783              		.loc 1 210 2 view .LVU173
 784 01d4 4FF00006 		mov	r6, #0	@ tmp160,
 785              	.LVL68:
 786              		.loc 1 210 2 is_stmt 0 view .LVU174
 787 01d8 43D0     		beq	.L17		@,
 788 01da 022C     		cmp	r4, #2	@ FilterType,
 789 01dc 58D0     		beq	.L18		@,
 790 01de 002C     		cmp	r4, #0	@ FilterType
 791 01e0 6ED1     		bne	.L20	@
 211:filter.c      **** 		case FILTER_LPF:
 212:filter.c      **** 			b0 = (1.0f - cs) * 0.5f;
 792              		.loc 1 212 4 is_stmt 1 view .LVU175
 793              	@ filter.c:212: 			b0 = (1.0f - cs) * 0.5f;
 794              		.loc 1 212 15 is_stmt 0 view .LVU176
 795 01e2 3946     		mov	r1, r7	@, cs
 796 01e4 4FF07E50 		mov	r0, #1065353216	@,
 797              	.LVL69:
 798              		.loc 1 212 15 view .LVU177
 799 01e8 FFF7FEFF 		bl	__aeabi_fsub		@
 800              	.LVL70:
 801              	@ filter.c:212: 			b0 = (1.0f - cs) * 0.5f;
 802              		.loc 1 212 7 view .LVU178
 803 01ec 4FF07C51 		mov	r1, #1056964608	@,
 804              	@ filter.c:212: 			b0 = (1.0f - cs) * 0.5f;
 805              		.loc 1 212 15 view .LVU179
 806 01f0 8046     		mov	r8, r0	@ b1, tmp172
 807              	.LVL71:
 808              	@ filter.c:212: 			b0 = (1.0f - cs) * 0.5f;
 809              		.loc 1 212 7 view .LVU180
 810 01f2 FFF7FEFF 		bl	__aeabi_fmul		@
 811              	.LVL72:
 812              	@ filter.c:215: 			a0 = 1.0f + alpha;
 213:filter.c      **** 			b1 = 1.0f - cs;
 214:filter.c      **** 			b2 = (1.0f - cs) * 0.5f;
 215:filter.c      **** 			a0 = 1.0f + alpha;
ARM GAS  /var/folders/_2/qbh2zpt918qcm2b_6mgyydnm0000gn/T//ccIdySvu.s 			page 20


 813              		.loc 1 215 7 view .LVU181
 814 01f6 4FF07E51 		mov	r1, #1065353216	@,
 815              	@ filter.c:212: 			b0 = (1.0f - cs) * 0.5f;
 212:filter.c      **** 			b1 = 1.0f - cs;
 816              		.loc 1 212 7 view .LVU182
 817 01fa 8346     		mov	fp, r0	@ b0, tmp173
 818              	.LVL73:
 213:filter.c      **** 			b1 = 1.0f - cs;
 819              		.loc 1 213 4 is_stmt 1 view .LVU183
 214:filter.c      **** 			a0 = 1.0f + alpha;
 820              		.loc 1 214 4 view .LVU184
 821              		.loc 1 215 4 view .LVU185
 822              	@ filter.c:215: 			a0 = 1.0f + alpha;
 823              		.loc 1 215 7 is_stmt 0 view .LVU186
 824 01fc 4846     		mov	r0, r9	@, tmp139
 825              	.LVL74:
 826              		.loc 1 215 7 view .LVU187
 827 01fe FFF7FEFF 		bl	__aeabi_fadd		@
 828              	.LVL75:
 829              	@ filter.c:216: 			a1 = -2.0f * cs;
 216:filter.c      **** 			a1 = -2.0f * cs;
 830              		.loc 1 216 7 view .LVU188
 831 0202 4FF04041 		mov	r1, #-1073741824	@,
 832              	@ filter.c:215: 			a0 = 1.0f + alpha;
 215:filter.c      **** 			a1 = -2.0f * cs;
 833              		.loc 1 215 7 view .LVU189
 834 0206 0446     		mov	r4, r0	@ a0, tmp174
 835              	.LVL76:
 836              		.loc 1 216 4 is_stmt 1 view .LVU190
 837              	@ filter.c:216: 			a1 = -2.0f * cs;
 838              		.loc 1 216 7 is_stmt 0 view .LVU191
 839 0208 3846     		mov	r0, r7	@, cs
 840              	.LVL77:
 841              		.loc 1 216 7 view .LVU192
 842 020a FFF7FEFF 		bl	__aeabi_fmul		@
 843              	.LVL78:
 844              	@ filter.c:217: 			a2 = 1.0f - alpha;
 217:filter.c      **** 			a2 = 1.0f - alpha;
 845              		.loc 1 217 7 view .LVU193
 846 020e 4946     		mov	r1, r9	@, tmp139
 847              	@ filter.c:216: 			a1 = -2.0f * cs;
 216:filter.c      **** 			a1 = -2.0f * cs;
 848              		.loc 1 216 7 view .LVU194
 849 0210 8246     		mov	r10, r0	@ a1, tmp175
 850              	.LVL79:
 851              		.loc 1 217 4 is_stmt 1 view .LVU195
 852              	@ filter.c:217: 			a2 = 1.0f - alpha;
 853              		.loc 1 217 7 is_stmt 0 view .LVU196
 854 0212 4FF07E50 		mov	r0, #1065353216	@,
 855              	.LVL80:
 856              		.loc 1 217 7 view .LVU197
 857 0216 FFF7FEFF 		bl	__aeabi_fsub		@
 858              	.LVL81:
 859              	@ filter.c:214: 			b2 = (1.0f - cs) * 0.5f;
 214:filter.c      **** 			a0 = 1.0f + alpha;
 860              		.loc 1 214 7 view .LVU198
 861 021a 5B46     		mov	r3, fp	@ b2, b0
ARM GAS  /var/folders/_2/qbh2zpt918qcm2b_6mgyydnm0000gn/T//ccIdySvu.s 			page 21


 862              	@ filter.c:217: 			a2 = 1.0f - alpha;
 863              		.loc 1 217 7 view .LVU199
 864 021c 0746     		mov	r7, r0	@ a2, tmp176
 865              	.LVL82:
 218:filter.c      **** 		break;
 866              		.loc 1 218 3 is_stmt 1 view .LVU200
 867              	.L19:
 868              	@ filter.c:238: 	filter->b0 = b0 / a0;
 219:filter.c      **** 		case FILTER_NOTCH:
 220:filter.c      **** 			b0 =  1.0f;
 221:filter.c      **** 			b1 = -2.0f * cs;
 222:filter.c      **** 			b2 =  1.0f;
 223:filter.c      **** 			a0 =  1.0f + alpha;
 224:filter.c      **** 			a1 = -2.0f * cs;
 225:filter.c      **** 			a2 =  1.0f - alpha;
 226:filter.c      **** 		break;
 227:filter.c      **** 		case FILTER_BPF:
 228:filter.c      **** 			b0 = alpha;
 229:filter.c      **** 			b1 = 0.0f;
 230:filter.c      **** 			b2 = -alpha;
 231:filter.c      **** 			a0 = 1.0f + alpha;
 232:filter.c      **** 			a1 = -2.0f * cs;
 233:filter.c      **** 			a2 = 1.0f - alpha;
 234:filter.c      **** 		break;
 235:filter.c      **** 	};
 236:filter.c      **** 
 237:filter.c      **** 	// precompute the coefficients
 238:filter.c      **** 	filter->b0 = b0 / a0;
 869              		.loc 1 238 18 is_stmt 0 view .LVU201
 870 021e 2146     		mov	r1, r4	@, a0
 871 0220 5846     		mov	r0, fp	@, b0
 872 0222 0193     		str	r3, [sp, #4]	@ b2, %sfp
 873              	.LVL83:
 235:filter.c      **** 
 874              		.loc 1 235 3 is_stmt 1 view .LVU202
 875              		.loc 1 238 2 view .LVU203
 876              	@ filter.c:238: 	filter->b0 = b0 / a0;
 877              		.loc 1 238 18 is_stmt 0 view .LVU204
 878 0224 FFF7FEFF 		bl	__aeabi_fdiv		@
 879              	.LVL84:
 880              	@ filter.c:239: 	filter->b1 = b1 / a0;
 239:filter.c      **** 	filter->b1 = b1 / a0;
 881              		.loc 1 239 18 view .LVU205
 882 0228 2146     		mov	r1, r4	@, a0
 883              	@ filter.c:238: 	filter->b0 = b0 / a0;
 238:filter.c      **** 	filter->b1 = b1 / a0;
 884              		.loc 1 238 13 view .LVU206
 885 022a 2860     		str	r0, [r5]	@ float	@ tmp183, filter_39(D)->b0
 886              		.loc 1 239 2 is_stmt 1 view .LVU207
 887              	@ filter.c:239: 	filter->b1 = b1 / a0;
 888              		.loc 1 239 18 is_stmt 0 view .LVU208
 889 022c 4046     		mov	r0, r8	@, b1
 890 022e FFF7FEFF 		bl	__aeabi_fdiv		@
 891              	.LVL85:
 892              	@ filter.c:240: 	filter->b2 = b2 / a0;
 240:filter.c      **** 	filter->b2 = b2 / a0;
 893              		.loc 1 240 18 view .LVU209
ARM GAS  /var/folders/_2/qbh2zpt918qcm2b_6mgyydnm0000gn/T//ccIdySvu.s 			page 22


 894 0232 019B     		ldr	r3, [sp, #4]	@ b2, %sfp
 895              	@ filter.c:239: 	filter->b1 = b1 / a0;
 239:filter.c      **** 	filter->b1 = b1 / a0;
 896              		.loc 1 239 13 view .LVU210
 897 0234 6860     		str	r0, [r5, #4]	@ float	@ tmp184, filter_39(D)->b1
 898              		.loc 1 240 2 is_stmt 1 view .LVU211
 899              	@ filter.c:240: 	filter->b2 = b2 / a0;
 900              		.loc 1 240 18 is_stmt 0 view .LVU212
 901 0236 2146     		mov	r1, r4	@, a0
 902 0238 1846     		mov	r0, r3	@, b2
 903 023a FFF7FEFF 		bl	__aeabi_fdiv		@
 904              	.LVL86:
 905              	@ filter.c:241: 	filter->a1 = a1 / a0;
 241:filter.c      **** 	filter->a1 = a1 / a0;
 906              		.loc 1 241 18 view .LVU213
 907 023e 2146     		mov	r1, r4	@, a0
 908              	@ filter.c:240: 	filter->b2 = b2 / a0;
 240:filter.c      **** 	filter->b2 = b2 / a0;
 909              		.loc 1 240 13 view .LVU214
 910 0240 A860     		str	r0, [r5, #8]	@ float	@ tmp185, filter_39(D)->b2
 911              		.loc 1 241 2 is_stmt 1 view .LVU215
 912              	@ filter.c:241: 	filter->a1 = a1 / a0;
 913              		.loc 1 241 18 is_stmt 0 view .LVU216
 914 0242 5046     		mov	r0, r10	@, a1
 915 0244 FFF7FEFF 		bl	__aeabi_fdiv		@
 916              	.LVL87:
 917              	@ filter.c:242: 	filter->a2 = a2 / a0;
 242:filter.c      **** 	filter->a2 = a2 / a0;
 918              		.loc 1 242 18 view .LVU217
 919 0248 2146     		mov	r1, r4	@, a0
 920              	@ filter.c:241: 	filter->a1 = a1 / a0;
 241:filter.c      **** 	filter->a1 = a1 / a0;
 921              		.loc 1 241 13 view .LVU218
 922 024a E860     		str	r0, [r5, #12]	@ float	@ tmp186, filter_39(D)->a1
 923              		.loc 1 242 2 is_stmt 1 view .LVU219
 924              	@ filter.c:242: 	filter->a2 = a2 / a0;
 925              		.loc 1 242 18 is_stmt 0 view .LVU220
 926 024c 3846     		mov	r0, r7	@, a2
 927 024e FFF7FEFF 		bl	__aeabi_fdiv		@
 928              	.LVL88:
 929              	@ filter.c:245: 	filter->x1 = filter->x2 = 0;
 243:filter.c      **** 
 244:filter.c      **** 	// zero initial samples
 245:filter.c      **** 	filter->x1 = filter->x2 = 0;
 930              		.loc 1 245 26 view .LVU221
 931 0252 AE61     		str	r6, [r5, #24]	@ float	@ tmp160, filter_39(D)->x2
 932              	@ filter.c:242: 	filter->a2 = a2 / a0;
 242:filter.c      **** 	filter->a2 = a2 / a0;
 933              		.loc 1 242 13 view .LVU222
 934 0254 2861     		str	r0, [r5, #16]	@ float	@ tmp187, filter_39(D)->a2
 935              		.loc 1 245 2 is_stmt 1 view .LVU223
 936              	@ filter.c:245: 	filter->x1 = filter->x2 = 0;
 937              		.loc 1 245 13 is_stmt 0 view .LVU224
 938 0256 6E61     		str	r6, [r5, #20]	@ float	@ tmp160, filter_39(D)->x1
 246:filter.c      **** 	filter->y1 = filter->y2 = 0;
 939              		.loc 1 246 2 is_stmt 1 view .LVU225
 940              	@ filter.c:246: 	filter->y1 = filter->y2 = 0;
ARM GAS  /var/folders/_2/qbh2zpt918qcm2b_6mgyydnm0000gn/T//ccIdySvu.s 			page 23


 941              		.loc 1 246 26 is_stmt 0 view .LVU226
 942 0258 2E62     		str	r6, [r5, #32]	@ float	@ tmp160, filter_39(D)->y2
 943              	@ filter.c:246: 	filter->y1 = filter->y2 = 0;
 944              		.loc 1 246 13 view .LVU227
 945 025a EE61     		str	r6, [r5, #28]	@ float	@ tmp160, filter_39(D)->y1
 946              	@ filter.c:248: };
 247:filter.c      **** 
 248:filter.c      **** };
 947              		.loc 1 248 1 view .LVU228
 948 025c 03B0     		add	sp, sp, #12	@,,
 949              	.LCFI6:
 950              		.cfi_remember_state
 951              		.cfi_def_cfa_offset 36
 952              		@ sp needed	@
 953 025e BDE8F08F 		pop	{r4, r5, r6, r7, r8, r9, r10, fp, pc}	@
 954              	.LVL89:
 955              	.L17:
 956              	.LCFI7:
 957              		.cfi_restore_state
 220:filter.c      **** 			b1 = -2.0f * cs;
 958              		.loc 1 220 4 is_stmt 1 view .LVU229
 221:filter.c      **** 			b2 =  1.0f;
 959              		.loc 1 221 4 view .LVU230
 960              	@ filter.c:221: 			b1 = -2.0f * cs;
 221:filter.c      **** 			b2 =  1.0f;
 961              		.loc 1 221 7 is_stmt 0 view .LVU231
 962 0262 4FF04041 		mov	r1, #-1073741824	@,
 963 0266 3846     		mov	r0, r7	@, cs
 964              	.LVL90:
 221:filter.c      **** 			b2 =  1.0f;
 965              		.loc 1 221 7 view .LVU232
 966 0268 FFF7FEFF 		bl	__aeabi_fmul		@
 967              	.LVL91:
 968              	@ filter.c:223: 			a0 =  1.0f + alpha;
 223:filter.c      **** 			a1 = -2.0f * cs;
 969              		.loc 1 223 7 view .LVU233
 970 026c 4FF07E51 		mov	r1, #1065353216	@,
 971              	@ filter.c:221: 			b1 = -2.0f * cs;
 221:filter.c      **** 			b2 =  1.0f;
 972              		.loc 1 221 7 view .LVU234
 973 0270 8046     		mov	r8, r0	@ b1, tmp177
 974              	.LVL92:
 222:filter.c      **** 			a0 =  1.0f + alpha;
 975              		.loc 1 222 4 is_stmt 1 view .LVU235
 223:filter.c      **** 			a1 = -2.0f * cs;
 976              		.loc 1 223 4 view .LVU236
 977              	@ filter.c:223: 			a0 =  1.0f + alpha;
 223:filter.c      **** 			a1 = -2.0f * cs;
 978              		.loc 1 223 7 is_stmt 0 view .LVU237
 979 0272 4846     		mov	r0, r9	@, tmp139
 980              	.LVL93:
 223:filter.c      **** 			a1 = -2.0f * cs;
 981              		.loc 1 223 7 view .LVU238
 982 0274 FFF7FEFF 		bl	__aeabi_fadd		@
 983              	.LVL94:
 984              	@ filter.c:225: 			a2 =  1.0f - alpha;
 225:filter.c      **** 		break;
ARM GAS  /var/folders/_2/qbh2zpt918qcm2b_6mgyydnm0000gn/T//ccIdySvu.s 			page 24


 985              		.loc 1 225 7 view .LVU239
 986 0278 4946     		mov	r1, r9	@, tmp139
 987              	@ filter.c:223: 			a0 =  1.0f + alpha;
 223:filter.c      **** 			a1 = -2.0f * cs;
 988              		.loc 1 223 7 view .LVU240
 989 027a 0446     		mov	r4, r0	@ a0, tmp178
 990              	.LVL95:
 224:filter.c      **** 			a2 =  1.0f - alpha;
 991              		.loc 1 224 4 is_stmt 1 view .LVU241
 225:filter.c      **** 		break;
 992              		.loc 1 225 4 view .LVU242
 993              	@ filter.c:225: 			a2 =  1.0f - alpha;
 225:filter.c      **** 		break;
 994              		.loc 1 225 7 is_stmt 0 view .LVU243
 995 027c 4FF07E50 		mov	r0, #1065353216	@,
 996              	.LVL96:
 225:filter.c      **** 		break;
 997              		.loc 1 225 7 view .LVU244
 998 0280 FFF7FEFF 		bl	__aeabi_fsub		@
 999              	.LVL97:
 1000              	@ filter.c:222: 			b2 =  1.0f;
 222:filter.c      **** 			a0 =  1.0f + alpha;
 1001              		.loc 1 222 7 view .LVU245
 1002 0284 4FF07E53 		mov	r3, #1065353216	@ b2,
 1003              	@ filter.c:225: 			a2 =  1.0f - alpha;
 225:filter.c      **** 		break;
 1004              		.loc 1 225 7 view .LVU246
 1005 0288 0746     		mov	r7, r0	@ a2, tmp179
 1006              	.LVL98:
 226:filter.c      **** 		case FILTER_BPF:
 1007              		.loc 1 226 3 is_stmt 1 view .LVU247
 1008              	@ filter.c:224: 			a1 = -2.0f * cs;
 224:filter.c      **** 			a2 =  1.0f - alpha;
 1009              		.loc 1 224 7 is_stmt 0 view .LVU248
 1010 028a C246     		mov	r10, r8	@ a1, b1
 1011              	@ filter.c:220: 			b0 =  1.0f;
 220:filter.c      **** 			b1 = -2.0f * cs;
 1012              		.loc 1 220 7 view .LVU249
 1013 028c 9B46     		mov	fp, r3	@ b0, b2
 1014              	@ filter.c:226: 		break;
 226:filter.c      **** 		case FILTER_BPF:
 1015              		.loc 1 226 3 view .LVU250
 1016 028e C6E7     		b	.L19		@
 1017              	.LVL99:
 1018              	.L18:
 228:filter.c      **** 			b1 = 0.0f;
 1019              		.loc 1 228 4 is_stmt 1 view .LVU251
 229:filter.c      **** 			b2 = -alpha;
 1020              		.loc 1 229 4 view .LVU252
 230:filter.c      **** 			a0 = 1.0f + alpha;
 1021              		.loc 1 230 4 view .LVU253
 1022              	@ filter.c:230: 			b2 = -alpha;
 230:filter.c      **** 			a0 = 1.0f + alpha;
 1023              		.loc 1 230 7 is_stmt 0 view .LVU254
 1024 0290 00F10043 		add	r3, r0, #-2147483648	@ b2, tmp139,
 1025              	@ filter.c:231: 			a0 = 1.0f + alpha;
 231:filter.c      **** 			a1 = -2.0f * cs;
ARM GAS  /var/folders/_2/qbh2zpt918qcm2b_6mgyydnm0000gn/T//ccIdySvu.s 			page 25


 1026              		.loc 1 231 7 view .LVU255
 1027 0294 4FF07E51 		mov	r1, #1065353216	@,
 1028              	@ filter.c:230: 			b2 = -alpha;
 230:filter.c      **** 			a0 = 1.0f + alpha;
 1029              		.loc 1 230 7 view .LVU256
 1030 0298 0193     		str	r3, [sp, #4]	@ b2, %sfp
 1031              	.LVL100:
 231:filter.c      **** 			a1 = -2.0f * cs;
 1032              		.loc 1 231 4 is_stmt 1 view .LVU257
 1033              	@ filter.c:231: 			a0 = 1.0f + alpha;
 231:filter.c      **** 			a1 = -2.0f * cs;
 1034              		.loc 1 231 7 is_stmt 0 view .LVU258
 1035 029a FFF7FEFF 		bl	__aeabi_fadd		@
 1036              	.LVL101:
 1037              	@ filter.c:232: 			a1 = -2.0f * cs;
 232:filter.c      **** 			a2 = 1.0f - alpha;
 1038              		.loc 1 232 7 view .LVU259
 1039 029e 4FF04041 		mov	r1, #-1073741824	@,
 1040              	@ filter.c:231: 			a0 = 1.0f + alpha;
 231:filter.c      **** 			a1 = -2.0f * cs;
 1041              		.loc 1 231 7 view .LVU260
 1042 02a2 0446     		mov	r4, r0	@ a0, tmp180
 1043              	.LVL102:
 232:filter.c      **** 			a2 = 1.0f - alpha;
 1044              		.loc 1 232 4 is_stmt 1 view .LVU261
 1045              	@ filter.c:232: 			a1 = -2.0f * cs;
 232:filter.c      **** 			a2 = 1.0f - alpha;
 1046              		.loc 1 232 7 is_stmt 0 view .LVU262
 1047 02a4 3846     		mov	r0, r7	@, cs
 1048              	.LVL103:
 232:filter.c      **** 			a2 = 1.0f - alpha;
 1049              		.loc 1 232 7 view .LVU263
 1050 02a6 FFF7FEFF 		bl	__aeabi_fmul		@
 1051              	.LVL104:
 1052              	@ filter.c:233: 			a2 = 1.0f - alpha;
 233:filter.c      **** 		break;
 1053              		.loc 1 233 7 view .LVU264
 1054 02aa 4946     		mov	r1, r9	@, tmp139
 1055              	@ filter.c:232: 			a1 = -2.0f * cs;
 232:filter.c      **** 			a2 = 1.0f - alpha;
 1056              		.loc 1 232 7 view .LVU265
 1057 02ac 8246     		mov	r10, r0	@ a1, tmp181
 1058              	.LVL105:
 233:filter.c      **** 		break;
 1059              		.loc 1 233 4 is_stmt 1 view .LVU266
 1060              	@ filter.c:233: 			a2 = 1.0f - alpha;
 233:filter.c      **** 		break;
 1061              		.loc 1 233 7 is_stmt 0 view .LVU267
 1062 02ae 4FF07E50 		mov	r0, #1065353216	@,
 1063              	.LVL106:
 233:filter.c      **** 		break;
 1064              		.loc 1 233 7 view .LVU268
 1065 02b2 FFF7FEFF 		bl	__aeabi_fsub		@
 1066              	.LVL107:
 1067              	@ filter.c:228: 			b0 = alpha;
 228:filter.c      **** 			b1 = 0.0f;
 1068              		.loc 1 228 7 view .LVU269
ARM GAS  /var/folders/_2/qbh2zpt918qcm2b_6mgyydnm0000gn/T//ccIdySvu.s 			page 26


 1069 02b6 CB46     		mov	fp, r9	@ b0, tmp139
 1070              	@ filter.c:234: 		break;
 234:filter.c      **** 	};
 1071              		.loc 1 234 3 view .LVU270
 1072 02b8 019B     		ldr	r3, [sp, #4]	@ b2, %sfp
 1073              	@ filter.c:233: 			a2 = 1.0f - alpha;
 233:filter.c      **** 		break;
 1074              		.loc 1 233 7 view .LVU271
 1075 02ba 0746     		mov	r7, r0	@ a2, tmp182
 1076              	.LVL108:
 234:filter.c      **** 	};
 1077              		.loc 1 234 3 is_stmt 1 view .LVU272
 1078              	@ filter.c:229: 			b1 = 0.0f;
 229:filter.c      **** 			b2 = -alpha;
 1079              		.loc 1 229 7 is_stmt 0 view .LVU273
 1080 02bc B046     		mov	r8, r6	@ b1, tmp160
 1081              	.LVL109:
 1082              	@ filter.c:234: 		break;
 234:filter.c      **** 	};
 1083              		.loc 1 234 3 view .LVU274
 1084 02be AEE7     		b	.L19		@
 1085              	.LVL110:
 1086              	.L20:
 1087              	@ filter.c:210: 	switch (FilterType){
 210:filter.c      **** 		case FILTER_LPF:
 1088              		.loc 1 210 2 view .LVU275
 1089 02c0 3746     		mov	r7, r6	@ a2, tmp160
 1090              	.LVL111:
 210:filter.c      **** 		case FILTER_LPF:
 1091              		.loc 1 210 2 view .LVU276
 1092 02c2 B246     		mov	r10, r6	@ a1, tmp160
 1093 02c4 3446     		mov	r4, r6	@ a0, tmp160
 1094 02c6 3346     		mov	r3, r6	@ b2, tmp160
 1095 02c8 B046     		mov	r8, r6	@ b1, tmp160
 1096              	.LVL112:
 210:filter.c      **** 		case FILTER_LPF:
 1097              		.loc 1 210 2 view .LVU277
 1098 02ca B346     		mov	fp, r6	@ b0, tmp160
 1099 02cc A7E7     		b	.L19		@
 1100              	.L22:
 1101 02ce 00BF     		.align	2
 1102              	.L21:
 1103 02d0 DB0FC940 		.word	1086918619
 1104 02d4 BD378635 		.word	897988541
 1105              		.cfi_endproc
 1106              	.LFE18:
 1107              		.size	biquadFilterInit, .-biquadFilterInit
 1108              		.align	1
 1109              		.global	initDtermLpfFilter
 1110              		.syntax unified
 1111              		.thumb
 1112              		.thumb_func
 1113              		.fpu softvfp
 1114              		.type	initDtermLpfFilter, %function
 1115              	initDtermLpfFilter:
 1116              	.LVL113:
 1117              	.LFB6:
ARM GAS  /var/folders/_2/qbh2zpt918qcm2b_6mgyydnm0000gn/T//ccIdySvu.s 			page 27


  45:filter.c      **** 	
 1118              		.loc 1 45 42 is_stmt 1 view -0
 1119              		.cfi_startproc
 1120              		@ args = 0, pretend = 0, frame = 0
 1121              		@ frame_needed = 0, uses_anonymous_args = 0
  47:filter.c      **** 
 1122              		.loc 1 47 2 view .LVU279
 1123              	@ filter.c:47: 	dtermLowpassFilterApply = nullFilterApply;
  47:filter.c      **** 
 1124              		.loc 1 47 26 is_stmt 0 view .LVU280
 1125 02d8 1E4B     		ldr	r3, .L33	@ tmp123,
 1126              	@ filter.c:45: void initDtermLpfFilter(uint8_t lpf_type){
  45:filter.c      **** 	
 1127              		.loc 1 45 42 view .LVU281
 1128 02da 2DE9F743 		push	{r0, r1, r2, r4, r5, r6, r7, r8, r9, lr}	@
 1129              	.LCFI8:
 1130              		.cfi_def_cfa_offset 40
 1131              		.cfi_offset 4, -28
 1132              		.cfi_offset 5, -24
 1133              		.cfi_offset 6, -20
 1134              		.cfi_offset 7, -16
 1135              		.cfi_offset 8, -12
 1136              		.cfi_offset 9, -8
 1137              		.cfi_offset 14, -4
 1138              	@ filter.c:47: 	dtermLowpassFilterApply = nullFilterApply;
  47:filter.c      **** 
 1139              		.loc 1 47 26 view .LVU282
 1140 02de 1E4A     		ldr	r2, .L33+4	@ tmp124,
 1141 02e0 1A60     		str	r2, [r3]	@ tmp124, dtermLowpassFilterApply
  50:filter.c      **** 		switch(dtermFilterSettings.dterm_lowpass_type){
 1142              		.loc 1 50 2 is_stmt 1 view .LVU283
 1143              	@ filter.c:50: 	if(lpf_type){
  50:filter.c      **** 		switch(dtermFilterSettings.dterm_lowpass_type){
 1144              		.loc 1 50 4 is_stmt 0 view .LVU284
 1145 02e2 28B1     		cbz	r0, .L23	@ tmp152,
  51:filter.c      **** 			case FILTER_PT1:
 1146              		.loc 1 51 3 is_stmt 1 view .LVU285
 1147              	@ filter.c:51: 		switch(dtermFilterSettings.dterm_lowpass_type){
  51:filter.c      **** 			case FILTER_PT1:
 1148              		.loc 1 51 29 is_stmt 0 view .LVU286
 1149 02e4 1D4C     		ldr	r4, .L33+8	@ tmp125,
 1150 02e6 A279     		ldrb	r2, [r4, #6]	@ zero_extendqisi2	@ _1, dtermFilterSettings.dterm_lowpass_type
 1151 02e8 2746     		mov	r7, r4	@ tmp150, tmp125
 1152              	@ filter.c:51: 		switch(dtermFilterSettings.dterm_lowpass_type){
  51:filter.c      **** 			case FILTER_PT1:
 1153              		.loc 1 51 3 view .LVU287
 1154 02ea 22B1     		cbz	r2, .L25	@ _1,
 1155 02ec 012A     		cmp	r2, #1	@ _1,
 1156 02ee 18D0     		beq	.L26		@,
 1157              	.LVL114:
 1158              	.L23:
 1159              	@ filter.c:68: };
  68:filter.c      **** 
 1160              		.loc 1 68 1 view .LVU288
 1161 02f0 03B0     		add	sp, sp, #12	@,,
 1162              	.LCFI9:
 1163              		.cfi_remember_state
ARM GAS  /var/folders/_2/qbh2zpt918qcm2b_6mgyydnm0000gn/T//ccIdySvu.s 			page 28


 1164              		.cfi_def_cfa_offset 28
 1165              		@ sp needed	@
 1166 02f2 BDE8F083 		pop	{r4, r5, r6, r7, r8, r9, pc}	@
 1167              	.LVL115:
 1168              	.L25:
 1169              	.LCFI10:
 1170              		.cfi_restore_state
  53:filter.c      **** 				for(int axis = 0; axis < 3; ++axis){
 1171              		.loc 1 53 5 is_stmt 1 view .LVU289
 1172              	@ filter.c:53: 				dtermLowpassFilterApply = (filterApplyPtr) pt1FilterApply;
  53:filter.c      **** 				for(int axis = 0; axis < 3; ++axis){
 1173              		.loc 1 53 29 is_stmt 0 view .LVU290
 1174 02f6 1A4A     		ldr	r2, .L33+12	@ tmp127,
 1175 02f8 1A60     		str	r2, [r3]	@ tmp127, dtermLowpassFilterApply
  54:filter.c      **** 					pt1FilterInit(&dtermLowpass[axis].pt1Filter, pt1FilterGain(dtermFilterSettings.dterm_lowpass_h
 1176              		.loc 1 54 5 is_stmt 1 view .LVU291
 1177              	.LBB28:
  54:filter.c      **** 					pt1FilterInit(&dtermLowpass[axis].pt1Filter, pt1FilterGain(dtermFilterSettings.dterm_lowpass_h
 1178              		.loc 1 54 9 view .LVU292
 1179              	.LVL116:
  54:filter.c      **** 					pt1FilterInit(&dtermLowpass[axis].pt1Filter, pt1FilterGain(dtermFilterSettings.dterm_lowpass_h
 1180              		.loc 1 54 23 view .LVU293
 1181              	@ filter.c:55: 					pt1FilterInit(&dtermLowpass[axis].pt1Filter, pt1FilterGain(dtermFilterSettings.
  55:filter.c      **** 				};
 1182              		.loc 1 55 107 is_stmt 0 view .LVU294
 1183 02fa 1A4B     		ldr	r3, .L33+16	@ tmp128,
 1184              	@ filter.c:55: 					pt1FilterInit(&dtermLowpass[axis].pt1Filter, pt1FilterGain(dtermFilterSettings.
  55:filter.c      **** 				};
 1185              		.loc 1 55 6 view .LVU295
 1186 02fc 1868     		ldr	r0, [r3]	@, gyro.targetLoopTime
 1187              	.LVL117:
  55:filter.c      **** 				};
 1188              		.loc 1 55 6 view .LVU296
 1189 02fe FFF7FEFF 		bl	__aeabi_ui2f		@
 1190              	.LVL118:
 1191 0302 1949     		ldr	r1, .L33+20	@,
 1192 0304 FFF7FEFF 		bl	__aeabi_fmul		@
 1193              	.LVL119:
 1194 0308 0146     		mov	r1, r0	@ tmp153,
 1195 030a 2089     		ldrh	r0, [r4, #8]	@, dtermFilterSettings.dterm_lowpass_hz
 1196 030c FFF7FEFF 		bl	pt1FilterGain		@
 1197              	.LVL120:
  55:filter.c      **** 				};
 1198              		.loc 1 55 6 is_stmt 1 view .LVU297
 1199              	.LBB29:
 1200              	.LBI29:
 187:filter.c      **** 	filter->state = 0.0f;
 1201              		.loc 1 187 6 view .LVU298
 1202              	.LBB30:
 188:filter.c      **** 	filter->k = k;
 1203              		.loc 1 188 2 view .LVU299
 1204              	@ filter.c:188: 	filter->state = 0.0f;
 188:filter.c      **** 	filter->k = k;
 1205              		.loc 1 188 16 is_stmt 0 view .LVU300
 1206 0310 164B     		ldr	r3, .L33+24	@ tmp133,
 1207 0312 0022     		movs	r2, #0	@ tmp134,
 1208 0314 1A60     		str	r2, [r3]	@ float	@ tmp134, MEM[(struct pt1Filter_t *)&dtermLowpass][0].pt1Filter.state
ARM GAS  /var/folders/_2/qbh2zpt918qcm2b_6mgyydnm0000gn/T//ccIdySvu.s 			page 29


 189:filter.c      **** };
 1209              		.loc 1 189 2 is_stmt 1 view .LVU301
 1210              	@ filter.c:189: 	filter->k = k;
 189:filter.c      **** };
 1211              		.loc 1 189 12 is_stmt 0 view .LVU302
 1212 0316 5860     		str	r0, [r3, #4]	@ float	@ _6, MEM[(struct pt1Filter_t *)&dtermLowpass][0].pt1Filter.k
 1213              	.LVL121:
 189:filter.c      **** };
 1214              		.loc 1 189 12 view .LVU303
 1215              	.LBE30:
 1216              	.LBE29:
  54:filter.c      **** 					pt1FilterInit(&dtermLowpass[axis].pt1Filter, pt1FilterGain(dtermFilterSettings.dterm_lowpass_h
 1217              		.loc 1 54 33 is_stmt 1 view .LVU304
  54:filter.c      **** 					pt1FilterInit(&dtermLowpass[axis].pt1Filter, pt1FilterGain(dtermFilterSettings.dterm_lowpass_h
 1218              		.loc 1 54 23 view .LVU305
  55:filter.c      **** 				};
 1219              		.loc 1 55 6 view .LVU306
 1220              	.LBB33:
 187:filter.c      **** 	filter->state = 0.0f;
 1221              		.loc 1 187 6 view .LVU307
 1222              	.LBB31:
 188:filter.c      **** 	filter->k = k;
 1223              		.loc 1 188 2 view .LVU308
 1224              	@ filter.c:188: 	filter->state = 0.0f;
 188:filter.c      **** 	filter->k = k;
 1225              		.loc 1 188 16 is_stmt 0 view .LVU309
 1226 0318 5A62     		str	r2, [r3, #36]	@ float	@ tmp134, MEM[(struct pt1Filter_t *)&dtermLowpass][1].pt1Filter.state
 189:filter.c      **** };
 1227              		.loc 1 189 2 is_stmt 1 view .LVU310
 1228              	@ filter.c:189: 	filter->k = k;
 189:filter.c      **** };
 1229              		.loc 1 189 12 is_stmt 0 view .LVU311
 1230 031a 9862     		str	r0, [r3, #40]	@ float	@ _6, MEM[(struct pt1Filter_t *)&dtermLowpass][1].pt1Filter.k
 1231              	.LVL122:
 189:filter.c      **** };
 1232              		.loc 1 189 12 view .LVU312
 1233              	.LBE31:
 1234              	.LBE33:
  54:filter.c      **** 					pt1FilterInit(&dtermLowpass[axis].pt1Filter, pt1FilterGain(dtermFilterSettings.dterm_lowpass_h
 1235              		.loc 1 54 33 is_stmt 1 view .LVU313
  54:filter.c      **** 					pt1FilterInit(&dtermLowpass[axis].pt1Filter, pt1FilterGain(dtermFilterSettings.dterm_lowpass_h
 1236              		.loc 1 54 23 view .LVU314
  55:filter.c      **** 				};
 1237              		.loc 1 55 6 view .LVU315
 1238              	.LBB34:
 187:filter.c      **** 	filter->state = 0.0f;
 1239              		.loc 1 187 6 view .LVU316
 1240              	.LBB32:
 188:filter.c      **** 	filter->k = k;
 1241              		.loc 1 188 2 view .LVU317
 1242              	@ filter.c:188: 	filter->state = 0.0f;
 188:filter.c      **** 	filter->k = k;
 1243              		.loc 1 188 16 is_stmt 0 view .LVU318
 1244 031c 9A64     		str	r2, [r3, #72]	@ float	@ tmp134, MEM[(struct pt1Filter_t *)&dtermLowpass][2].pt1Filter.state
 189:filter.c      **** };
 1245              		.loc 1 189 2 is_stmt 1 view .LVU319
 1246              	@ filter.c:189: 	filter->k = k;
ARM GAS  /var/folders/_2/qbh2zpt918qcm2b_6mgyydnm0000gn/T//ccIdySvu.s 			page 30


 189:filter.c      **** };
 1247              		.loc 1 189 12 is_stmt 0 view .LVU320
 1248 031e D864     		str	r0, [r3, #76]	@ float	@ _6, MEM[(struct pt1Filter_t *)&dtermLowpass][2].pt1Filter.k
 1249              	.LVL123:
 189:filter.c      **** };
 1250              		.loc 1 189 12 view .LVU321
 1251              	.LBE32:
 1252              	.LBE34:
  54:filter.c      **** 					pt1FilterInit(&dtermLowpass[axis].pt1Filter, pt1FilterGain(dtermFilterSettings.dterm_lowpass_h
 1253              		.loc 1 54 33 is_stmt 1 view .LVU322
  54:filter.c      **** 					pt1FilterInit(&dtermLowpass[axis].pt1Filter, pt1FilterGain(dtermFilterSettings.dterm_lowpass_h
 1254              		.loc 1 54 23 view .LVU323
 1255 0320 E6E7     		b	.L23		@
 1256              	.LVL124:
 1257              	.L26:
  54:filter.c      **** 					pt1FilterInit(&dtermLowpass[axis].pt1Filter, pt1FilterGain(dtermFilterSettings.dterm_lowpass_h
 1258              		.loc 1 54 23 is_stmt 0 view .LVU324
 1259              	.LBE28:
  59:filter.c      **** 				for(int axis = 0; axis < 3; ++axis){
 1260              		.loc 1 59 5 is_stmt 1 view .LVU325
 1261              	@ filter.c:59: 				dtermLowpassFilterApply = (filterApplyPtr) biquadFilterApply;
  59:filter.c      **** 				for(int axis = 0; axis < 3; ++axis){
 1262              		.loc 1 59 29 is_stmt 0 view .LVU326
 1263 0322 134A     		ldr	r2, .L33+28	@ tmp143,
 1264 0324 114D     		ldr	r5, .L33+24	@ ivtmp.44,
 1265              	.LBB35:
 1266              	@ filter.c:61: 					biquadFilterInit(&dtermLowpass[axis].biquadFilter, dtermFilterSettings.dterm_lo
  61:filter.c      **** 				};
 1267              		.loc 1 61 6 view .LVU327
 1268 0326 0F4E     		ldr	r6, .L33+16	@ tmp145,
 1269 0328 DFF84880 		ldr	r8, .L33+32	@ tmp151,
 1270              	.LBE35:
 1271              	@ filter.c:59: 				dtermLowpassFilterApply = (filterApplyPtr) biquadFilterApply;
  59:filter.c      **** 				for(int axis = 0; axis < 3; ++axis){
 1272              		.loc 1 59 29 view .LVU328
 1273 032c 1A60     		str	r2, [r3]	@ tmp143, dtermLowpassFilterApply
  60:filter.c      **** 					biquadFilterInit(&dtermLowpass[axis].biquadFilter, dtermFilterSettings.dterm_lowpass_hz, gyro.
 1274              		.loc 1 60 5 is_stmt 1 view .LVU329
 1275              	.LBB36:
  60:filter.c      **** 					biquadFilterInit(&dtermLowpass[axis].biquadFilter, dtermFilterSettings.dterm_lowpass_hz, gyro.
 1276              		.loc 1 60 9 view .LVU330
 1277              	.LVL125:
  60:filter.c      **** 					biquadFilterInit(&dtermLowpass[axis].biquadFilter, dtermFilterSettings.dterm_lowpass_hz, gyro.
 1278              		.loc 1 60 23 view .LVU331
 1279              	@ filter.c:60: 				for(int axis = 0; axis < 3; ++axis){
  60:filter.c      **** 					biquadFilterInit(&dtermLowpass[axis].biquadFilter, dtermFilterSettings.dterm_lowpass_hz, gyro.
 1280              		.loc 1 60 13 is_stmt 0 view .LVU332
 1281 032e 0024     		movs	r4, #0	@ axis,
 1282              	@ filter.c:61: 					biquadFilterInit(&dtermLowpass[axis].biquadFilter, dtermFilterSettings.dterm_lo
  61:filter.c      **** 				};
 1283              		.loc 1 61 6 view .LVU333
 1284 0330 A146     		mov	r9, r4	@ tmp149, axis
 1285              	.LVL126:
 1286              	.L28:
  61:filter.c      **** 				};
 1287              		.loc 1 61 6 is_stmt 1 discriminator 3 view .LVU334
 1288 0332 3889     		ldrh	r0, [r7, #8]	@, dtermFilterSettings.dterm_lowpass_hz
ARM GAS  /var/folders/_2/qbh2zpt918qcm2b_6mgyydnm0000gn/T//ccIdySvu.s 			page 31


 1289 0334 FFF7FEFF 		bl	__aeabi_ui2f		@
 1290              	.LVL127:
 1291              	@ filter.c:60: 				for(int axis = 0; axis < 3; ++axis){
  60:filter.c      **** 					biquadFilterInit(&dtermLowpass[axis].biquadFilter, dtermFilterSettings.dterm_lowpass_hz, gyro.
 1292              		.loc 1 60 33 is_stmt 0 discriminator 3 view .LVU335
 1293 0338 0134     		adds	r4, r4, #1	@ axis, axis,
 1294              	.LVL128:
 1295              	@ filter.c:61: 					biquadFilterInit(&dtermLowpass[axis].biquadFilter, dtermFilterSettings.dterm_lo
  61:filter.c      **** 				};
 1296              		.loc 1 61 6 discriminator 3 view .LVU336
 1297 033a 0146     		mov	r1, r0	@ tmp155,
 1298 033c 3268     		ldr	r2, [r6]	@, gyro.targetLoopTime
 1299 033e CDF80090 		str	r9, [sp]	@ tmp149,
 1300 0342 2846     		mov	r0, r5	@, ivtmp.44
 1301 0344 4346     		mov	r3, r8	@, tmp151
 1302 0346 FFF7FEFF 		bl	biquadFilterInit		@
 1303              	.LVL129:
  60:filter.c      **** 					biquadFilterInit(&dtermLowpass[axis].biquadFilter, dtermFilterSettings.dterm_lowpass_hz, gyro.
 1304              		.loc 1 60 33 is_stmt 1 discriminator 3 view .LVU337
  60:filter.c      **** 					biquadFilterInit(&dtermLowpass[axis].biquadFilter, dtermFilterSettings.dterm_lowpass_hz, gyro.
 1305              		.loc 1 60 23 discriminator 3 view .LVU338
 1306              	@ filter.c:60: 				for(int axis = 0; axis < 3; ++axis){
  60:filter.c      **** 					biquadFilterInit(&dtermLowpass[axis].biquadFilter, dtermFilterSettings.dterm_lowpass_hz, gyro.
 1307              		.loc 1 60 5 is_stmt 0 discriminator 3 view .LVU339
 1308 034a 032C     		cmp	r4, #3	@ axis,
 1309 034c 05F12405 		add	r5, r5, #36	@ ivtmp.44, ivtmp.44,
 1310 0350 EFD1     		bne	.L28		@,
 1311 0352 CDE7     		b	.L23		@
 1312              	.L34:
 1313              		.align	2
 1314              	.L33:
 1315 0354 00000000 		.word	dtermLowpassFilterApply
 1316 0358 00000000 		.word	nullFilterApply
 1317 035c 00000000 		.word	dtermFilterSettings
 1318 0360 00000000 		.word	pt1FilterApply
 1319 0364 00000000 		.word	gyro
 1320 0368 BD378635 		.word	897988541
 1321 036c 00000000 		.word	dtermLowpass
 1322 0370 00000000 		.word	biquadFilterApply
 1323 0374 F304353F 		.word	1060439283
 1324              	.LBE36:
 1325              		.cfi_endproc
 1326              	.LFE6:
 1327              		.size	initDtermLpfFilter, .-initDtermLpfFilter
 1328              		.align	1
 1329              		.global	accelInitLowPassFilter
 1330              		.syntax unified
 1331              		.thumb
 1332              		.thumb_func
 1333              		.fpu softvfp
 1334              		.type	accelInitLowPassFilter, %function
 1335              	accelInitLowPassFilter:
 1336              	.LVL130:
 1337              	.LFB7:
  71:filter.c      **** 	for(int axis =0; axis < 3; ++axis){
 1338              		.loc 1 71 124 is_stmt 1 view -0
 1339              		.cfi_startproc
ARM GAS  /var/folders/_2/qbh2zpt918qcm2b_6mgyydnm0000gn/T//ccIdySvu.s 			page 32


 1340              		@ args = 4, pretend = 0, frame = 0
 1341              		@ frame_needed = 0, uses_anonymous_args = 0
  72:filter.c      **** 		 biquadFilterInit(&filter[axis], accLpfHz, refreshrate, Q, type);
 1342              		.loc 1 72 2 view .LVU341
 1343              	.LBB37:
  72:filter.c      **** 		 biquadFilterInit(&filter[axis], accLpfHz, refreshrate, Q, type);
 1344              		.loc 1 72 6 view .LVU342
  72:filter.c      **** 		 biquadFilterInit(&filter[axis], accLpfHz, refreshrate, Q, type);
 1345              		.loc 1 72 19 view .LVU343
 1346              	.LBE37:
 1347              	@ filter.c:71: void accelInitLowPassFilter(biquadFilter_t *filter, float accLpfHz, uint16_t refresh
  71:filter.c      **** 	for(int axis =0; axis < 3; ++axis){
 1348              		.loc 1 71 124 is_stmt 0 view .LVU344
 1349 0378 2DE9F743 		push	{r0, r1, r2, r4, r5, r6, r7, r8, r9, lr}	@
 1350              	.LCFI11:
 1351              		.cfi_def_cfa_offset 40
 1352              		.cfi_offset 4, -28
 1353              		.cfi_offset 5, -24
 1354              		.cfi_offset 6, -20
 1355              		.cfi_offset 7, -16
 1356              		.cfi_offset 8, -12
 1357              		.cfi_offset 9, -8
 1358              		.cfi_offset 14, -4
 1359              	@ filter.c:71: void accelInitLowPassFilter(biquadFilter_t *filter, float accLpfHz, uint16_t refresh
  71:filter.c      **** 	for(int axis =0; axis < 3; ++axis){
 1360              		.loc 1 71 124 view .LVU345
 1361 037c 9DF82890 		ldrb	r9, [sp, #40]	@ zero_extendqisi2	@ type, type
 1362 0380 0D46     		mov	r5, r1	@ accLpfHz, tmp120
 1363 0382 1646     		mov	r6, r2	@ refreshrate, tmp121
 1364 0384 1F46     		mov	r7, r3	@ Q, tmp122
 1365 0386 0446     		mov	r4, r0	@ ivtmp.53, tmp119
 1366 0388 00F16C08 		add	r8, r0, #108	@ _21, ivtmp.53,
 1367              	.LVL131:
 1368              	.L36:
 1369              	.LBB38:
  73:filter.c      **** 	}
 1370              		.loc 1 73 4 is_stmt 1 discriminator 3 view .LVU346
 1371 038c 2046     		mov	r0, r4	@, ivtmp.53
 1372 038e CDF80090 		str	r9, [sp]	@ type,
 1373 0392 3B46     		mov	r3, r7	@, Q
 1374 0394 3246     		mov	r2, r6	@, refreshrate
 1375 0396 2946     		mov	r1, r5	@, accLpfHz
 1376 0398 2434     		adds	r4, r4, #36	@ ivtmp.53, ivtmp.53,
 1377 039a FFF7FEFF 		bl	biquadFilterInit		@
 1378              	.LVL132:
  72:filter.c      **** 		 biquadFilterInit(&filter[axis], accLpfHz, refreshrate, Q, type);
 1379              		.loc 1 72 29 discriminator 3 view .LVU347
  72:filter.c      **** 		 biquadFilterInit(&filter[axis], accLpfHz, refreshrate, Q, type);
 1380              		.loc 1 72 19 discriminator 3 view .LVU348
 1381              	@ filter.c:72: 	for(int axis =0; axis < 3; ++axis){
  72:filter.c      **** 		 biquadFilterInit(&filter[axis], accLpfHz, refreshrate, Q, type);
 1382              		.loc 1 72 2 is_stmt 0 discriminator 3 view .LVU349
 1383 039e 4445     		cmp	r4, r8	@ ivtmp.53, _21
 1384 03a0 F4D1     		bne	.L36		@,
 1385              	.LBE38:
 1386              	@ filter.c:75: };
  75:filter.c      **** 
ARM GAS  /var/folders/_2/qbh2zpt918qcm2b_6mgyydnm0000gn/T//ccIdySvu.s 			page 33


 1387              		.loc 1 75 1 view .LVU350
 1388 03a2 03B0     		add	sp, sp, #12	@,,
 1389              	.LCFI12:
 1390              		.cfi_def_cfa_offset 28
 1391              		@ sp needed	@
 1392 03a4 BDE8F083 		pop	{r4, r5, r6, r7, r8, r9, pc}	@
  75:filter.c      **** 
 1393              		.loc 1 75 1 view .LVU351
 1394              		.cfi_endproc
 1395              	.LFE7:
 1396              		.size	accelInitLowPassFilter, .-accelInitLowPassFilter
 1397              		.global	__aeabi_ui2d
 1398              		.global	__aeabi_d2uiz
 1399              		.align	1
 1400              		.global	gyroInitLowPassFilter
 1401              		.syntax unified
 1402              		.thumb
 1403              		.thumb_func
 1404              		.fpu softvfp
 1405              		.type	gyroInitLowPassFilter, %function
 1406              	gyroInitLowPassFilter:
 1407              	.LVL133:
 1408              	.LFB8:
  78:filter.c      **** 	filterApplyPtr* lowpassFilterApplyFn; //filterApplyPTr** because we point to a Pointer that points
 1409              		.loc 1 78 89 is_stmt 1 view -0
 1410              		.cfi_startproc
 1411              		@ args = 0, pretend = 0, frame = 0
 1412              		@ frame_needed = 0, uses_anonymous_args = 0
  79:filter.c      **** 	gyroLowpassFilter_t* lowpassFilter = NULL;
 1413              		.loc 1 79 2 view .LVU353
  80:filter.c      **** 
 1414              		.loc 1 80 2 view .LVU354
  83:filter.c      **** 		case FILTER_LOWPASS: // PT1 Filter
 1415              		.loc 1 83 2 view .LVU355
 1416              	@ filter.c:78: void gyroInitLowPassFilter(gyroSensor_t *gyroSensor, int slot, int type, uint16_t lp
  78:filter.c      **** 	filterApplyPtr* lowpassFilterApplyFn; //filterApplyPTr** because we point to a Pointer that points
 1417              		.loc 1 78 89 is_stmt 0 view .LVU356
 1418 03a8 2DE9F743 		push	{r0, r1, r2, r4, r5, r6, r7, r8, r9, lr}	@
 1419              	.LCFI13:
 1420              		.cfi_def_cfa_offset 40
 1421              		.cfi_offset 4, -28
 1422              		.cfi_offset 5, -24
 1423              		.cfi_offset 6, -20
 1424              		.cfi_offset 7, -16
 1425              		.cfi_offset 8, -12
 1426              		.cfi_offset 9, -8
 1427              		.cfi_offset 14, -4
 1428              	@ filter.c:78: void gyroInitLowPassFilter(gyroSensor_t *gyroSensor, int slot, int type, uint16_t lp
  78:filter.c      **** 	filterApplyPtr* lowpassFilterApplyFn; //filterApplyPTr** because we point to a Pointer that points
 1429              		.loc 1 78 89 view .LVU357
 1430 03ac 1746     		mov	r7, r2	@ type, tmp149
 1431 03ae 1D46     		mov	r5, r3	@ lpfHz, tmp150
 1432              	@ filter.c:83: 	switch(slot){
  83:filter.c      **** 		case FILTER_LOWPASS: // PT1 Filter
 1433              		.loc 1 83 2 view .LVU358
 1434 03b0 21B1     		cbz	r1, .L39	@ slot,
 1435 03b2 0129     		cmp	r1, #1	@ slot,
ARM GAS  /var/folders/_2/qbh2zpt918qcm2b_6mgyydnm0000gn/T//ccIdySvu.s 			page 34


 1436 03b4 36D0     		beq	.L40		@,
 1437              	.LVL134:
 1438              	.L38:
 1439              	@ filter.c:121: };
 121:filter.c      **** 
 1440              		.loc 1 121 1 view .LVU359
 1441 03b6 03B0     		add	sp, sp, #12	@,,
 1442              	.LCFI14:
 1443              		.cfi_remember_state
 1444              		.cfi_def_cfa_offset 28
 1445              		@ sp needed	@
 1446 03b8 BDE8F083 		pop	{r4, r5, r6, r7, r8, r9, pc}	@
 1447              	.LVL135:
 1448              	.L39:
 1449              	.LCFI15:
 1450              		.cfi_restore_state
  85:filter.c      **** 			lowpassFilter = &gyroSensor->lowpassFilter[0]; //one possible way
 1451              		.loc 1 85 4 is_stmt 1 view .LVU360
 1452              	@ filter.c:85: 			lowpassFilterApplyFn = &gyroSensor->lowpassFilterApplyFn;
  85:filter.c      **** 			lowpassFilter = &gyroSensor->lowpassFilter[0]; //one possible way
 1453              		.loc 1 85 25 is_stmt 0 view .LVU361
 1454 03bc 00F14406 		add	r6, r0, #68	@ lowpassFilterApplyFn, gyroSensor,
 1455              	.LVL136:
  86:filter.c      **** 		break;
 1456              		.loc 1 86 4 is_stmt 1 view .LVU362
 1457              	@ filter.c:86: 			lowpassFilter = &gyroSensor->lowpassFilter[0]; //one possible way
  86:filter.c      **** 		break;
 1458              		.loc 1 86 18 is_stmt 0 view .LVU363
 1459 03c0 00F14804 		add	r4, r0, #72	@ lowpassFilter, gyroSensor,
 1460              	.LVL137:
  87:filter.c      **** 		case FILTER_LOWPASS2: 
 1461              		.loc 1 87 3 is_stmt 1 view .LVU364
 1462              	.L42:
  94:filter.c      **** 	
 1463              		.loc 1 94 3 view .LVU365
  97:filter.c      **** 	const float gyroDt = gyro.targetLoopTime * 1.0e-6f;
 1464              		.loc 1 97 2 view .LVU366
 1465              	@ filter.c:97: 	const uint32_t gyroFrequencyNyquist = (1e6/2/gyro.targetLoopTime);
  97:filter.c      **** 	const float gyroDt = gyro.targetLoopTime * 1.0e-6f;
 1466              		.loc 1 97 51 is_stmt 0 view .LVU367
 1467 03c4 264B     		ldr	r3, .L50+8	@ tmp129,
 1468              	.LVL138:
 1469              	@ filter.c:104: 	*lowpassFilterApplyFn = nullFilterApply; //dereferenzing because lowpassFilterAppl
 104:filter.c      **** 	if(lpfHz && lpfHz <= gyroFrequencyNyquist){
 1470              		.loc 1 104 24 view .LVU368
 1471 03c6 274A     		ldr	r2, .L50+12	@ tmp130,
 1472              	.LVL139:
 1473              	@ filter.c:97: 	const uint32_t gyroFrequencyNyquist = (1e6/2/gyro.targetLoopTime);
  97:filter.c      **** 	const float gyroDt = gyro.targetLoopTime * 1.0e-6f;
 1474              		.loc 1 97 51 view .LVU369
 1475 03c8 D3F80080 		ldr	r8, [r3]	@ _1, gyro.targetLoopTime
 1476              	.LVL140:
  98:filter.c      **** 	const float gain = pt1FilterGain(lpfHz, gyroDt);
 1477              		.loc 1 98 2 is_stmt 1 view .LVU370
  99:filter.c      **** 	
 1478              		.loc 1 99 2 view .LVU371
 104:filter.c      **** 	if(lpfHz && lpfHz <= gyroFrequencyNyquist){
ARM GAS  /var/folders/_2/qbh2zpt918qcm2b_6mgyydnm0000gn/T//ccIdySvu.s 			page 35


 1479              		.loc 1 104 2 view .LVU372
 1480              	@ filter.c:104: 	*lowpassFilterApplyFn = nullFilterApply; //dereferenzing because lowpassFilterAppl
 104:filter.c      **** 	if(lpfHz && lpfHz <= gyroFrequencyNyquist){
 1481              		.loc 1 104 24 is_stmt 0 view .LVU373
 1482 03cc 3260     		str	r2, [r6]	@ tmp130, *lowpassFilterApplyFn_15
 105:filter.c      **** 		switch (type){
 1483              		.loc 1 105 2 is_stmt 1 view .LVU374
 1484 03ce 9946     		mov	r9, r3	@ tmp145, tmp129
 1485              	@ filter.c:105: 	if(lpfHz && lpfHz <= gyroFrequencyNyquist){
 105:filter.c      **** 		switch (type){
 1486              		.loc 1 105 4 is_stmt 0 view .LVU375
 1487 03d0 002D     		cmp	r5, #0	@ lpfHz
 1488 03d2 F0D0     		beq	.L38	@
 1489              	@ filter.c:97: 	const uint32_t gyroFrequencyNyquist = (1e6/2/gyro.targetLoopTime);
  97:filter.c      **** 	const float gyroDt = gyro.targetLoopTime * 1.0e-6f;
 1490              		.loc 1 97 46 discriminator 1 view .LVU376
 1491 03d4 4046     		mov	r0, r8	@, _1
 1492              	.LVL141:
  97:filter.c      **** 	const float gyroDt = gyro.targetLoopTime * 1.0e-6f;
 1493              		.loc 1 97 46 discriminator 1 view .LVU377
 1494 03d6 FFF7FEFF 		bl	__aeabi_ui2d		@
 1495              	.LVL142:
  97:filter.c      **** 	const float gyroDt = gyro.targetLoopTime * 1.0e-6f;
 1496              		.loc 1 97 46 discriminator 1 view .LVU378
 1497 03da 0246     		mov	r2, r0	@ tmp151,
 1498 03dc 0B46     		mov	r3, r1	@,
 1499 03de 1EA1     		adr	r1, .L50	@,
 1500 03e0 D1E90001 		ldrd	r0, [r1]	@,
 1501 03e4 FFF7FEFF 		bl	__aeabi_ddiv		@
 1502              	.LVL143:
 1503              	@ filter.c:97: 	const uint32_t gyroFrequencyNyquist = (1e6/2/gyro.targetLoopTime);
  97:filter.c      **** 	const float gyroDt = gyro.targetLoopTime * 1.0e-6f;
 1504              		.loc 1 97 17 discriminator 1 view .LVU379
 1505 03e8 FFF7FEFF 		bl	__aeabi_d2uiz		@
 1506              	.LVL144:
 1507              	@ filter.c:105: 	if(lpfHz && lpfHz <= gyroFrequencyNyquist){
 105:filter.c      **** 		switch (type){
 1508              		.loc 1 105 11 discriminator 1 view .LVU380
 1509 03ec 8542     		cmp	r5, r0	@ lpfHz, tmp152
 1510 03ee E2D8     		bhi	.L38		@,
 106:filter.c      **** 		case FILTER_PT1:
 1511              		.loc 1 106 3 is_stmt 1 view .LVU381
 1512 03f0 EFB1     		cbz	r7, .L46	@ type,
 1513 03f2 012F     		cmp	r7, #1	@ type,
 1514 03f4 DFD1     		bne	.L38		@,
 114:filter.c      **** 			for (int axis = 0; axis < XYZ_AXIS_COUNT; ++axis){
 1515              		.loc 1 114 4 view .LVU382
 1516              	@ filter.c:114: 			*lowpassFilterApplyFn = (filterApplyPtr) biquadFilterApply;
 114:filter.c      **** 			for (int axis = 0; axis < XYZ_AXIS_COUNT; ++axis){
 1517              		.loc 1 114 26 is_stmt 0 view .LVU383
 1518 03f6 1C4B     		ldr	r3, .L50+16	@ tmp140,
 1519              	.LBB39:
 1520              	@ filter.c:116: 				biquadFilterInit(&lowpassFilter[axis].biquadFilterState, lpfHz, gyro.targetLoop
 116:filter.c      **** 			};
 1521              		.loc 1 116 5 view .LVU384
 1522 03f8 1C4F     		ldr	r7, .L50+20	@ tmp146,
 1523              	.LVL145:
ARM GAS  /var/folders/_2/qbh2zpt918qcm2b_6mgyydnm0000gn/T//ccIdySvu.s 			page 36


 116:filter.c      **** 			};
 1524              		.loc 1 116 5 view .LVU385
 1525              	.LBE39:
 1526              	@ filter.c:114: 			*lowpassFilterApplyFn = (filterApplyPtr) biquadFilterApply;
 114:filter.c      **** 			for (int axis = 0; axis < XYZ_AXIS_COUNT; ++axis){
 1527              		.loc 1 114 26 view .LVU386
 1528 03fa 3360     		str	r3, [r6]	@ tmp140, *lowpassFilterApplyFn_15
 115:filter.c      **** 				biquadFilterInit(&lowpassFilter[axis].biquadFilterState, lpfHz, gyro.targetLoopTime, BIQUAD_Q, 
 1529              		.loc 1 115 4 is_stmt 1 view .LVU387
 1530              	.LBB40:
 115:filter.c      **** 				biquadFilterInit(&lowpassFilter[axis].biquadFilterState, lpfHz, gyro.targetLoopTime, BIQUAD_Q, 
 1531              		.loc 1 115 9 view .LVU388
 1532              	.LVL146:
 115:filter.c      **** 				biquadFilterInit(&lowpassFilter[axis].biquadFilterState, lpfHz, gyro.targetLoopTime, BIQUAD_Q, 
 1533              		.loc 1 115 23 view .LVU389
 1534              	@ filter.c:116: 				biquadFilterInit(&lowpassFilter[axis].biquadFilterState, lpfHz, gyro.targetLoop
 116:filter.c      **** 			};
 1535              		.loc 1 116 5 is_stmt 0 view .LVU390
 1536 03fc 4FF00008 		mov	r8, #0	@ tmp144,
 1537              	.LVL147:
 116:filter.c      **** 			};
 1538              		.loc 1 116 5 view .LVU391
 1539 0400 04F16C06 		add	r6, r4, #108	@ _52, ivtmp.61,
 1540              	.LVL148:
 1541              	.L48:
 116:filter.c      **** 			};
 1542              		.loc 1 116 5 is_stmt 1 discriminator 3 view .LVU392
 1543 0404 2846     		mov	r0, r5	@, lpfHz
 1544 0406 FFF7FEFF 		bl	__aeabi_ui2f		@
 1545              	.LVL149:
 1546 040a CDF80080 		str	r8, [sp]	@ tmp144,
 1547 040e 0146     		mov	r1, r0	@ tmp155,
 1548 0410 D9F80020 		ldr	r2, [r9]	@, gyro.targetLoopTime
 1549 0414 2046     		mov	r0, r4	@, ivtmp.61
 1550 0416 3B46     		mov	r3, r7	@, tmp146
 1551 0418 2434     		adds	r4, r4, #36	@ ivtmp.61, ivtmp.61,
 1552 041a FFF7FEFF 		bl	biquadFilterInit		@
 1553              	.LVL150:
 115:filter.c      **** 				biquadFilterInit(&lowpassFilter[axis].biquadFilterState, lpfHz, gyro.targetLoopTime, BIQUAD_Q, 
 1554              		.loc 1 115 46 discriminator 3 view .LVU393
 115:filter.c      **** 				biquadFilterInit(&lowpassFilter[axis].biquadFilterState, lpfHz, gyro.targetLoopTime, BIQUAD_Q, 
 1555              		.loc 1 115 23 discriminator 3 view .LVU394
 1556              	@ filter.c:115: 			for (int axis = 0; axis < XYZ_AXIS_COUNT; ++axis){
 115:filter.c      **** 				biquadFilterInit(&lowpassFilter[axis].biquadFilterState, lpfHz, gyro.targetLoopTime, BIQUAD_Q, 
 1557              		.loc 1 115 4 is_stmt 0 discriminator 3 view .LVU395
 1558 041e B442     		cmp	r4, r6	@ ivtmp.61, _52
 1559 0420 F0D1     		bne	.L48		@,
 1560 0422 C8E7     		b	.L38		@
 1561              	.LVL151:
 1562              	.L40:
 115:filter.c      **** 				biquadFilterInit(&lowpassFilter[axis].biquadFilterState, lpfHz, gyro.targetLoopTime, BIQUAD_Q, 
 1563              		.loc 1 115 4 discriminator 3 view .LVU396
 1564              	.LBE40:
  89:filter.c      **** 			lowpassFilter = gyroSensor->lowpass2Filter; //second possbile way
 1565              		.loc 1 89 4 is_stmt 1 view .LVU397
 1566              	@ filter.c:89: 			lowpassFilterApplyFn = &gyroSensor->lowpass2FilterApplyFn;
  89:filter.c      **** 			lowpassFilter = gyroSensor->lowpass2Filter; //second possbile way
ARM GAS  /var/folders/_2/qbh2zpt918qcm2b_6mgyydnm0000gn/T//ccIdySvu.s 			page 37


 1567              		.loc 1 89 25 is_stmt 0 view .LVU398
 1568 0424 00F1B406 		add	r6, r0, #180	@ lowpassFilterApplyFn, gyroSensor,
 1569              	.LVL152:
  90:filter.c      **** 		break;
 1570              		.loc 1 90 4 is_stmt 1 view .LVU399
 1571              	@ filter.c:90: 			lowpassFilter = gyroSensor->lowpass2Filter; //second possbile way
  90:filter.c      **** 		break;
 1572              		.loc 1 90 18 is_stmt 0 view .LVU400
 1573 0428 00F1B804 		add	r4, r0, #184	@ lowpassFilter, gyroSensor,
 1574              	.LVL153:
  91:filter.c      **** 		default:
 1575              		.loc 1 91 3 is_stmt 1 view .LVU401
 1576 042c CAE7     		b	.L42		@
 1577              	.LVL154:
 1578              	.L46:
 1579              	@ filter.c:98: 	const float gyroDt = gyro.targetLoopTime * 1.0e-6f;
  98:filter.c      **** 	const float gain = pt1FilterGain(lpfHz, gyroDt);
 1580              		.loc 1 98 43 is_stmt 0 view .LVU402
 1581 042e 4046     		mov	r0, r8	@, _1
 1582 0430 FFF7FEFF 		bl	__aeabi_ui2f		@
 1583              	.LVL155:
 1584              	@ filter.c:98: 	const float gyroDt = gyro.targetLoopTime * 1.0e-6f;
  98:filter.c      **** 	const float gain = pt1FilterGain(lpfHz, gyroDt);
 1585              		.loc 1 98 14 view .LVU403
 1586 0434 0E49     		ldr	r1, .L50+24	@,
 1587 0436 FFF7FEFF 		bl	__aeabi_fmul		@
 1588              	.LVL156:
 1589 043a 0146     		mov	r1, r0	@ tmp153,
 1590              	@ filter.c:99: 	const float gain = pt1FilterGain(lpfHz, gyroDt);
  99:filter.c      **** 	
 1591              		.loc 1 99 21 view .LVU404
 1592 043c 2846     		mov	r0, r5	@, lpfHz
 1593 043e FFF7FEFF 		bl	pt1FilterGain		@
 1594              	.LVL157:
 108:filter.c      **** 			for (int axis = 0; axis < XYZ_AXIS_COUNT; ++axis){
 1595              		.loc 1 108 4 is_stmt 1 view .LVU405
 1596              	@ filter.c:108: 			*lowpassFilterApplyFn = (filterApplyPtr) pt1FilterApply;
 108:filter.c      **** 			for (int axis = 0; axis < XYZ_AXIS_COUNT; ++axis){
 1597              		.loc 1 108 26 is_stmt 0 view .LVU406
 1598 0442 0C4B     		ldr	r3, .L50+28	@ tmp136,
 1599 0444 3360     		str	r3, [r6]	@ tmp136, *lowpassFilterApplyFn_15
 109:filter.c      **** 				pt1FilterInit(&lowpassFilter[axis].pt1FilterState, gain);
 1600              		.loc 1 109 4 is_stmt 1 view .LVU407
 1601              	.LBB41:
 109:filter.c      **** 				pt1FilterInit(&lowpassFilter[axis].pt1FilterState, gain);
 1602              		.loc 1 109 9 view .LVU408
 1603              	.LVL158:
 109:filter.c      **** 				pt1FilterInit(&lowpassFilter[axis].pt1FilterState, gain);
 1604              		.loc 1 109 23 view .LVU409
 110:filter.c      **** 			};
 1605              		.loc 1 110 5 view .LVU410
 1606              	.LBB42:
 1607              	.LBI42:
 187:filter.c      **** 	filter->state = 0.0f;
 1608              		.loc 1 187 6 view .LVU411
 1609              	.LBB43:
 188:filter.c      **** 	filter->k = k;
ARM GAS  /var/folders/_2/qbh2zpt918qcm2b_6mgyydnm0000gn/T//ccIdySvu.s 			page 38


 1610              		.loc 1 188 2 view .LVU412
 1611              	@ filter.c:188: 	filter->state = 0.0f;
 188:filter.c      **** 	filter->k = k;
 1612              		.loc 1 188 16 is_stmt 0 view .LVU413
 1613 0446 0023     		movs	r3, #0	@ tmp137,
 1614 0448 2360     		str	r3, [r4]	@ float	@ tmp137, MEM[(struct pt1Filter_t *)lowpassFilter_16].state
 189:filter.c      **** };
 1615              		.loc 1 189 2 is_stmt 1 view .LVU414
 1616              	@ filter.c:189: 	filter->k = k;
 189:filter.c      **** };
 1617              		.loc 1 189 12 is_stmt 0 view .LVU415
 1618 044a 6060     		str	r0, [r4, #4]	@ float	@ gain, MEM[(struct pt1Filter_t *)lowpassFilter_16].k
 1619              	.LVL159:
 189:filter.c      **** };
 1620              		.loc 1 189 12 view .LVU416
 1621              	.LBE43:
 1622              	.LBE42:
 109:filter.c      **** 				pt1FilterInit(&lowpassFilter[axis].pt1FilterState, gain);
 1623              		.loc 1 109 46 is_stmt 1 view .LVU417
 109:filter.c      **** 				pt1FilterInit(&lowpassFilter[axis].pt1FilterState, gain);
 1624              		.loc 1 109 23 view .LVU418
 110:filter.c      **** 			};
 1625              		.loc 1 110 5 view .LVU419
 1626              	.LBB46:
 187:filter.c      **** 	filter->state = 0.0f;
 1627              		.loc 1 187 6 view .LVU420
 1628              	.LBB44:
 188:filter.c      **** 	filter->k = k;
 1629              		.loc 1 188 2 view .LVU421
 1630              	@ filter.c:188: 	filter->state = 0.0f;
 188:filter.c      **** 	filter->k = k;
 1631              		.loc 1 188 16 is_stmt 0 view .LVU422
 1632 044c 6362     		str	r3, [r4, #36]	@ float	@ tmp137, MEM[(struct pt1Filter_t *)lowpassFilter_16 + 36B].state
 189:filter.c      **** };
 1633              		.loc 1 189 2 is_stmt 1 view .LVU423
 1634              	@ filter.c:189: 	filter->k = k;
 189:filter.c      **** };
 1635              		.loc 1 189 12 is_stmt 0 view .LVU424
 1636 044e A062     		str	r0, [r4, #40]	@ float	@ gain, MEM[(struct pt1Filter_t *)lowpassFilter_16 + 36B].k
 1637              	.LVL160:
 189:filter.c      **** };
 1638              		.loc 1 189 12 view .LVU425
 1639              	.LBE44:
 1640              	.LBE46:
 109:filter.c      **** 				pt1FilterInit(&lowpassFilter[axis].pt1FilterState, gain);
 1641              		.loc 1 109 46 is_stmt 1 view .LVU426
 109:filter.c      **** 				pt1FilterInit(&lowpassFilter[axis].pt1FilterState, gain);
 1642              		.loc 1 109 23 view .LVU427
 110:filter.c      **** 			};
 1643              		.loc 1 110 5 view .LVU428
 1644              	.LBB47:
 187:filter.c      **** 	filter->state = 0.0f;
 1645              		.loc 1 187 6 view .LVU429
 1646              	.LBB45:
 188:filter.c      **** 	filter->k = k;
 1647              		.loc 1 188 2 view .LVU430
 1648              	@ filter.c:188: 	filter->state = 0.0f;
ARM GAS  /var/folders/_2/qbh2zpt918qcm2b_6mgyydnm0000gn/T//ccIdySvu.s 			page 39


 188:filter.c      **** 	filter->k = k;
 1649              		.loc 1 188 16 is_stmt 0 view .LVU431
 1650 0450 A364     		str	r3, [r4, #72]	@ float	@ tmp137, MEM[(struct pt1Filter_t *)lowpassFilter_16 + 72B].state
 189:filter.c      **** };
 1651              		.loc 1 189 2 is_stmt 1 view .LVU432
 1652              	@ filter.c:189: 	filter->k = k;
 189:filter.c      **** };
 1653              		.loc 1 189 12 is_stmt 0 view .LVU433
 1654 0452 E064     		str	r0, [r4, #76]	@ float	@ gain, MEM[(struct pt1Filter_t *)lowpassFilter_16 + 72B].k
 1655              	.LVL161:
 189:filter.c      **** };
 1656              		.loc 1 189 12 view .LVU434
 1657              	.LBE45:
 1658              	.LBE47:
 109:filter.c      **** 				pt1FilterInit(&lowpassFilter[axis].pt1FilterState, gain);
 1659              		.loc 1 109 46 is_stmt 1 view .LVU435
 109:filter.c      **** 				pt1FilterInit(&lowpassFilter[axis].pt1FilterState, gain);
 1660              		.loc 1 109 23 view .LVU436
 1661 0454 AFE7     		b	.L38		@
 1662              	.L51:
 1663 0456 00BF     		.align	3
 1664              	.L50:
 1665 0458 00000000 		.word	0
 1666 045c 80841E41 		.word	1092519040
 1667 0460 00000000 		.word	gyro
 1668 0464 00000000 		.word	nullFilterApply
 1669 0468 00000000 		.word	biquadFilterApply
 1670 046c F304353F 		.word	1060439283
 1671 0470 BD378635 		.word	897988541
 1672 0474 00000000 		.word	pt1FilterApply
 1673              	.LBE41:
 1674              		.cfi_endproc
 1675              	.LFE8:
 1676              		.size	gyroInitLowPassFilter, .-gyroInitLowPassFilter
 1677              		.align	1
 1678              		.global	gyroInitFilterDynNotch
 1679              		.syntax unified
 1680              		.thumb
 1681              		.thumb_func
 1682              		.fpu softvfp
 1683              		.type	gyroInitFilterDynNotch, %function
 1684              	gyroInitFilterDynNotch:
 1685              	.LVL162:
 1686              	.LFB17:
 192:filter.c      **** 	gyroSensor->notchFilterDynApplyFn = nullFilterApply;	
 1687              		.loc 1 192 54 view -0
 1688              		.cfi_startproc
 1689              		@ args = 0, pretend = 0, frame = 0
 1690              		@ frame_needed = 0, uses_anonymous_args = 0
 193:filter.c      **** 	if (gyroConfig.DynNotchFilterActive){
 1691              		.loc 1 193 2 view .LVU438
 1692              	@ filter.c:192: void gyroInitFilterDynNotch(gyroSensor_t *gyroSensor){
 192:filter.c      **** 	gyroSensor->notchFilterDynApplyFn = nullFilterApply;	
 1693              		.loc 1 192 54 is_stmt 0 view .LVU439
 1694 0478 2DE9F341 		push	{r0, r1, r4, r5, r6, r7, r8, lr}	@
 1695              	.LCFI16:
 1696              		.cfi_def_cfa_offset 32
ARM GAS  /var/folders/_2/qbh2zpt918qcm2b_6mgyydnm0000gn/T//ccIdySvu.s 			page 40


 1697              		.cfi_offset 4, -24
 1698              		.cfi_offset 5, -20
 1699              		.cfi_offset 6, -16
 1700              		.cfi_offset 7, -12
 1701              		.cfi_offset 8, -8
 1702              		.cfi_offset 14, -4
 1703              	@ filter.c:193: 	gyroSensor->notchFilterDynApplyFn = nullFilterApply;	
 193:filter.c      **** 	if (gyroConfig.DynNotchFilterActive){
 1704              		.loc 1 193 36 view .LVU440
 1705 047c 0F4A     		ldr	r2, .L59	@ tmp118,
 1706 047e C0F80422 		str	r2, [r0, #516]	@ tmp118, gyroSensor_3(D)->notchFilterDynApplyFn
 194:filter.c      **** 		gyroSensor->notchFilterDynApplyFn = (filterApplyPtr)biquadFilterApplyDyn;
 1707              		.loc 1 194 2 is_stmt 1 view .LVU441
 1708              	@ filter.c:194: 	if (gyroConfig.DynNotchFilterActive){
 194:filter.c      **** 		gyroSensor->notchFilterDynApplyFn = (filterApplyPtr)biquadFilterApplyDyn;
 1709              		.loc 1 194 16 is_stmt 0 view .LVU442
 1710 0482 0F4A     		ldr	r2, .L59+4	@ tmp119,
 1711              	@ filter.c:194: 	if (gyroConfig.DynNotchFilterActive){
 194:filter.c      **** 		gyroSensor->notchFilterDynApplyFn = (filterApplyPtr)biquadFilterApplyDyn;
 1712              		.loc 1 194 5 view .LVU443
 1713 0484 127B     		ldrb	r2, [r2, #12]	@ zero_extendqisi2	@ gyroConfig.DynNotchFilterActive, gyroConfig.DynNotchFilter
 1714 0486 AAB1     		cbz	r2, .L52	@ gyroConfig.DynNotchFilterActive,
 1715              	.LBB56:
 195:filter.c      **** 		const float notchQ = filterGetNotchQ(400, 390);
 1716              		.loc 1 195 3 is_stmt 1 view .LVU444
 1717              	@ filter.c:195: 		gyroSensor->notchFilterDynApplyFn = (filterApplyPtr)biquadFilterApplyDyn;
 195:filter.c      **** 		const float notchQ = filterGetNotchQ(400, 390);
 1718              		.loc 1 195 37 is_stmt 0 view .LVU445
 1719 0488 0E4A     		ldr	r2, .L59+8	@ tmp121,
 1720              	.LBE56:
 1721              	.LBB58:
 1722              	.LBB59:
 1723              	.LBB60:
 1724              	@ filter.c:198: 			biquadFilterInit(&gyroSensor->notchFilterDyn[axis], 400, gyro.targetLoopTime, no
 198:filter.c      **** 		};
 1725              		.loc 1 198 4 view .LVU446
 1726 048a 0F4F     		ldr	r7, .L59+12	@ tmp123,
 1727 048c DFF84080 		ldr	r8, .L59+20	@ tmp126,
 1728 0490 0E4E     		ldr	r6, .L59+16	@ tmp127,
 1729              	.LBE60:
 1730              	.LBE59:
 1731              	.LBE58:
 1732              	.LBB63:
 1733              	@ filter.c:195: 		gyroSensor->notchFilterDynApplyFn = (filterApplyPtr)biquadFilterApplyDyn;
 195:filter.c      **** 		const float notchQ = filterGetNotchQ(400, 390);
 1734              		.loc 1 195 37 view .LVU447
 1735 0492 C0F80422 		str	r2, [r0, #516]	@ tmp121, gyroSensor_3(D)->notchFilterDynApplyFn
 196:filter.c      **** 		for(int axis = 0; axis < XYZ_AXIS_COUNT; axis++){
 1736              		.loc 1 196 3 is_stmt 1 view .LVU448
 1737              	.LVL163:
 196:filter.c      **** 		for(int axis = 0; axis < XYZ_AXIS_COUNT; axis++){
 1738              		.loc 1 196 3 is_stmt 0 view .LVU449
 1739              	.LBE63:
 249:filter.c      **** 
 250:filter.c      **** 
 251:filter.c      **** uint16_t calculateNyquistAdjustNotchHz(uint16_t notchHz, uint16_t notchCutoffHz){
 252:filter.c      **** 	const uint32_t gyroFrequencyNyquist = 1e6 / 2 / gyro.targetLoopTime; //666 Hz in Version 12.7.2
ARM GAS  /var/folders/_2/qbh2zpt918qcm2b_6mgyydnm0000gn/T//ccIdySvu.s 			page 41


 253:filter.c      **** 	if (notchHz > gyroFrequencyNyquist){
 254:filter.c      **** 		if(notchCutoffHz < gyroFrequencyNyquist){
 255:filter.c      **** 			notchHz = gyroFrequencyNyquist;	
 256:filter.c      **** 		} else {
 257:filter.c      **** 			notchHz = 0;
 258:filter.c      **** 		};
 259:filter.c      **** 	};
 260:filter.c      **** 	return notchHz;
 261:filter.c      **** };
 262:filter.c      **** 
 263:filter.c      **** // get notch filter Q given center frequency (f0) and lower cutoff frequency (f1)
 264:filter.c      **** // Q = f0 / (f2 - f1) ; f2 = f0^2 / f1
 265:filter.c      **** float filterGetNotchQ(float centerFreq, float cutoffFreq) {
 266:filter.c      ****     return centerFreq * cutoffFreq / (centerFreq * centerFreq - cutoffFreq * cutoffFreq);
 1740              		.loc 1 266 5 is_stmt 1 view .LVU450
 1741              	.LBB64:
 197:filter.c      **** 			biquadFilterInit(&gyroSensor->notchFilterDyn[axis], 400, gyro.targetLoopTime, notchQ, FILTER_NOT
 1742              		.loc 1 197 3 view .LVU451
 1743              	.LBB57:
 197:filter.c      **** 			biquadFilterInit(&gyroSensor->notchFilterDyn[axis], 400, gyro.targetLoopTime, notchQ, FILTER_NOT
 1744              		.loc 1 197 7 view .LVU452
 197:filter.c      **** 			biquadFilterInit(&gyroSensor->notchFilterDyn[axis], 400, gyro.targetLoopTime, notchQ, FILTER_NOT
 1745              		.loc 1 197 7 is_stmt 0 view .LVU453
 1746              	.LBE57:
 1747              	.LBE64:
 1748              	.LBB65:
 1749              	.LBI58:
 192:filter.c      **** 	gyroSensor->notchFilterDynApplyFn = nullFilterApply;	
 1750              		.loc 1 192 6 is_stmt 1 view .LVU454
 1751              	.LBB62:
 1752              	.LBB61:
 197:filter.c      **** 			biquadFilterInit(&gyroSensor->notchFilterDyn[axis], 400, gyro.targetLoopTime, notchQ, FILTER_NOT
 1753              		.loc 1 197 21 view .LVU455
 1754 0496 00F50275 		add	r5, r0, #520	@ ivtmp.69, gyroSensor,
 1755 049a 00F51D74 		add	r4, r0, #628	@ _23, gyroSensor,
 1756              	.LVL164:
 1757              	.L54:
 198:filter.c      **** 		};
 1758              		.loc 1 198 4 view .LVU456
 1759 049e 0123     		movs	r3, #1	@ tmp125,
 1760 04a0 0093     		str	r3, [sp]	@ tmp125,
 1761 04a2 2846     		mov	r0, r5	@, ivtmp.69
 1762 04a4 3A68     		ldr	r2, [r7]	@, gyro.targetLoopTime
 1763 04a6 4346     		mov	r3, r8	@, tmp126
 1764 04a8 3146     		mov	r1, r6	@, tmp127
 1765 04aa 2435     		adds	r5, r5, #36	@ ivtmp.69, ivtmp.69,
 1766 04ac FFF7FEFF 		bl	biquadFilterInit		@
 1767              	.LVL165:
 197:filter.c      **** 			biquadFilterInit(&gyroSensor->notchFilterDyn[axis], 400, gyro.targetLoopTime, notchQ, FILTER_NOT
 1768              		.loc 1 197 44 view .LVU457
 197:filter.c      **** 			biquadFilterInit(&gyroSensor->notchFilterDyn[axis], 400, gyro.targetLoopTime, notchQ, FILTER_NOT
 1769              		.loc 1 197 21 view .LVU458
 1770              	@ filter.c:197: 		for(int axis = 0; axis < XYZ_AXIS_COUNT; axis++){
 197:filter.c      **** 			biquadFilterInit(&gyroSensor->notchFilterDyn[axis], 400, gyro.targetLoopTime, notchQ, FILTER_NOT
 1771              		.loc 1 197 3 is_stmt 0 view .LVU459
 1772 04b0 A542     		cmp	r5, r4	@ ivtmp.69, _23
 1773 04b2 F4D1     		bne	.L54		@,
ARM GAS  /var/folders/_2/qbh2zpt918qcm2b_6mgyydnm0000gn/T//ccIdySvu.s 			page 42


 1774              	.LVL166:
 1775              	.L52:
 197:filter.c      **** 			biquadFilterInit(&gyroSensor->notchFilterDyn[axis], 400, gyro.targetLoopTime, notchQ, FILTER_NOT
 1776              		.loc 1 197 3 view .LVU460
 1777              	.LBE61:
 1778              	.LBE62:
 1779              	.LBE65:
 1780              	@ filter.c:201: };
 201:filter.c      **** 
 1781              		.loc 1 201 1 view .LVU461
 1782 04b4 02B0     		add	sp, sp, #8	@,,
 1783              	.LCFI17:
 1784              		.cfi_def_cfa_offset 24
 1785              		@ sp needed	@
 1786 04b6 BDE8F081 		pop	{r4, r5, r6, r7, r8, pc}	@
 1787              	.L60:
 1788 04ba 00BF     		.align	2
 1789              	.L59:
 1790 04bc 00000000 		.word	nullFilterApply
 1791 04c0 00000000 		.word	gyroConfig
 1792 04c4 00000000 		.word	biquadFilterApplyDyn
 1793 04c8 00000000 		.word	gyro
 1794 04cc 0000C843 		.word	1137180672
 1795 04d0 85F99D41 		.word	1100872069
 1796              		.cfi_endproc
 1797              	.LFE17:
 1798              		.size	gyroInitFilterDynNotch, .-gyroInitFilterDynNotch
 1799              		.align	1
 1800              		.global	calculateNyquistAdjustNotchHz
 1801              		.syntax unified
 1802              		.thumb
 1803              		.thumb_func
 1804              		.fpu softvfp
 1805              		.type	calculateNyquistAdjustNotchHz, %function
 1806              	calculateNyquistAdjustNotchHz:
 1807              	.LVL167:
 1808              	.LFB19:
 251:filter.c      **** 	const uint32_t gyroFrequencyNyquist = 1e6 / 2 / gyro.targetLoopTime; //666 Hz in Version 12.7.2
 1809              		.loc 1 251 81 is_stmt 1 view -0
 1810              		.cfi_startproc
 1811              		@ args = 0, pretend = 0, frame = 0
 1812              		@ frame_needed = 0, uses_anonymous_args = 0
 252:filter.c      **** 	if (notchHz > gyroFrequencyNyquist){
 1813              		.loc 1 252 2 view .LVU463
 1814              	@ filter.c:251: uint16_t calculateNyquistAdjustNotchHz(uint16_t notchHz, uint16_t notchCutoffHz){
 251:filter.c      **** 	const uint32_t gyroFrequencyNyquist = 1e6 / 2 / gyro.targetLoopTime; //666 Hz in Version 12.7.2
 1815              		.loc 1 251 81 is_stmt 0 view .LVU464
 1816 04d4 38B5     		push	{r3, r4, r5, lr}	@
 1817              	.LCFI18:
 1818              		.cfi_def_cfa_offset 16
 1819              		.cfi_offset 3, -16
 1820              		.cfi_offset 4, -12
 1821              		.cfi_offset 5, -8
 1822              		.cfi_offset 14, -4
 1823              	@ filter.c:252: 	const uint32_t gyroFrequencyNyquist = 1e6 / 2 / gyro.targetLoopTime; //666 Hz in V
 252:filter.c      **** 	if (notchHz > gyroFrequencyNyquist){
 1824              		.loc 1 252 54 view .LVU465
ARM GAS  /var/folders/_2/qbh2zpt918qcm2b_6mgyydnm0000gn/T//ccIdySvu.s 			page 43


 1825 04d6 0E4B     		ldr	r3, .L64+8	@ tmp119,
 1826              	@ filter.c:251: uint16_t calculateNyquistAdjustNotchHz(uint16_t notchHz, uint16_t notchCutoffHz){
 251:filter.c      **** 	const uint32_t gyroFrequencyNyquist = 1e6 / 2 / gyro.targetLoopTime; //666 Hz in Version 12.7.2
 1827              		.loc 1 251 81 view .LVU466
 1828 04d8 0446     		mov	r4, r0	@ notchHz, tmp124
 1829              	@ filter.c:252: 	const uint32_t gyroFrequencyNyquist = 1e6 / 2 / gyro.targetLoopTime; //666 Hz in V
 252:filter.c      **** 	if (notchHz > gyroFrequencyNyquist){
 1830              		.loc 1 252 48 view .LVU467
 1831 04da 1868     		ldr	r0, [r3]	@, gyro.targetLoopTime
 1832              	.LVL168:
 1833              	@ filter.c:251: uint16_t calculateNyquistAdjustNotchHz(uint16_t notchHz, uint16_t notchCutoffHz){
 251:filter.c      **** 	const uint32_t gyroFrequencyNyquist = 1e6 / 2 / gyro.targetLoopTime; //666 Hz in Version 12.7.2
 1834              		.loc 1 251 81 view .LVU468
 1835 04dc 0D46     		mov	r5, r1	@ notchCutoffHz, tmp125
 1836              	@ filter.c:252: 	const uint32_t gyroFrequencyNyquist = 1e6 / 2 / gyro.targetLoopTime; //666 Hz in V
 252:filter.c      **** 	if (notchHz > gyroFrequencyNyquist){
 1837              		.loc 1 252 48 view .LVU469
 1838 04de FFF7FEFF 		bl	__aeabi_ui2d		@
 1839              	.LVL169:
 252:filter.c      **** 	if (notchHz > gyroFrequencyNyquist){
 1840              		.loc 1 252 48 view .LVU470
 1841 04e2 0246     		mov	r2, r0	@ tmp126,
 1842 04e4 0B46     		mov	r3, r1	@,
 1843 04e6 08A1     		adr	r1, .L64	@,
 1844 04e8 D1E90001 		ldrd	r0, [r1]	@,
 1845 04ec FFF7FEFF 		bl	__aeabi_ddiv		@
 1846              	.LVL170:
 1847              	@ filter.c:252: 	const uint32_t gyroFrequencyNyquist = 1e6 / 2 / gyro.targetLoopTime; //666 Hz in V
 252:filter.c      **** 	if (notchHz > gyroFrequencyNyquist){
 1848              		.loc 1 252 17 view .LVU471
 1849 04f0 FFF7FEFF 		bl	__aeabi_d2uiz		@
 1850              	.LVL171:
 253:filter.c      **** 		if(notchCutoffHz < gyroFrequencyNyquist){
 1851              		.loc 1 253 2 is_stmt 1 view .LVU472
 1852              	@ filter.c:253: 	if (notchHz > gyroFrequencyNyquist){
 253:filter.c      **** 		if(notchCutoffHz < gyroFrequencyNyquist){
 1853              		.loc 1 253 5 is_stmt 0 view .LVU473
 1854 04f4 8442     		cmp	r4, r0	@ notchHz, tmp122
 1855 04f6 03D9     		bls	.L62		@,
 254:filter.c      **** 			notchHz = gyroFrequencyNyquist;	
 1856              		.loc 1 254 3 is_stmt 1 view .LVU474
 1857              	@ filter.c:254: 		if(notchCutoffHz < gyroFrequencyNyquist){
 254:filter.c      **** 			notchHz = gyroFrequencyNyquist;	
 1858              		.loc 1 254 5 is_stmt 0 view .LVU475
 1859 04f8 8542     		cmp	r5, r0	@ notchCutoffHz, tmp122
 255:filter.c      **** 		} else {
 1860              		.loc 1 255 4 is_stmt 1 view .LVU476
 1861              	@ filter.c:255: 			notchHz = gyroFrequencyNyquist;	
 255:filter.c      **** 		} else {
 1862              		.loc 1 255 12 is_stmt 0 view .LVU477
 1863 04fa 34BF     		ite	cc
 1864 04fc 84B2     		uxthcc	r4, r0	@ notchHz, tmp122
 1865              	.LVL172:
 1866              	@ filter.c:257: 			notchHz = 0;
 257:filter.c      **** 		};
 1867              		.loc 1 257 12 view .LVU478
 1868 04fe 0024     		movcs	r4, #0	@ notchHz,
ARM GAS  /var/folders/_2/qbh2zpt918qcm2b_6mgyydnm0000gn/T//ccIdySvu.s 			page 44


 1869              	.LVL173:
 1870              	.L62:
 258:filter.c      **** 	};
 1871              		.loc 1 258 4 is_stmt 1 view .LVU479
 259:filter.c      **** 	return notchHz;
 1872              		.loc 1 259 3 view .LVU480
 260:filter.c      **** };
 1873              		.loc 1 260 2 view .LVU481
 1874              	@ filter.c:261: };
 261:filter.c      **** 
 1875              		.loc 1 261 1 is_stmt 0 view .LVU482
 1876 0500 2046     		mov	r0, r4	@, notchHz
 1877              	.LVL174:
 261:filter.c      **** 
 1878              		.loc 1 261 1 view .LVU483
 1879 0502 38BD     		pop	{r3, r4, r5, pc}	@
 1880              	.LVL175:
 1881              	.L65:
 261:filter.c      **** 
 1882              		.loc 1 261 1 view .LVU484
 1883 0504 AFF30080 		.align	3
 1884              	.L64:
 1885 0508 00000000 		.word	0
 1886 050c 80841E41 		.word	1092519040
 1887 0510 00000000 		.word	gyro
 1888              		.cfi_endproc
 1889              	.LFE19:
 1890              		.size	calculateNyquistAdjustNotchHz, .-calculateNyquistAdjustNotchHz
 1891              		.align	1
 1892              		.global	filterGetNotchQ
 1893              		.syntax unified
 1894              		.thumb
 1895              		.thumb_func
 1896              		.fpu softvfp
 1897              		.type	filterGetNotchQ, %function
 1898              	filterGetNotchQ:
 1899              	.LVL176:
 1900              	.LFB20:
 265:filter.c      ****     return centerFreq * cutoffFreq / (centerFreq * centerFreq - cutoffFreq * cutoffFreq);
 1901              		.loc 1 265 59 is_stmt 1 view -0
 1902              		.cfi_startproc
 1903              		@ args = 0, pretend = 0, frame = 0
 1904              		@ frame_needed = 0, uses_anonymous_args = 0
 1905              		.loc 1 266 5 view .LVU486
 1906              	@ filter.c:265: float filterGetNotchQ(float centerFreq, float cutoffFreq) {
 265:filter.c      ****     return centerFreq * cutoffFreq / (centerFreq * centerFreq - cutoffFreq * cutoffFreq);
 1907              		.loc 1 265 59 is_stmt 0 view .LVU487
 1908 0514 70B5     		push	{r4, r5, r6, lr}	@
 1909              	.LCFI19:
 1910              		.cfi_def_cfa_offset 16
 1911              		.cfi_offset 4, -16
 1912              		.cfi_offset 5, -12
 1913              		.cfi_offset 6, -8
 1914              		.cfi_offset 14, -4
 1915              	@ filter.c:265: float filterGetNotchQ(float centerFreq, float cutoffFreq) {
 265:filter.c      ****     return centerFreq * cutoffFreq / (centerFreq * centerFreq - cutoffFreq * cutoffFreq);
 1916              		.loc 1 265 59 view .LVU488
ARM GAS  /var/folders/_2/qbh2zpt918qcm2b_6mgyydnm0000gn/T//ccIdySvu.s 			page 45


 1917 0516 0E46     		mov	r6, r1	@ cutoffFreq, tmp124
 1918 0518 0546     		mov	r5, r0	@ centerFreq, tmp123
 1919              	@ filter.c:266:     return centerFreq * cutoffFreq / (centerFreq * centerFreq - cutoffFreq * cutoff
 1920              		.loc 1 266 23 view .LVU489
 1921 051a FFF7FEFF 		bl	__aeabi_fmul		@
 1922              	.LVL177:
 1923              	@ filter.c:266:     return centerFreq * cutoffFreq / (centerFreq * centerFreq - cutoffFreq * cutoff
 1924              		.loc 1 266 50 view .LVU490
 1925 051e 2946     		mov	r1, r5	@, centerFreq
 1926              	@ filter.c:266:     return centerFreq * cutoffFreq / (centerFreq * centerFreq - cutoffFreq * cutoff
 1927              		.loc 1 266 23 view .LVU491
 1928 0520 0446     		mov	r4, r0	@ tmp118, tmp125
 1929              	@ filter.c:266:     return centerFreq * cutoffFreq / (centerFreq * centerFreq - cutoffFreq * cutoff
 1930              		.loc 1 266 50 view .LVU492
 1931 0522 2846     		mov	r0, r5	@, tmp1
 1932 0524 FFF7FEFF 		bl	__aeabi_fmul		@
 1933              	.LVL178:
 1934              	@ filter.c:266:     return centerFreq * cutoffFreq / (centerFreq * centerFreq - cutoffFreq * cutoff
 1935              		.loc 1 266 76 view .LVU493
 1936 0528 3146     		mov	r1, r6	@, cutoffFreq
 1937              	@ filter.c:266:     return centerFreq * cutoffFreq / (centerFreq * centerFreq - cutoffFreq * cutoff
 1938              		.loc 1 266 50 view .LVU494
 1939 052a 0546     		mov	r5, r0	@ tmp119, tmp126
 1940              	.LVL179:
 1941              	@ filter.c:266:     return centerFreq * cutoffFreq / (centerFreq * centerFreq - cutoffFreq * cutoff
 1942              		.loc 1 266 76 view .LVU495
 1943 052c 3046     		mov	r0, r6	@, tmp1
 1944 052e FFF7FEFF 		bl	__aeabi_fmul		@
 1945              	.LVL180:
 1946 0532 0146     		mov	r1, r0	@ tmp127,
 1947              	@ filter.c:266:     return centerFreq * cutoffFreq / (centerFreq * centerFreq - cutoffFreq * cutoff
 1948              		.loc 1 266 63 view .LVU496
 1949 0534 2846     		mov	r0, r5	@, tmp119
 1950 0536 FFF7FEFF 		bl	__aeabi_fsub		@
 1951              	.LVL181:
 1952 053a 0146     		mov	r1, r0	@ tmp128,
 1953              	@ filter.c:266:     return centerFreq * cutoffFreq / (centerFreq * centerFreq - cutoffFreq * cutoff
 1954              		.loc 1 266 36 view .LVU497
 1955 053c 2046     		mov	r0, r4	@, tmp118
 1956 053e FFF7FEFF 		bl	__aeabi_fdiv		@
 1957              	.LVL182:
 1958              	@ filter.c:267: };
 267:filter.c      **** };
 1959              		.loc 1 267 1 view .LVU498
 1960 0542 70BD     		pop	{r4, r5, r6, pc}	@
 1961              		.loc 1 267 1 view .LVU499
 1962              		.cfi_endproc
 1963              	.LFE20:
 1964              		.size	filterGetNotchQ, .-filterGetNotchQ
 1965              		.align	1
 1966              		.global	initDtermNotchFilter
 1967              		.syntax unified
 1968              		.thumb
 1969              		.thumb_func
 1970              		.fpu softvfp
 1971              		.type	initDtermNotchFilter, %function
 1972              	initDtermNotchFilter:
ARM GAS  /var/folders/_2/qbh2zpt918qcm2b_6mgyydnm0000gn/T//ccIdySvu.s 			page 46


 1973              	.LFB4:
  16:filter.c      **** 	
 1974              		.loc 1 16 28 is_stmt 1 view -0
 1975              		.cfi_startproc
 1976              		@ args = 0, pretend = 0, frame = 0
 1977              		@ frame_needed = 0, uses_anonymous_args = 0
  18:filter.c      **** 	uint16_t notchHz;
 1978              		.loc 1 18 2 view .LVU501
 1979              	@ filter.c:16: void initDtermNotchFilter(){	
  16:filter.c      **** 	
 1980              		.loc 1 16 28 is_stmt 0 view .LVU502
 1981 0544 F7B5     		push	{r0, r1, r2, r4, r5, r6, r7, lr}	@
 1982              	.LCFI20:
 1983              		.cfi_def_cfa_offset 32
 1984              		.cfi_offset 4, -20
 1985              		.cfi_offset 5, -16
 1986              		.cfi_offset 6, -12
 1987              		.cfi_offset 7, -8
 1988              		.cfi_offset 14, -4
 1989              	@ filter.c:18: 	dtermNotchFilterApply = nullFilterApply;
  18:filter.c      **** 	uint16_t notchHz;
 1990              		.loc 1 18 24 view .LVU503
 1991 0546 184C     		ldr	r4, .L75	@ tmp119,
 1992 0548 184B     		ldr	r3, .L75+4	@ tmp120,
 1993 054a 2360     		str	r3, [r4]	@ tmp120, dtermNotchFilterApply
  19:filter.c      **** 	
 1994              		.loc 1 19 2 is_stmt 1 view .LVU504
  22:filter.c      **** 		notchHz = calculateNyquistAdjustNotchHz(dtermFilterSettings.dterm_notch_hz, dtermFilterSettings.d
 1995              		.loc 1 22 2 view .LVU505
 1996              	@ filter.c:22: 	if(dtermFilterSettings.dterm_notch_hz && dtermFilterSettings.dterm_notch_cutoff_hz)
  22:filter.c      **** 		notchHz = calculateNyquistAdjustNotchHz(dtermFilterSettings.dterm_notch_hz, dtermFilterSettings.d
 1997              		.loc 1 22 24 is_stmt 0 view .LVU506
 1998 054c 184B     		ldr	r3, .L75+8	@ tmp121,
 1999 054e 1888     		ldrh	r0, [r3]	@ _1, dtermFilterSettings.dterm_notch_hz
 2000              	@ filter.c:22: 	if(dtermFilterSettings.dterm_notch_hz && dtermFilterSettings.dterm_notch_cutoff_hz)
  22:filter.c      **** 		notchHz = calculateNyquistAdjustNotchHz(dtermFilterSettings.dterm_notch_hz, dtermFilterSettings.d
 2001              		.loc 1 22 4 view .LVU507
 2002 0550 40B3     		cbz	r0, .L67	@ _1,
 2003              	@ filter.c:22: 	if(dtermFilterSettings.dterm_notch_hz && dtermFilterSettings.dterm_notch_cutoff_hz)
  22:filter.c      **** 		notchHz = calculateNyquistAdjustNotchHz(dtermFilterSettings.dterm_notch_hz, dtermFilterSettings.d
 2004              		.loc 1 22 62 discriminator 1 view .LVU508
 2005 0552 5D88     		ldrh	r5, [r3, #2]	@ _2, dtermFilterSettings.dterm_notch_cutoff_hz
 2006              	@ filter.c:22: 	if(dtermFilterSettings.dterm_notch_hz && dtermFilterSettings.dterm_notch_cutoff_hz)
  22:filter.c      **** 		notchHz = calculateNyquistAdjustNotchHz(dtermFilterSettings.dterm_notch_hz, dtermFilterSettings.d
 2007              		.loc 1 22 40 discriminator 1 view .LVU509
 2008 0554 35B3     		cbz	r5, .L67	@ _2,
 2009              	.LBB66:
  23:filter.c      **** 		dtermNotchFilterApply = (filterApplyPtr) biquadFilterApply;
 2010              		.loc 1 23 3 is_stmt 1 view .LVU510
 2011              	@ filter.c:23: 		notchHz = calculateNyquistAdjustNotchHz(dtermFilterSettings.dterm_notch_hz, dtermF
  23:filter.c      **** 		dtermNotchFilterApply = (filterApplyPtr) biquadFilterApply;
 2012              		.loc 1 23 13 is_stmt 0 view .LVU511
 2013 0556 2946     		mov	r1, r5	@, _2
 2014 0558 FFF7FEFF 		bl	calculateNyquistAdjustNotchHz		@
 2015              	.LVL183:
  24:filter.c      **** 		const float notchQ = filterGetNotchQ(notchHz, dtermFilterSettings.dterm_notch_cutoff_hz);
 2016              		.loc 1 24 3 is_stmt 1 view .LVU512
ARM GAS  /var/folders/_2/qbh2zpt918qcm2b_6mgyydnm0000gn/T//ccIdySvu.s 			page 47


 2017              	@ filter.c:24: 		dtermNotchFilterApply = (filterApplyPtr) biquadFilterApply;
  24:filter.c      **** 		const float notchQ = filterGetNotchQ(notchHz, dtermFilterSettings.dterm_notch_cutoff_hz);
 2018              		.loc 1 24 25 is_stmt 0 view .LVU513
 2019 055c 154B     		ldr	r3, .L75+12	@ tmp125,
 2020 055e 2360     		str	r3, [r4]	@ tmp125, dtermNotchFilterApply
  25:filter.c      **** 		for(int axis = 0; axis < 3; ++axis){
 2021              		.loc 1 25 3 is_stmt 1 view .LVU514
 2022              	@ filter.c:25: 		const float notchQ = filterGetNotchQ(notchHz, dtermFilterSettings.dterm_notch_cuto
  25:filter.c      **** 		for(int axis = 0; axis < 3; ++axis){
 2023              		.loc 1 25 24 is_stmt 0 view .LVU515
 2024 0560 FFF7FEFF 		bl	__aeabi_ui2f		@
 2025              	.LVL184:
  25:filter.c      **** 		for(int axis = 0; axis < 3; ++axis){
 2026              		.loc 1 25 24 view .LVU516
 2027 0564 0446     		mov	r4, r0	@ _3, tmp136
 2028 0566 2846     		mov	r0, r5	@, _2
 2029 0568 FFF7FEFF 		bl	__aeabi_ui2f		@
 2030              	.LVL185:
 2031 056c 0146     		mov	r1, r0	@ tmp137,
 2032 056e 2046     		mov	r0, r4	@, _3
 2033 0570 FFF7FEFF 		bl	filterGetNotchQ		@
 2034              	.LVL186:
 2035              	.LBB67:
 2036              	@ filter.c:27: 			biquadFilterInit(&dtermNotch[axis], notchHz, gyro.targetLoopTime, notchQ, FILTER_
  27:filter.c      **** 		};
 2037              		.loc 1 27 4 view .LVU517
 2038 0574 104E     		ldr	r6, .L75+16	@ tmp127,
 2039 0576 0127     		movs	r7, #1	@ tmp129,
 2040              	.LBE67:
 2041              	@ filter.c:25: 		const float notchQ = filterGetNotchQ(notchHz, dtermFilterSettings.dterm_notch_cuto
  25:filter.c      **** 		for(int axis = 0; axis < 3; ++axis){
 2042              		.loc 1 25 24 view .LVU518
 2043 0578 0546     		mov	r5, r0	@ notchQ, tmp138
 2044              	.LVL187:
  26:filter.c      **** 			biquadFilterInit(&dtermNotch[axis], notchHz, gyro.targetLoopTime, notchQ, FILTER_NOTCH);
 2045              		.loc 1 26 3 is_stmt 1 view .LVU519
 2046              	.LBB68:
  26:filter.c      **** 			biquadFilterInit(&dtermNotch[axis], notchHz, gyro.targetLoopTime, notchQ, FILTER_NOTCH);
 2047              		.loc 1 26 7 view .LVU520
  26:filter.c      **** 			biquadFilterInit(&dtermNotch[axis], notchHz, gyro.targetLoopTime, notchQ, FILTER_NOTCH);
 2048              		.loc 1 26 21 view .LVU521
  27:filter.c      **** 		};
 2049              		.loc 1 27 4 view .LVU522
 2050 057a 0346     		mov	r3, r0	@, notchQ
 2051 057c 3268     		ldr	r2, [r6]	@, gyro.targetLoopTime
 2052 057e 0F48     		ldr	r0, .L75+20	@,
 2053              	.LVL188:
  27:filter.c      **** 		};
 2054              		.loc 1 27 4 is_stmt 0 view .LVU523
 2055 0580 0097     		str	r7, [sp]	@ tmp129,
 2056 0582 2146     		mov	r1, r4	@, _3
 2057 0584 FFF7FEFF 		bl	biquadFilterInit		@
 2058              	.LVL189:
  26:filter.c      **** 			biquadFilterInit(&dtermNotch[axis], notchHz, gyro.targetLoopTime, notchQ, FILTER_NOTCH);
 2059              		.loc 1 26 31 is_stmt 1 view .LVU524
  26:filter.c      **** 			biquadFilterInit(&dtermNotch[axis], notchHz, gyro.targetLoopTime, notchQ, FILTER_NOTCH);
 2060              		.loc 1 26 21 view .LVU525
ARM GAS  /var/folders/_2/qbh2zpt918qcm2b_6mgyydnm0000gn/T//ccIdySvu.s 			page 48


  27:filter.c      **** 		};
 2061              		.loc 1 27 4 view .LVU526
 2062 0588 3268     		ldr	r2, [r6]	@, gyro.targetLoopTime
 2063 058a 0D48     		ldr	r0, .L75+24	@,
 2064 058c 0097     		str	r7, [sp]	@ tmp129,
 2065 058e 2B46     		mov	r3, r5	@, notchQ
 2066 0590 2146     		mov	r1, r4	@, _3
 2067 0592 FFF7FEFF 		bl	biquadFilterInit		@
 2068              	.LVL190:
  26:filter.c      **** 			biquadFilterInit(&dtermNotch[axis], notchHz, gyro.targetLoopTime, notchQ, FILTER_NOTCH);
 2069              		.loc 1 26 31 view .LVU527
  26:filter.c      **** 			biquadFilterInit(&dtermNotch[axis], notchHz, gyro.targetLoopTime, notchQ, FILTER_NOTCH);
 2070              		.loc 1 26 21 view .LVU528
  27:filter.c      **** 		};
 2071              		.loc 1 27 4 view .LVU529
 2072 0596 3268     		ldr	r2, [r6]	@, gyro.targetLoopTime
 2073 0598 0A48     		ldr	r0, .L75+28	@,
 2074 059a 0097     		str	r7, [sp]	@ tmp129,
 2075 059c 2B46     		mov	r3, r5	@, notchQ
 2076 059e 2146     		mov	r1, r4	@, _3
 2077 05a0 FFF7FEFF 		bl	biquadFilterInit		@
 2078              	.LVL191:
  26:filter.c      **** 			biquadFilterInit(&dtermNotch[axis], notchHz, gyro.targetLoopTime, notchQ, FILTER_NOTCH);
 2079              		.loc 1 26 31 view .LVU530
  26:filter.c      **** 			biquadFilterInit(&dtermNotch[axis], notchHz, gyro.targetLoopTime, notchQ, FILTER_NOTCH);
 2080              		.loc 1 26 21 view .LVU531
 2081              	.LBE68:
  28:filter.c      **** 	};
 2082              		.loc 1 28 4 view .LVU532
 2083              	.LBE66:
  29:filter.c      **** };
 2084              		.loc 1 29 3 view .LVU533
 2085              	.L67:
 2086              	@ filter.c:30: };
  30:filter.c      **** 
 2087              		.loc 1 30 1 is_stmt 0 view .LVU534
 2088 05a4 03B0     		add	sp, sp, #12	@,,
 2089              	.LCFI21:
 2090              		.cfi_def_cfa_offset 20
 2091              		@ sp needed	@
 2092 05a6 F0BD     		pop	{r4, r5, r6, r7, pc}	@
 2093              	.L76:
 2094              		.align	2
 2095              	.L75:
 2096 05a8 00000000 		.word	dtermNotchFilterApply
 2097 05ac 00000000 		.word	nullFilterApply
 2098 05b0 00000000 		.word	dtermFilterSettings
 2099 05b4 00000000 		.word	biquadFilterApply
 2100 05b8 00000000 		.word	gyro
 2101 05bc 00000000 		.word	dtermNotch
 2102 05c0 24000000 		.word	dtermNotch+36
 2103 05c4 48000000 		.word	dtermNotch+72
 2104              		.cfi_endproc
 2105              	.LFE4:
 2106              		.size	initDtermNotchFilter, .-initDtermNotchFilter
 2107              		.align	1
 2108              		.global	gyroInitFilterNotch1
ARM GAS  /var/folders/_2/qbh2zpt918qcm2b_6mgyydnm0000gn/T//ccIdySvu.s 			page 49


 2109              		.syntax unified
 2110              		.thumb
 2111              		.thumb_func
 2112              		.fpu softvfp
 2113              		.type	gyroInitFilterNotch1, %function
 2114              	gyroInitFilterNotch1:
 2115              	.LVL192:
 2116              	.LFB9:
 124:filter.c      **** 	gyroSensor->notchFilter1ApplyFn = nullFilterApply;
 2117              		.loc 1 124 94 is_stmt 1 view -0
 2118              		.cfi_startproc
 2119              		@ args = 0, pretend = 0, frame = 0
 2120              		@ frame_needed = 0, uses_anonymous_args = 0
 125:filter.c      **** 	notchHz = calculateNyquistAdjustNotchHz(notchHz, notchCutoffHz);
 2121              		.loc 1 125 2 view .LVU536
 2122              	@ filter.c:124: void gyroInitFilterNotch1(gyroSensor_t *gyroSensor, uint16_t notchHz, uint16_t notc
 124:filter.c      **** 	gyroSensor->notchFilter1ApplyFn = nullFilterApply;
 2123              		.loc 1 124 94 is_stmt 0 view .LVU537
 2124 05c8 2DE9F743 		push	{r0, r1, r2, r4, r5, r6, r7, r8, r9, lr}	@
 2125              	.LCFI22:
 2126              		.cfi_def_cfa_offset 40
 2127              		.cfi_offset 4, -28
 2128              		.cfi_offset 5, -24
 2129              		.cfi_offset 6, -20
 2130              		.cfi_offset 7, -16
 2131              		.cfi_offset 8, -12
 2132              		.cfi_offset 9, -8
 2133              		.cfi_offset 14, -4
 2134              	@ filter.c:124: void gyroInitFilterNotch1(gyroSensor_t *gyroSensor, uint16_t notchHz, uint16_t notc
 124:filter.c      **** 	gyroSensor->notchFilter1ApplyFn = nullFilterApply;
 2135              		.loc 1 124 94 view .LVU538
 2136 05cc 0446     		mov	r4, r0	@ gyroSensor, tmp129
 2137              	@ filter.c:125: 	gyroSensor->notchFilter1ApplyFn = nullFilterApply;
 125:filter.c      **** 	notchHz = calculateNyquistAdjustNotchHz(notchHz, notchCutoffHz);
 2138              		.loc 1 125 34 view .LVU539
 2139 05ce 174B     		ldr	r3, .L87	@ tmp123,
 2140 05d0 C4F82431 		str	r3, [r4, #292]	@ tmp123, gyroSensor_9(D)->notchFilter1ApplyFn
 126:filter.c      **** 	
 2141              		.loc 1 126 2 is_stmt 1 view .LVU540
 2142              	@ filter.c:124: void gyroInitFilterNotch1(gyroSensor_t *gyroSensor, uint16_t notchHz, uint16_t notc
 124:filter.c      **** 	gyroSensor->notchFilter1ApplyFn = nullFilterApply;
 2143              		.loc 1 124 94 is_stmt 0 view .LVU541
 2144 05d4 0846     		mov	r0, r1	@ tmp130, notchHz
 2145              	.LVL193:
 2146              	@ filter.c:126: 	notchHz = calculateNyquistAdjustNotchHz(notchHz, notchCutoffHz);
 126:filter.c      **** 	
 2147              		.loc 1 126 12 view .LVU542
 2148 05d6 1146     		mov	r1, r2	@, notchCutoffHz
 2149              	.LVL194:
 2150              	@ filter.c:124: void gyroInitFilterNotch1(gyroSensor_t *gyroSensor, uint16_t notchHz, uint16_t notc
 124:filter.c      **** 	gyroSensor->notchFilter1ApplyFn = nullFilterApply;
 2151              		.loc 1 124 94 view .LVU543
 2152 05d8 1546     		mov	r5, r2	@ notchCutoffHz, tmp131
 2153              	@ filter.c:126: 	notchHz = calculateNyquistAdjustNotchHz(notchHz, notchCutoffHz);
 126:filter.c      **** 	
 2154              		.loc 1 126 12 view .LVU544
 2155 05da FFF7FEFF 		bl	calculateNyquistAdjustNotchHz		@
ARM GAS  /var/folders/_2/qbh2zpt918qcm2b_6mgyydnm0000gn/T//ccIdySvu.s 			page 50


 2156              	.LVL195:
 128:filter.c      **** 		gyroSensor->notchFilter1ApplyFn = (filterApplyPtr) biquadFilterApply;
 2157              		.loc 1 128 2 is_stmt 1 view .LVU545
 2158              	@ filter.c:128: 	if (notchHz != 0 && notchCutoffHz != 0) {
 128:filter.c      **** 		gyroSensor->notchFilter1ApplyFn = (filterApplyPtr) biquadFilterApply;
 2159              		.loc 1 128 5 is_stmt 0 view .LVU546
 2160 05de 10B3     		cbz	r0, .L77	@ tmp132,
 2161              	@ filter.c:128: 	if (notchHz != 0 && notchCutoffHz != 0) {
 128:filter.c      **** 		gyroSensor->notchFilter1ApplyFn = (filterApplyPtr) biquadFilterApply;
 2162              		.loc 1 128 19 discriminator 1 view .LVU547
 2163 05e0 0DB3     		cbz	r5, .L77	@ notchCutoffHz,
 2164              	.LBB69:
 129:filter.c      **** 		const float notchQ = filterGetNotchQ(notchHz, notchCutoffHz);
 2165              		.loc 1 129 3 is_stmt 1 view .LVU548
 2166              	@ filter.c:129: 		gyroSensor->notchFilter1ApplyFn = (filterApplyPtr) biquadFilterApply;
 129:filter.c      **** 		const float notchQ = filterGetNotchQ(notchHz, notchCutoffHz);
 2167              		.loc 1 129 35 is_stmt 0 view .LVU549
 2168 05e2 134B     		ldr	r3, .L87+4	@ tmp125,
 2169 05e4 C4F82431 		str	r3, [r4, #292]	@ tmp125, gyroSensor_9(D)->notchFilter1ApplyFn
 130:filter.c      **** 		for (int axis = 0; axis < XYZ_AXIS_COUNT; ++axis) {
 2170              		.loc 1 130 3 is_stmt 1 view .LVU550
 2171              	@ filter.c:130: 		const float notchQ = filterGetNotchQ(notchHz, notchCutoffHz);
 130:filter.c      **** 		for (int axis = 0; axis < XYZ_AXIS_COUNT; ++axis) {
 2172              		.loc 1 130 24 is_stmt 0 view .LVU551
 2173 05e8 FFF7FEFF 		bl	__aeabi_ui2f		@
 2174              	.LVL196:
 130:filter.c      **** 		for (int axis = 0; axis < XYZ_AXIS_COUNT; ++axis) {
 2175              		.loc 1 130 24 view .LVU552
 2176 05ec 0646     		mov	r6, r0	@ _1, tmp133
 2177 05ee 2846     		mov	r0, r5	@, notchCutoffHz
 2178 05f0 FFF7FEFF 		bl	__aeabi_ui2f		@
 2179              	.LVL197:
 2180 05f4 0146     		mov	r1, r0	@ tmp134,
 2181 05f6 3046     		mov	r0, r6	@, _1
 2182 05f8 FFF7FEFF 		bl	filterGetNotchQ		@
 2183              	.LVL198:
 2184              	.LBB70:
 2185              	@ filter.c:132: 			biquadFilterInit(&gyroSensor->notchFilter1[axis], notchHz, gyro.targetLoopTime, 
 132:filter.c      **** 		};
 2186              		.loc 1 132 4 view .LVU553
 2187 05fc DFF83480 		ldr	r8, .L87+8	@ tmp127,
 2188 0600 04F59475 		add	r5, r4, #296	@ ivtmp.85, gyroSensor,
 2189              	.LBE70:
 2190              	@ filter.c:130: 		const float notchQ = filterGetNotchQ(notchHz, notchCutoffHz);
 130:filter.c      **** 		for (int axis = 0; axis < XYZ_AXIS_COUNT; ++axis) {
 2191              		.loc 1 130 24 view .LVU554
 2192 0604 0746     		mov	r7, r0	@ notchQ, tmp135
 2193              	.LVL199:
 131:filter.c      **** 			biquadFilterInit(&gyroSensor->notchFilter1[axis], notchHz, gyro.targetLoopTime, notchQ, FILTER_N
 2194              		.loc 1 131 3 is_stmt 1 view .LVU555
 2195              	.LBB71:
 131:filter.c      **** 			biquadFilterInit(&gyroSensor->notchFilter1[axis], notchHz, gyro.targetLoopTime, notchQ, FILTER_N
 2196              		.loc 1 131 8 view .LVU556
 131:filter.c      **** 			biquadFilterInit(&gyroSensor->notchFilter1[axis], notchHz, gyro.targetLoopTime, notchQ, FILTER_N
 2197              		.loc 1 131 22 view .LVU557
 2198 0606 04F5CA74 		add	r4, r4, #404	@ _28, gyroSensor,
 2199              	.LVL200:
ARM GAS  /var/folders/_2/qbh2zpt918qcm2b_6mgyydnm0000gn/T//ccIdySvu.s 			page 51


 2200              	@ filter.c:132: 			biquadFilterInit(&gyroSensor->notchFilter1[axis], notchHz, gyro.targetLoopTime, 
 132:filter.c      **** 		};
 2201              		.loc 1 132 4 is_stmt 0 view .LVU558
 2202 060a 4FF00109 		mov	r9, #1	@ tmp128,
 2203              	.LVL201:
 2204              	.L79:
 132:filter.c      **** 		};
 2205              		.loc 1 132 4 is_stmt 1 discriminator 3 view .LVU559
 2206 060e 2846     		mov	r0, r5	@, ivtmp.85
 2207 0610 D8F80020 		ldr	r2, [r8]	@, gyro.targetLoopTime
 2208 0614 CDF80090 		str	r9, [sp]	@ tmp128,
 2209 0618 3B46     		mov	r3, r7	@, notchQ
 2210 061a 3146     		mov	r1, r6	@, _1
 2211 061c 2435     		adds	r5, r5, #36	@ ivtmp.85, ivtmp.85,
 2212 061e FFF7FEFF 		bl	biquadFilterInit		@
 2213              	.LVL202:
 131:filter.c      **** 			biquadFilterInit(&gyroSensor->notchFilter1[axis], notchHz, gyro.targetLoopTime, notchQ, FILTER_N
 2214              		.loc 1 131 45 discriminator 3 view .LVU560
 131:filter.c      **** 			biquadFilterInit(&gyroSensor->notchFilter1[axis], notchHz, gyro.targetLoopTime, notchQ, FILTER_N
 2215              		.loc 1 131 22 discriminator 3 view .LVU561
 2216              	@ filter.c:131: 		for (int axis = 0; axis < XYZ_AXIS_COUNT; ++axis) {
 131:filter.c      **** 			biquadFilterInit(&gyroSensor->notchFilter1[axis], notchHz, gyro.targetLoopTime, notchQ, FILTER_N
 2217              		.loc 1 131 3 is_stmt 0 discriminator 3 view .LVU562
 2218 0622 A542     		cmp	r5, r4	@ ivtmp.85, _28
 2219 0624 F3D1     		bne	.L79		@,
 2220              	.LVL203:
 2221              	.L77:
 131:filter.c      **** 			biquadFilterInit(&gyroSensor->notchFilter1[axis], notchHz, gyro.targetLoopTime, notchQ, FILTER_N
 2222              		.loc 1 131 3 discriminator 3 view .LVU563
 2223              	.LBE71:
 2224              	.LBE69:
 2225              	@ filter.c:135: };
 135:filter.c      **** 
 2226              		.loc 1 135 1 view .LVU564
 2227 0626 03B0     		add	sp, sp, #12	@,,
 2228              	.LCFI23:
 2229              		.cfi_def_cfa_offset 28
 2230              		@ sp needed	@
 2231 0628 BDE8F083 		pop	{r4, r5, r6, r7, r8, r9, pc}	@
 2232              	.L88:
 2233              		.align	2
 2234              	.L87:
 2235 062c 00000000 		.word	nullFilterApply
 2236 0630 00000000 		.word	biquadFilterApply
 2237 0634 00000000 		.word	gyro
 2238              		.cfi_endproc
 2239              	.LFE9:
 2240              		.size	gyroInitFilterNotch1, .-gyroInitFilterNotch1
 2241              		.align	1
 2242              		.global	gyroInitFilterNotch2
 2243              		.syntax unified
 2244              		.thumb
 2245              		.thumb_func
 2246              		.fpu softvfp
 2247              		.type	gyroInitFilterNotch2, %function
 2248              	gyroInitFilterNotch2:
 2249              	.LVL204:
ARM GAS  /var/folders/_2/qbh2zpt918qcm2b_6mgyydnm0000gn/T//ccIdySvu.s 			page 52


 2250              	.LFB10:
 137:filter.c      **** 	gyroSensor->notchFilter2ApplyFn = nullFilterApply;
 2251              		.loc 1 137 94 is_stmt 1 view -0
 2252              		.cfi_startproc
 2253              		@ args = 0, pretend = 0, frame = 0
 2254              		@ frame_needed = 0, uses_anonymous_args = 0
 138:filter.c      **** 	notchHz = calculateNyquistAdjustNotchHz(notchHz, notchCutoffHz);
 2255              		.loc 1 138 2 view .LVU566
 2256              	@ filter.c:137: void gyroInitFilterNotch2(gyroSensor_t *gyroSensor, uint16_t notchHz, uint16_t notc
 137:filter.c      **** 	gyroSensor->notchFilter2ApplyFn = nullFilterApply;
 2257              		.loc 1 137 94 is_stmt 0 view .LVU567
 2258 0638 2DE9F743 		push	{r0, r1, r2, r4, r5, r6, r7, r8, r9, lr}	@
 2259              	.LCFI24:
 2260              		.cfi_def_cfa_offset 40
 2261              		.cfi_offset 4, -28
 2262              		.cfi_offset 5, -24
 2263              		.cfi_offset 6, -20
 2264              		.cfi_offset 7, -16
 2265              		.cfi_offset 8, -12
 2266              		.cfi_offset 9, -8
 2267              		.cfi_offset 14, -4
 2268              	@ filter.c:137: void gyroInitFilterNotch2(gyroSensor_t *gyroSensor, uint16_t notchHz, uint16_t notc
 137:filter.c      **** 	gyroSensor->notchFilter2ApplyFn = nullFilterApply;
 2269              		.loc 1 137 94 view .LVU568
 2270 063c 0446     		mov	r4, r0	@ gyroSensor, tmp129
 2271              	@ filter.c:138: 	gyroSensor->notchFilter2ApplyFn = nullFilterApply;
 138:filter.c      **** 	notchHz = calculateNyquistAdjustNotchHz(notchHz, notchCutoffHz);
 2272              		.loc 1 138 34 view .LVU569
 2273 063e 174B     		ldr	r3, .L99	@ tmp123,
 2274 0640 C4F89431 		str	r3, [r4, #404]	@ tmp123, gyroSensor_9(D)->notchFilter2ApplyFn
 139:filter.c      **** 	
 2275              		.loc 1 139 2 is_stmt 1 view .LVU570
 2276              	@ filter.c:137: void gyroInitFilterNotch2(gyroSensor_t *gyroSensor, uint16_t notchHz, uint16_t notc
 137:filter.c      **** 	gyroSensor->notchFilter2ApplyFn = nullFilterApply;
 2277              		.loc 1 137 94 is_stmt 0 view .LVU571
 2278 0644 0846     		mov	r0, r1	@ tmp130, notchHz
 2279              	.LVL205:
 2280              	@ filter.c:139: 	notchHz = calculateNyquistAdjustNotchHz(notchHz, notchCutoffHz);
 139:filter.c      **** 	
 2281              		.loc 1 139 12 view .LVU572
 2282 0646 1146     		mov	r1, r2	@, notchCutoffHz
 2283              	.LVL206:
 2284              	@ filter.c:137: void gyroInitFilterNotch2(gyroSensor_t *gyroSensor, uint16_t notchHz, uint16_t notc
 137:filter.c      **** 	gyroSensor->notchFilter2ApplyFn = nullFilterApply;
 2285              		.loc 1 137 94 view .LVU573
 2286 0648 1546     		mov	r5, r2	@ notchCutoffHz, tmp131
 2287              	@ filter.c:139: 	notchHz = calculateNyquistAdjustNotchHz(notchHz, notchCutoffHz);
 139:filter.c      **** 	
 2288              		.loc 1 139 12 view .LVU574
 2289 064a FFF7FEFF 		bl	calculateNyquistAdjustNotchHz		@
 2290              	.LVL207:
 141:filter.c      **** 		gyroSensor->notchFilter2ApplyFn = (filterApplyPtr) biquadFilterApply;
 2291              		.loc 1 141 2 is_stmt 1 view .LVU575
 2292              	@ filter.c:141: 	if (notchHz != 0 && notchCutoffHz != 0) {
 141:filter.c      **** 		gyroSensor->notchFilter2ApplyFn = (filterApplyPtr) biquadFilterApply;
 2293              		.loc 1 141 5 is_stmt 0 view .LVU576
 2294 064e 10B3     		cbz	r0, .L89	@ tmp132,
ARM GAS  /var/folders/_2/qbh2zpt918qcm2b_6mgyydnm0000gn/T//ccIdySvu.s 			page 53


 2295              	@ filter.c:141: 	if (notchHz != 0 && notchCutoffHz != 0) {
 141:filter.c      **** 		gyroSensor->notchFilter2ApplyFn = (filterApplyPtr) biquadFilterApply;
 2296              		.loc 1 141 19 discriminator 1 view .LVU577
 2297 0650 0DB3     		cbz	r5, .L89	@ notchCutoffHz,
 2298              	.LBB72:
 142:filter.c      **** 		const float notchQ = filterGetNotchQ(notchHz, notchCutoffHz);
 2299              		.loc 1 142 3 is_stmt 1 view .LVU578
 2300              	@ filter.c:142: 		gyroSensor->notchFilter2ApplyFn = (filterApplyPtr) biquadFilterApply;
 142:filter.c      **** 		const float notchQ = filterGetNotchQ(notchHz, notchCutoffHz);
 2301              		.loc 1 142 35 is_stmt 0 view .LVU579
 2302 0652 134B     		ldr	r3, .L99+4	@ tmp125,
 2303 0654 C4F89431 		str	r3, [r4, #404]	@ tmp125, gyroSensor_9(D)->notchFilter2ApplyFn
 143:filter.c      **** 		for (int axis = 0; axis < XYZ_AXIS_COUNT; ++axis) {
 2304              		.loc 1 143 3 is_stmt 1 view .LVU580
 2305              	@ filter.c:143: 		const float notchQ = filterGetNotchQ(notchHz, notchCutoffHz);
 143:filter.c      **** 		for (int axis = 0; axis < XYZ_AXIS_COUNT; ++axis) {
 2306              		.loc 1 143 24 is_stmt 0 view .LVU581
 2307 0658 FFF7FEFF 		bl	__aeabi_ui2f		@
 2308              	.LVL208:
 143:filter.c      **** 		for (int axis = 0; axis < XYZ_AXIS_COUNT; ++axis) {
 2309              		.loc 1 143 24 view .LVU582
 2310 065c 0646     		mov	r6, r0	@ _1, tmp133
 2311 065e 2846     		mov	r0, r5	@, notchCutoffHz
 2312 0660 FFF7FEFF 		bl	__aeabi_ui2f		@
 2313              	.LVL209:
 2314 0664 0146     		mov	r1, r0	@ tmp134,
 2315 0666 3046     		mov	r0, r6	@, _1
 2316 0668 FFF7FEFF 		bl	filterGetNotchQ		@
 2317              	.LVL210:
 2318              	.LBB73:
 2319              	@ filter.c:145: 			biquadFilterInit(&gyroSensor->notchFilter2[axis], notchHz, gyro.targetLoopTime, 
 145:filter.c      **** 		};
 2320              		.loc 1 145 4 view .LVU583
 2321 066c DFF83480 		ldr	r8, .L99+8	@ tmp127,
 2322 0670 04F5CC75 		add	r5, r4, #408	@ ivtmp.95, gyroSensor,
 2323              	.LBE73:
 2324              	@ filter.c:143: 		const float notchQ = filterGetNotchQ(notchHz, notchCutoffHz);
 143:filter.c      **** 		for (int axis = 0; axis < XYZ_AXIS_COUNT; ++axis) {
 2325              		.loc 1 143 24 view .LVU584
 2326 0674 0746     		mov	r7, r0	@ notchQ, tmp135
 2327              	.LVL211:
 144:filter.c      **** 			biquadFilterInit(&gyroSensor->notchFilter2[axis], notchHz, gyro.targetLoopTime, notchQ, FILTER_N
 2328              		.loc 1 144 3 is_stmt 1 view .LVU585
 2329              	.LBB74:
 144:filter.c      **** 			biquadFilterInit(&gyroSensor->notchFilter2[axis], notchHz, gyro.targetLoopTime, notchQ, FILTER_N
 2330              		.loc 1 144 8 view .LVU586
 144:filter.c      **** 			biquadFilterInit(&gyroSensor->notchFilter2[axis], notchHz, gyro.targetLoopTime, notchQ, FILTER_N
 2331              		.loc 1 144 22 view .LVU587
 2332 0676 04F50174 		add	r4, r4, #516	@ _28, gyroSensor,
 2333              	.LVL212:
 2334              	@ filter.c:145: 			biquadFilterInit(&gyroSensor->notchFilter2[axis], notchHz, gyro.targetLoopTime, 
 145:filter.c      **** 		};
 2335              		.loc 1 145 4 is_stmt 0 view .LVU588
 2336 067a 4FF00109 		mov	r9, #1	@ tmp128,
 2337              	.LVL213:
 2338              	.L91:
 145:filter.c      **** 		};
ARM GAS  /var/folders/_2/qbh2zpt918qcm2b_6mgyydnm0000gn/T//ccIdySvu.s 			page 54


 2339              		.loc 1 145 4 is_stmt 1 discriminator 3 view .LVU589
 2340 067e 2846     		mov	r0, r5	@, ivtmp.95
 2341 0680 D8F80020 		ldr	r2, [r8]	@, gyro.targetLoopTime
 2342 0684 CDF80090 		str	r9, [sp]	@ tmp128,
 2343 0688 3B46     		mov	r3, r7	@, notchQ
 2344 068a 3146     		mov	r1, r6	@, _1
 2345 068c 2435     		adds	r5, r5, #36	@ ivtmp.95, ivtmp.95,
 2346 068e FFF7FEFF 		bl	biquadFilterInit		@
 2347              	.LVL214:
 144:filter.c      **** 			biquadFilterInit(&gyroSensor->notchFilter2[axis], notchHz, gyro.targetLoopTime, notchQ, FILTER_N
 2348              		.loc 1 144 45 discriminator 3 view .LVU590
 144:filter.c      **** 			biquadFilterInit(&gyroSensor->notchFilter2[axis], notchHz, gyro.targetLoopTime, notchQ, FILTER_N
 2349              		.loc 1 144 22 discriminator 3 view .LVU591
 2350              	@ filter.c:144: 		for (int axis = 0; axis < XYZ_AXIS_COUNT; ++axis) {
 144:filter.c      **** 			biquadFilterInit(&gyroSensor->notchFilter2[axis], notchHz, gyro.targetLoopTime, notchQ, FILTER_N
 2351              		.loc 1 144 3 is_stmt 0 discriminator 3 view .LVU592
 2352 0692 A542     		cmp	r5, r4	@ ivtmp.95, _28
 2353 0694 F3D1     		bne	.L91		@,
 2354              	.LVL215:
 2355              	.L89:
 144:filter.c      **** 			biquadFilterInit(&gyroSensor->notchFilter2[axis], notchHz, gyro.targetLoopTime, notchQ, FILTER_N
 2356              		.loc 1 144 3 discriminator 3 view .LVU593
 2357              	.LBE74:
 2358              	.LBE72:
 2359              	@ filter.c:148: }
 148:filter.c      **** 
 2360              		.loc 1 148 1 view .LVU594
 2361 0696 03B0     		add	sp, sp, #12	@,,
 2362              	.LCFI25:
 2363              		.cfi_def_cfa_offset 28
 2364              		@ sp needed	@
 2365 0698 BDE8F083 		pop	{r4, r5, r6, r7, r8, r9, pc}	@
 2366              	.L100:
 2367              		.align	2
 2368              	.L99:
 2369 069c 00000000 		.word	nullFilterApply
 2370 06a0 00000000 		.word	biquadFilterApply
 2371 06a4 00000000 		.word	gyro
 2372              		.cfi_endproc
 2373              	.LFE10:
 2374              		.size	gyroInitFilterNotch2, .-gyroInitFilterNotch2
 2375              		.align	1
 2376              		.global	gyroInitFilters
 2377              		.syntax unified
 2378              		.thumb
 2379              		.thumb_func
 2380              		.fpu softvfp
 2381              		.type	gyroInitFilters, %function
 2382              	gyroInitFilters:
 2383              	.LVL216:
 2384              	.LFB3:
   7:filter.c      **** 	gyroInitLowPassFilter(gyroSensor, FILTER_LOWPASS, gyroConfig.gyro_lowpass_type, gyroConfig.gyro_lo
 2385              		.loc 1 7 48 is_stmt 1 view -0
 2386              		.cfi_startproc
 2387              		@ args = 0, pretend = 0, frame = 0
 2388              		@ frame_needed = 0, uses_anonymous_args = 0
   8:filter.c      **** 	gyroInitLowPassFilter(gyroSensor, FILTER_LOWPASS2, gyroConfig.gyro_lowpass2_type, gyroConfig.gyro_
ARM GAS  /var/folders/_2/qbh2zpt918qcm2b_6mgyydnm0000gn/T//ccIdySvu.s 			page 55


 2389              		.loc 1 8 2 view .LVU596
 2390              	@ filter.c:7: void gyroInitFilters (gyroSensor_t *gyroSensor){
   7:filter.c      **** 	gyroInitLowPassFilter(gyroSensor, FILTER_LOWPASS, gyroConfig.gyro_lowpass_type, gyroConfig.gyro_lo
 2391              		.loc 1 7 48 is_stmt 0 view .LVU597
 2392 06a8 38B5     		push	{r3, r4, r5, lr}	@
 2393              	.LCFI26:
 2394              		.cfi_def_cfa_offset 16
 2395              		.cfi_offset 3, -16
 2396              		.cfi_offset 4, -12
 2397              		.cfi_offset 5, -8
 2398              		.cfi_offset 14, -4
 2399              	@ filter.c:8: 	gyroInitLowPassFilter(gyroSensor, FILTER_LOWPASS, gyroConfig.gyro_lowpass_type, gyro
   8:filter.c      **** 	gyroInitLowPassFilter(gyroSensor, FILTER_LOWPASS2, gyroConfig.gyro_lowpass2_type, gyroConfig.gyro_
 2400              		.loc 1 8 2 view .LVU598
 2401 06aa 0E4C     		ldr	r4, .L102	@ tmp121,
 2402              	@ filter.c:7: void gyroInitFilters (gyroSensor_t *gyroSensor){
   7:filter.c      **** 	gyroInitLowPassFilter(gyroSensor, FILTER_LOWPASS, gyroConfig.gyro_lowpass_type, gyroConfig.gyro_lo
 2403              		.loc 1 7 48 view .LVU599
 2404 06ac 0546     		mov	r5, r0	@ gyroSensor, tmp137
 2405              	@ filter.c:8: 	gyroInitLowPassFilter(gyroSensor, FILTER_LOWPASS, gyroConfig.gyro_lowpass_type, gyro
   8:filter.c      **** 	gyroInitLowPassFilter(gyroSensor, FILTER_LOWPASS2, gyroConfig.gyro_lowpass2_type, gyroConfig.gyro_
 2406              		.loc 1 8 2 view .LVU600
 2407 06ae 2388     		ldrh	r3, [r4]	@, gyroConfig.gyro_lowpass_Hz
 2408 06b0 627B     		ldrb	r2, [r4, #13]	@ zero_extendqisi2	@, gyroConfig.gyro_lowpass_type
 2409 06b2 0021     		movs	r1, #0	@,
 2410 06b4 FFF7FEFF 		bl	gyroInitLowPassFilter		@
 2411              	.LVL217:
   9:filter.c      **** 	gyroInitFilterNotch1(gyroSensor, gyroConfig.gyro_soft_notch_hz_1, gyroConfig.gyro_soft_notch_cutof
 2412              		.loc 1 9 2 is_stmt 1 view .LVU601
 2413 06b8 6388     		ldrh	r3, [r4, #2]	@, gyroConfig.gyro_lowpass2_Hz
 2414 06ba A27B     		ldrb	r2, [r4, #14]	@ zero_extendqisi2	@, gyroConfig.gyro_lowpass2_type
 2415 06bc 2846     		mov	r0, r5	@, gyroSensor
 2416 06be 0121     		movs	r1, #1	@,
 2417 06c0 FFF7FEFF 		bl	gyroInitLowPassFilter		@
 2418              	.LVL218:
  10:filter.c      **** 	gyroInitFilterNotch2(gyroSensor, gyroConfig.gyro_soft_notch_hz_2, gyroConfig.gyro_soft_notch_cutof
 2419              		.loc 1 10 2 view .LVU602
 2420 06c4 E288     		ldrh	r2, [r4, #6]	@, gyroConfig.gyro_soft_notch_cutoff_1
 2421 06c6 A188     		ldrh	r1, [r4, #4]	@, gyroConfig.gyro_soft_notch_hz_1
 2422 06c8 2846     		mov	r0, r5	@, gyroSensor
 2423 06ca FFF7FEFF 		bl	gyroInitFilterNotch1		@
 2424              	.LVL219:
  11:filter.c      **** 	gyroInitFilterDynNotch(gyroSensor);
 2425              		.loc 1 11 2 view .LVU603
 2426 06ce 2846     		mov	r0, r5	@, gyroSensor
 2427 06d0 6289     		ldrh	r2, [r4, #10]	@, gyroConfig.gyro_soft_notch_cutoff_2
 2428 06d2 2189     		ldrh	r1, [r4, #8]	@, gyroConfig.gyro_soft_notch_hz_2
 2429 06d4 FFF7FEFF 		bl	gyroInitFilterNotch2		@
 2430              	.LVL220:
  12:filter.c      **** 	
 2431              		.loc 1 12 2 view .LVU604
 2432 06d8 2846     		mov	r0, r5	@, gyroSensor
 2433              	@ filter.c:14: };
  14:filter.c      **** 
 2434              		.loc 1 14 1 is_stmt 0 view .LVU605
 2435 06da BDE83840 		pop	{r3, r4, r5, lr}	@
 2436              	.LCFI27:
ARM GAS  /var/folders/_2/qbh2zpt918qcm2b_6mgyydnm0000gn/T//ccIdySvu.s 			page 56


 2437              		.cfi_restore 14
 2438              		.cfi_restore 5
 2439              		.cfi_restore 4
 2440              		.cfi_restore 3
 2441              		.cfi_def_cfa_offset 0
 2442              	.LVL221:
 2443              	@ filter.c:12: 	gyroInitFilterDynNotch(gyroSensor);
  12:filter.c      **** 	
 2444              		.loc 1 12 2 view .LVU606
 2445 06de FFF7FEBF 		b	gyroInitFilterDynNotch		@
 2446              	.LVL222:
 2447              	.L103:
  12:filter.c      **** 	
 2448              		.loc 1 12 2 view .LVU607
 2449 06e2 00BF     		.align	2
 2450              	.L102:
 2451 06e4 00000000 		.word	gyroConfig
 2452              		.cfi_endproc
 2453              	.LFE3:
 2454              		.size	gyroInitFilters, .-gyroInitFilters
 2455              		.comm	gyroSensor,628,4
 2456              		.comm	dtermPT1,24,4
 2457              		.comm	dtermLowpassFilter2Apply,4,4
 2458              		.comm	dtermLowpass,108,4
 2459              		.comm	dtermLowpassFilterApply,4,4
 2460              		.comm	dtermNotch,108,4
 2461              		.comm	dtermNotchFilterApply,4,4
 2462              		.comm	accelFilter,108,4
 2463              	.Letext0:
 2464              		.file 2 "/usr/local/Cellar/arm-none-eabi-gcc/9-2019-q4-major/gcc/arm-none-eabi/include/machine/_de
 2465              		.file 3 "/usr/local/Cellar/arm-none-eabi-gcc/9-2019-q4-major/gcc/arm-none-eabi/include/sys/lock.h"
 2466              		.file 4 "/usr/local/Cellar/arm-none-eabi-gcc/9-2019-q4-major/gcc/arm-none-eabi/include/sys/_types.
 2467              		.file 5 "/usr/local/Cellar/arm-none-eabi-gcc/9-2019-q4-major/gcc/lib/gcc/arm-none-eabi/9.2.1/inclu
 2468              		.file 6 "/usr/local/Cellar/arm-none-eabi-gcc/9-2019-q4-major/gcc/arm-none-eabi/include/sys/reent.h
 2469              		.file 7 "/usr/local/Cellar/arm-none-eabi-gcc/9-2019-q4-major/gcc/arm-none-eabi/include/stdlib.h"
 2470              		.file 8 "/usr/local/Cellar/arm-none-eabi-gcc/9-2019-q4-major/gcc/arm-none-eabi/include/sys/_stdint
 2471              		.file 9 "filter.h"
 2472              		.file 10 "/usr/local/Cellar/arm-none-eabi-gcc/9-2019-q4-major/gcc/arm-none-eabi/include/math.h"
 2473              		.file 11 "maths.h"
 2474              		.section	.debug_info,"",%progbits
 2475              	.Ldebug_info0:
 2476 0000 C31D0000 		.4byte	0x1dc3
 2477 0004 0200     		.2byte	0x2
 2478 0006 00000000 		.4byte	.Ldebug_abbrev0
 2479 000a 04       		.byte	0x4
 2480 000b 01       		.uleb128 0x1
 2481 000c E2040000 		.4byte	.LASF248
 2482 0010 0C       		.byte	0xc
 2483 0011 C4080000 		.4byte	.LASF249
 2484 0015 6D070000 		.4byte	.LASF250
 2485 0019 00000000 		.4byte	.Ltext0
 2486 001d E8060000 		.4byte	.Letext0
 2487 0021 00000000 		.4byte	.Ldebug_line0
 2488 0025 02       		.uleb128 0x2
 2489 0026 04       		.byte	0x4
 2490 0027 04       		.byte	0x4
 2491 0028 13030000 		.4byte	.LASF0
ARM GAS  /var/folders/_2/qbh2zpt918qcm2b_6mgyydnm0000gn/T//ccIdySvu.s 			page 57


 2492 002c 02       		.uleb128 0x2
 2493 002d 08       		.byte	0x8
 2494 002e 04       		.byte	0x4
 2495 002f 050D0000 		.4byte	.LASF1
 2496 0033 02       		.uleb128 0x2
 2497 0034 04       		.byte	0x4
 2498 0035 07       		.byte	0x7
 2499 0036 2A010000 		.4byte	.LASF2
 2500 003a 03       		.uleb128 0x3
 2501 003b 04       		.byte	0x4
 2502 003c 05       		.byte	0x5
 2503 003d 696E7400 		.ascii	"int\000"
 2504 0041 02       		.uleb128 0x2
 2505 0042 08       		.byte	0x8
 2506 0043 05       		.byte	0x5
 2507 0044 24070000 		.4byte	.LASF3
 2508 0048 02       		.uleb128 0x2
 2509 0049 08       		.byte	0x8
 2510 004a 04       		.byte	0x4
 2511 004b E2080000 		.4byte	.LASF4
 2512 004f 02       		.uleb128 0x2
 2513 0050 01       		.byte	0x1
 2514 0051 06       		.byte	0x6
 2515 0052 990C0000 		.4byte	.LASF5
 2516 0056 04       		.uleb128 0x4
 2517 0057 610A0000 		.4byte	.LASF7
 2518 005b 02       		.byte	0x2
 2519 005c 2B       		.byte	0x2b
 2520 005d 18       		.byte	0x18
 2521 005e 62000000 		.4byte	0x62
 2522 0062 02       		.uleb128 0x2
 2523 0063 01       		.byte	0x1
 2524 0064 08       		.byte	0x8
 2525 0065 A60B0000 		.4byte	.LASF6
 2526 0069 04       		.uleb128 0x4
 2527 006a B4070000 		.4byte	.LASF8
 2528 006e 02       		.byte	0x2
 2529 006f 37       		.byte	0x37
 2530 0070 18       		.byte	0x18
 2531 0071 75000000 		.4byte	0x75
 2532 0075 02       		.uleb128 0x2
 2533 0076 02       		.byte	0x2
 2534 0077 05       		.byte	0x5
 2535 0078 87090000 		.4byte	.LASF9
 2536 007c 04       		.uleb128 0x4
 2537 007d C6030000 		.4byte	.LASF10
 2538 0081 02       		.byte	0x2
 2539 0082 39       		.byte	0x39
 2540 0083 19       		.byte	0x19
 2541 0084 88000000 		.4byte	0x88
 2542 0088 02       		.uleb128 0x2
 2543 0089 02       		.byte	0x2
 2544 008a 07       		.byte	0x7
 2545 008b AC0C0000 		.4byte	.LASF11
 2546 008f 04       		.uleb128 0x4
 2547 0090 72010000 		.4byte	.LASF12
 2548 0094 02       		.byte	0x2
ARM GAS  /var/folders/_2/qbh2zpt918qcm2b_6mgyydnm0000gn/T//ccIdySvu.s 			page 58


 2549 0095 4D       		.byte	0x4d
 2550 0096 18       		.byte	0x18
 2551 0097 9B000000 		.4byte	0x9b
 2552 009b 02       		.uleb128 0x2
 2553 009c 04       		.byte	0x4
 2554 009d 05       		.byte	0x5
 2555 009e B5090000 		.4byte	.LASF13
 2556 00a2 04       		.uleb128 0x4
 2557 00a3 BE0B0000 		.4byte	.LASF14
 2558 00a7 02       		.byte	0x2
 2559 00a8 4F       		.byte	0x4f
 2560 00a9 19       		.byte	0x19
 2561 00aa AE000000 		.4byte	0xae
 2562 00ae 02       		.uleb128 0x2
 2563 00af 04       		.byte	0x4
 2564 00b0 07       		.byte	0x7
 2565 00b1 040B0000 		.4byte	.LASF15
 2566 00b5 02       		.uleb128 0x2
 2567 00b6 08       		.byte	0x8
 2568 00b7 07       		.byte	0x7
 2569 00b8 8C030000 		.4byte	.LASF16
 2570 00bc 04       		.uleb128 0x4
 2571 00bd EE080000 		.4byte	.LASF17
 2572 00c1 03       		.byte	0x3
 2573 00c2 22       		.byte	0x22
 2574 00c3 19       		.byte	0x19
 2575 00c4 C8000000 		.4byte	0xc8
 2576 00c8 05       		.uleb128 0x5
 2577 00c9 04       		.byte	0x4
 2578 00ca CE000000 		.4byte	0xce
 2579 00ce 06       		.uleb128 0x6
 2580 00cf 4D0B0000 		.4byte	.LASF124
 2581 00d3 01       		.byte	0x1
 2582 00d4 04       		.uleb128 0x4
 2583 00d5 0C0D0000 		.4byte	.LASF18
 2584 00d9 04       		.byte	0x4
 2585 00da 2C       		.byte	0x2c
 2586 00db 0E       		.byte	0xe
 2587 00dc 9B000000 		.4byte	0x9b
 2588 00e0 04       		.uleb128 0x4
 2589 00e1 33020000 		.4byte	.LASF19
 2590 00e5 04       		.byte	0x4
 2591 00e6 72       		.byte	0x72
 2592 00e7 0E       		.byte	0xe
 2593 00e8 9B000000 		.4byte	0x9b
 2594 00ec 07       		.uleb128 0x7
 2595 00ed 1D0B0000 		.4byte	.LASF20
 2596 00f1 05       		.byte	0x5
 2597 00f2 5E01     		.2byte	0x15e
 2598 00f4 17       		.byte	0x17
 2599 00f5 33000000 		.4byte	0x33
 2600 00f9 08       		.uleb128 0x8
 2601 00fa 04       		.byte	0x4
 2602 00fb 04       		.byte	0x4
 2603 00fc A6       		.byte	0xa6
 2604 00fd 03       		.byte	0x3
 2605 00fe 1B010000 		.4byte	0x11b
ARM GAS  /var/folders/_2/qbh2zpt918qcm2b_6mgyydnm0000gn/T//ccIdySvu.s 			page 59


 2606 0102 09       		.uleb128 0x9
 2607 0103 AA060000 		.4byte	.LASF21
 2608 0107 04       		.byte	0x4
 2609 0108 A8       		.byte	0xa8
 2610 0109 0C       		.byte	0xc
 2611 010a EC000000 		.4byte	0xec
 2612 010e 09       		.uleb128 0x9
 2613 010f 180A0000 		.4byte	.LASF22
 2614 0113 04       		.byte	0x4
 2615 0114 A9       		.byte	0xa9
 2616 0115 13       		.byte	0x13
 2617 0116 1B010000 		.4byte	0x11b
 2618 011a 00       		.byte	0
 2619 011b 0A       		.uleb128 0xa
 2620 011c 62000000 		.4byte	0x62
 2621 0120 2B010000 		.4byte	0x12b
 2622 0124 0B       		.uleb128 0xb
 2623 0125 33000000 		.4byte	0x33
 2624 0129 03       		.byte	0x3
 2625 012a 00       		.byte	0
 2626 012b 0C       		.uleb128 0xc
 2627 012c 08       		.byte	0x8
 2628 012d 04       		.byte	0x4
 2629 012e A3       		.byte	0xa3
 2630 012f 09       		.byte	0x9
 2631 0130 53010000 		.4byte	0x153
 2632 0134 0D       		.uleb128 0xd
 2633 0135 0B030000 		.4byte	.LASF23
 2634 0139 04       		.byte	0x4
 2635 013a A5       		.byte	0xa5
 2636 013b 07       		.byte	0x7
 2637 013c 3A000000 		.4byte	0x3a
 2638 0140 02       		.byte	0x2
 2639 0141 23       		.byte	0x23
 2640 0142 00       		.uleb128 0
 2641 0143 0D       		.uleb128 0xd
 2642 0144 B9050000 		.4byte	.LASF24
 2643 0148 04       		.byte	0x4
 2644 0149 AA       		.byte	0xaa
 2645 014a 05       		.byte	0x5
 2646 014b F9000000 		.4byte	0xf9
 2647 014f 02       		.byte	0x2
 2648 0150 23       		.byte	0x23
 2649 0151 04       		.uleb128 0x4
 2650 0152 00       		.byte	0
 2651 0153 04       		.uleb128 0x4
 2652 0154 21080000 		.4byte	.LASF25
 2653 0158 04       		.byte	0x4
 2654 0159 AB       		.byte	0xab
 2655 015a 03       		.byte	0x3
 2656 015b 2B010000 		.4byte	0x12b
 2657 015f 04       		.uleb128 0x4
 2658 0160 6D060000 		.4byte	.LASF26
 2659 0164 04       		.byte	0x4
 2660 0165 AF       		.byte	0xaf
 2661 0166 1B       		.byte	0x1b
 2662 0167 BC000000 		.4byte	0xbc
ARM GAS  /var/folders/_2/qbh2zpt918qcm2b_6mgyydnm0000gn/T//ccIdySvu.s 			page 60


 2663 016b 0E       		.uleb128 0xe
 2664 016c 04       		.byte	0x4
 2665 016d 05       		.uleb128 0x5
 2666 016e 04       		.byte	0x4
 2667 016f 73010000 		.4byte	0x173
 2668 0173 02       		.uleb128 0x2
 2669 0174 01       		.byte	0x1
 2670 0175 08       		.byte	0x8
 2671 0176 28060000 		.4byte	.LASF27
 2672 017a 0F       		.uleb128 0xf
 2673 017b 73010000 		.4byte	0x173
 2674 017f 04       		.uleb128 0x4
 2675 0180 48070000 		.4byte	.LASF28
 2676 0184 06       		.byte	0x6
 2677 0185 16       		.byte	0x16
 2678 0186 19       		.byte	0x19
 2679 0187 AE000000 		.4byte	0xae
 2680 018b 10       		.uleb128 0x10
 2681 018c 67020000 		.4byte	.LASF33
 2682 0190 18       		.byte	0x18
 2683 0191 06       		.byte	0x6
 2684 0192 2F       		.byte	0x2f
 2685 0193 08       		.byte	0x8
 2686 0194 F1010000 		.4byte	0x1f1
 2687 0198 0D       		.uleb128 0xd
 2688 0199 8D050000 		.4byte	.LASF29
 2689 019d 06       		.byte	0x6
 2690 019e 31       		.byte	0x31
 2691 019f 13       		.byte	0x13
 2692 01a0 F1010000 		.4byte	0x1f1
 2693 01a4 02       		.byte	0x2
 2694 01a5 23       		.byte	0x23
 2695 01a6 00       		.uleb128 0
 2696 01a7 11       		.uleb128 0x11
 2697 01a8 5F6B00   		.ascii	"_k\000"
 2698 01ab 06       		.byte	0x6
 2699 01ac 32       		.byte	0x32
 2700 01ad 07       		.byte	0x7
 2701 01ae 3A000000 		.4byte	0x3a
 2702 01b2 02       		.byte	0x2
 2703 01b3 23       		.byte	0x23
 2704 01b4 04       		.uleb128 0x4
 2705 01b5 0D       		.uleb128 0xd
 2706 01b6 830A0000 		.4byte	.LASF30
 2707 01ba 06       		.byte	0x6
 2708 01bb 32       		.byte	0x32
 2709 01bc 0B       		.byte	0xb
 2710 01bd 3A000000 		.4byte	0x3a
 2711 01c1 02       		.byte	0x2
 2712 01c2 23       		.byte	0x23
 2713 01c3 08       		.uleb128 0x8
 2714 01c4 0D       		.uleb128 0xd
 2715 01c5 DE090000 		.4byte	.LASF31
 2716 01c9 06       		.byte	0x6
 2717 01ca 32       		.byte	0x32
 2718 01cb 14       		.byte	0x14
 2719 01cc 3A000000 		.4byte	0x3a
ARM GAS  /var/folders/_2/qbh2zpt918qcm2b_6mgyydnm0000gn/T//ccIdySvu.s 			page 61


 2720 01d0 02       		.byte	0x2
 2721 01d1 23       		.byte	0x23
 2722 01d2 0C       		.uleb128 0xc
 2723 01d3 0D       		.uleb128 0xd
 2724 01d4 B8030000 		.4byte	.LASF32
 2725 01d8 06       		.byte	0x6
 2726 01d9 32       		.byte	0x32
 2727 01da 1B       		.byte	0x1b
 2728 01db 3A000000 		.4byte	0x3a
 2729 01df 02       		.byte	0x2
 2730 01e0 23       		.byte	0x23
 2731 01e1 10       		.uleb128 0x10
 2732 01e2 11       		.uleb128 0x11
 2733 01e3 5F7800   		.ascii	"_x\000"
 2734 01e6 06       		.byte	0x6
 2735 01e7 33       		.byte	0x33
 2736 01e8 0B       		.byte	0xb
 2737 01e9 F7010000 		.4byte	0x1f7
 2738 01ed 02       		.byte	0x2
 2739 01ee 23       		.byte	0x23
 2740 01ef 14       		.uleb128 0x14
 2741 01f0 00       		.byte	0
 2742 01f1 05       		.uleb128 0x5
 2743 01f2 04       		.byte	0x4
 2744 01f3 8B010000 		.4byte	0x18b
 2745 01f7 0A       		.uleb128 0xa
 2746 01f8 7F010000 		.4byte	0x17f
 2747 01fc 07020000 		.4byte	0x207
 2748 0200 0B       		.uleb128 0xb
 2749 0201 33000000 		.4byte	0x33
 2750 0205 00       		.byte	0
 2751 0206 00       		.byte	0
 2752 0207 10       		.uleb128 0x10
 2753 0208 E10A0000 		.4byte	.LASF34
 2754 020c 24       		.byte	0x24
 2755 020d 06       		.byte	0x6
 2756 020e 37       		.byte	0x37
 2757 020f 08       		.byte	0x8
 2758 0210 9C020000 		.4byte	0x29c
 2759 0214 0D       		.uleb128 0xd
 2760 0215 7E040000 		.4byte	.LASF35
 2761 0219 06       		.byte	0x6
 2762 021a 39       		.byte	0x39
 2763 021b 09       		.byte	0x9
 2764 021c 3A000000 		.4byte	0x3a
 2765 0220 02       		.byte	0x2
 2766 0221 23       		.byte	0x23
 2767 0222 00       		.uleb128 0
 2768 0223 0D       		.uleb128 0xd
 2769 0224 36030000 		.4byte	.LASF36
 2770 0228 06       		.byte	0x6
 2771 0229 3A       		.byte	0x3a
 2772 022a 09       		.byte	0x9
 2773 022b 3A000000 		.4byte	0x3a
 2774 022f 02       		.byte	0x2
 2775 0230 23       		.byte	0x23
 2776 0231 04       		.uleb128 0x4
ARM GAS  /var/folders/_2/qbh2zpt918qcm2b_6mgyydnm0000gn/T//ccIdySvu.s 			page 62


 2777 0232 0D       		.uleb128 0xd
 2778 0233 CD020000 		.4byte	.LASF37
 2779 0237 06       		.byte	0x6
 2780 0238 3B       		.byte	0x3b
 2781 0239 09       		.byte	0x9
 2782 023a 3A000000 		.4byte	0x3a
 2783 023e 02       		.byte	0x2
 2784 023f 23       		.byte	0x23
 2785 0240 08       		.uleb128 0x8
 2786 0241 0D       		.uleb128 0xd
 2787 0242 2D060000 		.4byte	.LASF38
 2788 0246 06       		.byte	0x6
 2789 0247 3C       		.byte	0x3c
 2790 0248 09       		.byte	0x9
 2791 0249 3A000000 		.4byte	0x3a
 2792 024d 02       		.byte	0x2
 2793 024e 23       		.byte	0x23
 2794 024f 0C       		.uleb128 0xc
 2795 0250 0D       		.uleb128 0xd
 2796 0251 D9080000 		.4byte	.LASF39
 2797 0255 06       		.byte	0x6
 2798 0256 3D       		.byte	0x3d
 2799 0257 09       		.byte	0x9
 2800 0258 3A000000 		.4byte	0x3a
 2801 025c 02       		.byte	0x2
 2802 025d 23       		.byte	0x23
 2803 025e 10       		.uleb128 0x10
 2804 025f 0D       		.uleb128 0xd
 2805 0260 320A0000 		.4byte	.LASF40
 2806 0264 06       		.byte	0x6
 2807 0265 3E       		.byte	0x3e
 2808 0266 09       		.byte	0x9
 2809 0267 3A000000 		.4byte	0x3a
 2810 026b 02       		.byte	0x2
 2811 026c 23       		.byte	0x23
 2812 026d 14       		.uleb128 0x14
 2813 026e 0D       		.uleb128 0xd
 2814 026f 7A020000 		.4byte	.LASF41
 2815 0273 06       		.byte	0x6
 2816 0274 3F       		.byte	0x3f
 2817 0275 09       		.byte	0x9
 2818 0276 3A000000 		.4byte	0x3a
 2819 027a 02       		.byte	0x2
 2820 027b 23       		.byte	0x23
 2821 027c 18       		.uleb128 0x18
 2822 027d 0D       		.uleb128 0xd
 2823 027e AF040000 		.4byte	.LASF42
 2824 0282 06       		.byte	0x6
 2825 0283 40       		.byte	0x40
 2826 0284 09       		.byte	0x9
 2827 0285 3A000000 		.4byte	0x3a
 2828 0289 02       		.byte	0x2
 2829 028a 23       		.byte	0x23
 2830 028b 1C       		.uleb128 0x1c
 2831 028c 0D       		.uleb128 0xd
 2832 028d 84080000 		.4byte	.LASF43
 2833 0291 06       		.byte	0x6
ARM GAS  /var/folders/_2/qbh2zpt918qcm2b_6mgyydnm0000gn/T//ccIdySvu.s 			page 63


 2834 0292 41       		.byte	0x41
 2835 0293 09       		.byte	0x9
 2836 0294 3A000000 		.4byte	0x3a
 2837 0298 02       		.byte	0x2
 2838 0299 23       		.byte	0x23
 2839 029a 20       		.uleb128 0x20
 2840 029b 00       		.byte	0
 2841 029c 12       		.uleb128 0x12
 2842 029d CB000000 		.4byte	.LASF44
 2843 02a1 0801     		.2byte	0x108
 2844 02a3 06       		.byte	0x6
 2845 02a4 4A       		.byte	0x4a
 2846 02a5 08       		.byte	0x8
 2847 02a6 EA020000 		.4byte	0x2ea
 2848 02aa 0D       		.uleb128 0xd
 2849 02ab 910C0000 		.4byte	.LASF45
 2850 02af 06       		.byte	0x6
 2851 02b0 4B       		.byte	0x4b
 2852 02b1 0A       		.byte	0xa
 2853 02b2 EA020000 		.4byte	0x2ea
 2854 02b6 02       		.byte	0x2
 2855 02b7 23       		.byte	0x23
 2856 02b8 00       		.uleb128 0
 2857 02b9 0D       		.uleb128 0xd
 2858 02ba 410B0000 		.4byte	.LASF46
 2859 02be 06       		.byte	0x6
 2860 02bf 4C       		.byte	0x4c
 2861 02c0 09       		.byte	0x9
 2862 02c1 EA020000 		.4byte	0x2ea
 2863 02c5 03       		.byte	0x3
 2864 02c6 23       		.byte	0x23
 2865 02c7 8001     		.uleb128 0x80
 2866 02c9 0D       		.uleb128 0xd
 2867 02ca D70C0000 		.4byte	.LASF47
 2868 02ce 06       		.byte	0x6
 2869 02cf 4E       		.byte	0x4e
 2870 02d0 0A       		.byte	0xa
 2871 02d1 7F010000 		.4byte	0x17f
 2872 02d5 03       		.byte	0x3
 2873 02d6 23       		.byte	0x23
 2874 02d7 8002     		.uleb128 0x100
 2875 02d9 0D       		.uleb128 0xd
 2876 02da 590D0000 		.4byte	.LASF48
 2877 02de 06       		.byte	0x6
 2878 02df 51       		.byte	0x51
 2879 02e0 0A       		.byte	0xa
 2880 02e1 7F010000 		.4byte	0x17f
 2881 02e5 03       		.byte	0x3
 2882 02e6 23       		.byte	0x23
 2883 02e7 8402     		.uleb128 0x104
 2884 02e9 00       		.byte	0
 2885 02ea 0A       		.uleb128 0xa
 2886 02eb 6B010000 		.4byte	0x16b
 2887 02ef FA020000 		.4byte	0x2fa
 2888 02f3 0B       		.uleb128 0xb
 2889 02f4 33000000 		.4byte	0x33
 2890 02f8 1F       		.byte	0x1f
ARM GAS  /var/folders/_2/qbh2zpt918qcm2b_6mgyydnm0000gn/T//ccIdySvu.s 			page 64


 2891 02f9 00       		.byte	0
 2892 02fa 12       		.uleb128 0x12
 2893 02fb 76090000 		.4byte	.LASF49
 2894 02ff 9001     		.2byte	0x190
 2895 0301 06       		.byte	0x6
 2896 0302 5D       		.byte	0x5d
 2897 0303 08       		.byte	0x8
 2898 0304 46030000 		.4byte	0x346
 2899 0308 0D       		.uleb128 0xd
 2900 0309 8D050000 		.4byte	.LASF29
 2901 030d 06       		.byte	0x6
 2902 030e 5E       		.byte	0x5e
 2903 030f 12       		.byte	0x12
 2904 0310 46030000 		.4byte	0x346
 2905 0314 02       		.byte	0x2
 2906 0315 23       		.byte	0x23
 2907 0316 00       		.uleb128 0
 2908 0317 0D       		.uleb128 0xd
 2909 0318 BE040000 		.4byte	.LASF50
 2910 031c 06       		.byte	0x6
 2911 031d 5F       		.byte	0x5f
 2912 031e 06       		.byte	0x6
 2913 031f 3A000000 		.4byte	0x3a
 2914 0323 02       		.byte	0x2
 2915 0324 23       		.byte	0x23
 2916 0325 04       		.uleb128 0x4
 2917 0326 0D       		.uleb128 0xd
 2918 0327 3B020000 		.4byte	.LASF51
 2919 032b 06       		.byte	0x6
 2920 032c 61       		.byte	0x61
 2921 032d 09       		.byte	0x9
 2922 032e 4C030000 		.4byte	0x34c
 2923 0332 02       		.byte	0x2
 2924 0333 23       		.byte	0x23
 2925 0334 08       		.uleb128 0x8
 2926 0335 0D       		.uleb128 0xd
 2927 0336 CB000000 		.4byte	.LASF44
 2928 033a 06       		.byte	0x6
 2929 033b 62       		.byte	0x62
 2930 033c 1E       		.byte	0x1e
 2931 033d 9C020000 		.4byte	0x29c
 2932 0341 03       		.byte	0x3
 2933 0342 23       		.byte	0x23
 2934 0343 8801     		.uleb128 0x88
 2935 0345 00       		.byte	0
 2936 0346 05       		.uleb128 0x5
 2937 0347 04       		.byte	0x4
 2938 0348 FA020000 		.4byte	0x2fa
 2939 034c 0A       		.uleb128 0xa
 2940 034d 5C030000 		.4byte	0x35c
 2941 0351 5C030000 		.4byte	0x35c
 2942 0355 0B       		.uleb128 0xb
 2943 0356 33000000 		.4byte	0x33
 2944 035a 1F       		.byte	0x1f
 2945 035b 00       		.byte	0
 2946 035c 05       		.uleb128 0x5
 2947 035d 04       		.byte	0x4
ARM GAS  /var/folders/_2/qbh2zpt918qcm2b_6mgyydnm0000gn/T//ccIdySvu.s 			page 65


 2948 035e 62030000 		.4byte	0x362
 2949 0362 13       		.uleb128 0x13
 2950 0363 01       		.byte	0x1
 2951 0364 10       		.uleb128 0x10
 2952 0365 0C0C0000 		.4byte	.LASF52
 2953 0369 08       		.byte	0x8
 2954 036a 06       		.byte	0x6
 2955 036b 75       		.byte	0x75
 2956 036c 08       		.byte	0x8
 2957 036d 90030000 		.4byte	0x390
 2958 0371 0D       		.uleb128 0xd
 2959 0372 32070000 		.4byte	.LASF53
 2960 0376 06       		.byte	0x6
 2961 0377 76       		.byte	0x76
 2962 0378 11       		.byte	0x11
 2963 0379 90030000 		.4byte	0x390
 2964 037d 02       		.byte	0x2
 2965 037e 23       		.byte	0x23
 2966 037f 00       		.uleb128 0
 2967 0380 0D       		.uleb128 0xd
 2968 0381 FF0C0000 		.4byte	.LASF54
 2969 0385 06       		.byte	0x6
 2970 0386 77       		.byte	0x77
 2971 0387 06       		.byte	0x6
 2972 0388 3A000000 		.4byte	0x3a
 2973 038c 02       		.byte	0x2
 2974 038d 23       		.byte	0x23
 2975 038e 04       		.uleb128 0x4
 2976 038f 00       		.byte	0
 2977 0390 05       		.uleb128 0x5
 2978 0391 04       		.byte	0x4
 2979 0392 62000000 		.4byte	0x62
 2980 0396 10       		.uleb128 0x10
 2981 0397 B0030000 		.4byte	.LASF55
 2982 039b 68       		.byte	0x68
 2983 039c 06       		.byte	0x6
 2984 039d B5       		.byte	0xb5
 2985 039e 08       		.byte	0x8
 2986 039f 09050000 		.4byte	0x509
 2987 03a3 11       		.uleb128 0x11
 2988 03a4 5F7000   		.ascii	"_p\000"
 2989 03a7 06       		.byte	0x6
 2990 03a8 B6       		.byte	0xb6
 2991 03a9 12       		.byte	0x12
 2992 03aa 90030000 		.4byte	0x390
 2993 03ae 02       		.byte	0x2
 2994 03af 23       		.byte	0x23
 2995 03b0 00       		.uleb128 0
 2996 03b1 11       		.uleb128 0x11
 2997 03b2 5F7200   		.ascii	"_r\000"
 2998 03b5 06       		.byte	0x6
 2999 03b6 B7       		.byte	0xb7
 3000 03b7 07       		.byte	0x7
 3001 03b8 3A000000 		.4byte	0x3a
 3002 03bc 02       		.byte	0x2
 3003 03bd 23       		.byte	0x23
 3004 03be 04       		.uleb128 0x4
ARM GAS  /var/folders/_2/qbh2zpt918qcm2b_6mgyydnm0000gn/T//ccIdySvu.s 			page 66


 3005 03bf 11       		.uleb128 0x11
 3006 03c0 5F7700   		.ascii	"_w\000"
 3007 03c3 06       		.byte	0x6
 3008 03c4 B8       		.byte	0xb8
 3009 03c5 07       		.byte	0x7
 3010 03c6 3A000000 		.4byte	0x3a
 3011 03ca 02       		.byte	0x2
 3012 03cb 23       		.byte	0x23
 3013 03cc 08       		.uleb128 0x8
 3014 03cd 0D       		.uleb128 0xd
 3015 03ce 6B010000 		.4byte	.LASF56
 3016 03d2 06       		.byte	0x6
 3017 03d3 B9       		.byte	0xb9
 3018 03d4 09       		.byte	0x9
 3019 03d5 75000000 		.4byte	0x75
 3020 03d9 02       		.byte	0x2
 3021 03da 23       		.byte	0x23
 3022 03db 0C       		.uleb128 0xc
 3023 03dc 0D       		.uleb128 0xd
 3024 03dd 97070000 		.4byte	.LASF57
 3025 03e1 06       		.byte	0x6
 3026 03e2 BA       		.byte	0xba
 3027 03e3 09       		.byte	0x9
 3028 03e4 75000000 		.4byte	0x75
 3029 03e8 02       		.byte	0x2
 3030 03e9 23       		.byte	0x23
 3031 03ea 0E       		.uleb128 0xe
 3032 03eb 11       		.uleb128 0x11
 3033 03ec 5F626600 		.ascii	"_bf\000"
 3034 03f0 06       		.byte	0x6
 3035 03f1 BB       		.byte	0xbb
 3036 03f2 11       		.byte	0x11
 3037 03f3 64030000 		.4byte	0x364
 3038 03f7 02       		.byte	0x2
 3039 03f8 23       		.byte	0x23
 3040 03f9 10       		.uleb128 0x10
 3041 03fa 0D       		.uleb128 0xd
 3042 03fb 62010000 		.4byte	.LASF58
 3043 03ff 06       		.byte	0x6
 3044 0400 BC       		.byte	0xbc
 3045 0401 07       		.byte	0x7
 3046 0402 3A000000 		.4byte	0x3a
 3047 0406 02       		.byte	0x2
 3048 0407 23       		.byte	0x23
 3049 0408 18       		.uleb128 0x18
 3050 0409 0D       		.uleb128 0xd
 3051 040a 4F020000 		.4byte	.LASF59
 3052 040e 06       		.byte	0x6
 3053 040f C3       		.byte	0xc3
 3054 0410 0A       		.byte	0xa
 3055 0411 6B010000 		.4byte	0x16b
 3056 0415 02       		.byte	0x2
 3057 0416 23       		.byte	0x23
 3058 0417 1C       		.uleb128 0x1c
 3059 0418 0D       		.uleb128 0xd
 3060 0419 EB010000 		.4byte	.LASF60
 3061 041d 06       		.byte	0x6
ARM GAS  /var/folders/_2/qbh2zpt918qcm2b_6mgyydnm0000gn/T//ccIdySvu.s 			page 67


 3062 041e C5       		.byte	0xc5
 3063 041f 1D       		.byte	0x1d
 3064 0420 A8060000 		.4byte	0x6a8
 3065 0424 02       		.byte	0x2
 3066 0425 23       		.byte	0x23
 3067 0426 20       		.uleb128 0x20
 3068 0427 0D       		.uleb128 0xd
 3069 0428 2F090000 		.4byte	.LASF61
 3070 042c 06       		.byte	0x6
 3071 042d C7       		.byte	0xc7
 3072 042e 1D       		.byte	0x1d
 3073 042f D3060000 		.4byte	0x6d3
 3074 0433 02       		.byte	0x2
 3075 0434 23       		.byte	0x23
 3076 0435 24       		.uleb128 0x24
 3077 0436 0D       		.uleb128 0xd
 3078 0437 880D0000 		.4byte	.LASF62
 3079 043b 06       		.byte	0x6
 3080 043c CA       		.byte	0xca
 3081 043d 0D       		.byte	0xd
 3082 043e F8060000 		.4byte	0x6f8
 3083 0442 02       		.byte	0x2
 3084 0443 23       		.byte	0x23
 3085 0444 28       		.uleb128 0x28
 3086 0445 0D       		.uleb128 0xd
 3087 0446 C9060000 		.4byte	.LASF63
 3088 044a 06       		.byte	0x6
 3089 044b CB       		.byte	0xcb
 3090 044c 09       		.byte	0x9
 3091 044d 13070000 		.4byte	0x713
 3092 0451 02       		.byte	0x2
 3093 0452 23       		.byte	0x23
 3094 0453 2C       		.uleb128 0x2c
 3095 0454 11       		.uleb128 0x11
 3096 0455 5F756200 		.ascii	"_ub\000"
 3097 0459 06       		.byte	0x6
 3098 045a CE       		.byte	0xce
 3099 045b 11       		.byte	0x11
 3100 045c 64030000 		.4byte	0x364
 3101 0460 02       		.byte	0x2
 3102 0461 23       		.byte	0x23
 3103 0462 30       		.uleb128 0x30
 3104 0463 11       		.uleb128 0x11
 3105 0464 5F757000 		.ascii	"_up\000"
 3106 0468 06       		.byte	0x6
 3107 0469 CF       		.byte	0xcf
 3108 046a 12       		.byte	0x12
 3109 046b 90030000 		.4byte	0x390
 3110 046f 02       		.byte	0x2
 3111 0470 23       		.byte	0x23
 3112 0471 38       		.uleb128 0x38
 3113 0472 11       		.uleb128 0x11
 3114 0473 5F757200 		.ascii	"_ur\000"
 3115 0477 06       		.byte	0x6
 3116 0478 D0       		.byte	0xd0
 3117 0479 07       		.byte	0x7
 3118 047a 3A000000 		.4byte	0x3a
ARM GAS  /var/folders/_2/qbh2zpt918qcm2b_6mgyydnm0000gn/T//ccIdySvu.s 			page 68


 3119 047e 02       		.byte	0x2
 3120 047f 23       		.byte	0x23
 3121 0480 3C       		.uleb128 0x3c
 3122 0481 0D       		.uleb128 0xd
 3123 0482 B20D0000 		.4byte	.LASF64
 3124 0486 06       		.byte	0x6
 3125 0487 D3       		.byte	0xd3
 3126 0488 11       		.byte	0x11
 3127 0489 19070000 		.4byte	0x719
 3128 048d 02       		.byte	0x2
 3129 048e 23       		.byte	0x23
 3130 048f 40       		.uleb128 0x40
 3131 0490 0D       		.uleb128 0xd
 3132 0491 130D0000 		.4byte	.LASF65
 3133 0495 06       		.byte	0x6
 3134 0496 D4       		.byte	0xd4
 3135 0497 11       		.byte	0x11
 3136 0498 29070000 		.4byte	0x729
 3137 049c 02       		.byte	0x2
 3138 049d 23       		.byte	0x23
 3139 049e 43       		.uleb128 0x43
 3140 049f 11       		.uleb128 0x11
 3141 04a0 5F6C6200 		.ascii	"_lb\000"
 3142 04a4 06       		.byte	0x6
 3143 04a5 D7       		.byte	0xd7
 3144 04a6 11       		.byte	0x11
 3145 04a7 64030000 		.4byte	0x364
 3146 04ab 02       		.byte	0x2
 3147 04ac 23       		.byte	0x23
 3148 04ad 44       		.uleb128 0x44
 3149 04ae 0D       		.uleb128 0xd
 3150 04af D80A0000 		.4byte	.LASF66
 3151 04b3 06       		.byte	0x6
 3152 04b4 DA       		.byte	0xda
 3153 04b5 07       		.byte	0x7
 3154 04b6 3A000000 		.4byte	0x3a
 3155 04ba 02       		.byte	0x2
 3156 04bb 23       		.byte	0x23
 3157 04bc 4C       		.uleb128 0x4c
 3158 04bd 0D       		.uleb128 0xd
 3159 04be 0E040000 		.4byte	.LASF67
 3160 04c2 06       		.byte	0x6
 3161 04c3 DB       		.byte	0xdb
 3162 04c4 0A       		.byte	0xa
 3163 04c5 D4000000 		.4byte	0xd4
 3164 04c9 02       		.byte	0x2
 3165 04ca 23       		.byte	0x23
 3166 04cb 50       		.uleb128 0x50
 3167 04cc 0D       		.uleb128 0xd
 3168 04cd 120A0000 		.4byte	.LASF68
 3169 04d1 06       		.byte	0x6
 3170 04d2 DE       		.byte	0xde
 3171 04d3 12       		.byte	0x12
 3172 04d4 28050000 		.4byte	0x528
 3173 04d8 02       		.byte	0x2
 3174 04d9 23       		.byte	0x23
 3175 04da 54       		.uleb128 0x54
ARM GAS  /var/folders/_2/qbh2zpt918qcm2b_6mgyydnm0000gn/T//ccIdySvu.s 			page 69


 3176 04db 0D       		.uleb128 0xd
 3177 04dc E60A0000 		.4byte	.LASF69
 3178 04e0 06       		.byte	0x6
 3179 04e1 E2       		.byte	0xe2
 3180 04e2 0C       		.byte	0xc
 3181 04e3 5F010000 		.4byte	0x15f
 3182 04e7 02       		.byte	0x2
 3183 04e8 23       		.byte	0x23
 3184 04e9 58       		.uleb128 0x58
 3185 04ea 0D       		.uleb128 0xd
 3186 04eb B7010000 		.4byte	.LASF70
 3187 04ef 06       		.byte	0x6
 3188 04f0 E4       		.byte	0xe4
 3189 04f1 0E       		.byte	0xe
 3190 04f2 53010000 		.4byte	0x153
 3191 04f6 02       		.byte	0x2
 3192 04f7 23       		.byte	0x23
 3193 04f8 5C       		.uleb128 0x5c
 3194 04f9 0D       		.uleb128 0xd
 3195 04fa 510D0000 		.4byte	.LASF71
 3196 04fe 06       		.byte	0x6
 3197 04ff E5       		.byte	0xe5
 3198 0500 09       		.byte	0x9
 3199 0501 3A000000 		.4byte	0x3a
 3200 0505 02       		.byte	0x2
 3201 0506 23       		.byte	0x23
 3202 0507 64       		.uleb128 0x64
 3203 0508 00       		.byte	0
 3204 0509 14       		.uleb128 0x14
 3205 050a 01       		.byte	0x1
 3206 050b 3A000000 		.4byte	0x3a
 3207 050f 28050000 		.4byte	0x528
 3208 0513 15       		.uleb128 0x15
 3209 0514 28050000 		.4byte	0x528
 3210 0518 15       		.uleb128 0x15
 3211 0519 6B010000 		.4byte	0x16b
 3212 051d 15       		.uleb128 0x15
 3213 051e 6D010000 		.4byte	0x16d
 3214 0522 15       		.uleb128 0x15
 3215 0523 3A000000 		.4byte	0x3a
 3216 0527 00       		.byte	0
 3217 0528 05       		.uleb128 0x5
 3218 0529 04       		.byte	0x4
 3219 052a 33050000 		.4byte	0x533
 3220 052e 0F       		.uleb128 0xf
 3221 052f 28050000 		.4byte	0x528
 3222 0533 16       		.uleb128 0x16
 3223 0534 A50C0000 		.4byte	.LASF72
 3224 0538 2804     		.2byte	0x428
 3225 053a 06       		.byte	0x6
 3226 053b 6002     		.2byte	0x260
 3227 053d 08       		.byte	0x8
 3228 053e A8060000 		.4byte	0x6a8
 3229 0542 17       		.uleb128 0x17
 3230 0543 8C010000 		.4byte	.LASF73
 3231 0547 06       		.byte	0x6
 3232 0548 6202     		.2byte	0x262
ARM GAS  /var/folders/_2/qbh2zpt918qcm2b_6mgyydnm0000gn/T//ccIdySvu.s 			page 70


 3233 054a 07       		.byte	0x7
 3234 054b 3A000000 		.4byte	0x3a
 3235 054f 02       		.byte	0x2
 3236 0550 23       		.byte	0x23
 3237 0551 00       		.uleb128 0
 3238 0552 17       		.uleb128 0x17
 3239 0553 0E070000 		.4byte	.LASF74
 3240 0557 06       		.byte	0x6
 3241 0558 6702     		.2byte	0x267
 3242 055a 0B       		.byte	0xb
 3243 055b 8B070000 		.4byte	0x78b
 3244 055f 02       		.byte	0x2
 3245 0560 23       		.byte	0x23
 3246 0561 04       		.uleb128 0x4
 3247 0562 17       		.uleb128 0x17
 3248 0563 2B020000 		.4byte	.LASF75
 3249 0567 06       		.byte	0x6
 3250 0568 6702     		.2byte	0x267
 3251 056a 14       		.byte	0x14
 3252 056b 8B070000 		.4byte	0x78b
 3253 056f 02       		.byte	0x2
 3254 0570 23       		.byte	0x23
 3255 0571 08       		.uleb128 0x8
 3256 0572 17       		.uleb128 0x17
 3257 0573 A10D0000 		.4byte	.LASF76
 3258 0577 06       		.byte	0x6
 3259 0578 6702     		.2byte	0x267
 3260 057a 1E       		.byte	0x1e
 3261 057b 8B070000 		.4byte	0x78b
 3262 057f 02       		.byte	0x2
 3263 0580 23       		.byte	0x23
 3264 0581 0C       		.uleb128 0xc
 3265 0582 17       		.uleb128 0x17
 3266 0583 B9040000 		.4byte	.LASF77
 3267 0587 06       		.byte	0x6
 3268 0588 6902     		.2byte	0x269
 3269 058a 08       		.byte	0x8
 3270 058b 3A000000 		.4byte	0x3a
 3271 058f 02       		.byte	0x2
 3272 0590 23       		.byte	0x23
 3273 0591 10       		.uleb128 0x10
 3274 0592 17       		.uleb128 0x17
 3275 0593 36040000 		.4byte	.LASF78
 3276 0597 06       		.byte	0x6
 3277 0598 6A02     		.2byte	0x26a
 3278 059a 08       		.byte	0x8
 3279 059b C4090000 		.4byte	0x9c4
 3280 059f 02       		.byte	0x2
 3281 05a0 23       		.byte	0x23
 3282 05a1 14       		.uleb128 0x14
 3283 05a2 17       		.uleb128 0x17
 3284 05a3 260D0000 		.4byte	.LASF79
 3285 05a7 06       		.byte	0x6
 3286 05a8 6D02     		.2byte	0x26d
 3287 05aa 07       		.byte	0x7
 3288 05ab 3A000000 		.4byte	0x3a
 3289 05af 02       		.byte	0x2
ARM GAS  /var/folders/_2/qbh2zpt918qcm2b_6mgyydnm0000gn/T//ccIdySvu.s 			page 71


 3290 05b0 23       		.byte	0x23
 3291 05b1 30       		.uleb128 0x30
 3292 05b2 17       		.uleb128 0x17
 3293 05b3 7B0C0000 		.4byte	.LASF80
 3294 05b7 06       		.byte	0x6
 3295 05b8 6E02     		.2byte	0x26e
 3296 05ba 16       		.byte	0x16
 3297 05bb DA090000 		.4byte	0x9da
 3298 05bf 02       		.byte	0x2
 3299 05c0 23       		.byte	0x23
 3300 05c1 34       		.uleb128 0x34
 3301 05c2 17       		.uleb128 0x17
 3302 05c3 D0060000 		.4byte	.LASF81
 3303 05c7 06       		.byte	0x6
 3304 05c8 7002     		.2byte	0x270
 3305 05ca 07       		.byte	0x7
 3306 05cb 3A000000 		.4byte	0x3a
 3307 05cf 02       		.byte	0x2
 3308 05d0 23       		.byte	0x23
 3309 05d1 38       		.uleb128 0x38
 3310 05d2 17       		.uleb128 0x17
 3311 05d3 07080000 		.4byte	.LASF82
 3312 05d7 06       		.byte	0x6
 3313 05d8 7202     		.2byte	0x272
 3314 05da 0A       		.byte	0xa
 3315 05db EC090000 		.4byte	0x9ec
 3316 05df 02       		.byte	0x2
 3317 05e0 23       		.byte	0x23
 3318 05e1 3C       		.uleb128 0x3c
 3319 05e2 17       		.uleb128 0x17
 3320 05e3 96020000 		.4byte	.LASF83
 3321 05e7 06       		.byte	0x6
 3322 05e8 7502     		.2byte	0x275
 3323 05ea 13       		.byte	0x13
 3324 05eb F1010000 		.4byte	0x1f1
 3325 05ef 02       		.byte	0x2
 3326 05f0 23       		.byte	0x23
 3327 05f1 40       		.uleb128 0x40
 3328 05f2 17       		.uleb128 0x17
 3329 05f3 82030000 		.4byte	.LASF84
 3330 05f7 06       		.byte	0x6
 3331 05f8 7602     		.2byte	0x276
 3332 05fa 07       		.byte	0x7
 3333 05fb 3A000000 		.4byte	0x3a
 3334 05ff 02       		.byte	0x2
 3335 0600 23       		.byte	0x23
 3336 0601 44       		.uleb128 0x44
 3337 0602 17       		.uleb128 0x17
 3338 0603 C6050000 		.4byte	.LASF85
 3339 0607 06       		.byte	0x6
 3340 0608 7702     		.2byte	0x277
 3341 060a 13       		.byte	0x13
 3342 060b F1010000 		.4byte	0x1f1
 3343 060f 02       		.byte	0x2
 3344 0610 23       		.byte	0x23
 3345 0611 48       		.uleb128 0x48
 3346 0612 17       		.uleb128 0x17
ARM GAS  /var/folders/_2/qbh2zpt918qcm2b_6mgyydnm0000gn/T//ccIdySvu.s 			page 72


 3347 0613 38070000 		.4byte	.LASF86
 3348 0617 06       		.byte	0x6
 3349 0618 7802     		.2byte	0x278
 3350 061a 14       		.byte	0x14
 3351 061b F2090000 		.4byte	0x9f2
 3352 061f 02       		.byte	0x2
 3353 0620 23       		.byte	0x23
 3354 0621 4C       		.uleb128 0x4c
 3355 0622 17       		.uleb128 0x17
 3356 0623 7B0A0000 		.4byte	.LASF87
 3357 0627 06       		.byte	0x6
 3358 0628 7B02     		.2byte	0x27b
 3359 062a 07       		.byte	0x7
 3360 062b 3A000000 		.4byte	0x3a
 3361 062f 02       		.byte	0x2
 3362 0630 23       		.byte	0x23
 3363 0631 50       		.uleb128 0x50
 3364 0632 17       		.uleb128 0x17
 3365 0633 940B0000 		.4byte	.LASF88
 3366 0637 06       		.byte	0x6
 3367 0638 7C02     		.2byte	0x27c
 3368 063a 09       		.byte	0x9
 3369 063b 6D010000 		.4byte	0x16d
 3370 063f 02       		.byte	0x2
 3371 0640 23       		.byte	0x23
 3372 0641 54       		.uleb128 0x54
 3373 0642 17       		.uleb128 0x17
 3374 0643 6B0A0000 		.4byte	.LASF89
 3375 0647 06       		.byte	0x6
 3376 0648 9F02     		.2byte	0x29f
 3377 064a 07       		.byte	0x7
 3378 064b 9F090000 		.4byte	0x99f
 3379 064f 02       		.byte	0x2
 3380 0650 23       		.byte	0x23
 3381 0651 58       		.uleb128 0x58
 3382 0652 17       		.uleb128 0x17
 3383 0653 76090000 		.4byte	.LASF49
 3384 0657 06       		.byte	0x6
 3385 0658 A302     		.2byte	0x2a3
 3386 065a 13       		.byte	0x13
 3387 065b 46030000 		.4byte	0x346
 3388 065f 03       		.byte	0x3
 3389 0660 23       		.byte	0x23
 3390 0661 C802     		.uleb128 0x148
 3391 0663 17       		.uleb128 0x17
 3392 0664 50060000 		.4byte	.LASF90
 3393 0668 06       		.byte	0x6
 3394 0669 A402     		.2byte	0x2a4
 3395 066b 12       		.byte	0x12
 3396 066c FA020000 		.4byte	0x2fa
 3397 0670 03       		.byte	0x3
 3398 0671 23       		.byte	0x23
 3399 0672 CC02     		.uleb128 0x14c
 3400 0674 17       		.uleb128 0x17
 3401 0675 37060000 		.4byte	.LASF91
 3402 0679 06       		.byte	0x6
 3403 067a A802     		.2byte	0x2a8
ARM GAS  /var/folders/_2/qbh2zpt918qcm2b_6mgyydnm0000gn/T//ccIdySvu.s 			page 73


 3404 067c 0C       		.byte	0xc
 3405 067d 040A0000 		.4byte	0xa04
 3406 0681 03       		.byte	0x3
 3407 0682 23       		.byte	0x23
 3408 0683 DC05     		.uleb128 0x2dc
 3409 0685 17       		.uleb128 0x17
 3410 0686 380C0000 		.4byte	.LASF92
 3411 068a 06       		.byte	0x6
 3412 068b AD02     		.2byte	0x2ad
 3413 068d 10       		.byte	0x10
 3414 068e 46070000 		.4byte	0x746
 3415 0692 03       		.byte	0x3
 3416 0693 23       		.byte	0x23
 3417 0694 E005     		.uleb128 0x2e0
 3418 0696 17       		.uleb128 0x17
 3419 0697 D9090000 		.4byte	.LASF93
 3420 069b 06       		.byte	0x6
 3421 069c AF02     		.2byte	0x2af
 3422 069e 0A       		.byte	0xa
 3423 069f 100A0000 		.4byte	0xa10
 3424 06a3 03       		.byte	0x3
 3425 06a4 23       		.byte	0x23
 3426 06a5 EC05     		.uleb128 0x2ec
 3427 06a7 00       		.byte	0
 3428 06a8 05       		.uleb128 0x5
 3429 06a9 04       		.byte	0x4
 3430 06aa 09050000 		.4byte	0x509
 3431 06ae 14       		.uleb128 0x14
 3432 06af 01       		.byte	0x1
 3433 06b0 3A000000 		.4byte	0x3a
 3434 06b4 CD060000 		.4byte	0x6cd
 3435 06b8 15       		.uleb128 0x15
 3436 06b9 28050000 		.4byte	0x528
 3437 06bd 15       		.uleb128 0x15
 3438 06be 6B010000 		.4byte	0x16b
 3439 06c2 15       		.uleb128 0x15
 3440 06c3 CD060000 		.4byte	0x6cd
 3441 06c7 15       		.uleb128 0x15
 3442 06c8 3A000000 		.4byte	0x3a
 3443 06cc 00       		.byte	0
 3444 06cd 05       		.uleb128 0x5
 3445 06ce 04       		.byte	0x4
 3446 06cf 7A010000 		.4byte	0x17a
 3447 06d3 05       		.uleb128 0x5
 3448 06d4 04       		.byte	0x4
 3449 06d5 AE060000 		.4byte	0x6ae
 3450 06d9 14       		.uleb128 0x14
 3451 06da 01       		.byte	0x1
 3452 06db E0000000 		.4byte	0xe0
 3453 06df F8060000 		.4byte	0x6f8
 3454 06e3 15       		.uleb128 0x15
 3455 06e4 28050000 		.4byte	0x528
 3456 06e8 15       		.uleb128 0x15
 3457 06e9 6B010000 		.4byte	0x16b
 3458 06ed 15       		.uleb128 0x15
 3459 06ee E0000000 		.4byte	0xe0
 3460 06f2 15       		.uleb128 0x15
ARM GAS  /var/folders/_2/qbh2zpt918qcm2b_6mgyydnm0000gn/T//ccIdySvu.s 			page 74


 3461 06f3 3A000000 		.4byte	0x3a
 3462 06f7 00       		.byte	0
 3463 06f8 05       		.uleb128 0x5
 3464 06f9 04       		.byte	0x4
 3465 06fa D9060000 		.4byte	0x6d9
 3466 06fe 14       		.uleb128 0x14
 3467 06ff 01       		.byte	0x1
 3468 0700 3A000000 		.4byte	0x3a
 3469 0704 13070000 		.4byte	0x713
 3470 0708 15       		.uleb128 0x15
 3471 0709 28050000 		.4byte	0x528
 3472 070d 15       		.uleb128 0x15
 3473 070e 6B010000 		.4byte	0x16b
 3474 0712 00       		.byte	0
 3475 0713 05       		.uleb128 0x5
 3476 0714 04       		.byte	0x4
 3477 0715 FE060000 		.4byte	0x6fe
 3478 0719 0A       		.uleb128 0xa
 3479 071a 62000000 		.4byte	0x62
 3480 071e 29070000 		.4byte	0x729
 3481 0722 0B       		.uleb128 0xb
 3482 0723 33000000 		.4byte	0x33
 3483 0727 02       		.byte	0x2
 3484 0728 00       		.byte	0
 3485 0729 0A       		.uleb128 0xa
 3486 072a 62000000 		.4byte	0x62
 3487 072e 39070000 		.4byte	0x739
 3488 0732 0B       		.uleb128 0xb
 3489 0733 33000000 		.4byte	0x33
 3490 0737 00       		.byte	0
 3491 0738 00       		.byte	0
 3492 0739 07       		.uleb128 0x7
 3493 073a D7030000 		.4byte	.LASF94
 3494 073e 06       		.byte	0x6
 3495 073f 1F01     		.2byte	0x11f
 3496 0741 1A       		.byte	0x1a
 3497 0742 96030000 		.4byte	0x396
 3498 0746 18       		.uleb128 0x18
 3499 0747 210C0000 		.4byte	.LASF95
 3500 074b 0C       		.byte	0xc
 3501 074c 06       		.byte	0x6
 3502 074d 2301     		.2byte	0x123
 3503 074f 08       		.byte	0x8
 3504 0750 85070000 		.4byte	0x785
 3505 0754 17       		.uleb128 0x17
 3506 0755 8D050000 		.4byte	.LASF29
 3507 0759 06       		.byte	0x6
 3508 075a 2501     		.2byte	0x125
 3509 075c 11       		.byte	0x11
 3510 075d 85070000 		.4byte	0x785
 3511 0761 02       		.byte	0x2
 3512 0762 23       		.byte	0x23
 3513 0763 00       		.uleb128 0
 3514 0764 17       		.uleb128 0x17
 3515 0765 160B0000 		.4byte	.LASF96
 3516 0769 06       		.byte	0x6
 3517 076a 2601     		.2byte	0x126
ARM GAS  /var/folders/_2/qbh2zpt918qcm2b_6mgyydnm0000gn/T//ccIdySvu.s 			page 75


 3518 076c 07       		.byte	0x7
 3519 076d 3A000000 		.4byte	0x3a
 3520 0771 02       		.byte	0x2
 3521 0772 23       		.byte	0x23
 3522 0773 04       		.uleb128 0x4
 3523 0774 17       		.uleb128 0x17
 3524 0775 B0060000 		.4byte	.LASF97
 3525 0779 06       		.byte	0x6
 3526 077a 2701     		.2byte	0x127
 3527 077c 0B       		.byte	0xb
 3528 077d 8B070000 		.4byte	0x78b
 3529 0781 02       		.byte	0x2
 3530 0782 23       		.byte	0x23
 3531 0783 08       		.uleb128 0x8
 3532 0784 00       		.byte	0
 3533 0785 05       		.uleb128 0x5
 3534 0786 04       		.byte	0x4
 3535 0787 46070000 		.4byte	0x746
 3536 078b 05       		.uleb128 0x5
 3537 078c 04       		.byte	0x4
 3538 078d 39070000 		.4byte	0x739
 3539 0791 18       		.uleb128 0x18
 3540 0792 6A030000 		.4byte	.LASF98
 3541 0796 0E       		.byte	0xe
 3542 0797 06       		.byte	0x6
 3543 0798 3F01     		.2byte	0x13f
 3544 079a 08       		.byte	0x8
 3545 079b D0070000 		.4byte	0x7d0
 3546 079f 17       		.uleb128 0x17
 3547 07a0 6C0D0000 		.4byte	.LASF99
 3548 07a4 06       		.byte	0x6
 3549 07a5 4001     		.2byte	0x140
 3550 07a7 12       		.byte	0x12
 3551 07a8 D0070000 		.4byte	0x7d0
 3552 07ac 02       		.byte	0x2
 3553 07ad 23       		.byte	0x23
 3554 07ae 00       		.uleb128 0
 3555 07af 17       		.uleb128 0x17
 3556 07b0 42070000 		.4byte	.LASF100
 3557 07b4 06       		.byte	0x6
 3558 07b5 4101     		.2byte	0x141
 3559 07b7 12       		.byte	0x12
 3560 07b8 D0070000 		.4byte	0x7d0
 3561 07bc 02       		.byte	0x2
 3562 07bd 23       		.byte	0x23
 3563 07be 06       		.uleb128 0x6
 3564 07bf 17       		.uleb128 0x17
 3565 07c0 070C0000 		.4byte	.LASF101
 3566 07c4 06       		.byte	0x6
 3567 07c5 4201     		.2byte	0x142
 3568 07c7 12       		.byte	0x12
 3569 07c8 88000000 		.4byte	0x88
 3570 07cc 02       		.byte	0x2
 3571 07cd 23       		.byte	0x23
 3572 07ce 0C       		.uleb128 0xc
 3573 07cf 00       		.byte	0
 3574 07d0 0A       		.uleb128 0xa
ARM GAS  /var/folders/_2/qbh2zpt918qcm2b_6mgyydnm0000gn/T//ccIdySvu.s 			page 76


 3575 07d1 88000000 		.4byte	0x88
 3576 07d5 E0070000 		.4byte	0x7e0
 3577 07d9 0B       		.uleb128 0xb
 3578 07da 33000000 		.4byte	0x33
 3579 07de 02       		.byte	0x2
 3580 07df 00       		.byte	0
 3581 07e0 19       		.uleb128 0x19
 3582 07e1 D0       		.byte	0xd0
 3583 07e2 06       		.byte	0x6
 3584 07e3 8002     		.2byte	0x280
 3585 07e5 07       		.byte	0x7
 3586 07e6 24090000 		.4byte	0x924
 3587 07ea 17       		.uleb128 0x17
 3588 07eb 190D0000 		.4byte	.LASF102
 3589 07ef 06       		.byte	0x6
 3590 07f0 8202     		.2byte	0x282
 3591 07f2 18       		.byte	0x18
 3592 07f3 33000000 		.4byte	0x33
 3593 07f7 02       		.byte	0x2
 3594 07f8 23       		.byte	0x23
 3595 07f9 00       		.uleb128 0
 3596 07fa 17       		.uleb128 0x17
 3597 07fb 4B0C0000 		.4byte	.LASF103
 3598 07ff 06       		.byte	0x6
 3599 0800 8302     		.2byte	0x283
 3600 0802 12       		.byte	0x12
 3601 0803 6D010000 		.4byte	0x16d
 3602 0807 02       		.byte	0x2
 3603 0808 23       		.byte	0x23
 3604 0809 04       		.uleb128 0x4
 3605 080a 17       		.uleb128 0x17
 3606 080b A3030000 		.4byte	.LASF104
 3607 080f 06       		.byte	0x6
 3608 0810 8402     		.2byte	0x284
 3609 0812 10       		.byte	0x10
 3610 0813 24090000 		.4byte	0x924
 3611 0817 02       		.byte	0x2
 3612 0818 23       		.byte	0x23
 3613 0819 08       		.uleb128 0x8
 3614 081a 17       		.uleb128 0x17
 3615 081b 4A0A0000 		.4byte	.LASF105
 3616 081f 06       		.byte	0x6
 3617 0820 8502     		.2byte	0x285
 3618 0822 17       		.byte	0x17
 3619 0823 07020000 		.4byte	0x207
 3620 0827 02       		.byte	0x2
 3621 0828 23       		.byte	0x23
 3622 0829 24       		.uleb128 0x24
 3623 082a 17       		.uleb128 0x17
 3624 082b 15070000 		.4byte	.LASF106
 3625 082f 06       		.byte	0x6
 3626 0830 8602     		.2byte	0x286
 3627 0832 0F       		.byte	0xf
 3628 0833 3A000000 		.4byte	0x3a
 3629 0837 02       		.byte	0x2
 3630 0838 23       		.byte	0x23
 3631 0839 48       		.uleb128 0x48
ARM GAS  /var/folders/_2/qbh2zpt918qcm2b_6mgyydnm0000gn/T//ccIdySvu.s 			page 77


 3632 083a 17       		.uleb128 0x17
 3633 083b 720D0000 		.4byte	.LASF107
 3634 083f 06       		.byte	0x6
 3635 0840 8702     		.2byte	0x287
 3636 0842 2C       		.byte	0x2c
 3637 0843 B5000000 		.4byte	0xb5
 3638 0847 02       		.byte	0x2
 3639 0848 23       		.byte	0x23
 3640 0849 50       		.uleb128 0x50
 3641 084a 17       		.uleb128 0x17
 3642 084b 03010000 		.4byte	.LASF108
 3643 084f 06       		.byte	0x6
 3644 0850 8802     		.2byte	0x288
 3645 0852 1A       		.byte	0x1a
 3646 0853 91070000 		.4byte	0x791
 3647 0857 02       		.byte	0x2
 3648 0858 23       		.byte	0x23
 3649 0859 58       		.uleb128 0x58
 3650 085a 17       		.uleb128 0x17
 3651 085b 1B060000 		.4byte	.LASF109
 3652 085f 06       		.byte	0x6
 3653 0860 8902     		.2byte	0x289
 3654 0862 16       		.byte	0x16
 3655 0863 53010000 		.4byte	0x153
 3656 0867 02       		.byte	0x2
 3657 0868 23       		.byte	0x23
 3658 0869 68       		.uleb128 0x68
 3659 086a 17       		.uleb128 0x17
 3660 086b 580C0000 		.4byte	.LASF110
 3661 086f 06       		.byte	0x6
 3662 0870 8A02     		.2byte	0x28a
 3663 0872 16       		.byte	0x16
 3664 0873 53010000 		.4byte	0x153
 3665 0877 02       		.byte	0x2
 3666 0878 23       		.byte	0x23
 3667 0879 70       		.uleb128 0x70
 3668 087a 17       		.uleb128 0x17
 3669 087b EA000000 		.4byte	.LASF111
 3670 087f 06       		.byte	0x6
 3671 0880 8B02     		.2byte	0x28b
 3672 0882 16       		.byte	0x16
 3673 0883 53010000 		.4byte	0x153
 3674 0887 02       		.byte	0x2
 3675 0888 23       		.byte	0x23
 3676 0889 78       		.uleb128 0x78
 3677 088a 17       		.uleb128 0x17
 3678 088b 8B0A0000 		.4byte	.LASF112
 3679 088f 06       		.byte	0x6
 3680 0890 8C02     		.2byte	0x28c
 3681 0892 10       		.byte	0x10
 3682 0893 34090000 		.4byte	0x934
 3683 0897 03       		.byte	0x3
 3684 0898 23       		.byte	0x23
 3685 0899 8001     		.uleb128 0x80
 3686 089b 17       		.uleb128 0x17
 3687 089c 1E010000 		.4byte	.LASF113
 3688 08a0 06       		.byte	0x6
ARM GAS  /var/folders/_2/qbh2zpt918qcm2b_6mgyydnm0000gn/T//ccIdySvu.s 			page 78


 3689 08a1 8D02     		.2byte	0x28d
 3690 08a3 10       		.byte	0x10
 3691 08a4 44090000 		.4byte	0x944
 3692 08a8 03       		.byte	0x3
 3693 08a9 23       		.byte	0x23
 3694 08aa 8801     		.uleb128 0x88
 3695 08ac 17       		.uleb128 0x17
 3696 08ad E30B0000 		.4byte	.LASF114
 3697 08b1 06       		.byte	0x6
 3698 08b2 8E02     		.2byte	0x28e
 3699 08b4 0F       		.byte	0xf
 3700 08b5 3A000000 		.4byte	0x3a
 3701 08b9 03       		.byte	0x3
 3702 08ba 23       		.byte	0x23
 3703 08bb A001     		.uleb128 0xa0
 3704 08bd 17       		.uleb128 0x17
 3705 08be F1010000 		.4byte	.LASF115
 3706 08c2 06       		.byte	0x6
 3707 08c3 8F02     		.2byte	0x28f
 3708 08c5 16       		.byte	0x16
 3709 08c6 53010000 		.4byte	0x153
 3710 08ca 03       		.byte	0x3
 3711 08cb 23       		.byte	0x23
 3712 08cc A401     		.uleb128 0xa4
 3713 08ce 17       		.uleb128 0x17
 3714 08cf 41060000 		.4byte	.LASF116
 3715 08d3 06       		.byte	0x6
 3716 08d4 9002     		.2byte	0x290
 3717 08d6 16       		.byte	0x16
 3718 08d7 53010000 		.4byte	0x153
 3719 08db 03       		.byte	0x3
 3720 08dc 23       		.byte	0x23
 3721 08dd AC01     		.uleb128 0xac
 3722 08df 17       		.uleb128 0x17
 3723 08e0 93050000 		.4byte	.LASF117
 3724 08e4 06       		.byte	0x6
 3725 08e5 9102     		.2byte	0x291
 3726 08e7 16       		.byte	0x16
 3727 08e8 53010000 		.4byte	0x153
 3728 08ec 03       		.byte	0x3
 3729 08ed 23       		.byte	0x23
 3730 08ee B401     		.uleb128 0xb4
 3731 08f0 17       		.uleb128 0x17
 3732 08f1 5E070000 		.4byte	.LASF118
 3733 08f5 06       		.byte	0x6
 3734 08f6 9202     		.2byte	0x292
 3735 08f8 16       		.byte	0x16
 3736 08f9 53010000 		.4byte	0x153
 3737 08fd 03       		.byte	0x3
 3738 08fe 23       		.byte	0x23
 3739 08ff BC01     		.uleb128 0xbc
 3740 0901 17       		.uleb128 0x17
 3741 0902 0A060000 		.4byte	.LASF119
 3742 0906 06       		.byte	0x6
 3743 0907 9302     		.2byte	0x293
 3744 0909 16       		.byte	0x16
 3745 090a 53010000 		.4byte	0x153
ARM GAS  /var/folders/_2/qbh2zpt918qcm2b_6mgyydnm0000gn/T//ccIdySvu.s 			page 79


 3746 090e 03       		.byte	0x3
 3747 090f 23       		.byte	0x23
 3748 0910 C401     		.uleb128 0xc4
 3749 0912 17       		.uleb128 0x17
 3750 0913 B5080000 		.4byte	.LASF120
 3751 0917 06       		.byte	0x6
 3752 0918 9402     		.2byte	0x294
 3753 091a 08       		.byte	0x8
 3754 091b 3A000000 		.4byte	0x3a
 3755 091f 03       		.byte	0x3
 3756 0920 23       		.byte	0x23
 3757 0921 CC01     		.uleb128 0xcc
 3758 0923 00       		.byte	0
 3759 0924 0A       		.uleb128 0xa
 3760 0925 73010000 		.4byte	0x173
 3761 0929 34090000 		.4byte	0x934
 3762 092d 0B       		.uleb128 0xb
 3763 092e 33000000 		.4byte	0x33
 3764 0932 19       		.byte	0x19
 3765 0933 00       		.byte	0
 3766 0934 0A       		.uleb128 0xa
 3767 0935 73010000 		.4byte	0x173
 3768 0939 44090000 		.4byte	0x944
 3769 093d 0B       		.uleb128 0xb
 3770 093e 33000000 		.4byte	0x33
 3771 0942 07       		.byte	0x7
 3772 0943 00       		.byte	0
 3773 0944 0A       		.uleb128 0xa
 3774 0945 73010000 		.4byte	0x173
 3775 0949 54090000 		.4byte	0x954
 3776 094d 0B       		.uleb128 0xb
 3777 094e 33000000 		.4byte	0x33
 3778 0952 17       		.byte	0x17
 3779 0953 00       		.byte	0
 3780 0954 19       		.uleb128 0x19
 3781 0955 F0       		.byte	0xf0
 3782 0956 06       		.byte	0x6
 3783 0957 9902     		.2byte	0x299
 3784 0959 07       		.byte	0x7
 3785 095a 7F090000 		.4byte	0x97f
 3786 095e 17       		.uleb128 0x17
 3787 095f 4B030000 		.4byte	.LASF121
 3788 0963 06       		.byte	0x6
 3789 0964 9C02     		.2byte	0x29c
 3790 0966 1B       		.byte	0x1b
 3791 0967 7F090000 		.4byte	0x97f
 3792 096b 02       		.byte	0x2
 3793 096c 23       		.byte	0x23
 3794 096d 00       		.uleb128 0
 3795 096e 17       		.uleb128 0x17
 3796 096f A90D0000 		.4byte	.LASF122
 3797 0973 06       		.byte	0x6
 3798 0974 9D02     		.2byte	0x29d
 3799 0976 18       		.byte	0x18
 3800 0977 8F090000 		.4byte	0x98f
 3801 097b 02       		.byte	0x2
 3802 097c 23       		.byte	0x23
ARM GAS  /var/folders/_2/qbh2zpt918qcm2b_6mgyydnm0000gn/T//ccIdySvu.s 			page 80


 3803 097d 78       		.uleb128 0x78
 3804 097e 00       		.byte	0
 3805 097f 0A       		.uleb128 0xa
 3806 0980 90030000 		.4byte	0x390
 3807 0984 8F090000 		.4byte	0x98f
 3808 0988 0B       		.uleb128 0xb
 3809 0989 33000000 		.4byte	0x33
 3810 098d 1D       		.byte	0x1d
 3811 098e 00       		.byte	0
 3812 098f 0A       		.uleb128 0xa
 3813 0990 33000000 		.4byte	0x33
 3814 0994 9F090000 		.4byte	0x99f
 3815 0998 0B       		.uleb128 0xb
 3816 0999 33000000 		.4byte	0x33
 3817 099d 1D       		.byte	0x1d
 3818 099e 00       		.byte	0
 3819 099f 1A       		.uleb128 0x1a
 3820 09a0 F0       		.byte	0xf0
 3821 09a1 06       		.byte	0x6
 3822 09a2 7E02     		.2byte	0x27e
 3823 09a4 03       		.byte	0x3
 3824 09a5 C4090000 		.4byte	0x9c4
 3825 09a9 1B       		.uleb128 0x1b
 3826 09aa A50C0000 		.4byte	.LASF72
 3827 09ae 06       		.byte	0x6
 3828 09af 9502     		.2byte	0x295
 3829 09b1 0B       		.byte	0xb
 3830 09b2 E0070000 		.4byte	0x7e0
 3831 09b6 1B       		.uleb128 0x1b
 3832 09b7 590A0000 		.4byte	.LASF123
 3833 09bb 06       		.byte	0x6
 3834 09bc 9E02     		.2byte	0x29e
 3835 09be 0B       		.byte	0xb
 3836 09bf 54090000 		.4byte	0x954
 3837 09c3 00       		.byte	0
 3838 09c4 0A       		.uleb128 0xa
 3839 09c5 73010000 		.4byte	0x173
 3840 09c9 D4090000 		.4byte	0x9d4
 3841 09cd 0B       		.uleb128 0xb
 3842 09ce 33000000 		.4byte	0x33
 3843 09d2 18       		.byte	0x18
 3844 09d3 00       		.byte	0
 3845 09d4 06       		.uleb128 0x6
 3846 09d5 7D0D0000 		.4byte	.LASF125
 3847 09d9 01       		.byte	0x1
 3848 09da 05       		.uleb128 0x5
 3849 09db 04       		.byte	0x4
 3850 09dc D4090000 		.4byte	0x9d4
 3851 09e0 1C       		.uleb128 0x1c
 3852 09e1 01       		.byte	0x1
 3853 09e2 EC090000 		.4byte	0x9ec
 3854 09e6 15       		.uleb128 0x15
 3855 09e7 28050000 		.4byte	0x528
 3856 09eb 00       		.byte	0
 3857 09ec 05       		.uleb128 0x5
 3858 09ed 04       		.byte	0x4
 3859 09ee E0090000 		.4byte	0x9e0
ARM GAS  /var/folders/_2/qbh2zpt918qcm2b_6mgyydnm0000gn/T//ccIdySvu.s 			page 81


 3860 09f2 05       		.uleb128 0x5
 3861 09f3 04       		.byte	0x4
 3862 09f4 F1010000 		.4byte	0x1f1
 3863 09f8 1C       		.uleb128 0x1c
 3864 09f9 01       		.byte	0x1
 3865 09fa 040A0000 		.4byte	0xa04
 3866 09fe 15       		.uleb128 0x15
 3867 09ff 3A000000 		.4byte	0x3a
 3868 0a03 00       		.byte	0
 3869 0a04 05       		.uleb128 0x5
 3870 0a05 04       		.byte	0x4
 3871 0a06 0A0A0000 		.4byte	0xa0a
 3872 0a0a 05       		.uleb128 0x5
 3873 0a0b 04       		.byte	0x4
 3874 0a0c F8090000 		.4byte	0x9f8
 3875 0a10 0A       		.uleb128 0xa
 3876 0a11 39070000 		.4byte	0x739
 3877 0a15 200A0000 		.4byte	0xa20
 3878 0a19 0B       		.uleb128 0xb
 3879 0a1a 33000000 		.4byte	0x33
 3880 0a1e 02       		.byte	0x2
 3881 0a1f 00       		.byte	0
 3882 0a20 1D       		.uleb128 0x1d
 3883 0a21 3F030000 		.4byte	.LASF126
 3884 0a25 06       		.byte	0x6
 3885 0a26 2E03     		.2byte	0x32e
 3886 0a28 17       		.byte	0x17
 3887 0a29 28050000 		.4byte	0x528
 3888 0a2d 01       		.byte	0x1
 3889 0a2e 01       		.byte	0x1
 3890 0a2f 1D       		.uleb128 0x1d
 3891 0a30 1F0A0000 		.4byte	.LASF127
 3892 0a34 06       		.byte	0x6
 3893 0a35 2F03     		.2byte	0x32f
 3894 0a37 1D       		.byte	0x1d
 3895 0a38 2E050000 		.4byte	0x52e
 3896 0a3c 01       		.byte	0x1
 3897 0a3d 01       		.byte	0x1
 3898 0a3e 1E       		.uleb128 0x1e
 3899 0a3f A5040000 		.4byte	.LASF128
 3900 0a43 07       		.byte	0x7
 3901 0a44 64       		.byte	0x64
 3902 0a45 0E       		.byte	0xe
 3903 0a46 6D010000 		.4byte	0x16d
 3904 0a4a 01       		.byte	0x1
 3905 0a4b 01       		.byte	0x1
 3906 0a4c 04       		.uleb128 0x4
 3907 0a4d B6060000 		.4byte	.LASF129
 3908 0a51 08       		.byte	0x8
 3909 0a52 18       		.byte	0x18
 3910 0a53 13       		.byte	0x13
 3911 0a54 56000000 		.4byte	0x56
 3912 0a58 04       		.uleb128 0x4
 3913 0a59 62030000 		.4byte	.LASF130
 3914 0a5d 08       		.byte	0x8
 3915 0a5e 20       		.byte	0x20
 3916 0a5f 13       		.byte	0x13
ARM GAS  /var/folders/_2/qbh2zpt918qcm2b_6mgyydnm0000gn/T//ccIdySvu.s 			page 82


 3917 0a60 69000000 		.4byte	0x69
 3918 0a64 04       		.uleb128 0x4
 3919 0a65 F6080000 		.4byte	.LASF131
 3920 0a69 08       		.byte	0x8
 3921 0a6a 24       		.byte	0x24
 3922 0a6b 14       		.byte	0x14
 3923 0a6c 7C000000 		.4byte	0x7c
 3924 0a70 04       		.uleb128 0x4
 3925 0a71 390B0000 		.4byte	.LASF132
 3926 0a75 08       		.byte	0x8
 3927 0a76 2C       		.byte	0x2c
 3928 0a77 13       		.byte	0x13
 3929 0a78 8F000000 		.4byte	0x8f
 3930 0a7c 04       		.uleb128 0x4
 3931 0a7d C4020000 		.4byte	.LASF133
 3932 0a81 08       		.byte	0x8
 3933 0a82 30       		.byte	0x30
 3934 0a83 14       		.byte	0x14
 3935 0a84 A2000000 		.4byte	0xa2
 3936 0a88 0F       		.uleb128 0xf
 3937 0a89 7C0A0000 		.4byte	0xa7c
 3938 0a8d 04       		.uleb128 0x4
 3939 0a8e D20B0000 		.4byte	.LASF134
 3940 0a92 09       		.byte	0x9
 3941 0a93 0A       		.byte	0xa
 3942 0a94 19       		.byte	0x19
 3943 0a95 990A0000 		.4byte	0xa99
 3944 0a99 06       		.uleb128 0x6
 3945 0a9a C90B0000 		.4byte	.LASF135
 3946 0a9e 01       		.byte	0x1
 3947 0a9f 04       		.uleb128 0x4
 3948 0aa0 C3040000 		.4byte	.LASF136
 3949 0aa4 09       		.byte	0x9
 3950 0aa5 0C       		.byte	0xc
 3951 0aa6 11       		.byte	0x11
 3952 0aa7 AB0A0000 		.4byte	0xaab
 3953 0aab 05       		.uleb128 0x5
 3954 0aac 04       		.byte	0x4
 3955 0aad B10A0000 		.4byte	0xab1
 3956 0ab1 14       		.uleb128 0x14
 3957 0ab2 01       		.byte	0x1
 3958 0ab3 25000000 		.4byte	0x25
 3959 0ab7 C60A0000 		.4byte	0xac6
 3960 0abb 15       		.uleb128 0x15
 3961 0abc CB0A0000 		.4byte	0xacb
 3962 0ac0 15       		.uleb128 0x15
 3963 0ac1 25000000 		.4byte	0x25
 3964 0ac5 00       		.byte	0
 3965 0ac6 0F       		.uleb128 0xf
 3966 0ac7 25000000 		.4byte	0x25
 3967 0acb 05       		.uleb128 0x5
 3968 0acc 04       		.byte	0x4
 3969 0acd 8D0A0000 		.4byte	0xa8d
 3970 0ad1 10       		.uleb128 0x10
 3971 0ad2 85050000 		.4byte	.LASF137
 3972 0ad6 14       		.byte	0x14
 3973 0ad7 09       		.byte	0x9
ARM GAS  /var/folders/_2/qbh2zpt918qcm2b_6mgyydnm0000gn/T//ccIdySvu.s 			page 83


 3974 0ad8 0E       		.byte	0xe
 3975 0ad9 10       		.byte	0x10
 3976 0ada 280B0000 		.4byte	0xb28
 3977 0ade 0D       		.uleb128 0xd
 3978 0adf DB0B0000 		.4byte	.LASF138
 3979 0ae3 09       		.byte	0x9
 3980 0ae4 0F       		.byte	0xf
 3981 0ae5 09       		.byte	0x9
 3982 0ae6 25000000 		.4byte	0x25
 3983 0aea 02       		.byte	0x2
 3984 0aeb 23       		.byte	0x23
 3985 0aec 00       		.uleb128 0
 3986 0aed 0D       		.uleb128 0xd
 3987 0aee EF050000 		.4byte	.LASF139
 3988 0af2 09       		.byte	0x9
 3989 0af3 0F       		.byte	0xf
 3990 0af4 12       		.byte	0x12
 3991 0af5 25000000 		.4byte	0x25
 3992 0af9 02       		.byte	0x2
 3993 0afa 23       		.byte	0x23
 3994 0afb 04       		.uleb128 0x4
 3995 0afc 0D       		.uleb128 0xd
 3996 0afd BD030000 		.4byte	.LASF140
 3997 0b01 09       		.byte	0x9
 3998 0b02 0F       		.byte	0xf
 3999 0b03 1B       		.byte	0x1b
 4000 0b04 25000000 		.4byte	0x25
 4001 0b08 02       		.byte	0x2
 4002 0b09 23       		.byte	0x23
 4003 0b0a 08       		.uleb128 0x8
 4004 0b0b 0D       		.uleb128 0xd
 4005 0b0c CE070000 		.4byte	.LASF141
 4006 0b10 09       		.byte	0x9
 4007 0b11 0F       		.byte	0xf
 4008 0b12 25       		.byte	0x25
 4009 0b13 25000000 		.4byte	0x25
 4010 0b17 02       		.byte	0x2
 4011 0b18 23       		.byte	0x23
 4012 0b19 0C       		.uleb128 0xc
 4013 0b1a 11       		.uleb128 0x11
 4014 0b1b 6E00     		.ascii	"n\000"
 4015 0b1d 09       		.byte	0x9
 4016 0b1e 10       		.byte	0x10
 4017 0b1f 07       		.byte	0x7
 4018 0b20 3A000000 		.4byte	0x3a
 4019 0b24 02       		.byte	0x2
 4020 0b25 23       		.byte	0x23
 4021 0b26 10       		.uleb128 0x10
 4022 0b27 00       		.byte	0
 4023 0b28 04       		.uleb128 0x4
 4024 0b29 2E040000 		.4byte	.LASF142
 4025 0b2d 09       		.byte	0x9
 4026 0b2e 11       		.byte	0x11
 4027 0b2f 03       		.byte	0x3
 4028 0b30 D10A0000 		.4byte	0xad1
 4029 0b34 10       		.uleb128 0x10
 4030 0b35 CB050000 		.4byte	.LASF143
ARM GAS  /var/folders/_2/qbh2zpt918qcm2b_6mgyydnm0000gn/T//ccIdySvu.s 			page 84


 4031 0b39 60       		.byte	0x60
 4032 0b3a 09       		.byte	0x9
 4033 0b3b 13       		.byte	0x13
 4034 0b3c 10       		.byte	0x10
 4035 0b3d 7E0B0000 		.4byte	0xb7e
 4036 0b41 11       		.uleb128 0x11
 4037 0b42 73756D00 		.ascii	"sum\000"
 4038 0b46 09       		.byte	0x9
 4039 0b47 14       		.byte	0x14
 4040 0b48 0C       		.byte	0xc
 4041 0b49 7E0B0000 		.4byte	0xb7e
 4042 0b4d 02       		.byte	0x2
 4043 0b4e 23       		.byte	0x23
 4044 0b4f 00       		.uleb128 0
 4045 0b50 0D       		.uleb128 0xd
 4046 0b51 14090000 		.4byte	.LASF144
 4047 0b55 09       		.byte	0x9
 4048 0b56 15       		.byte	0x15
 4049 0b57 0D       		.byte	0xd
 4050 0b58 8E0B0000 		.4byte	0xb8e
 4051 0b5c 02       		.byte	0x2
 4052 0b5d 23       		.byte	0x23
 4053 0b5e 18       		.uleb128 0x18
 4054 0b5f 0D       		.uleb128 0xd
 4055 0b60 7C010000 		.4byte	.LASF145
 4056 0b64 09       		.byte	0x9
 4057 0b65 16       		.byte	0x16
 4058 0b66 0E       		.byte	0xe
 4059 0b67 7C0A0000 		.4byte	0xa7c
 4060 0b6b 02       		.byte	0x2
 4061 0b6c 23       		.byte	0x23
 4062 0b6d 54       		.uleb128 0x54
 4063 0b6e 0D       		.uleb128 0xd
 4064 0b6f 36090000 		.4byte	.LASF146
 4065 0b73 09       		.byte	0x9
 4066 0b74 17       		.byte	0x17
 4067 0b75 0E       		.byte	0xe
 4068 0b76 640A0000 		.4byte	0xa64
 4069 0b7a 02       		.byte	0x2
 4070 0b7b 23       		.byte	0x23
 4071 0b7c 58       		.uleb128 0x58
 4072 0b7d 00       		.byte	0
 4073 0b7e 0A       		.uleb128 0xa
 4074 0b7f 2C000000 		.4byte	0x2c
 4075 0b83 8E0B0000 		.4byte	0xb8e
 4076 0b87 0B       		.uleb128 0xb
 4077 0b88 33000000 		.4byte	0x33
 4078 0b8c 02       		.byte	0x2
 4079 0b8d 00       		.byte	0
 4080 0b8e 0A       		.uleb128 0xa
 4081 0b8f 280B0000 		.4byte	0xb28
 4082 0b93 9E0B0000 		.4byte	0xb9e
 4083 0b97 0B       		.uleb128 0xb
 4084 0b98 33000000 		.4byte	0x33
 4085 0b9c 02       		.byte	0x2
 4086 0b9d 00       		.byte	0
 4087 0b9e 04       		.uleb128 0x4
ARM GAS  /var/folders/_2/qbh2zpt918qcm2b_6mgyydnm0000gn/T//ccIdySvu.s 			page 85


 4088 0b9f DD050000 		.4byte	.LASF147
 4089 0ba3 09       		.byte	0x9
 4090 0ba4 18       		.byte	0x18
 4091 0ba5 03       		.byte	0x3
 4092 0ba6 340B0000 		.4byte	0xb34
 4093 0baa 10       		.uleb128 0x10
 4094 0bab F90B0000 		.4byte	.LASF148
 4095 0baf 88       		.byte	0x88
 4096 0bb0 09       		.byte	0x9
 4097 0bb1 1A       		.byte	0x1a
 4098 0bb2 10       		.byte	0x10
 4099 0bb3 040C0000 		.4byte	0xc04
 4100 0bb7 0D       		.uleb128 0xd
 4101 0bb8 57090000 		.4byte	.LASF149
 4102 0bbc 09       		.byte	0x9
 4103 0bbd 1B       		.byte	0x1b
 4104 0bbe 0C       		.byte	0xc
 4105 0bbf 7C0A0000 		.4byte	0xa7c
 4106 0bc3 02       		.byte	0x2
 4107 0bc4 23       		.byte	0x23
 4108 0bc5 00       		.uleb128 0
 4109 0bc6 0D       		.uleb128 0xd
 4110 0bc7 7E090000 		.4byte	.LASF150
 4111 0bcb 09       		.byte	0x9
 4112 0bcc 1C       		.byte	0x1c
 4113 0bcd 09       		.byte	0x9
 4114 0bce 040C0000 		.4byte	0xc04
 4115 0bd2 02       		.byte	0x2
 4116 0bd3 23       		.byte	0x23
 4117 0bd4 04       		.uleb128 0x4
 4118 0bd5 0D       		.uleb128 0xd
 4119 0bd6 79030000 		.4byte	.LASF151
 4120 0bda 09       		.byte	0x9
 4121 0bdb 1D       		.byte	0x1d
 4122 0bdc 09       		.byte	0x9
 4123 0bdd 040C0000 		.4byte	0xc04
 4124 0be1 02       		.byte	0x2
 4125 0be2 23       		.byte	0x23
 4126 0be3 10       		.uleb128 0x10
 4127 0be4 0D       		.uleb128 0xd
 4128 0be5 CD080000 		.4byte	.LASF152
 4129 0be9 09       		.byte	0x9
 4130 0bea 1E       		.byte	0x1e
 4131 0beb 15       		.byte	0x15
 4132 0bec 9E0B0000 		.4byte	0xb9e
 4133 0bf0 02       		.byte	0x2
 4134 0bf1 23       		.byte	0x23
 4135 0bf2 20       		.uleb128 0x20
 4136 0bf3 0D       		.uleb128 0xd
 4137 0bf4 690B0000 		.4byte	.LASF153
 4138 0bf8 09       		.byte	0x9
 4139 0bf9 1F       		.byte	0x1f
 4140 0bfa 0B       		.byte	0xb
 4141 0bfb 4C0A0000 		.4byte	0xa4c
 4142 0bff 03       		.byte	0x3
 4143 0c00 23       		.byte	0x23
 4144 0c01 8001     		.uleb128 0x80
ARM GAS  /var/folders/_2/qbh2zpt918qcm2b_6mgyydnm0000gn/T//ccIdySvu.s 			page 86


 4145 0c03 00       		.byte	0
 4146 0c04 0A       		.uleb128 0xa
 4147 0c05 25000000 		.4byte	0x25
 4148 0c09 140C0000 		.4byte	0xc14
 4149 0c0d 0B       		.uleb128 0xb
 4150 0c0e 33000000 		.4byte	0x33
 4151 0c12 02       		.byte	0x2
 4152 0c13 00       		.byte	0
 4153 0c14 04       		.uleb128 0x4
 4154 0c15 000C0000 		.4byte	.LASF154
 4155 0c19 09       		.byte	0x9
 4156 0c1a 20       		.byte	0x20
 4157 0c1b 03       		.byte	0x3
 4158 0c1c AA0B0000 		.4byte	0xbaa
 4159 0c20 1E       		.uleb128 0x1e
 4160 0c21 8F080000 		.4byte	.LASF155
 4161 0c25 09       		.byte	0x9
 4162 0c26 21       		.byte	0x21
 4163 0c27 0F       		.byte	0xf
 4164 0c28 140C0000 		.4byte	0xc14
 4165 0c2c 01       		.byte	0x1
 4166 0c2d 01       		.byte	0x1
 4167 0c2e 10       		.uleb128 0x10
 4168 0c2f 9C0B0000 		.4byte	.LASF156
 4169 0c33 44       		.byte	0x44
 4170 0c34 09       		.byte	0x9
 4171 0c35 23       		.byte	0x23
 4172 0c36 10       		.byte	0x10
 4173 0c37 FF0C0000 		.4byte	0xcff
 4174 0c3b 0D       		.uleb128 0xd
 4175 0c3c D7070000 		.4byte	.LASF157
 4176 0c40 09       		.byte	0x9
 4177 0c41 29       		.byte	0x29
 4178 0c42 08       		.byte	0x8
 4179 0c43 25000000 		.4byte	0x25
 4180 0c47 02       		.byte	0x2
 4181 0c48 23       		.byte	0x23
 4182 0c49 00       		.uleb128 0
 4183 0c4a 0D       		.uleb128 0xd
 4184 0c4b 79030000 		.4byte	.LASF151
 4185 0c4f 09       		.byte	0x9
 4186 0c50 2A       		.byte	0x2a
 4187 0c51 08       		.byte	0x8
 4188 0c52 040C0000 		.4byte	0xc04
 4189 0c56 02       		.byte	0x2
 4190 0c57 23       		.byte	0x23
 4191 0c58 04       		.uleb128 0x4
 4192 0c59 0D       		.uleb128 0xd
 4193 0c5a 610B0000 		.4byte	.LASF158
 4194 0c5e 09       		.byte	0x9
 4195 0c5f 2B       		.byte	0x2b
 4196 0c60 08       		.byte	0x8
 4197 0c61 040C0000 		.4byte	0xc04
 4198 0c65 02       		.byte	0x2
 4199 0c66 23       		.byte	0x23
 4200 0c67 10       		.uleb128 0x10
 4201 0c68 0D       		.uleb128 0xd
ARM GAS  /var/folders/_2/qbh2zpt918qcm2b_6mgyydnm0000gn/T//ccIdySvu.s 			page 87


 4202 0c69 7E090000 		.4byte	.LASF150
 4203 0c6d 09       		.byte	0x9
 4204 0c6e 2C       		.byte	0x2c
 4205 0c6f 08       		.byte	0x8
 4206 0c70 040C0000 		.4byte	0xc04
 4207 0c74 02       		.byte	0x2
 4208 0c75 23       		.byte	0x23
 4209 0c76 1C       		.uleb128 0x1c
 4210 0c77 0D       		.uleb128 0xd
 4211 0c78 1C090000 		.4byte	.LASF159
 4212 0c7c 09       		.byte	0x9
 4213 0c7d 2D       		.byte	0x2d
 4214 0c7e 0A       		.byte	0xa
 4215 0c7f FF0C0000 		.4byte	0xcff
 4216 0c83 02       		.byte	0x2
 4217 0c84 23       		.byte	0x23
 4218 0c85 28       		.uleb128 0x28
 4219 0c86 0D       		.uleb128 0xd
 4220 0c87 72000000 		.4byte	.LASF160
 4221 0c8b 09       		.byte	0x9
 4222 0c8c 2E       		.byte	0x2e
 4223 0c8d 0A       		.byte	0xa
 4224 0c8e 0F0D0000 		.4byte	0xd0f
 4225 0c92 02       		.byte	0x2
 4226 0c93 23       		.byte	0x23
 4227 0c94 34       		.uleb128 0x34
 4228 0c95 0D       		.uleb128 0xd
 4229 0c96 D9000000 		.4byte	.LASF161
 4230 0c9a 09       		.byte	0x9
 4231 0c9b 2F       		.byte	0x2f
 4232 0c9c 0A       		.byte	0xa
 4233 0c9d 580A0000 		.4byte	0xa58
 4234 0ca1 02       		.byte	0x2
 4235 0ca2 23       		.byte	0x23
 4236 0ca3 3A       		.uleb128 0x3a
 4237 0ca4 0D       		.uleb128 0xd
 4238 0ca5 A4050000 		.4byte	.LASF162
 4239 0ca9 09       		.byte	0x9
 4240 0caa 34       		.byte	0x34
 4241 0cab 07       		.byte	0x7
 4242 0cac 1F0D0000 		.4byte	0xd1f
 4243 0cb0 02       		.byte	0x2
 4244 0cb1 23       		.byte	0x23
 4245 0cb2 3C       		.uleb128 0x3c
 4246 0cb3 0D       		.uleb128 0xd
 4247 0cb4 130C0000 		.4byte	.LASF163
 4248 0cb8 09       		.byte	0x9
 4249 0cb9 35       		.byte	0x35
 4250 0cba 07       		.byte	0x7
 4251 0cbb 1F0D0000 		.4byte	0xd1f
 4252 0cbf 02       		.byte	0x2
 4253 0cc0 23       		.byte	0x23
 4254 0cc1 3D       		.uleb128 0x3d
 4255 0cc2 0D       		.uleb128 0xd
 4256 0cc3 540B0000 		.4byte	.LASF164
 4257 0cc7 09       		.byte	0x9
 4258 0cc8 36       		.byte	0x36
ARM GAS  /var/folders/_2/qbh2zpt918qcm2b_6mgyydnm0000gn/T//ccIdySvu.s 			page 88


 4259 0cc9 0A       		.byte	0xa
 4260 0cca 4C0A0000 		.4byte	0xa4c
 4261 0cce 02       		.byte	0x2
 4262 0ccf 23       		.byte	0x23
 4263 0cd0 3E       		.uleb128 0x3e
 4264 0cd1 0D       		.uleb128 0xd
 4265 0cd2 8E0D0000 		.4byte	.LASF165
 4266 0cd6 09       		.byte	0x9
 4267 0cd7 37       		.byte	0x37
 4268 0cd8 0A       		.byte	0xa
 4269 0cd9 4C0A0000 		.4byte	0xa4c
 4270 0cdd 02       		.byte	0x2
 4271 0cde 23       		.byte	0x23
 4272 0cdf 3F       		.uleb128 0x3f
 4273 0ce0 0D       		.uleb128 0xd
 4274 0ce1 D2040000 		.4byte	.LASF166
 4275 0ce5 09       		.byte	0x9
 4276 0ce6 38       		.byte	0x38
 4277 0ce7 0A       		.byte	0xa
 4278 0ce8 4C0A0000 		.4byte	0xa4c
 4279 0cec 02       		.byte	0x2
 4280 0ced 23       		.byte	0x23
 4281 0cee 40       		.uleb128 0x40
 4282 0cef 0D       		.uleb128 0xd
 4283 0cf0 B80D0000 		.4byte	.LASF167
 4284 0cf4 09       		.byte	0x9
 4285 0cf5 3A       		.byte	0x3a
 4286 0cf6 0A       		.byte	0xa
 4287 0cf7 4C0A0000 		.4byte	0xa4c
 4288 0cfb 02       		.byte	0x2
 4289 0cfc 23       		.byte	0x23
 4290 0cfd 41       		.uleb128 0x41
 4291 0cfe 00       		.byte	0
 4292 0cff 0A       		.uleb128 0xa
 4293 0d00 700A0000 		.4byte	0xa70
 4294 0d04 0F0D0000 		.4byte	0xd0f
 4295 0d08 0B       		.uleb128 0xb
 4296 0d09 33000000 		.4byte	0x33
 4297 0d0d 02       		.byte	0x2
 4298 0d0e 00       		.byte	0
 4299 0d0f 0A       		.uleb128 0xa
 4300 0d10 580A0000 		.4byte	0xa58
 4301 0d14 1F0D0000 		.4byte	0xd1f
 4302 0d18 0B       		.uleb128 0xb
 4303 0d19 33000000 		.4byte	0x33
 4304 0d1d 02       		.byte	0x2
 4305 0d1e 00       		.byte	0
 4306 0d1f 02       		.uleb128 0x2
 4307 0d20 01       		.byte	0x1
 4308 0d21 02       		.byte	0x2
 4309 0d22 BE080000 		.4byte	.LASF168
 4310 0d26 04       		.uleb128 0x4
 4311 0d27 B40B0000 		.4byte	.LASF169
 4312 0d2b 09       		.byte	0x9
 4313 0d2c 3C       		.byte	0x3c
 4314 0d2d 03       		.byte	0x3
 4315 0d2e 2E0C0000 		.4byte	0xc2e
ARM GAS  /var/folders/_2/qbh2zpt918qcm2b_6mgyydnm0000gn/T//ccIdySvu.s 			page 89


 4316 0d32 10       		.uleb128 0x10
 4317 0d33 64040000 		.4byte	.LASF170
 4318 0d37 12       		.byte	0x12
 4319 0d38 09       		.byte	0x9
 4320 0d39 3F       		.byte	0x3f
 4321 0d3a 10       		.byte	0x10
 4322 0d3b D60D0000 		.4byte	0xdd6
 4323 0d3f 0D       		.uleb128 0xd
 4324 0d40 26030000 		.4byte	.LASF171
 4325 0d44 09       		.byte	0x9
 4326 0d45 48       		.byte	0x48
 4327 0d46 0B       		.byte	0xb
 4328 0d47 640A0000 		.4byte	0xa64
 4329 0d4b 02       		.byte	0x2
 4330 0d4c 23       		.byte	0x23
 4331 0d4d 00       		.uleb128 0
 4332 0d4e 0D       		.uleb128 0xd
 4333 0d4f A1010000 		.4byte	.LASF172
 4334 0d53 09       		.byte	0x9
 4335 0d54 49       		.byte	0x49
 4336 0d55 0B       		.byte	0xb
 4337 0d56 640A0000 		.4byte	0xa64
 4338 0d5a 02       		.byte	0x2
 4339 0d5b 23       		.byte	0x23
 4340 0d5c 02       		.uleb128 0x2
 4341 0d5d 0D       		.uleb128 0xd
 4342 0d5e 48000000 		.4byte	.LASF173
 4343 0d62 09       		.byte	0x9
 4344 0d63 4A       		.byte	0x4a
 4345 0d64 0B       		.byte	0xb
 4346 0d65 640A0000 		.4byte	0xa64
 4347 0d69 02       		.byte	0x2
 4348 0d6a 23       		.byte	0x23
 4349 0d6b 04       		.uleb128 0x4
 4350 0d6c 0D       		.uleb128 0xd
 4351 0d6d 3F080000 		.4byte	.LASF174
 4352 0d71 09       		.byte	0x9
 4353 0d72 4B       		.byte	0x4b
 4354 0d73 0B       		.byte	0xb
 4355 0d74 640A0000 		.4byte	0xa64
 4356 0d78 02       		.byte	0x2
 4357 0d79 23       		.byte	0x23
 4358 0d7a 06       		.uleb128 0x6
 4359 0d7b 0D       		.uleb128 0xd
 4360 0d7c 5D000000 		.4byte	.LASF175
 4361 0d80 09       		.byte	0x9
 4362 0d81 4C       		.byte	0x4c
 4363 0d82 0B       		.byte	0xb
 4364 0d83 640A0000 		.4byte	0xa64
 4365 0d87 02       		.byte	0x2
 4366 0d88 23       		.byte	0x23
 4367 0d89 08       		.uleb128 0x8
 4368 0d8a 0D       		.uleb128 0xd
 4369 0d8b 58080000 		.4byte	.LASF176
 4370 0d8f 09       		.byte	0x9
 4371 0d90 4D       		.byte	0x4d
 4372 0d91 0B       		.byte	0xb
ARM GAS  /var/folders/_2/qbh2zpt918qcm2b_6mgyydnm0000gn/T//ccIdySvu.s 			page 90


 4373 0d92 640A0000 		.4byte	0xa64
 4374 0d96 02       		.byte	0x2
 4375 0d97 23       		.byte	0x23
 4376 0d98 0A       		.uleb128 0xa
 4377 0d99 0D       		.uleb128 0xd
 4378 0d9a 660C0000 		.4byte	.LASF177
 4379 0d9e 09       		.byte	0x9
 4380 0d9f 4E       		.byte	0x4e
 4381 0da0 0A       		.byte	0xa
 4382 0da1 4C0A0000 		.4byte	0xa4c
 4383 0da5 02       		.byte	0x2
 4384 0da6 23       		.byte	0x23
 4385 0da7 0C       		.uleb128 0xc
 4386 0da8 0D       		.uleb128 0xd
 4387 0da9 3F0D0000 		.4byte	.LASF178
 4388 0dad 09       		.byte	0x9
 4389 0dae 53       		.byte	0x53
 4390 0daf 0B       		.byte	0xb
 4391 0db0 4C0A0000 		.4byte	0xa4c
 4392 0db4 02       		.byte	0x2
 4393 0db5 23       		.byte	0x23
 4394 0db6 0D       		.uleb128 0xd
 4395 0db7 0D       		.uleb128 0xd
 4396 0db8 F7050000 		.4byte	.LASF179
 4397 0dbc 09       		.byte	0x9
 4398 0dbd 54       		.byte	0x54
 4399 0dbe 0B       		.byte	0xb
 4400 0dbf 4C0A0000 		.4byte	0xa4c
 4401 0dc3 02       		.byte	0x2
 4402 0dc4 23       		.byte	0x23
 4403 0dc5 0E       		.uleb128 0xe
 4404 0dc6 0D       		.uleb128 0xd
 4405 0dc7 9E020000 		.4byte	.LASF180
 4406 0dcb 09       		.byte	0x9
 4407 0dcc 57       		.byte	0x57
 4408 0dcd 0B       		.byte	0xb
 4409 0dce 640A0000 		.4byte	0xa64
 4410 0dd2 02       		.byte	0x2
 4411 0dd3 23       		.byte	0x23
 4412 0dd4 10       		.uleb128 0x10
 4413 0dd5 00       		.byte	0
 4414 0dd6 04       		.uleb128 0x4
 4415 0dd7 71040000 		.4byte	.LASF181
 4416 0ddb 09       		.byte	0x9
 4417 0ddc 5A       		.byte	0x5a
 4418 0ddd 03       		.byte	0x3
 4419 0dde 320D0000 		.4byte	0xd32
 4420 0de2 1E       		.uleb128 0x1e
 4421 0de3 91060000 		.4byte	.LASF182
 4422 0de7 09       		.byte	0x9
 4423 0de8 5B       		.byte	0x5b
 4424 0de9 15       		.byte	0x15
 4425 0dea D60D0000 		.4byte	0xdd6
 4426 0dee 01       		.byte	0x1
 4427 0def 01       		.byte	0x1
 4428 0df0 10       		.uleb128 0x10
 4429 0df1 37010000 		.4byte	.LASF183
ARM GAS  /var/folders/_2/qbh2zpt918qcm2b_6mgyydnm0000gn/T//ccIdySvu.s 			page 91


 4430 0df5 0A       		.byte	0xa
 4431 0df6 09       		.byte	0x9
 4432 0df7 5D       		.byte	0x5d
 4433 0df8 10       		.byte	0x10
 4434 0df9 490E0000 		.4byte	0xe49
 4435 0dfd 0D       		.uleb128 0xd
 4436 0dfe 2A0B0000 		.4byte	.LASF184
 4437 0e02 09       		.byte	0x9
 4438 0e03 5E       		.byte	0x5e
 4439 0e04 0B       		.byte	0xb
 4440 0e05 640A0000 		.4byte	0xa64
 4441 0e09 02       		.byte	0x2
 4442 0e0a 23       		.byte	0x23
 4443 0e0b 00       		.uleb128 0
 4444 0e0c 0D       		.uleb128 0xd
 4445 0e0d 94080000 		.4byte	.LASF185
 4446 0e11 09       		.byte	0x9
 4447 0e12 5F       		.byte	0x5f
 4448 0e13 0B       		.byte	0xb
 4449 0e14 640A0000 		.4byte	0xa64
 4450 0e18 02       		.byte	0x2
 4451 0e19 23       		.byte	0x23
 4452 0e1a 02       		.uleb128 0x2
 4453 0e1b 0D       		.uleb128 0xd
 4454 0e1c 84020000 		.4byte	.LASF186
 4455 0e20 09       		.byte	0x9
 4456 0e21 60       		.byte	0x60
 4457 0e22 0B       		.byte	0xb
 4458 0e23 640A0000 		.4byte	0xa64
 4459 0e27 02       		.byte	0x2
 4460 0e28 23       		.byte	0x23
 4461 0e29 04       		.uleb128 0x4
 4462 0e2a 0D       		.uleb128 0xd
 4463 0e2b 2C080000 		.4byte	.LASF187
 4464 0e2f 09       		.byte	0x9
 4465 0e30 61       		.byte	0x61
 4466 0e31 0A       		.byte	0xa
 4467 0e32 4C0A0000 		.4byte	0xa4c
 4468 0e36 02       		.byte	0x2
 4469 0e37 23       		.byte	0x23
 4470 0e38 06       		.uleb128 0x6
 4471 0e39 0D       		.uleb128 0xd
 4472 0e3a BA000000 		.4byte	.LASF188
 4473 0e3e 09       		.byte	0x9
 4474 0e3f 62       		.byte	0x62
 4475 0e40 0B       		.byte	0xb
 4476 0e41 640A0000 		.4byte	0xa64
 4477 0e45 02       		.byte	0x2
 4478 0e46 23       		.byte	0x23
 4479 0e47 08       		.uleb128 0x8
 4480 0e48 00       		.byte	0
 4481 0e49 04       		.uleb128 0x4
 4482 0e4a 45010000 		.4byte	.LASF189
 4483 0e4e 09       		.byte	0x9
 4484 0e4f 63       		.byte	0x63
 4485 0e50 03       		.byte	0x3
 4486 0e51 F00D0000 		.4byte	0xdf0
ARM GAS  /var/folders/_2/qbh2zpt918qcm2b_6mgyydnm0000gn/T//ccIdySvu.s 			page 92


 4487 0e55 1E       		.uleb128 0x1e
 4488 0e56 76060000 		.4byte	.LASF190
 4489 0e5a 09       		.byte	0x9
 4490 0e5b 64       		.byte	0x64
 4491 0e5c 16       		.byte	0x16
 4492 0e5d 490E0000 		.4byte	0xe49
 4493 0e61 01       		.byte	0x1
 4494 0e62 01       		.byte	0x1
 4495 0e63 10       		.uleb128 0x10
 4496 0e64 FA090000 		.4byte	.LASF191
 4497 0e68 08       		.byte	0x8
 4498 0e69 09       		.byte	0x9
 4499 0e6a 67       		.byte	0x67
 4500 0e6b 10       		.byte	0x10
 4501 0e6c 8D0E0000 		.4byte	0xe8d
 4502 0e70 0D       		.uleb128 0xd
 4503 0e71 950A0000 		.4byte	.LASF192
 4504 0e75 09       		.byte	0x9
 4505 0e76 68       		.byte	0x68
 4506 0e77 08       		.byte	0x8
 4507 0e78 25000000 		.4byte	0x25
 4508 0e7c 02       		.byte	0x2
 4509 0e7d 23       		.byte	0x23
 4510 0e7e 00       		.uleb128 0
 4511 0e7f 11       		.uleb128 0x11
 4512 0e80 6B00     		.ascii	"k\000"
 4513 0e82 09       		.byte	0x9
 4514 0e83 69       		.byte	0x69
 4515 0e84 08       		.byte	0x8
 4516 0e85 25000000 		.4byte	0x25
 4517 0e89 02       		.byte	0x2
 4518 0e8a 23       		.byte	0x23
 4519 0e8b 04       		.uleb128 0x4
 4520 0e8c 00       		.byte	0
 4521 0e8d 04       		.uleb128 0x4
 4522 0e8e 060A0000 		.4byte	.LASF193
 4523 0e92 09       		.byte	0x9
 4524 0e93 6A       		.byte	0x6a
 4525 0e94 03       		.byte	0x3
 4526 0e95 630E0000 		.4byte	0xe63
 4527 0e99 10       		.uleb128 0x10
 4528 0e9a 87040000 		.4byte	.LASF194
 4529 0e9e 24       		.byte	0x24
 4530 0e9f 09       		.byte	0x9
 4531 0ea0 6C       		.byte	0x6c
 4532 0ea1 10       		.byte	0x10
 4533 0ea2 250F0000 		.4byte	0xf25
 4534 0ea6 11       		.uleb128 0x11
 4535 0ea7 623000   		.ascii	"b0\000"
 4536 0eaa 09       		.byte	0x9
 4537 0eab 6D       		.byte	0x6d
 4538 0eac 08       		.byte	0x8
 4539 0ead 25000000 		.4byte	0x25
 4540 0eb1 02       		.byte	0x2
 4541 0eb2 23       		.byte	0x23
 4542 0eb3 00       		.uleb128 0
 4543 0eb4 11       		.uleb128 0x11
ARM GAS  /var/folders/_2/qbh2zpt918qcm2b_6mgyydnm0000gn/T//ccIdySvu.s 			page 93


 4544 0eb5 623100   		.ascii	"b1\000"
 4545 0eb8 09       		.byte	0x9
 4546 0eb9 6D       		.byte	0x6d
 4547 0eba 0C       		.byte	0xc
 4548 0ebb 25000000 		.4byte	0x25
 4549 0ebf 02       		.byte	0x2
 4550 0ec0 23       		.byte	0x23
 4551 0ec1 04       		.uleb128 0x4
 4552 0ec2 11       		.uleb128 0x11
 4553 0ec3 623200   		.ascii	"b2\000"
 4554 0ec6 09       		.byte	0x9
 4555 0ec7 6D       		.byte	0x6d
 4556 0ec8 10       		.byte	0x10
 4557 0ec9 25000000 		.4byte	0x25
 4558 0ecd 02       		.byte	0x2
 4559 0ece 23       		.byte	0x23
 4560 0ecf 08       		.uleb128 0x8
 4561 0ed0 11       		.uleb128 0x11
 4562 0ed1 613100   		.ascii	"a1\000"
 4563 0ed4 09       		.byte	0x9
 4564 0ed5 6D       		.byte	0x6d
 4565 0ed6 14       		.byte	0x14
 4566 0ed7 25000000 		.4byte	0x25
 4567 0edb 02       		.byte	0x2
 4568 0edc 23       		.byte	0x23
 4569 0edd 0C       		.uleb128 0xc
 4570 0ede 11       		.uleb128 0x11
 4571 0edf 613200   		.ascii	"a2\000"
 4572 0ee2 09       		.byte	0x9
 4573 0ee3 6D       		.byte	0x6d
 4574 0ee4 18       		.byte	0x18
 4575 0ee5 25000000 		.4byte	0x25
 4576 0ee9 02       		.byte	0x2
 4577 0eea 23       		.byte	0x23
 4578 0eeb 10       		.uleb128 0x10
 4579 0eec 11       		.uleb128 0x11
 4580 0eed 783100   		.ascii	"x1\000"
 4581 0ef0 09       		.byte	0x9
 4582 0ef1 6E       		.byte	0x6e
 4583 0ef2 08       		.byte	0x8
 4584 0ef3 25000000 		.4byte	0x25
 4585 0ef7 02       		.byte	0x2
 4586 0ef8 23       		.byte	0x23
 4587 0ef9 14       		.uleb128 0x14
 4588 0efa 11       		.uleb128 0x11
 4589 0efb 783200   		.ascii	"x2\000"
 4590 0efe 09       		.byte	0x9
 4591 0eff 6E       		.byte	0x6e
 4592 0f00 0C       		.byte	0xc
 4593 0f01 25000000 		.4byte	0x25
 4594 0f05 02       		.byte	0x2
 4595 0f06 23       		.byte	0x23
 4596 0f07 18       		.uleb128 0x18
 4597 0f08 11       		.uleb128 0x11
 4598 0f09 793100   		.ascii	"y1\000"
 4599 0f0c 09       		.byte	0x9
 4600 0f0d 6E       		.byte	0x6e
ARM GAS  /var/folders/_2/qbh2zpt918qcm2b_6mgyydnm0000gn/T//ccIdySvu.s 			page 94


 4601 0f0e 10       		.byte	0x10
 4602 0f0f 25000000 		.4byte	0x25
 4603 0f13 02       		.byte	0x2
 4604 0f14 23       		.byte	0x23
 4605 0f15 1C       		.uleb128 0x1c
 4606 0f16 11       		.uleb128 0x11
 4607 0f17 793200   		.ascii	"y2\000"
 4608 0f1a 09       		.byte	0x9
 4609 0f1b 6E       		.byte	0x6e
 4610 0f1c 14       		.byte	0x14
 4611 0f1d 25000000 		.4byte	0x25
 4612 0f21 02       		.byte	0x2
 4613 0f22 23       		.byte	0x23
 4614 0f23 20       		.uleb128 0x20
 4615 0f24 00       		.byte	0
 4616 0f25 04       		.uleb128 0x4
 4617 0f26 96040000 		.4byte	.LASF195
 4618 0f2a 09       		.byte	0x9
 4619 0f2b 6F       		.byte	0x6f
 4620 0f2c 03       		.byte	0x3
 4621 0f2d 990E0000 		.4byte	0xe99
 4622 0f31 0A       		.uleb128 0xa
 4623 0f32 250F0000 		.4byte	0xf25
 4624 0f36 410F0000 		.4byte	0xf41
 4625 0f3a 0B       		.uleb128 0xb
 4626 0f3b 33000000 		.4byte	0x33
 4627 0f3f 02       		.byte	0x2
 4628 0f40 00       		.byte	0
 4629 0f41 1F       		.uleb128 0x1f
 4630 0f42 CD090000 		.4byte	.LASF196
 4631 0f46 09       		.byte	0x9
 4632 0f47 71       		.byte	0x71
 4633 0f48 10       		.byte	0x10
 4634 0f49 310F0000 		.4byte	0xf31
 4635 0f4d 01       		.byte	0x1
 4636 0f4e 05       		.byte	0x5
 4637 0f4f 03       		.byte	0x3
 4638 0f50 00000000 		.4byte	accelFilter
 4639 0f54 20       		.uleb128 0x20
 4640 0f55 DE030000 		.4byte	.LASF222
 4641 0f59 24       		.byte	0x24
 4642 0f5a 09       		.byte	0x9
 4643 0f5b 73       		.byte	0x73
 4644 0f5c 0F       		.byte	0xf
 4645 0f5d 7A0F0000 		.4byte	0xf7a
 4646 0f61 09       		.uleb128 0x9
 4647 0f62 1F040000 		.4byte	.LASF197
 4648 0f66 09       		.byte	0x9
 4649 0f67 74       		.byte	0x74
 4650 0f68 0E       		.byte	0xe
 4651 0f69 8D0E0000 		.4byte	0xe8d
 4652 0f6d 09       		.uleb128 0x9
 4653 0f6e A2000000 		.4byte	.LASF198
 4654 0f72 09       		.byte	0x9
 4655 0f73 75       		.byte	0x75
 4656 0f74 11       		.byte	0x11
 4657 0f75 250F0000 		.4byte	0xf25
ARM GAS  /var/folders/_2/qbh2zpt918qcm2b_6mgyydnm0000gn/T//ccIdySvu.s 			page 95


 4658 0f79 00       		.byte	0
 4659 0f7a 04       		.uleb128 0x4
 4660 0f7b 59060000 		.4byte	.LASF199
 4661 0f7f 09       		.byte	0x9
 4662 0f80 76       		.byte	0x76
 4663 0f81 03       		.byte	0x3
 4664 0f82 540F0000 		.4byte	0xf54
 4665 0f86 21       		.uleb128 0x21
 4666 0f87 07       		.byte	0x7
 4667 0f88 01       		.byte	0x1
 4668 0f89 62000000 		.4byte	0x62
 4669 0f8d 09       		.byte	0x9
 4670 0f8e 78       		.byte	0x78
 4671 0f8f 0D       		.byte	0xd
 4672 0f90 A10F0000 		.4byte	0xfa1
 4673 0f94 22       		.uleb128 0x22
 4674 0f95 53010000 		.4byte	.LASF200
 4675 0f99 00       		.byte	0
 4676 0f9a 22       		.uleb128 0x22
 4677 0f9b 66090000 		.4byte	.LASF201
 4678 0f9f 01       		.byte	0x1
 4679 0fa0 00       		.byte	0
 4680 0fa1 21       		.uleb128 0x21
 4681 0fa2 07       		.byte	0x7
 4682 0fa3 01       		.byte	0x1
 4683 0fa4 62000000 		.4byte	0x62
 4684 0fa8 09       		.byte	0x9
 4685 0fa9 7D       		.byte	0x7d
 4686 0faa 0E       		.byte	0xe
 4687 0fab BC0F0000 		.4byte	0xfbc
 4688 0faf 22       		.uleb128 0x22
 4689 0fb0 AA080000 		.4byte	.LASF202
 4690 0fb4 00       		.byte	0
 4691 0fb5 22       		.uleb128 0x22
 4692 0fb6 830C0000 		.4byte	.LASF203
 4693 0fba 01       		.byte	0x1
 4694 0fbb 00       		.byte	0
 4695 0fbc 21       		.uleb128 0x21
 4696 0fbd 07       		.byte	0x7
 4697 0fbe 01       		.byte	0x1
 4698 0fbf 62000000 		.4byte	0x62
 4699 0fc3 09       		.byte	0x9
 4700 0fc4 82       		.byte	0x82
 4701 0fc5 0E       		.byte	0xe
 4702 0fc6 DD0F0000 		.4byte	0xfdd
 4703 0fca 22       		.uleb128 0x22
 4704 0fcb 700A0000 		.4byte	.LASF204
 4705 0fcf 00       		.byte	0
 4706 0fd0 22       		.uleb128 0x22
 4707 0fd1 EC0A0000 		.4byte	.LASF205
 4708 0fd5 01       		.byte	0x1
 4709 0fd6 22       		.uleb128 0x22
 4710 0fd7 F90A0000 		.4byte	.LASF206
 4711 0fdb 02       		.byte	0x2
 4712 0fdc 00       		.byte	0
 4713 0fdd 04       		.uleb128 0x4
 4714 0fde D20D0000 		.4byte	.LASF207
ARM GAS  /var/folders/_2/qbh2zpt918qcm2b_6mgyydnm0000gn/T//ccIdySvu.s 			page 96


 4715 0fe2 09       		.byte	0x9
 4716 0fe3 86       		.byte	0x86
 4717 0fe4 03       		.byte	0x3
 4718 0fe5 BC0F0000 		.4byte	0xfbc
 4719 0fe9 12       		.uleb128 0x12
 4720 0fea B90A0000 		.4byte	.LASF208
 4721 0fee 7402     		.2byte	0x274
 4722 0ff0 09       		.byte	0x9
 4723 0ff1 88       		.byte	0x88
 4724 0ff2 10       		.byte	0x10
 4725 0ff3 A5100000 		.4byte	0x10a5
 4726 0ff7 0D       		.uleb128 0xd
 4727 0ff8 0E020000 		.4byte	.LASF209
 4728 0ffc 09       		.byte	0x9
 4729 0ffd 89       		.byte	0x89
 4730 0ffe 0C       		.byte	0xc
 4731 0fff 260D0000 		.4byte	0xd26
 4732 1003 02       		.byte	0x2
 4733 1004 23       		.byte	0x23
 4734 1005 00       		.uleb128 0
 4735 1006 0D       		.uleb128 0xd
 4736 1007 D6010000 		.4byte	.LASF210
 4737 100b 09       		.byte	0x9
 4738 100c 8D       		.byte	0x8d
 4739 100d 11       		.byte	0x11
 4740 100e 9F0A0000 		.4byte	0xa9f
 4741 1012 02       		.byte	0x2
 4742 1013 23       		.byte	0x23
 4743 1014 44       		.uleb128 0x44
 4744 1015 0D       		.uleb128 0xd
 4745 1016 FD020000 		.4byte	.LASF211
 4746 101a 09       		.byte	0x9
 4747 101b 8E       		.byte	0x8e
 4748 101c 16       		.byte	0x16
 4749 101d A5100000 		.4byte	0x10a5
 4750 1021 02       		.byte	0x2
 4751 1022 23       		.byte	0x23
 4752 1023 48       		.uleb128 0x48
 4753 1024 0D       		.uleb128 0xd
 4754 1025 A30A0000 		.4byte	.LASF212
 4755 1029 09       		.byte	0x9
 4756 102a 91       		.byte	0x91
 4757 102b 11       		.byte	0x11
 4758 102c 9F0A0000 		.4byte	0xa9f
 4759 1030 03       		.byte	0x3
 4760 1031 23       		.byte	0x23
 4761 1032 B401     		.uleb128 0xb4
 4762 1034 0D       		.uleb128 0xd
 4763 1035 FF010000 		.4byte	.LASF213
 4764 1039 09       		.byte	0x9
 4765 103a 92       		.byte	0x92
 4766 103b 16       		.byte	0x16
 4767 103c A5100000 		.4byte	0x10a5
 4768 1040 03       		.byte	0x3
 4769 1041 23       		.byte	0x23
 4770 1042 B801     		.uleb128 0xb8
 4771 1044 0D       		.uleb128 0xd
ARM GAS  /var/folders/_2/qbh2zpt918qcm2b_6mgyydnm0000gn/T//ccIdySvu.s 			page 97


 4772 1045 E00C0000 		.4byte	.LASF214
 4773 1049 09       		.byte	0x9
 4774 104a 95       		.byte	0x95
 4775 104b 11       		.byte	0x11
 4776 104c 9F0A0000 		.4byte	0xa9f
 4777 1050 03       		.byte	0x3
 4778 1051 23       		.byte	0x23
 4779 1052 A402     		.uleb128 0x124
 4780 1054 0D       		.uleb128 0xd
 4781 1055 F7060000 		.4byte	.LASF215
 4782 1059 09       		.byte	0x9
 4783 105a 96       		.byte	0x96
 4784 105b 11       		.byte	0x11
 4785 105c 310F0000 		.4byte	0xf31
 4786 1060 03       		.byte	0x3
 4787 1061 23       		.byte	0x23
 4788 1062 A802     		.uleb128 0x128
 4789 1064 0D       		.uleb128 0xd
 4790 1065 D7020000 		.4byte	.LASF216
 4791 1069 09       		.byte	0x9
 4792 106a 98       		.byte	0x98
 4793 106b 11       		.byte	0x11
 4794 106c 9F0A0000 		.4byte	0xa9f
 4795 1070 03       		.byte	0x3
 4796 1071 23       		.byte	0x23
 4797 1072 9403     		.uleb128 0x194
 4798 1074 0D       		.uleb128 0xd
 4799 1075 91090000 		.4byte	.LASF217
 4800 1079 09       		.byte	0x9
 4801 107a 99       		.byte	0x99
 4802 107b 11       		.byte	0x11
 4803 107c 310F0000 		.4byte	0xf31
 4804 1080 03       		.byte	0x3
 4805 1081 23       		.byte	0x23
 4806 1082 9803     		.uleb128 0x198
 4807 1084 0D       		.uleb128 0xd
 4808 1085 DB060000 		.4byte	.LASF218
 4809 1089 09       		.byte	0x9
 4810 108a 9B       		.byte	0x9b
 4811 108b 13       		.byte	0x13
 4812 108c 9F0A0000 		.4byte	0xa9f
 4813 1090 03       		.byte	0x3
 4814 1091 23       		.byte	0x23
 4815 1092 8404     		.uleb128 0x204
 4816 1094 0D       		.uleb128 0xd
 4817 1095 BE090000 		.4byte	.LASF219
 4818 1099 09       		.byte	0x9
 4819 109a 9C       		.byte	0x9c
 4820 109b 11       		.byte	0x11
 4821 109c 310F0000 		.4byte	0xf31
 4822 10a0 03       		.byte	0x3
 4823 10a1 23       		.byte	0x23
 4824 10a2 8804     		.uleb128 0x208
 4825 10a4 00       		.byte	0
 4826 10a5 0A       		.uleb128 0xa
 4827 10a6 7A0F0000 		.4byte	0xf7a
 4828 10aa B5100000 		.4byte	0x10b5
ARM GAS  /var/folders/_2/qbh2zpt918qcm2b_6mgyydnm0000gn/T//ccIdySvu.s 			page 98


 4829 10ae 0B       		.uleb128 0xb
 4830 10af 33000000 		.4byte	0x33
 4831 10b3 02       		.byte	0x2
 4832 10b4 00       		.byte	0
 4833 10b5 04       		.uleb128 0x4
 4834 10b6 C60A0000 		.4byte	.LASF220
 4835 10ba 09       		.byte	0x9
 4836 10bb 9F       		.byte	0x9f
 4837 10bc 03       		.byte	0x3
 4838 10bd E90F0000 		.4byte	0xfe9
 4839 10c1 1E       		.uleb128 0x1e
 4840 10c2 6F020000 		.4byte	.LASF221
 4841 10c6 09       		.byte	0x9
 4842 10c7 A0       		.byte	0xa0
 4843 10c8 15       		.byte	0x15
 4844 10c9 B5100000 		.4byte	0x10b5
 4845 10cd 01       		.byte	0x1
 4846 10ce 01       		.byte	0x1
 4847 10cf 20       		.uleb128 0x20
 4848 10d0 19030000 		.4byte	.LASF223
 4849 10d4 24       		.byte	0x24
 4850 10d5 09       		.byte	0x9
 4851 10d6 A2       		.byte	0xa2
 4852 10d7 0F       		.byte	0xf
 4853 10d8 F5100000 		.4byte	0x10f5
 4854 10dc 09       		.uleb128 0x9
 4855 10dd 04070000 		.4byte	.LASF224
 4856 10e1 09       		.byte	0x9
 4857 10e2 A3       		.byte	0xa3
 4858 10e3 0E       		.byte	0xe
 4859 10e4 8D0E0000 		.4byte	0xe8d
 4860 10e8 09       		.uleb128 0x9
 4861 10e9 01040000 		.4byte	.LASF225
 4862 10ed 09       		.byte	0x9
 4863 10ee A4       		.byte	0xa4
 4864 10ef 11       		.byte	0x11
 4865 10f0 250F0000 		.4byte	0xf25
 4866 10f4 00       		.byte	0
 4867 10f5 04       		.uleb128 0x4
 4868 10f6 40020000 		.4byte	.LASF226
 4869 10fa 09       		.byte	0x9
 4870 10fb A5       		.byte	0xa5
 4871 10fc 03       		.byte	0x3
 4872 10fd CF100000 		.4byte	0x10cf
 4873 1101 1F       		.uleb128 0x1f
 4874 1102 C0010000 		.4byte	.LASF227
 4875 1106 09       		.byte	0x9
 4876 1107 A7       		.byte	0xa7
 4877 1108 10       		.byte	0x10
 4878 1109 9F0A0000 		.4byte	0xa9f
 4879 110d 01       		.byte	0x1
 4880 110e 05       		.byte	0x5
 4881 110f 03       		.byte	0x3
 4882 1110 00000000 		.4byte	dtermNotchFilterApply
 4883 1114 1F       		.uleb128 0x1f
 4884 1115 F40C0000 		.4byte	.LASF228
 4885 1119 09       		.byte	0x9
ARM GAS  /var/folders/_2/qbh2zpt918qcm2b_6mgyydnm0000gn/T//ccIdySvu.s 			page 99


 4886 111a A8       		.byte	0xa8
 4887 111b 10       		.byte	0x10
 4888 111c 310F0000 		.4byte	0xf31
 4889 1120 01       		.byte	0x1
 4890 1121 05       		.byte	0x5
 4891 1122 03       		.byte	0x3
 4892 1123 00000000 		.4byte	dtermNotch
 4893 1127 1F       		.uleb128 0x1f
 4894 1128 BF0C0000 		.4byte	.LASF229
 4895 112c 09       		.byte	0x9
 4896 112d A9       		.byte	0xa9
 4897 112e 10       		.byte	0x10
 4898 112f 9F0A0000 		.4byte	0xa9f
 4899 1133 01       		.byte	0x1
 4900 1134 05       		.byte	0x5
 4901 1135 03       		.byte	0x3
 4902 1136 00000000 		.4byte	dtermLowpassFilterApply
 4903 113a 0A       		.uleb128 0xa
 4904 113b F5100000 		.4byte	0x10f5
 4905 113f 4A110000 		.4byte	0x114a
 4906 1143 0B       		.uleb128 0xb
 4907 1144 33000000 		.4byte	0x33
 4908 1148 02       		.byte	0x2
 4909 1149 00       		.byte	0
 4910 114a 1F       		.uleb128 0x1f
 4911 114b 19030000 		.4byte	.LASF223
 4912 114f 09       		.byte	0x9
 4913 1150 AA       		.byte	0xaa
 4914 1151 10       		.byte	0x10
 4915 1152 3A110000 		.4byte	0x113a
 4916 1156 01       		.byte	0x1
 4917 1157 05       		.byte	0x5
 4918 1158 03       		.byte	0x3
 4919 1159 00000000 		.4byte	dtermLowpass
 4920 115d 1F       		.uleb128 0x1f
 4921 115e EE070000 		.4byte	.LASF230
 4922 1162 09       		.byte	0x9
 4923 1163 AB       		.byte	0xab
 4924 1164 10       		.byte	0x10
 4925 1165 9F0A0000 		.4byte	0xa9f
 4926 1169 01       		.byte	0x1
 4927 116a 05       		.byte	0x5
 4928 116b 03       		.byte	0x3
 4929 116c 00000000 		.4byte	dtermLowpassFilter2Apply
 4930 1170 0A       		.uleb128 0xa
 4931 1171 8D0E0000 		.4byte	0xe8d
 4932 1175 80110000 		.4byte	0x1180
 4933 1179 0B       		.uleb128 0xb
 4934 117a 33000000 		.4byte	0x33
 4935 117e 02       		.byte	0x2
 4936 117f 00       		.byte	0
 4937 1180 1F       		.uleb128 0x1f
 4938 1181 F00B0000 		.4byte	.LASF231
 4939 1185 09       		.byte	0x9
 4940 1186 AC       		.byte	0xac
 4941 1187 0D       		.byte	0xd
 4942 1188 70110000 		.4byte	0x1170
ARM GAS  /var/folders/_2/qbh2zpt918qcm2b_6mgyydnm0000gn/T//ccIdySvu.s 			page 100


 4943 118c 01       		.byte	0x1
 4944 118d 05       		.byte	0x5
 4945 118e 03       		.byte	0x3
 4946 118f 00000000 		.4byte	dtermPT1
 4947 1193 23       		.uleb128 0x23
 4948 1194 270C0000 		.4byte	.LASF281
 4949 1198 05       		.byte	0x5
 4950 1199 01       		.byte	0x1
 4951 119a 4F000000 		.4byte	0x4f
 4952 119e 0A       		.byte	0xa
 4953 119f 8202     		.2byte	0x282
 4954 11a1 06       		.byte	0x6
 4955 11a2 BF110000 		.4byte	0x11bf
 4956 11a6 24       		.uleb128 0x24
 4957 11a7 3C0A0000 		.4byte	.LASF232
 4958 11ab 7F       		.sleb128 -1
 4959 11ac 22       		.uleb128 0x22
 4960 11ad 50070000 		.4byte	.LASF233
 4961 11b1 00       		.byte	0
 4962 11b2 22       		.uleb128 0x22
 4963 11b3 7D000000 		.4byte	.LASF234
 4964 11b7 01       		.byte	0x1
 4965 11b8 22       		.uleb128 0x22
 4966 11b9 F2030000 		.4byte	.LASF235
 4967 11bd 02       		.byte	0x2
 4968 11be 00       		.byte	0
 4969 11bf 1D       		.uleb128 0x1d
 4970 11c0 11080000 		.4byte	.LASF236
 4971 11c4 0A       		.byte	0xa
 4972 11c5 8D02     		.2byte	0x28d
 4973 11c7 23       		.byte	0x23
 4974 11c8 93110000 		.4byte	0x1193
 4975 11cc 01       		.byte	0x1
 4976 11cd 01       		.byte	0x1
 4977 11ce 25       		.uleb128 0x25
 4978 11cf C1100000 		.4byte	0x10c1
 4979 11d3 01       		.byte	0x1
 4980 11d4 05       		.byte	0x5
 4981 11d5 0E       		.byte	0xe
 4982 11d6 05       		.byte	0x5
 4983 11d7 03       		.byte	0x3
 4984 11d8 00000000 		.4byte	gyroSensor
 4985 11dc 26       		.uleb128 0x26
 4986 11dd 01       		.byte	0x1
 4987 11de 08010000 		.4byte	.LASF282
 4988 11e2 01       		.byte	0x1
 4989 11e3 0901     		.2byte	0x109
 4990 11e5 07       		.byte	0x7
 4991 11e6 01       		.byte	0x1
 4992 11e7 25000000 		.4byte	0x25
 4993 11eb 01       		.byte	0x1
 4994 11ec 0B120000 		.4byte	0x120b
 4995 11f0 27       		.uleb128 0x27
 4996 11f1 F8000000 		.4byte	.LASF237
 4997 11f5 01       		.byte	0x1
 4998 11f6 0901     		.2byte	0x109
 4999 11f8 1D       		.byte	0x1d
ARM GAS  /var/folders/_2/qbh2zpt918qcm2b_6mgyydnm0000gn/T//ccIdySvu.s 			page 101


 5000 11f9 25000000 		.4byte	0x25
 5001 11fd 27       		.uleb128 0x27
 5002 11fe 400C0000 		.4byte	.LASF238
 5003 1202 01       		.byte	0x1
 5004 1203 0901     		.2byte	0x109
 5005 1205 2F       		.byte	0x2f
 5006 1206 25000000 		.4byte	0x25
 5007 120a 00       		.byte	0
 5008 120b 28       		.uleb128 0x28
 5009 120c 01       		.byte	0x1
 5010 120d 00000000 		.4byte	.LASF255
 5011 1211 01       		.byte	0x1
 5012 1212 FB       		.byte	0xfb
 5013 1213 0A       		.byte	0xa
 5014 1214 01       		.byte	0x1
 5015 1215 640A0000 		.4byte	0xa64
 5016 1219 D4040000 		.4byte	.LFB19
 5017 121d 14050000 		.4byte	.LFE19
 5018 1221 00000000 		.4byte	.LLST64
 5019 1225 01       		.byte	0x1
 5020 1226 67120000 		.4byte	0x1267
 5021 122a 29       		.uleb128 0x29
 5022 122b 9B0A0000 		.4byte	.LASF239
 5023 122f 01       		.byte	0x1
 5024 1230 FB       		.byte	0xfb
 5025 1231 31       		.byte	0x31
 5026 1232 640A0000 		.4byte	0xa64
 5027 1236 26000000 		.4byte	.LLST65
 5028 123a 20000000 		.4byte	.LVUS65
 5029 123e 29       		.uleb128 0x29
 5030 123f 93010000 		.4byte	.LASF240
 5031 1243 01       		.byte	0x1
 5032 1244 FB       		.byte	0xfb
 5033 1245 43       		.byte	0x43
 5034 1246 640A0000 		.4byte	0xa64
 5035 124a 56000000 		.4byte	.LLST66
 5036 124e 52000000 		.4byte	.LVUS66
 5037 1252 2A       		.uleb128 0x2a
 5038 1253 FF080000 		.4byte	.LASF241
 5039 1257 01       		.byte	0x1
 5040 1258 FC       		.byte	0xfc
 5041 1259 11       		.byte	0x11
 5042 125a 880A0000 		.4byte	0xa88
 5043 125e 79000000 		.4byte	.LLST67
 5044 1262 77000000 		.4byte	.LVUS67
 5045 1266 00       		.byte	0
 5046 1267 2B       		.uleb128 0x2b
 5047 1268 01       		.byte	0x1
 5048 1269 DD070000 		.4byte	.LASF264
 5049 126d 01       		.byte	0x1
 5050 126e CB       		.byte	0xcb
 5051 126f 06       		.byte	0x6
 5052 1270 01       		.byte	0x1
 5053 1271 84010000 		.4byte	.LFB18
 5054 1275 D8020000 		.4byte	.LFE18
 5055 1279 8C000000 		.4byte	.LLST19
 5056 127d 01       		.byte	0x1
ARM GAS  /var/folders/_2/qbh2zpt918qcm2b_6mgyydnm0000gn/T//ccIdySvu.s 			page 102


 5057 127e CB130000 		.4byte	0x13cb
 5058 1282 29       		.uleb128 0x29
 5059 1283 E4090000 		.4byte	.LASF242
 5060 1287 01       		.byte	0x1
 5061 1288 CB       		.byte	0xcb
 5062 1289 27       		.byte	0x27
 5063 128a CB130000 		.4byte	0x13cb
 5064 128e C8000000 		.4byte	.LLST20
 5065 1292 C4000000 		.4byte	.LVUS20
 5066 1296 29       		.uleb128 0x29
 5067 1297 D30A0000 		.4byte	.LASF243
 5068 129b 01       		.byte	0x1
 5069 129c CB       		.byte	0xcb
 5070 129d 35       		.byte	0x35
 5071 129e 25000000 		.4byte	0x25
 5072 12a2 EC000000 		.4byte	.LLST21
 5073 12a6 E6000000 		.4byte	.LVUS21
 5074 12aa 29       		.uleb128 0x29
 5075 12ab 41040000 		.4byte	.LASF244
 5076 12af 01       		.byte	0x1
 5077 12b0 CB       		.byte	0xcb
 5078 12b1 44       		.byte	0x44
 5079 12b2 7C0A0000 		.4byte	0xa7c
 5080 12b6 20010000 		.4byte	.LLST22
 5081 12ba 1A010000 		.4byte	.LVUS22
 5082 12be 2C       		.uleb128 0x2c
 5083 12bf 5100     		.ascii	"Q\000"
 5084 12c1 01       		.byte	0x1
 5085 12c2 CB       		.byte	0xcb
 5086 12c3 57       		.byte	0x57
 5087 12c4 25000000 		.4byte	0x25
 5088 12c8 5E010000 		.4byte	.LLST23
 5089 12cc 4C010000 		.4byte	.LVUS23
 5090 12d0 29       		.uleb128 0x29
 5091 12d1 BE060000 		.4byte	.LASF245
 5092 12d5 01       		.byte	0x1
 5093 12d6 CB       		.byte	0xcb
 5094 12d7 6D       		.byte	0x6d
 5095 12d8 DD0F0000 		.4byte	0xfdd
 5096 12dc E1010000 		.4byte	.LLST24
 5097 12e0 DD010000 		.4byte	.LVUS24
 5098 12e4 2A       		.uleb128 0x2a
 5099 12e5 18010000 		.4byte	.LASF246
 5100 12e9 01       		.byte	0x1
 5101 12ea CD       		.byte	0xcd
 5102 12eb 0E       		.byte	0xe
 5103 12ec C60A0000 		.4byte	0xac6
 5104 12f0 05020000 		.4byte	.LLST25
 5105 12f4 01020000 		.4byte	.LVUS25
 5106 12f8 2D       		.uleb128 0x2d
 5107 12f9 736E00   		.ascii	"sn\000"
 5108 12fc 01       		.byte	0x1
 5109 12fd CE       		.byte	0xce
 5110 12fe 0E       		.byte	0xe
 5111 12ff C60A0000 		.4byte	0xac6
 5112 1303 27020000 		.4byte	.LLST26
 5113 1307 23020000 		.4byte	.LVUS26
ARM GAS  /var/folders/_2/qbh2zpt918qcm2b_6mgyydnm0000gn/T//ccIdySvu.s 			page 103


 5114 130b 2D       		.uleb128 0x2d
 5115 130c 637300   		.ascii	"cs\000"
 5116 130f 01       		.byte	0x1
 5117 1310 CF       		.byte	0xcf
 5118 1311 0E       		.byte	0xe
 5119 1312 C60A0000 		.4byte	0xac6
 5120 1316 4F020000 		.4byte	.LLST27
 5121 131a 45020000 		.4byte	.LVUS27
 5122 131e 2A       		.uleb128 0x2a
 5123 131f 240B0000 		.4byte	.LASF247
 5124 1323 01       		.byte	0x1
 5125 1324 D0       		.byte	0xd0
 5126 1325 0E       		.byte	0xe
 5127 1326 C60A0000 		.4byte	0xac6
 5128 132a 9C020000 		.4byte	.LLST28
 5129 132e 8E020000 		.4byte	.LVUS28
 5130 1332 2D       		.uleb128 0x2d
 5131 1333 623000   		.ascii	"b0\000"
 5132 1336 01       		.byte	0x1
 5133 1337 D1       		.byte	0xd1
 5134 1338 08       		.byte	0x8
 5135 1339 25000000 		.4byte	0x25
 5136 133d 07030000 		.4byte	.LLST29
 5137 1341 F1020000 		.4byte	.LVUS29
 5138 1345 2D       		.uleb128 0x2d
 5139 1346 623100   		.ascii	"b1\000"
 5140 1349 01       		.byte	0x1
 5141 134a D1       		.byte	0xd1
 5142 134b 12       		.byte	0x12
 5143 134c 25000000 		.4byte	0x25
 5144 1350 AF030000 		.4byte	.LLST30
 5145 1354 A1030000 		.4byte	.LVUS30
 5146 1358 2D       		.uleb128 0x2d
 5147 1359 623200   		.ascii	"b2\000"
 5148 135c 01       		.byte	0x1
 5149 135d D1       		.byte	0xd1
 5150 135e 1C       		.byte	0x1c
 5151 135f 25000000 		.4byte	0x25
 5152 1363 25040000 		.4byte	.LLST31
 5153 1367 13040000 		.4byte	.LVUS31
 5154 136b 2D       		.uleb128 0x2d
 5155 136c 613000   		.ascii	"a0\000"
 5156 136f 01       		.byte	0x1
 5157 1370 D1       		.byte	0xd1
 5158 1371 26       		.byte	0x26
 5159 1372 25000000 		.4byte	0x25
 5160 1376 C3040000 		.4byte	.LLST32
 5161 137a AB040000 		.4byte	.LVUS32
 5162 137e 2D       		.uleb128 0x2d
 5163 137f 613100   		.ascii	"a1\000"
 5164 1382 01       		.byte	0x1
 5165 1383 D1       		.byte	0xd1
 5166 1384 30       		.byte	0x30
 5167 1385 25000000 		.4byte	0x25
 5168 1389 77050000 		.4byte	.LLST33
 5169 138d 63050000 		.4byte	.LVUS33
 5170 1391 2D       		.uleb128 0x2d
ARM GAS  /var/folders/_2/qbh2zpt918qcm2b_6mgyydnm0000gn/T//ccIdySvu.s 			page 104


 5171 1392 613200   		.ascii	"a2\000"
 5172 1395 01       		.byte	0x1
 5173 1396 D1       		.byte	0xd1
 5174 1397 3A       		.byte	0x3a
 5175 1398 25000000 		.4byte	0x25
 5176 139c 11060000 		.4byte	.LLST34
 5177 13a0 01060000 		.4byte	.LVUS34
 5178 13a4 2E       		.uleb128 0x2e
 5179 13a5 B6010000 		.4byte	.LVL59
 5180 13a9 AA1D0000 		.4byte	0x1daa
 5181 13ad B9130000 		.4byte	0x13b9
 5182 13b1 2F       		.uleb128 0x2f
 5183 13b2 01       		.byte	0x1
 5184 13b3 50       		.byte	0x50
 5185 13b4 03       		.byte	0x3
 5186 13b5 F5       		.byte	0xf5
 5187 13b6 07       		.uleb128 0x7
 5188 13b7 25       		.uleb128 0x25
 5189 13b8 00       		.byte	0
 5190 13b9 30       		.uleb128 0x30
 5191 13ba BE010000 		.4byte	.LVL62
 5192 13be B81D0000 		.4byte	0x1db8
 5193 13c2 2F       		.uleb128 0x2f
 5194 13c3 01       		.byte	0x1
 5195 13c4 50       		.byte	0x50
 5196 13c5 03       		.byte	0x3
 5197 13c6 F5       		.byte	0xf5
 5198 13c7 07       		.uleb128 0x7
 5199 13c8 25       		.uleb128 0x25
 5200 13c9 00       		.byte	0
 5201 13ca 00       		.byte	0
 5202 13cb 05       		.uleb128 0x5
 5203 13cc 04       		.byte	0x4
 5204 13cd 250F0000 		.4byte	0xf25
 5205 13d1 31       		.uleb128 0x31
 5206 13d2 01       		.byte	0x1
 5207 13d3 9D070000 		.4byte	.LASF253
 5208 13d7 01       		.byte	0x1
 5209 13d8 C0       		.byte	0xc0
 5210 13d9 06       		.byte	0x6
 5211 13da 01       		.byte	0x1
 5212 13db 01       		.byte	0x1
 5213 13dc 09140000 		.4byte	0x1409
 5214 13e0 32       		.uleb128 0x32
 5215 13e1 6F020000 		.4byte	.LASF221
 5216 13e5 01       		.byte	0x1
 5217 13e6 C0       		.byte	0xc0
 5218 13e7 2B       		.byte	0x2b
 5219 13e8 09140000 		.4byte	0x1409
 5220 13ec 33       		.uleb128 0x33
 5221 13ed 34       		.uleb128 0x34
 5222 13ee 8A060000 		.4byte	.LASF251
 5223 13f2 01       		.byte	0x1
 5224 13f3 C4       		.byte	0xc4
 5225 13f4 0F       		.byte	0xf
 5226 13f5 C60A0000 		.4byte	0xac6
 5227 13f9 33       		.uleb128 0x33
ARM GAS  /var/folders/_2/qbh2zpt918qcm2b_6mgyydnm0000gn/T//ccIdySvu.s 			page 105


 5228 13fa 34       		.uleb128 0x34
 5229 13fb B2010000 		.4byte	.LASF252
 5230 13ff 01       		.byte	0x1
 5231 1400 C5       		.byte	0xc5
 5232 1401 0B       		.byte	0xb
 5233 1402 3A000000 		.4byte	0x3a
 5234 1406 00       		.byte	0
 5235 1407 00       		.byte	0
 5236 1408 00       		.byte	0
 5237 1409 05       		.uleb128 0x5
 5238 140a 04       		.byte	0x4
 5239 140b B5100000 		.4byte	0x10b5
 5240 140f 31       		.uleb128 0x31
 5241 1410 01       		.byte	0x1
 5242 1411 B6020000 		.4byte	.LASF254
 5243 1415 01       		.byte	0x1
 5244 1416 BB       		.byte	0xbb
 5245 1417 06       		.byte	0x6
 5246 1418 01       		.byte	0x1
 5247 1419 01       		.byte	0x1
 5248 141a 35140000 		.4byte	0x1435
 5249 141e 32       		.uleb128 0x32
 5250 141f E4090000 		.4byte	.LASF242
 5251 1423 01       		.byte	0x1
 5252 1424 BB       		.byte	0xbb
 5253 1425 21       		.byte	0x21
 5254 1426 35140000 		.4byte	0x1435
 5255 142a 35       		.uleb128 0x35
 5256 142b 6B00     		.ascii	"k\000"
 5257 142d 01       		.byte	0x1
 5258 142e BB       		.byte	0xbb
 5259 142f 2F       		.byte	0x2f
 5260 1430 25000000 		.4byte	0x25
 5261 1434 00       		.byte	0
 5262 1435 05       		.uleb128 0x5
 5263 1436 04       		.byte	0x4
 5264 1437 8D0E0000 		.4byte	0xe8d
 5265 143b 28       		.uleb128 0x28
 5266 143c 01       		.byte	0x1
 5267 143d 9C060000 		.4byte	.LASF256
 5268 1441 01       		.byte	0x1
 5269 1442 B6       		.byte	0xb6
 5270 1443 07       		.byte	0x7
 5271 1444 01       		.byte	0x1
 5272 1445 25000000 		.4byte	0x25
 5273 1449 E6000000 		.4byte	.LFB15
 5274 144d 24010000 		.4byte	.LFE15
 5275 1451 85060000 		.4byte	.LLST12
 5276 1455 01       		.byte	0x1
 5277 1456 95140000 		.4byte	0x1495
 5278 145a 29       		.uleb128 0x29
 5279 145b D1030000 		.4byte	.LASF257
 5280 145f 01       		.byte	0x1
 5281 1460 B6       		.byte	0xb6
 5282 1461 1E       		.byte	0x1e
 5283 1462 640A0000 		.4byte	0xa64
 5284 1466 A9060000 		.4byte	.LLST13
ARM GAS  /var/folders/_2/qbh2zpt918qcm2b_6mgyydnm0000gn/T//ccIdySvu.s 			page 106


 5285 146a A5060000 		.4byte	.LVUS13
 5286 146e 2C       		.uleb128 0x2c
 5287 146f 647400   		.ascii	"dt\000"
 5288 1472 01       		.byte	0x1
 5289 1473 B6       		.byte	0xb6
 5290 1474 2B       		.byte	0x2b
 5291 1475 25000000 		.4byte	0x25
 5292 1479 D0060000 		.4byte	.LLST14
 5293 147d CA060000 		.4byte	.LVUS14
 5294 1481 2D       		.uleb128 0x2d
 5295 1482 524300   		.ascii	"RC\000"
 5296 1485 01       		.byte	0x1
 5297 1486 B7       		.byte	0xb7
 5298 1487 08       		.byte	0x8
 5299 1488 25000000 		.4byte	0x25
 5300 148c 00070000 		.4byte	.LLST15
 5301 1490 FE060000 		.4byte	.LVUS15
 5302 1494 00       		.byte	0
 5303 1495 36       		.uleb128 0x36
 5304 1496 01       		.byte	0x1
 5305 1497 BE070000 		.4byte	.LASF258
 5306 149b 01       		.byte	0x1
 5307 149c B1       		.byte	0xb1
 5308 149d 07       		.byte	0x7
 5309 149e 01       		.byte	0x1
 5310 149f 25000000 		.4byte	0x25
 5311 14a3 E2000000 		.4byte	.LFB14
 5312 14a7 E6000000 		.4byte	.LFE14
 5313 14ab 02       		.byte	0x2
 5314 14ac 7D       		.byte	0x7d
 5315 14ad 00       		.sleb128 0
 5316 14ae 01       		.byte	0x1
 5317 14af D6140000 		.4byte	0x14d6
 5318 14b3 29       		.uleb128 0x29
 5319 14b4 E4090000 		.4byte	.LASF242
 5320 14b8 01       		.byte	0x1
 5321 14b9 B1       		.byte	0xb1
 5322 14ba 21       		.byte	0x21
 5323 14bb CB0A0000 		.4byte	0xacb
 5324 14bf 3B070000 		.4byte	.LLST11
 5325 14c3 37070000 		.4byte	.LVUS11
 5326 14c7 37       		.uleb128 0x37
 5327 14c8 B4000000 		.4byte	.LASF260
 5328 14cc 01       		.byte	0x1
 5329 14cd B1       		.byte	0xb1
 5330 14ce 2F       		.byte	0x2f
 5331 14cf 25000000 		.4byte	0x25
 5332 14d3 01       		.byte	0x1
 5333 14d4 51       		.byte	0x51
 5334 14d5 00       		.byte	0
 5335 14d6 28       		.uleb128 0x28
 5336 14d7 01       		.byte	0x1
 5337 14d8 16020000 		.4byte	.LASF259
 5338 14dc 01       		.byte	0x1
 5339 14dd A2       		.byte	0xa2
 5340 14de 07       		.byte	0x7
 5341 14df 01       		.byte	0x1
ARM GAS  /var/folders/_2/qbh2zpt918qcm2b_6mgyydnm0000gn/T//ccIdySvu.s 			page 107


 5342 14e0 25000000 		.4byte	0x25
 5343 14e4 76000000 		.4byte	.LFB13
 5344 14e8 E2000000 		.4byte	.LFE13
 5345 14ec 5C070000 		.4byte	.LLST7
 5346 14f0 01       		.byte	0x1
 5347 14f1 32150000 		.4byte	0x1532
 5348 14f5 29       		.uleb128 0x29
 5349 14f6 E4090000 		.4byte	.LASF242
 5350 14fa 01       		.byte	0x1
 5351 14fb A2       		.byte	0xa2
 5352 14fc 2C       		.byte	0x2c
 5353 14fd CB130000 		.4byte	0x13cb
 5354 1501 80070000 		.4byte	.LLST8
 5355 1505 7C070000 		.4byte	.LVUS8
 5356 1509 29       		.uleb128 0x29
 5357 150a B4000000 		.4byte	.LASF260
 5358 150e 01       		.byte	0x1
 5359 150f A2       		.byte	0xa2
 5360 1510 3A       		.byte	0x3a
 5361 1511 25000000 		.4byte	0x25
 5362 1515 A2070000 		.4byte	.LLST9
 5363 1519 9E070000 		.4byte	.LVUS9
 5364 151d 2A       		.uleb128 0x2a
 5365 151e 72030000 		.4byte	.LASF261
 5366 1522 01       		.byte	0x1
 5367 1523 A4       		.byte	0xa4
 5368 1524 0E       		.byte	0xe
 5369 1525 C60A0000 		.4byte	0xac6
 5370 1529 C2070000 		.4byte	.LLST10
 5371 152d C0070000 		.4byte	.LVUS10
 5372 1531 00       		.byte	0
 5373 1532 28       		.uleb128 0x28
 5374 1533 01       		.byte	0x1
 5375 1534 EB020000 		.4byte	.LASF262
 5376 1538 01       		.byte	0x1
 5377 1539 9B       		.byte	0x9b
 5378 153a 07       		.byte	0x7
 5379 153b 01       		.byte	0x1
 5380 153c 25000000 		.4byte	0x25
 5381 1540 1E000000 		.4byte	.LFB12
 5382 1544 76000000 		.4byte	.LFE12
 5383 1548 D5070000 		.4byte	.LLST3
 5384 154c 01       		.byte	0x1
 5385 154d 8E150000 		.4byte	0x158e
 5386 1551 29       		.uleb128 0x29
 5387 1552 E4090000 		.4byte	.LASF242
 5388 1556 01       		.byte	0x1
 5389 1557 9B       		.byte	0x9b
 5390 1558 29       		.byte	0x29
 5391 1559 CB130000 		.4byte	0x13cb
 5392 155d F9070000 		.4byte	.LLST4
 5393 1561 F5070000 		.4byte	.LVUS4
 5394 1565 29       		.uleb128 0x29
 5395 1566 B4000000 		.4byte	.LASF260
 5396 156a 01       		.byte	0x1
 5397 156b 9B       		.byte	0x9b
 5398 156c 37       		.byte	0x37
ARM GAS  /var/folders/_2/qbh2zpt918qcm2b_6mgyydnm0000gn/T//ccIdySvu.s 			page 108


 5399 156d 25000000 		.4byte	0x25
 5400 1571 1D080000 		.4byte	.LLST5
 5401 1575 17080000 		.4byte	.LVUS5
 5402 1579 2A       		.uleb128 0x2a
 5403 157a 72030000 		.4byte	.LASF261
 5404 157e 01       		.byte	0x1
 5405 157f 9C       		.byte	0x9c
 5406 1580 0E       		.byte	0xe
 5407 1581 C60A0000 		.4byte	0xac6
 5408 1585 4F080000 		.4byte	.LLST6
 5409 1589 4B080000 		.4byte	.LVUS6
 5410 158d 00       		.byte	0
 5411 158e 28       		.uleb128 0x28
 5412 158f 01       		.byte	0x1
 5413 1590 EB090000 		.4byte	.LASF263
 5414 1594 01       		.byte	0x1
 5415 1595 96       		.byte	0x96
 5416 1596 07       		.byte	0x7
 5417 1597 01       		.byte	0x1
 5418 1598 25000000 		.4byte	0x25
 5419 159c 00000000 		.4byte	.LFB11
 5420 15a0 1E000000 		.4byte	.LFE11
 5421 15a4 6D080000 		.4byte	.LLST0
 5422 15a8 01       		.byte	0x1
 5423 15a9 D6150000 		.4byte	0x15d6
 5424 15ad 29       		.uleb128 0x29
 5425 15ae E4090000 		.4byte	.LASF242
 5426 15b2 01       		.byte	0x1
 5427 15b3 96       		.byte	0x96
 5428 15b4 23       		.byte	0x23
 5429 15b5 35140000 		.4byte	0x1435
 5430 15b9 91080000 		.4byte	.LLST1
 5431 15bd 8D080000 		.4byte	.LVUS1
 5432 15c1 29       		.uleb128 0x29
 5433 15c2 B4000000 		.4byte	.LASF260
 5434 15c6 01       		.byte	0x1
 5435 15c7 96       		.byte	0x96
 5436 15c8 31       		.byte	0x31
 5437 15c9 25000000 		.4byte	0x25
 5438 15cd B5080000 		.4byte	.LLST2
 5439 15d1 AF080000 		.4byte	.LVUS2
 5440 15d5 00       		.byte	0
 5441 15d6 2B       		.uleb128 0x2b
 5442 15d7 01       		.byte	0x1
 5443 15d8 33000000 		.4byte	.LASF265
 5444 15dc 01       		.byte	0x1
 5445 15dd 89       		.byte	0x89
 5446 15de 06       		.byte	0x6
 5447 15df 01       		.byte	0x1
 5448 15e0 38060000 		.4byte	.LFB10
 5449 15e4 A8060000 		.4byte	.LFE10
 5450 15e8 E3080000 		.4byte	.LLST81
 5451 15ec 01       		.byte	0x1
 5452 15ed B4160000 		.4byte	0x16b4
 5453 15f1 29       		.uleb128 0x29
 5454 15f2 6F020000 		.4byte	.LASF221
 5455 15f6 01       		.byte	0x1
ARM GAS  /var/folders/_2/qbh2zpt918qcm2b_6mgyydnm0000gn/T//ccIdySvu.s 			page 109


 5456 15f7 89       		.byte	0x89
 5457 15f8 29       		.byte	0x29
 5458 15f9 09140000 		.4byte	0x1409
 5459 15fd 17090000 		.4byte	.LLST82
 5460 1601 0F090000 		.4byte	.LVUS82
 5461 1605 29       		.uleb128 0x29
 5462 1606 9B0A0000 		.4byte	.LASF239
 5463 160a 01       		.byte	0x1
 5464 160b 89       		.byte	0x89
 5465 160c 3E       		.byte	0x3e
 5466 160d 640A0000 		.4byte	0xa64
 5467 1611 57090000 		.4byte	.LLST83
 5468 1615 51090000 		.4byte	.LVUS83
 5469 1619 29       		.uleb128 0x29
 5470 161a 93010000 		.4byte	.LASF240
 5471 161e 01       		.byte	0x1
 5472 161f 89       		.byte	0x89
 5473 1620 50       		.byte	0x50
 5474 1621 640A0000 		.4byte	0xa64
 5475 1625 87090000 		.4byte	.LLST84
 5476 1629 83090000 		.4byte	.LVUS84
 5477 162d 38       		.uleb128 0x38
 5478 162e 52060000 		.4byte	.LBB72
 5479 1632 96060000 		.4byte	.LBE72
 5480 1636 A3160000 		.4byte	0x16a3
 5481 163a 2A       		.uleb128 0x2a
 5482 163b 8A060000 		.4byte	.LASF251
 5483 163f 01       		.byte	0x1
 5484 1640 8F       		.byte	0x8f
 5485 1641 0F       		.byte	0xf
 5486 1642 C60A0000 		.4byte	0xac6
 5487 1646 AC090000 		.4byte	.LLST85
 5488 164a A8090000 		.4byte	.LVUS85
 5489 164e 39       		.uleb128 0x39
 5490 164f 10010000 		.4byte	.Ldebug_ranges0+0x110
 5491 1653 91160000 		.4byte	0x1691
 5492 1657 2A       		.uleb128 0x2a
 5493 1658 B2010000 		.4byte	.LASF252
 5494 165c 01       		.byte	0x1
 5495 165d 90       		.byte	0x90
 5496 165e 0C       		.byte	0xc
 5497 165f 3A000000 		.4byte	0x3a
 5498 1663 CC090000 		.4byte	.LLST86
 5499 1667 CA090000 		.4byte	.LVUS86
 5500 166b 30       		.uleb128 0x30
 5501 166c 92060000 		.4byte	.LVL214
 5502 1670 67120000 		.4byte	0x1267
 5503 1674 2F       		.uleb128 0x2f
 5504 1675 01       		.byte	0x1
 5505 1676 50       		.byte	0x50
 5506 1677 02       		.byte	0x2
 5507 1678 75       		.byte	0x75
 5508 1679 5C       		.sleb128 -36
 5509 167a 2F       		.uleb128 0x2f
 5510 167b 01       		.byte	0x1
 5511 167c 51       		.byte	0x51
 5512 167d 03       		.byte	0x3
ARM GAS  /var/folders/_2/qbh2zpt918qcm2b_6mgyydnm0000gn/T//ccIdySvu.s 			page 110


 5513 167e F5       		.byte	0xf5
 5514 167f 06       		.uleb128 0x6
 5515 1680 25       		.uleb128 0x25
 5516 1681 2F       		.uleb128 0x2f
 5517 1682 01       		.byte	0x1
 5518 1683 53       		.byte	0x53
 5519 1684 03       		.byte	0x3
 5520 1685 F5       		.byte	0xf5
 5521 1686 07       		.uleb128 0x7
 5522 1687 25       		.uleb128 0x25
 5523 1688 2F       		.uleb128 0x2f
 5524 1689 02       		.byte	0x2
 5525 168a 7D       		.byte	0x7d
 5526 168b 00       		.sleb128 0
 5527 168c 02       		.byte	0x2
 5528 168d 79       		.byte	0x79
 5529 168e 00       		.sleb128 0
 5530 168f 00       		.byte	0
 5531 1690 00       		.byte	0
 5532 1691 30       		.uleb128 0x30
 5533 1692 6C060000 		.4byte	.LVL210
 5534 1696 DC110000 		.4byte	0x11dc
 5535 169a 2F       		.uleb128 0x2f
 5536 169b 01       		.byte	0x1
 5537 169c 50       		.byte	0x50
 5538 169d 03       		.byte	0x3
 5539 169e F5       		.byte	0xf5
 5540 169f 06       		.uleb128 0x6
 5541 16a0 25       		.uleb128 0x25
 5542 16a1 00       		.byte	0
 5543 16a2 00       		.byte	0
 5544 16a3 30       		.uleb128 0x30
 5545 16a4 4E060000 		.4byte	.LVL207
 5546 16a8 0B120000 		.4byte	0x120b
 5547 16ac 2F       		.uleb128 0x2f
 5548 16ad 01       		.byte	0x1
 5549 16ae 51       		.byte	0x51
 5550 16af 02       		.byte	0x2
 5551 16b0 75       		.byte	0x75
 5552 16b1 00       		.sleb128 0
 5553 16b2 00       		.byte	0
 5554 16b3 00       		.byte	0
 5555 16b4 2B       		.uleb128 0x2b
 5556 16b5 01       		.byte	0x1
 5557 16b6 1E000000 		.4byte	.LASF266
 5558 16ba 01       		.byte	0x1
 5559 16bb 7C       		.byte	0x7c
 5560 16bc 06       		.byte	0x6
 5561 16bd 01       		.byte	0x1
 5562 16be C8050000 		.4byte	.LFB9
 5563 16c2 38060000 		.4byte	.LFE9
 5564 16c6 E0090000 		.4byte	.LLST75
 5565 16ca 01       		.byte	0x1
 5566 16cb 92170000 		.4byte	0x1792
 5567 16cf 29       		.uleb128 0x29
 5568 16d0 6F020000 		.4byte	.LASF221
 5569 16d4 01       		.byte	0x1
ARM GAS  /var/folders/_2/qbh2zpt918qcm2b_6mgyydnm0000gn/T//ccIdySvu.s 			page 111


 5570 16d5 7C       		.byte	0x7c
 5571 16d6 29       		.byte	0x29
 5572 16d7 09140000 		.4byte	0x1409
 5573 16db 140A0000 		.4byte	.LLST76
 5574 16df 0C0A0000 		.4byte	.LVUS76
 5575 16e3 29       		.uleb128 0x29
 5576 16e4 9B0A0000 		.4byte	.LASF239
 5577 16e8 01       		.byte	0x1
 5578 16e9 7C       		.byte	0x7c
 5579 16ea 3E       		.byte	0x3e
 5580 16eb 640A0000 		.4byte	0xa64
 5581 16ef 540A0000 		.4byte	.LLST77
 5582 16f3 4E0A0000 		.4byte	.LVUS77
 5583 16f7 29       		.uleb128 0x29
 5584 16f8 93010000 		.4byte	.LASF240
 5585 16fc 01       		.byte	0x1
 5586 16fd 7C       		.byte	0x7c
 5587 16fe 50       		.byte	0x50
 5588 16ff 640A0000 		.4byte	0xa64
 5589 1703 840A0000 		.4byte	.LLST78
 5590 1707 800A0000 		.4byte	.LVUS78
 5591 170b 38       		.uleb128 0x38
 5592 170c E2050000 		.4byte	.LBB69
 5593 1710 26060000 		.4byte	.LBE69
 5594 1714 81170000 		.4byte	0x1781
 5595 1718 2A       		.uleb128 0x2a
 5596 1719 8A060000 		.4byte	.LASF251
 5597 171d 01       		.byte	0x1
 5598 171e 82       		.byte	0x82
 5599 171f 0F       		.byte	0xf
 5600 1720 C60A0000 		.4byte	0xac6
 5601 1724 A90A0000 		.4byte	.LLST79
 5602 1728 A50A0000 		.4byte	.LVUS79
 5603 172c 39       		.uleb128 0x39
 5604 172d F8000000 		.4byte	.Ldebug_ranges0+0xf8
 5605 1731 6F170000 		.4byte	0x176f
 5606 1735 2A       		.uleb128 0x2a
 5607 1736 B2010000 		.4byte	.LASF252
 5608 173a 01       		.byte	0x1
 5609 173b 83       		.byte	0x83
 5610 173c 0C       		.byte	0xc
 5611 173d 3A000000 		.4byte	0x3a
 5612 1741 C90A0000 		.4byte	.LLST80
 5613 1745 C70A0000 		.4byte	.LVUS80
 5614 1749 30       		.uleb128 0x30
 5615 174a 22060000 		.4byte	.LVL202
 5616 174e 67120000 		.4byte	0x1267
 5617 1752 2F       		.uleb128 0x2f
 5618 1753 01       		.byte	0x1
 5619 1754 50       		.byte	0x50
 5620 1755 02       		.byte	0x2
 5621 1756 75       		.byte	0x75
 5622 1757 5C       		.sleb128 -36
 5623 1758 2F       		.uleb128 0x2f
 5624 1759 01       		.byte	0x1
 5625 175a 51       		.byte	0x51
 5626 175b 03       		.byte	0x3
ARM GAS  /var/folders/_2/qbh2zpt918qcm2b_6mgyydnm0000gn/T//ccIdySvu.s 			page 112


 5627 175c F5       		.byte	0xf5
 5628 175d 06       		.uleb128 0x6
 5629 175e 25       		.uleb128 0x25
 5630 175f 2F       		.uleb128 0x2f
 5631 1760 01       		.byte	0x1
 5632 1761 53       		.byte	0x53
 5633 1762 03       		.byte	0x3
 5634 1763 F5       		.byte	0xf5
 5635 1764 07       		.uleb128 0x7
 5636 1765 25       		.uleb128 0x25
 5637 1766 2F       		.uleb128 0x2f
 5638 1767 02       		.byte	0x2
 5639 1768 7D       		.byte	0x7d
 5640 1769 00       		.sleb128 0
 5641 176a 02       		.byte	0x2
 5642 176b 79       		.byte	0x79
 5643 176c 00       		.sleb128 0
 5644 176d 00       		.byte	0
 5645 176e 00       		.byte	0
 5646 176f 30       		.uleb128 0x30
 5647 1770 FC050000 		.4byte	.LVL198
 5648 1774 DC110000 		.4byte	0x11dc
 5649 1778 2F       		.uleb128 0x2f
 5650 1779 01       		.byte	0x1
 5651 177a 50       		.byte	0x50
 5652 177b 03       		.byte	0x3
 5653 177c F5       		.byte	0xf5
 5654 177d 06       		.uleb128 0x6
 5655 177e 25       		.uleb128 0x25
 5656 177f 00       		.byte	0
 5657 1780 00       		.byte	0
 5658 1781 30       		.uleb128 0x30
 5659 1782 DE050000 		.4byte	.LVL195
 5660 1786 0B120000 		.4byte	0x120b
 5661 178a 2F       		.uleb128 0x2f
 5662 178b 01       		.byte	0x1
 5663 178c 51       		.byte	0x51
 5664 178d 02       		.byte	0x2
 5665 178e 75       		.byte	0x75
 5666 178f 00       		.sleb128 0
 5667 1790 00       		.byte	0
 5668 1791 00       		.byte	0
 5669 1792 2B       		.uleb128 0x2b
 5670 1793 01       		.byte	0x1
 5671 1794 8C000000 		.4byte	.LASF267
 5672 1798 01       		.byte	0x1
 5673 1799 4E       		.byte	0x4e
 5674 179a 06       		.byte	0x6
 5675 179b 01       		.byte	0x1
 5676 179c A8030000 		.4byte	.LFB8
 5677 17a0 78040000 		.4byte	.LFE8
 5678 17a4 DD0A0000 		.4byte	.LLST46
 5679 17a8 01       		.byte	0x1
 5680 17a9 EE180000 		.4byte	0x18ee
 5681 17ad 29       		.uleb128 0x29
 5682 17ae 6F020000 		.4byte	.LASF221
 5683 17b2 01       		.byte	0x1
ARM GAS  /var/folders/_2/qbh2zpt918qcm2b_6mgyydnm0000gn/T//ccIdySvu.s 			page 113


 5684 17b3 4E       		.byte	0x4e
 5685 17b4 2A       		.byte	0x2a
 5686 17b5 09140000 		.4byte	0x1409
 5687 17b9 210B0000 		.4byte	.LLST47
 5688 17bd 150B0000 		.4byte	.LVUS47
 5689 17c1 29       		.uleb128 0x29
 5690 17c2 E5000000 		.4byte	.LASF268
 5691 17c6 01       		.byte	0x1
 5692 17c7 4E       		.byte	0x4e
 5693 17c8 3A       		.byte	0x3a
 5694 17c9 3A000000 		.4byte	0x3a
 5695 17cd 800B0000 		.4byte	.LLST48
 5696 17d1 740B0000 		.4byte	.LVUS48
 5697 17d5 29       		.uleb128 0x29
 5698 17d6 7A0B0000 		.4byte	.LASF269
 5699 17da 01       		.byte	0x1
 5700 17db 4E       		.byte	0x4e
 5701 17dc 44       		.byte	0x44
 5702 17dd 3A000000 		.4byte	0x3a
 5703 17e1 E10B0000 		.4byte	.LLST49
 5704 17e5 D30B0000 		.4byte	.LVUS49
 5705 17e9 29       		.uleb128 0x29
 5706 17ea F1060000 		.4byte	.LASF270
 5707 17ee 01       		.byte	0x1
 5708 17ef 4E       		.byte	0x4e
 5709 17f0 53       		.byte	0x53
 5710 17f1 640A0000 		.4byte	0xa64
 5711 17f5 480C0000 		.4byte	.LLST50
 5712 17f9 3C0C0000 		.4byte	.LVUS50
 5713 17fd 2A       		.uleb128 0x2a
 5714 17fe D6010000 		.4byte	.LASF210
 5715 1802 01       		.byte	0x1
 5716 1803 4F       		.byte	0x4f
 5717 1804 12       		.byte	0x12
 5718 1805 EE180000 		.4byte	0x18ee
 5719 1809 9F0C0000 		.4byte	.LLST51
 5720 180d 9B0C0000 		.4byte	.LVUS51
 5721 1811 2A       		.uleb128 0x2a
 5722 1812 FD020000 		.4byte	.LASF211
 5723 1816 01       		.byte	0x1
 5724 1817 50       		.byte	0x50
 5725 1818 17       		.byte	0x17
 5726 1819 F4180000 		.4byte	0x18f4
 5727 181d C90C0000 		.4byte	.LLST52
 5728 1821 BD0C0000 		.4byte	.LVUS52
 5729 1825 2A       		.uleb128 0x2a
 5730 1826 FF080000 		.4byte	.LASF241
 5731 182a 01       		.byte	0x1
 5732 182b 61       		.byte	0x61
 5733 182c 11       		.byte	0x11
 5734 182d 880A0000 		.4byte	0xa88
 5735 1831 1D0D0000 		.4byte	.LLST53
 5736 1835 190D0000 		.4byte	.LVUS53
 5737 1839 2A       		.uleb128 0x2a
 5738 183a 60020000 		.4byte	.LASF271
 5739 183e 01       		.byte	0x1
 5740 183f 62       		.byte	0x62
ARM GAS  /var/folders/_2/qbh2zpt918qcm2b_6mgyydnm0000gn/T//ccIdySvu.s 			page 114


 5741 1840 0E       		.byte	0xe
 5742 1841 C60A0000 		.4byte	0xac6
 5743 1845 670D0000 		.4byte	.LLST54
 5744 1849 630D0000 		.4byte	.LVUS54
 5745 184d 3A       		.uleb128 0x3a
 5746 184e C1050000 		.4byte	.LASF283
 5747 1852 01       		.byte	0x1
 5748 1853 63       		.byte	0x63
 5749 1854 0E       		.byte	0xe
 5750 1855 C60A0000 		.4byte	0xac6
 5751 1859 01       		.byte	0x1
 5752 185a 50       		.byte	0x50
 5753 185b 38       		.uleb128 0x38
 5754 185c 46040000 		.4byte	.LBB41
 5755 1860 78040000 		.4byte	.LBE41
 5756 1864 A1180000 		.4byte	0x18a1
 5757 1868 2A       		.uleb128 0x2a
 5758 1869 B2010000 		.4byte	.LASF252
 5759 186d 01       		.byte	0x1
 5760 186e 6D       		.byte	0x6d
 5761 186f 0D       		.byte	0xd
 5762 1870 3A000000 		.4byte	0x3a
 5763 1874 A90D0000 		.4byte	.LLST56
 5764 1878 A10D0000 		.4byte	.LVUS56
 5765 187c 3B       		.uleb128 0x3b
 5766 187d 0F140000 		.4byte	0x140f
 5767 1881 46040000 		.4byte	.LBI42
 5768 1885 04       		.byte	.LVU411
 5769 1886 88000000 		.4byte	.Ldebug_ranges0+0x88
 5770 188a 01       		.byte	0x1
 5771 188b 6E       		.byte	0x6e
 5772 188c 05       		.byte	0x5
 5773 188d 3C       		.uleb128 0x3c
 5774 188e 2A140000 		.4byte	0x142a
 5775 1892 3D       		.uleb128 0x3d
 5776 1893 1E140000 		.4byte	0x141e
 5777 1897 E70D0000 		.4byte	.LLST57
 5778 189b E10D0000 		.4byte	.LVUS57
 5779 189f 00       		.byte	0
 5780 18a0 00       		.byte	0
 5781 18a1 39       		.uleb128 0x39
 5782 18a2 70000000 		.4byte	.Ldebug_ranges0+0x70
 5783 18a6 DD180000 		.4byte	0x18dd
 5784 18aa 2A       		.uleb128 0x2a
 5785 18ab B2010000 		.4byte	.LASF252
 5786 18af 01       		.byte	0x1
 5787 18b0 73       		.byte	0x73
 5788 18b1 0D       		.byte	0xd
 5789 18b2 3A000000 		.4byte	0x3a
 5790 18b6 170E0000 		.4byte	.LLST55
 5791 18ba 150E0000 		.4byte	.LVUS55
 5792 18be 30       		.uleb128 0x30
 5793 18bf 1E040000 		.4byte	.LVL150
 5794 18c3 67120000 		.4byte	0x1267
 5795 18c7 2F       		.uleb128 0x2f
 5796 18c8 01       		.byte	0x1
 5797 18c9 50       		.byte	0x50
ARM GAS  /var/folders/_2/qbh2zpt918qcm2b_6mgyydnm0000gn/T//ccIdySvu.s 			page 115


 5798 18ca 02       		.byte	0x2
 5799 18cb 74       		.byte	0x74
 5800 18cc 5C       		.sleb128 -36
 5801 18cd 2F       		.uleb128 0x2f
 5802 18ce 01       		.byte	0x1
 5803 18cf 53       		.byte	0x53
 5804 18d0 03       		.byte	0x3
 5805 18d1 F5       		.byte	0xf5
 5806 18d2 07       		.uleb128 0x7
 5807 18d3 25       		.uleb128 0x25
 5808 18d4 2F       		.uleb128 0x2f
 5809 18d5 02       		.byte	0x2
 5810 18d6 7D       		.byte	0x7d
 5811 18d7 00       		.sleb128 0
 5812 18d8 02       		.byte	0x2
 5813 18d9 78       		.byte	0x78
 5814 18da 00       		.sleb128 0
 5815 18db 00       		.byte	0
 5816 18dc 00       		.byte	0
 5817 18dd 30       		.uleb128 0x30
 5818 18de 42040000 		.4byte	.LVL157
 5819 18e2 3B140000 		.4byte	0x143b
 5820 18e6 2F       		.uleb128 0x2f
 5821 18e7 01       		.byte	0x1
 5822 18e8 50       		.byte	0x50
 5823 18e9 02       		.byte	0x2
 5824 18ea 75       		.byte	0x75
 5825 18eb 00       		.sleb128 0
 5826 18ec 00       		.byte	0
 5827 18ed 00       		.byte	0
 5828 18ee 05       		.uleb128 0x5
 5829 18ef 04       		.byte	0x4
 5830 18f0 9F0A0000 		.4byte	0xa9f
 5831 18f4 05       		.uleb128 0x5
 5832 18f5 04       		.byte	0x4
 5833 18f6 7A0F0000 		.4byte	0xf7a
 5834 18fa 3E       		.uleb128 0x3e
 5835 18fb 01       		.byte	0x1
 5836 18fc 4D040000 		.4byte	.LASF272
 5837 1900 01       		.byte	0x1
 5838 1901 47       		.byte	0x47
 5839 1902 06       		.byte	0x6
 5840 1903 01       		.byte	0x1
 5841 1904 78030000 		.4byte	.LFB7
 5842 1908 A8030000 		.4byte	.LFE7
 5843 190c 2B0E0000 		.4byte	.LLST40
 5844 1910 01       		.byte	0x1
 5845 1911 B8190000 		.4byte	0x19b8
 5846 1915 29       		.uleb128 0x29
 5847 1916 E4090000 		.4byte	.LASF242
 5848 191a 01       		.byte	0x1
 5849 191b 47       		.byte	0x47
 5850 191c 2D       		.byte	0x2d
 5851 191d CB130000 		.4byte	0x13cb
 5852 1921 5B0E0000 		.4byte	.LLST41
 5853 1925 570E0000 		.4byte	.LVUS41
 5854 1929 29       		.uleb128 0x29
ARM GAS  /var/folders/_2/qbh2zpt918qcm2b_6mgyydnm0000gn/T//ccIdySvu.s 			page 116


 5855 192a 16040000 		.4byte	.LASF273
 5856 192e 01       		.byte	0x1
 5857 192f 47       		.byte	0x47
 5858 1930 3B       		.byte	0x3b
 5859 1931 25000000 		.4byte	0x25
 5860 1935 800E0000 		.4byte	.LLST42
 5861 1939 7C0E0000 		.4byte	.LVUS42
 5862 193d 29       		.uleb128 0x29
 5863 193e 41040000 		.4byte	.LASF244
 5864 1942 01       		.byte	0x1
 5865 1943 47       		.byte	0x47
 5866 1944 4E       		.byte	0x4e
 5867 1945 640A0000 		.4byte	0xa64
 5868 1949 A20E0000 		.4byte	.LLST43
 5869 194d 9E0E0000 		.4byte	.LVUS43
 5870 1951 2C       		.uleb128 0x2c
 5871 1952 5100     		.ascii	"Q\000"
 5872 1954 01       		.byte	0x1
 5873 1955 47       		.byte	0x47
 5874 1956 61       		.byte	0x61
 5875 1957 25000000 		.4byte	0x25
 5876 195b C70E0000 		.4byte	.LLST44
 5877 195f C30E0000 		.4byte	.LVUS44
 5878 1963 37       		.uleb128 0x37
 5879 1964 7A0B0000 		.4byte	.LASF269
 5880 1968 01       		.byte	0x1
 5881 1969 47       		.byte	0x47
 5882 196a 77       		.byte	0x77
 5883 196b DD0F0000 		.4byte	0xfdd
 5884 196f 02       		.byte	0x2
 5885 1970 91       		.byte	0x91
 5886 1971 00       		.sleb128 0
 5887 1972 3F       		.uleb128 0x3f
 5888 1973 58000000 		.4byte	.Ldebug_ranges0+0x58
 5889 1977 2A       		.uleb128 0x2a
 5890 1978 B2010000 		.4byte	.LASF252
 5891 197c 01       		.byte	0x1
 5892 197d 48       		.byte	0x48
 5893 197e 0A       		.byte	0xa
 5894 197f 3A000000 		.4byte	0x3a
 5895 1983 E70E0000 		.4byte	.LLST45
 5896 1987 E50E0000 		.4byte	.LVUS45
 5897 198b 30       		.uleb128 0x30
 5898 198c 9E030000 		.4byte	.LVL132
 5899 1990 67120000 		.4byte	0x1267
 5900 1994 2F       		.uleb128 0x2f
 5901 1995 01       		.byte	0x1
 5902 1996 50       		.byte	0x50
 5903 1997 02       		.byte	0x2
 5904 1998 74       		.byte	0x74
 5905 1999 5C       		.sleb128 -36
 5906 199a 2F       		.uleb128 0x2f
 5907 199b 01       		.byte	0x1
 5908 199c 51       		.byte	0x51
 5909 199d 03       		.byte	0x3
 5910 199e F5       		.byte	0xf5
 5911 199f 05       		.uleb128 0x5
ARM GAS  /var/folders/_2/qbh2zpt918qcm2b_6mgyydnm0000gn/T//ccIdySvu.s 			page 117


 5912 19a0 25       		.uleb128 0x25
 5913 19a1 2F       		.uleb128 0x2f
 5914 19a2 01       		.byte	0x1
 5915 19a3 52       		.byte	0x52
 5916 19a4 02       		.byte	0x2
 5917 19a5 76       		.byte	0x76
 5918 19a6 00       		.sleb128 0
 5919 19a7 2F       		.uleb128 0x2f
 5920 19a8 01       		.byte	0x1
 5921 19a9 53       		.byte	0x53
 5922 19aa 03       		.byte	0x3
 5923 19ab F5       		.byte	0xf5
 5924 19ac 07       		.uleb128 0x7
 5925 19ad 25       		.uleb128 0x25
 5926 19ae 2F       		.uleb128 0x2f
 5927 19af 02       		.byte	0x2
 5928 19b0 7D       		.byte	0x7d
 5929 19b1 00       		.sleb128 0
 5930 19b2 02       		.byte	0x2
 5931 19b3 79       		.byte	0x79
 5932 19b4 00       		.sleb128 0
 5933 19b5 00       		.byte	0
 5934 19b6 00       		.byte	0
 5935 19b7 00       		.byte	0
 5936 19b8 2B       		.uleb128 0x2b
 5937 19b9 01       		.byte	0x1
 5938 19ba 71080000 		.4byte	.LASF274
 5939 19be 01       		.byte	0x1
 5940 19bf 2D       		.byte	0x2d
 5941 19c0 06       		.byte	0x6
 5942 19c1 01       		.byte	0x1
 5943 19c2 D8020000 		.4byte	.LFB6
 5944 19c6 78030000 		.4byte	.LFE6
 5945 19ca FB0E0000 		.4byte	.LLST35
 5946 19ce 01       		.byte	0x1
 5947 19cf 731A0000 		.4byte	0x1a73
 5948 19d3 29       		.uleb128 0x29
 5949 19d4 57020000 		.4byte	.LASF275
 5950 19d8 01       		.byte	0x1
 5951 19d9 2D       		.byte	0x2d
 5952 19da 21       		.byte	0x21
 5953 19db 4C0A0000 		.4byte	0xa4c
 5954 19df 3F0F0000 		.4byte	.LLST36
 5955 19e3 330F0000 		.4byte	.LVUS36
 5956 19e7 38       		.uleb128 0x38
 5957 19e8 FA020000 		.4byte	.LBB28
 5958 19ec 22030000 		.4byte	.LBE28
 5959 19f0 3A1A0000 		.4byte	0x1a3a
 5960 19f4 2A       		.uleb128 0x2a
 5961 19f5 B2010000 		.4byte	.LASF252
 5962 19f9 01       		.byte	0x1
 5963 19fa 36       		.byte	0x36
 5964 19fb 0D       		.byte	0xd
 5965 19fc 3A000000 		.4byte	0x3a
 5966 1a00 9A0F0000 		.4byte	.LLST37
 5967 1a04 920F0000 		.4byte	.LVUS37
 5968 1a08 40       		.uleb128 0x40
ARM GAS  /var/folders/_2/qbh2zpt918qcm2b_6mgyydnm0000gn/T//ccIdySvu.s 			page 118


 5969 1a09 0F140000 		.4byte	0x140f
 5970 1a0d 10030000 		.4byte	.LBI29
 5971 1a11 01       		.byte	.LVU298
 5972 1a12 20000000 		.4byte	.Ldebug_ranges0+0x20
 5973 1a16 01       		.byte	0x1
 5974 1a17 37       		.byte	0x37
 5975 1a18 06       		.byte	0x6
 5976 1a19 301A0000 		.4byte	0x1a30
 5977 1a1d 3C       		.uleb128 0x3c
 5978 1a1e 2A140000 		.4byte	0x142a
 5979 1a22 3D       		.uleb128 0x3d
 5980 1a23 1E140000 		.4byte	0x141e
 5981 1a27 D80F0000 		.4byte	.LLST38
 5982 1a2b D20F0000 		.4byte	.LVUS38
 5983 1a2f 00       		.byte	0
 5984 1a30 41       		.uleb128 0x41
 5985 1a31 10030000 		.4byte	.LVL120
 5986 1a35 3B140000 		.4byte	0x143b
 5987 1a39 00       		.byte	0
 5988 1a3a 3F       		.uleb128 0x3f
 5989 1a3b 40000000 		.4byte	.Ldebug_ranges0+0x40
 5990 1a3f 2A       		.uleb128 0x2a
 5991 1a40 B2010000 		.4byte	.LASF252
 5992 1a44 01       		.byte	0x1
 5993 1a45 3C       		.byte	0x3c
 5994 1a46 0D       		.byte	0xd
 5995 1a47 3A000000 		.4byte	0x3a
 5996 1a4b 18100000 		.4byte	.LLST39
 5997 1a4f 10100000 		.4byte	.LVUS39
 5998 1a53 30       		.uleb128 0x30
 5999 1a54 4A030000 		.4byte	.LVL129
 6000 1a58 67120000 		.4byte	0x1267
 6001 1a5c 2F       		.uleb128 0x2f
 6002 1a5d 01       		.byte	0x1
 6003 1a5e 50       		.byte	0x50
 6004 1a5f 02       		.byte	0x2
 6005 1a60 75       		.byte	0x75
 6006 1a61 00       		.sleb128 0
 6007 1a62 2F       		.uleb128 0x2f
 6008 1a63 01       		.byte	0x1
 6009 1a64 53       		.byte	0x53
 6010 1a65 03       		.byte	0x3
 6011 1a66 F5       		.byte	0xf5
 6012 1a67 08       		.uleb128 0x8
 6013 1a68 25       		.uleb128 0x25
 6014 1a69 2F       		.uleb128 0x2f
 6015 1a6a 02       		.byte	0x2
 6016 1a6b 7D       		.byte	0x7d
 6017 1a6c 00       		.sleb128 0
 6018 1a6d 02       		.byte	0x2
 6019 1a6e 79       		.byte	0x79
 6020 1a6f 00       		.sleb128 0
 6021 1a70 00       		.byte	0
 6022 1a71 00       		.byte	0
 6023 1a72 00       		.byte	0
 6024 1a73 2B       		.uleb128 0x2b
 6025 1a74 01       		.byte	0x1
ARM GAS  /var/folders/_2/qbh2zpt918qcm2b_6mgyydnm0000gn/T//ccIdySvu.s 			page 119


 6026 1a75 9E090000 		.4byte	.LASF276
 6027 1a79 01       		.byte	0x1
 6028 1a7a 20       		.byte	0x20
 6029 1a7b 06       		.byte	0x6
 6030 1a7c 01       		.byte	0x1
 6031 1a7d 24010000 		.4byte	.LFB5
 6032 1a81 7C010000 		.4byte	.LFE5
 6033 1a85 4F100000 		.4byte	.LLST16
 6034 1a89 01       		.byte	0x1
 6035 1a8a E51A0000 		.4byte	0x1ae5
 6036 1a8e 42       		.uleb128 0x42
 6037 1a8f 36010000 		.4byte	.LBB21
 6038 1a93 5C010000 		.4byte	.LBE21
 6039 1a97 2A       		.uleb128 0x2a
 6040 1a98 B2010000 		.4byte	.LASF252
 6041 1a9c 01       		.byte	0x1
 6042 1a9d 27       		.byte	0x27
 6043 1a9e 0B       		.byte	0xb
 6044 1a9f 3A000000 		.4byte	0x3a
 6045 1aa3 77100000 		.4byte	.LLST17
 6046 1aa7 6F100000 		.4byte	.LVUS17
 6047 1aab 40       		.uleb128 0x40
 6048 1aac 0F140000 		.4byte	0x140f
 6049 1ab0 4C010000 		.4byte	.LBI22
 6050 1ab4 01       		.byte	.LVU113
 6051 1ab5 00000000 		.4byte	.Ldebug_ranges0+0
 6052 1ab9 01       		.byte	0x1
 6053 1aba 28       		.byte	0x28
 6054 1abb 04       		.byte	0x4
 6055 1abc D31A0000 		.4byte	0x1ad3
 6056 1ac0 3C       		.uleb128 0x3c
 6057 1ac1 2A140000 		.4byte	0x142a
 6058 1ac5 3D       		.uleb128 0x3d
 6059 1ac6 1E140000 		.4byte	0x141e
 6060 1aca B5100000 		.4byte	.LLST18
 6061 1ace AF100000 		.4byte	.LVUS18
 6062 1ad2 00       		.byte	0
 6063 1ad3 30       		.uleb128 0x30
 6064 1ad4 4C010000 		.4byte	.LVL46
 6065 1ad8 3B140000 		.4byte	0x143b
 6066 1adc 2F       		.uleb128 0x2f
 6067 1add 01       		.byte	0x1
 6068 1ade 50       		.byte	0x50
 6069 1adf 02       		.byte	0x2
 6070 1ae0 74       		.byte	0x74
 6071 1ae1 00       		.sleb128 0
 6072 1ae2 00       		.byte	0
 6073 1ae3 00       		.byte	0
 6074 1ae4 00       		.byte	0
 6075 1ae5 2B       		.uleb128 0x2b
 6076 1ae6 01       		.byte	0x1
 6077 1ae7 7F0B0000 		.4byte	.LASF277
 6078 1aeb 01       		.byte	0x1
 6079 1aec 10       		.byte	0x10
 6080 1aed 06       		.byte	0x6
 6081 1aee 01       		.byte	0x1
 6082 1aef 44050000 		.4byte	.LFB4
ARM GAS  /var/folders/_2/qbh2zpt918qcm2b_6mgyydnm0000gn/T//ccIdySvu.s 			page 120


 6083 1af3 C8050000 		.4byte	.LFE4
 6084 1af7 ED100000 		.4byte	.LLST71
 6085 1afb 01       		.byte	0x1
 6086 1afc F61B0000 		.4byte	0x1bf6
 6087 1b00 2A       		.uleb128 0x2a
 6088 1b01 9B0A0000 		.4byte	.LASF239
 6089 1b05 01       		.byte	0x1
 6090 1b06 13       		.byte	0x13
 6091 1b07 0B       		.byte	0xb
 6092 1b08 640A0000 		.4byte	0xa64
 6093 1b0c 1B110000 		.4byte	.LLST72
 6094 1b10 19110000 		.4byte	.LVUS72
 6095 1b14 42       		.uleb128 0x42
 6096 1b15 56050000 		.4byte	.LBB66
 6097 1b19 A4050000 		.4byte	.LBE66
 6098 1b1d 2A       		.uleb128 0x2a
 6099 1b1e 8A060000 		.4byte	.LASF251
 6100 1b22 01       		.byte	0x1
 6101 1b23 19       		.byte	0x19
 6102 1b24 0F       		.byte	0xf
 6103 1b25 C60A0000 		.4byte	0xac6
 6104 1b29 34110000 		.4byte	.LLST73
 6105 1b2d 2E110000 		.4byte	.LVUS73
 6106 1b31 39       		.uleb128 0x39
 6107 1b32 E0000000 		.4byte	.Ldebug_ranges0+0xe0
 6108 1b36 CF1B0000 		.4byte	0x1bcf
 6109 1b3a 2A       		.uleb128 0x2a
 6110 1b3b B2010000 		.4byte	.LASF252
 6111 1b3f 01       		.byte	0x1
 6112 1b40 1A       		.byte	0x1a
 6113 1b41 0B       		.byte	0xb
 6114 1b42 3A000000 		.4byte	0x3a
 6115 1b46 65110000 		.4byte	.LLST74
 6116 1b4a 5D110000 		.4byte	.LVUS74
 6117 1b4e 2E       		.uleb128 0x2e
 6118 1b4f 88050000 		.4byte	.LVL189
 6119 1b53 67120000 		.4byte	0x1267
 6120 1b57 7A1B0000 		.4byte	0x1b7a
 6121 1b5b 2F       		.uleb128 0x2f
 6122 1b5c 01       		.byte	0x1
 6123 1b5d 50       		.byte	0x50
 6124 1b5e 05       		.byte	0x5
 6125 1b5f 03       		.byte	0x3
 6126 1b60 00000000 		.4byte	dtermNotch
 6127 1b64 2F       		.uleb128 0x2f
 6128 1b65 01       		.byte	0x1
 6129 1b66 51       		.byte	0x51
 6130 1b67 03       		.byte	0x3
 6131 1b68 F5       		.byte	0xf5
 6132 1b69 04       		.uleb128 0x4
 6133 1b6a 25       		.uleb128 0x25
 6134 1b6b 2F       		.uleb128 0x2f
 6135 1b6c 01       		.byte	0x1
 6136 1b6d 53       		.byte	0x53
 6137 1b6e 03       		.byte	0x3
 6138 1b6f F5       		.byte	0xf5
 6139 1b70 05       		.uleb128 0x5
ARM GAS  /var/folders/_2/qbh2zpt918qcm2b_6mgyydnm0000gn/T//ccIdySvu.s 			page 121


 6140 1b71 25       		.uleb128 0x25
 6141 1b72 2F       		.uleb128 0x2f
 6142 1b73 02       		.byte	0x2
 6143 1b74 7D       		.byte	0x7d
 6144 1b75 00       		.sleb128 0
 6145 1b76 02       		.byte	0x2
 6146 1b77 77       		.byte	0x77
 6147 1b78 00       		.sleb128 0
 6148 1b79 00       		.byte	0
 6149 1b7a 2E       		.uleb128 0x2e
 6150 1b7b 96050000 		.4byte	.LVL190
 6151 1b7f 67120000 		.4byte	0x1267
 6152 1b83 A61B0000 		.4byte	0x1ba6
 6153 1b87 2F       		.uleb128 0x2f
 6154 1b88 01       		.byte	0x1
 6155 1b89 50       		.byte	0x50
 6156 1b8a 05       		.byte	0x5
 6157 1b8b 03       		.byte	0x3
 6158 1b8c 24000000 		.4byte	dtermNotch+36
 6159 1b90 2F       		.uleb128 0x2f
 6160 1b91 01       		.byte	0x1
 6161 1b92 51       		.byte	0x51
 6162 1b93 03       		.byte	0x3
 6163 1b94 F5       		.byte	0xf5
 6164 1b95 04       		.uleb128 0x4
 6165 1b96 25       		.uleb128 0x25
 6166 1b97 2F       		.uleb128 0x2f
 6167 1b98 01       		.byte	0x1
 6168 1b99 53       		.byte	0x53
 6169 1b9a 03       		.byte	0x3
 6170 1b9b F5       		.byte	0xf5
 6171 1b9c 05       		.uleb128 0x5
 6172 1b9d 25       		.uleb128 0x25
 6173 1b9e 2F       		.uleb128 0x2f
 6174 1b9f 02       		.byte	0x2
 6175 1ba0 7D       		.byte	0x7d
 6176 1ba1 00       		.sleb128 0
 6177 1ba2 02       		.byte	0x2
 6178 1ba3 77       		.byte	0x77
 6179 1ba4 00       		.sleb128 0
 6180 1ba5 00       		.byte	0
 6181 1ba6 30       		.uleb128 0x30
 6182 1ba7 A4050000 		.4byte	.LVL191
 6183 1bab 67120000 		.4byte	0x1267
 6184 1baf 2F       		.uleb128 0x2f
 6185 1bb0 01       		.byte	0x1
 6186 1bb1 50       		.byte	0x50
 6187 1bb2 05       		.byte	0x5
 6188 1bb3 03       		.byte	0x3
 6189 1bb4 48000000 		.4byte	dtermNotch+72
 6190 1bb8 2F       		.uleb128 0x2f
 6191 1bb9 01       		.byte	0x1
 6192 1bba 51       		.byte	0x51
 6193 1bbb 03       		.byte	0x3
 6194 1bbc F5       		.byte	0xf5
 6195 1bbd 04       		.uleb128 0x4
 6196 1bbe 25       		.uleb128 0x25
ARM GAS  /var/folders/_2/qbh2zpt918qcm2b_6mgyydnm0000gn/T//ccIdySvu.s 			page 122


 6197 1bbf 2F       		.uleb128 0x2f
 6198 1bc0 01       		.byte	0x1
 6199 1bc1 53       		.byte	0x53
 6200 1bc2 03       		.byte	0x3
 6201 1bc3 F5       		.byte	0xf5
 6202 1bc4 05       		.uleb128 0x5
 6203 1bc5 25       		.uleb128 0x25
 6204 1bc6 2F       		.uleb128 0x2f
 6205 1bc7 02       		.byte	0x2
 6206 1bc8 7D       		.byte	0x7d
 6207 1bc9 00       		.sleb128 0
 6208 1bca 02       		.byte	0x2
 6209 1bcb 77       		.byte	0x77
 6210 1bcc 00       		.sleb128 0
 6211 1bcd 00       		.byte	0
 6212 1bce 00       		.byte	0
 6213 1bcf 2E       		.uleb128 0x2e
 6214 1bd0 5C050000 		.4byte	.LVL183
 6215 1bd4 0B120000 		.4byte	0x120b
 6216 1bd8 E31B0000 		.4byte	0x1be3
 6217 1bdc 2F       		.uleb128 0x2f
 6218 1bdd 01       		.byte	0x1
 6219 1bde 51       		.byte	0x51
 6220 1bdf 02       		.byte	0x2
 6221 1be0 75       		.byte	0x75
 6222 1be1 00       		.sleb128 0
 6223 1be2 00       		.byte	0
 6224 1be3 30       		.uleb128 0x30
 6225 1be4 74050000 		.4byte	.LVL186
 6226 1be8 DC110000 		.4byte	0x11dc
 6227 1bec 2F       		.uleb128 0x2f
 6228 1bed 01       		.byte	0x1
 6229 1bee 50       		.byte	0x50
 6230 1bef 03       		.byte	0x3
 6231 1bf0 F5       		.byte	0xf5
 6232 1bf1 04       		.uleb128 0x4
 6233 1bf2 25       		.uleb128 0x25
 6234 1bf3 00       		.byte	0
 6235 1bf4 00       		.byte	0
 6236 1bf5 00       		.byte	0
 6237 1bf6 3E       		.uleb128 0x3e
 6238 1bf7 01       		.byte	0x1
 6239 1bf8 52030000 		.4byte	.LASF278
 6240 1bfc 01       		.byte	0x1
 6241 1bfd 07       		.byte	0x7
 6242 1bfe 06       		.byte	0x6
 6243 1bff 01       		.byte	0x1
 6244 1c00 A8060000 		.4byte	.LFB3
 6245 1c04 E8060000 		.4byte	.LFE3
 6246 1c08 9D110000 		.4byte	.LLST87
 6247 1c0c 01       		.byte	0x1
 6248 1c0d 921C0000 		.4byte	0x1c92
 6249 1c11 29       		.uleb128 0x29
 6250 1c12 6F020000 		.4byte	.LASF221
 6251 1c16 01       		.byte	0x1
 6252 1c17 07       		.byte	0x7
 6253 1c18 25       		.byte	0x25
ARM GAS  /var/folders/_2/qbh2zpt918qcm2b_6mgyydnm0000gn/T//ccIdySvu.s 			page 123


 6254 1c19 09140000 		.4byte	0x1409
 6255 1c1d D1110000 		.4byte	.LLST88
 6256 1c21 C9110000 		.4byte	.LVUS88
 6257 1c25 2E       		.uleb128 0x2e
 6258 1c26 B8060000 		.4byte	.LVL217
 6259 1c2a 92170000 		.4byte	0x1792
 6260 1c2e 3E1C0000 		.4byte	0x1c3e
 6261 1c32 2F       		.uleb128 0x2f
 6262 1c33 01       		.byte	0x1
 6263 1c34 50       		.byte	0x50
 6264 1c35 02       		.byte	0x2
 6265 1c36 75       		.byte	0x75
 6266 1c37 00       		.sleb128 0
 6267 1c38 2F       		.uleb128 0x2f
 6268 1c39 01       		.byte	0x1
 6269 1c3a 51       		.byte	0x51
 6270 1c3b 01       		.byte	0x1
 6271 1c3c 30       		.byte	0x30
 6272 1c3d 00       		.byte	0
 6273 1c3e 2E       		.uleb128 0x2e
 6274 1c3f C4060000 		.4byte	.LVL218
 6275 1c43 92170000 		.4byte	0x1792
 6276 1c47 571C0000 		.4byte	0x1c57
 6277 1c4b 2F       		.uleb128 0x2f
 6278 1c4c 01       		.byte	0x1
 6279 1c4d 50       		.byte	0x50
 6280 1c4e 02       		.byte	0x2
 6281 1c4f 75       		.byte	0x75
 6282 1c50 00       		.sleb128 0
 6283 1c51 2F       		.uleb128 0x2f
 6284 1c52 01       		.byte	0x1
 6285 1c53 51       		.byte	0x51
 6286 1c54 01       		.byte	0x1
 6287 1c55 31       		.byte	0x31
 6288 1c56 00       		.byte	0
 6289 1c57 2E       		.uleb128 0x2e
 6290 1c58 CE060000 		.4byte	.LVL219
 6291 1c5c B4160000 		.4byte	0x16b4
 6292 1c60 6B1C0000 		.4byte	0x1c6b
 6293 1c64 2F       		.uleb128 0x2f
 6294 1c65 01       		.byte	0x1
 6295 1c66 50       		.byte	0x50
 6296 1c67 02       		.byte	0x2
 6297 1c68 75       		.byte	0x75
 6298 1c69 00       		.sleb128 0
 6299 1c6a 00       		.byte	0
 6300 1c6b 2E       		.uleb128 0x2e
 6301 1c6c D8060000 		.4byte	.LVL220
 6302 1c70 D6150000 		.4byte	0x15d6
 6303 1c74 7F1C0000 		.4byte	0x1c7f
 6304 1c78 2F       		.uleb128 0x2f
 6305 1c79 01       		.byte	0x1
 6306 1c7a 50       		.byte	0x50
 6307 1c7b 02       		.byte	0x2
 6308 1c7c 75       		.byte	0x75
 6309 1c7d 00       		.sleb128 0
 6310 1c7e 00       		.byte	0
ARM GAS  /var/folders/_2/qbh2zpt918qcm2b_6mgyydnm0000gn/T//ccIdySvu.s 			page 124


 6311 1c7f 43       		.uleb128 0x43
 6312 1c80 E2060000 		.4byte	.LVL222
 6313 1c84 01       		.byte	0x1
 6314 1c85 D1130000 		.4byte	0x13d1
 6315 1c89 2F       		.uleb128 0x2f
 6316 1c8a 01       		.byte	0x1
 6317 1c8b 50       		.byte	0x50
 6318 1c8c 03       		.byte	0x3
 6319 1c8d F3       		.byte	0xf3
 6320 1c8e 01       		.uleb128 0x1
 6321 1c8f 50       		.byte	0x50
 6322 1c90 00       		.byte	0
 6323 1c91 00       		.byte	0
 6324 1c92 44       		.uleb128 0x44
 6325 1c93 0F140000 		.4byte	0x140f
 6326 1c97 7C010000 		.4byte	.LFB16
 6327 1c9b 84010000 		.4byte	.LFE16
 6328 1c9f 02       		.byte	0x2
 6329 1ca0 7D       		.byte	0x7d
 6330 1ca1 00       		.sleb128 0
 6331 1ca2 01       		.byte	0x1
 6332 1ca3 B61C0000 		.4byte	0x1cb6
 6333 1ca7 45       		.uleb128 0x45
 6334 1ca8 1E140000 		.4byte	0x141e
 6335 1cac 01       		.byte	0x1
 6336 1cad 50       		.byte	0x50
 6337 1cae 45       		.uleb128 0x45
 6338 1caf 2A140000 		.4byte	0x142a
 6339 1cb3 01       		.byte	0x1
 6340 1cb4 51       		.byte	0x51
 6341 1cb5 00       		.byte	0
 6342 1cb6 46       		.uleb128 0x46
 6343 1cb7 D1130000 		.4byte	0x13d1
 6344 1cbb 78040000 		.4byte	.LFB17
 6345 1cbf D4040000 		.4byte	.LFE17
 6346 1cc3 08120000 		.4byte	.LLST58
 6347 1cc7 01       		.byte	0x1
 6348 1cc8 791D0000 		.4byte	0x1d79
 6349 1ccc 3D       		.uleb128 0x3d
 6350 1ccd E0130000 		.4byte	0x13e0
 6351 1cd1 3A120000 		.4byte	.LLST59
 6352 1cd5 34120000 		.4byte	.LVUS59
 6353 1cd9 47       		.uleb128 0x47
 6354 1cda EC130000 		.4byte	0x13ec
 6355 1cde A8000000 		.4byte	.Ldebug_ranges0+0xa8
 6356 1ce2 0F1D0000 		.4byte	0x1d0f
 6357 1ce6 48       		.uleb128 0x48
 6358 1ce7 ED130000 		.4byte	0x13ed
 6359 1ceb 6B120000 		.4byte	.LLST60
 6360 1cef 69120000 		.4byte	.LVUS60
 6361 1cf3 49       		.uleb128 0x49
 6362 1cf4 F9130000 		.4byte	0x13f9
 6363 1cf8 96040000 		.4byte	.LBB57
 6364 1cfc 96040000 		.4byte	.LBE57
 6365 1d00 48       		.uleb128 0x48
 6366 1d01 FA130000 		.4byte	0x13fa
 6367 1d05 85120000 		.4byte	.LLST61
ARM GAS  /var/folders/_2/qbh2zpt918qcm2b_6mgyydnm0000gn/T//ccIdySvu.s 			page 125


 6368 1d09 83120000 		.4byte	.LVUS61
 6369 1d0d 00       		.byte	0
 6370 1d0e 00       		.byte	0
 6371 1d0f 3B       		.uleb128 0x3b
 6372 1d10 D1130000 		.4byte	0x13d1
 6373 1d14 96040000 		.4byte	.LBI58
 6374 1d18 06       		.byte	.LVU454
 6375 1d19 C8000000 		.4byte	.Ldebug_ranges0+0xc8
 6376 1d1d 01       		.byte	0x1
 6377 1d1e C0       		.byte	0xc0
 6378 1d1f 06       		.byte	0x6
 6379 1d20 3D       		.uleb128 0x3d
 6380 1d21 E0130000 		.4byte	0x13e0
 6381 1d25 9D120000 		.4byte	.LLST62
 6382 1d29 99120000 		.4byte	.LVUS62
 6383 1d2d 4A       		.uleb128 0x4a
 6384 1d2e EC130000 		.4byte	0x13ec
 6385 1d32 C8000000 		.4byte	.Ldebug_ranges0+0xc8
 6386 1d36 4B       		.uleb128 0x4b
 6387 1d37 ED130000 		.4byte	0x13ed
 6388 1d3b 4A       		.uleb128 0x4a
 6389 1d3c F9130000 		.4byte	0x13f9
 6390 1d40 C8000000 		.4byte	.Ldebug_ranges0+0xc8
 6391 1d44 48       		.uleb128 0x48
 6392 1d45 FA130000 		.4byte	0x13fa
 6393 1d49 C0120000 		.4byte	.LLST63
 6394 1d4d BE120000 		.4byte	.LVUS63
 6395 1d51 30       		.uleb128 0x30
 6396 1d52 B0040000 		.4byte	.LVL165
 6397 1d56 67120000 		.4byte	0x1267
 6398 1d5a 2F       		.uleb128 0x2f
 6399 1d5b 01       		.byte	0x1
 6400 1d5c 50       		.byte	0x50
 6401 1d5d 02       		.byte	0x2
 6402 1d5e 75       		.byte	0x75
 6403 1d5f 5C       		.sleb128 -36
 6404 1d60 2F       		.uleb128 0x2f
 6405 1d61 01       		.byte	0x1
 6406 1d62 51       		.byte	0x51
 6407 1d63 03       		.byte	0x3
 6408 1d64 F5       		.byte	0xf5
 6409 1d65 06       		.uleb128 0x6
 6410 1d66 25       		.uleb128 0x25
 6411 1d67 2F       		.uleb128 0x2f
 6412 1d68 01       		.byte	0x1
 6413 1d69 53       		.byte	0x53
 6414 1d6a 03       		.byte	0x3
 6415 1d6b F5       		.byte	0xf5
 6416 1d6c 08       		.uleb128 0x8
 6417 1d6d 25       		.uleb128 0x25
 6418 1d6e 2F       		.uleb128 0x2f
 6419 1d6f 02       		.byte	0x2
 6420 1d70 7D       		.byte	0x7d
 6421 1d71 00       		.sleb128 0
 6422 1d72 01       		.byte	0x1
 6423 1d73 31       		.byte	0x31
 6424 1d74 00       		.byte	0
ARM GAS  /var/folders/_2/qbh2zpt918qcm2b_6mgyydnm0000gn/T//ccIdySvu.s 			page 126


 6425 1d75 00       		.byte	0
 6426 1d76 00       		.byte	0
 6427 1d77 00       		.byte	0
 6428 1d78 00       		.byte	0
 6429 1d79 4C       		.uleb128 0x4c
 6430 1d7a DC110000 		.4byte	0x11dc
 6431 1d7e 14050000 		.4byte	.LFB20
 6432 1d82 44050000 		.4byte	.LFE20
 6433 1d86 D4120000 		.4byte	.LLST68
 6434 1d8a 01       		.byte	0x1
 6435 1d8b AA1D0000 		.4byte	0x1daa
 6436 1d8f 3D       		.uleb128 0x3d
 6437 1d90 F0110000 		.4byte	0x11f0
 6438 1d94 FA120000 		.4byte	.LLST69
 6439 1d98 F4120000 		.4byte	.LVUS69
 6440 1d9c 3D       		.uleb128 0x3d
 6441 1d9d FD110000 		.4byte	0x11fd
 6442 1da1 2C130000 		.4byte	.LLST70
 6443 1da5 28130000 		.4byte	.LVUS70
 6444 1da9 00       		.byte	0
 6445 1daa 4D       		.uleb128 0x4d
 6446 1dab 01       		.byte	0x1
 6447 1dac 01       		.byte	0x1
 6448 1dad 610D0000 		.4byte	.LASF279
 6449 1db1 610D0000 		.4byte	.LASF279
 6450 1db5 0B       		.byte	0xb
 6451 1db6 27       		.byte	0x27
 6452 1db7 07       		.byte	0x7
 6453 1db8 4D       		.uleb128 0x4d
 6454 1db9 01       		.byte	0x1
 6455 1dba 01       		.byte	0x1
 6456 1dbb AE050000 		.4byte	.LASF280
 6457 1dbf AE050000 		.4byte	.LASF280
 6458 1dc3 0B       		.byte	0xb
 6459 1dc4 26       		.byte	0x26
 6460 1dc5 07       		.byte	0x7
 6461 1dc6 00       		.byte	0
 6462              		.section	.debug_abbrev,"",%progbits
 6463              	.Ldebug_abbrev0:
 6464 0000 01       		.uleb128 0x1
 6465 0001 11       		.uleb128 0x11
 6466 0002 01       		.byte	0x1
 6467 0003 25       		.uleb128 0x25
 6468 0004 0E       		.uleb128 0xe
 6469 0005 13       		.uleb128 0x13
 6470 0006 0B       		.uleb128 0xb
 6471 0007 03       		.uleb128 0x3
 6472 0008 0E       		.uleb128 0xe
 6473 0009 1B       		.uleb128 0x1b
 6474 000a 0E       		.uleb128 0xe
 6475 000b 11       		.uleb128 0x11
 6476 000c 01       		.uleb128 0x1
 6477 000d 12       		.uleb128 0x12
 6478 000e 01       		.uleb128 0x1
 6479 000f 10       		.uleb128 0x10
 6480 0010 06       		.uleb128 0x6
 6481 0011 00       		.byte	0
ARM GAS  /var/folders/_2/qbh2zpt918qcm2b_6mgyydnm0000gn/T//ccIdySvu.s 			page 127


 6482 0012 00       		.byte	0
 6483 0013 02       		.uleb128 0x2
 6484 0014 24       		.uleb128 0x24
 6485 0015 00       		.byte	0
 6486 0016 0B       		.uleb128 0xb
 6487 0017 0B       		.uleb128 0xb
 6488 0018 3E       		.uleb128 0x3e
 6489 0019 0B       		.uleb128 0xb
 6490 001a 03       		.uleb128 0x3
 6491 001b 0E       		.uleb128 0xe
 6492 001c 00       		.byte	0
 6493 001d 00       		.byte	0
 6494 001e 03       		.uleb128 0x3
 6495 001f 24       		.uleb128 0x24
 6496 0020 00       		.byte	0
 6497 0021 0B       		.uleb128 0xb
 6498 0022 0B       		.uleb128 0xb
 6499 0023 3E       		.uleb128 0x3e
 6500 0024 0B       		.uleb128 0xb
 6501 0025 03       		.uleb128 0x3
 6502 0026 08       		.uleb128 0x8
 6503 0027 00       		.byte	0
 6504 0028 00       		.byte	0
 6505 0029 04       		.uleb128 0x4
 6506 002a 16       		.uleb128 0x16
 6507 002b 00       		.byte	0
 6508 002c 03       		.uleb128 0x3
 6509 002d 0E       		.uleb128 0xe
 6510 002e 3A       		.uleb128 0x3a
 6511 002f 0B       		.uleb128 0xb
 6512 0030 3B       		.uleb128 0x3b
 6513 0031 0B       		.uleb128 0xb
 6514 0032 39       		.uleb128 0x39
 6515 0033 0B       		.uleb128 0xb
 6516 0034 49       		.uleb128 0x49
 6517 0035 13       		.uleb128 0x13
 6518 0036 00       		.byte	0
 6519 0037 00       		.byte	0
 6520 0038 05       		.uleb128 0x5
 6521 0039 0F       		.uleb128 0xf
 6522 003a 00       		.byte	0
 6523 003b 0B       		.uleb128 0xb
 6524 003c 0B       		.uleb128 0xb
 6525 003d 49       		.uleb128 0x49
 6526 003e 13       		.uleb128 0x13
 6527 003f 00       		.byte	0
 6528 0040 00       		.byte	0
 6529 0041 06       		.uleb128 0x6
 6530 0042 13       		.uleb128 0x13
 6531 0043 00       		.byte	0
 6532 0044 03       		.uleb128 0x3
 6533 0045 0E       		.uleb128 0xe
 6534 0046 3C       		.uleb128 0x3c
 6535 0047 0C       		.uleb128 0xc
 6536 0048 00       		.byte	0
 6537 0049 00       		.byte	0
 6538 004a 07       		.uleb128 0x7
ARM GAS  /var/folders/_2/qbh2zpt918qcm2b_6mgyydnm0000gn/T//ccIdySvu.s 			page 128


 6539 004b 16       		.uleb128 0x16
 6540 004c 00       		.byte	0
 6541 004d 03       		.uleb128 0x3
 6542 004e 0E       		.uleb128 0xe
 6543 004f 3A       		.uleb128 0x3a
 6544 0050 0B       		.uleb128 0xb
 6545 0051 3B       		.uleb128 0x3b
 6546 0052 05       		.uleb128 0x5
 6547 0053 39       		.uleb128 0x39
 6548 0054 0B       		.uleb128 0xb
 6549 0055 49       		.uleb128 0x49
 6550 0056 13       		.uleb128 0x13
 6551 0057 00       		.byte	0
 6552 0058 00       		.byte	0
 6553 0059 08       		.uleb128 0x8
 6554 005a 17       		.uleb128 0x17
 6555 005b 01       		.byte	0x1
 6556 005c 0B       		.uleb128 0xb
 6557 005d 0B       		.uleb128 0xb
 6558 005e 3A       		.uleb128 0x3a
 6559 005f 0B       		.uleb128 0xb
 6560 0060 3B       		.uleb128 0x3b
 6561 0061 0B       		.uleb128 0xb
 6562 0062 39       		.uleb128 0x39
 6563 0063 0B       		.uleb128 0xb
 6564 0064 01       		.uleb128 0x1
 6565 0065 13       		.uleb128 0x13
 6566 0066 00       		.byte	0
 6567 0067 00       		.byte	0
 6568 0068 09       		.uleb128 0x9
 6569 0069 0D       		.uleb128 0xd
 6570 006a 00       		.byte	0
 6571 006b 03       		.uleb128 0x3
 6572 006c 0E       		.uleb128 0xe
 6573 006d 3A       		.uleb128 0x3a
 6574 006e 0B       		.uleb128 0xb
 6575 006f 3B       		.uleb128 0x3b
 6576 0070 0B       		.uleb128 0xb
 6577 0071 39       		.uleb128 0x39
 6578 0072 0B       		.uleb128 0xb
 6579 0073 49       		.uleb128 0x49
 6580 0074 13       		.uleb128 0x13
 6581 0075 00       		.byte	0
 6582 0076 00       		.byte	0
 6583 0077 0A       		.uleb128 0xa
 6584 0078 01       		.uleb128 0x1
 6585 0079 01       		.byte	0x1
 6586 007a 49       		.uleb128 0x49
 6587 007b 13       		.uleb128 0x13
 6588 007c 01       		.uleb128 0x1
 6589 007d 13       		.uleb128 0x13
 6590 007e 00       		.byte	0
 6591 007f 00       		.byte	0
 6592 0080 0B       		.uleb128 0xb
 6593 0081 21       		.uleb128 0x21
 6594 0082 00       		.byte	0
 6595 0083 49       		.uleb128 0x49
ARM GAS  /var/folders/_2/qbh2zpt918qcm2b_6mgyydnm0000gn/T//ccIdySvu.s 			page 129


 6596 0084 13       		.uleb128 0x13
 6597 0085 2F       		.uleb128 0x2f
 6598 0086 0B       		.uleb128 0xb
 6599 0087 00       		.byte	0
 6600 0088 00       		.byte	0
 6601 0089 0C       		.uleb128 0xc
 6602 008a 13       		.uleb128 0x13
 6603 008b 01       		.byte	0x1
 6604 008c 0B       		.uleb128 0xb
 6605 008d 0B       		.uleb128 0xb
 6606 008e 3A       		.uleb128 0x3a
 6607 008f 0B       		.uleb128 0xb
 6608 0090 3B       		.uleb128 0x3b
 6609 0091 0B       		.uleb128 0xb
 6610 0092 39       		.uleb128 0x39
 6611 0093 0B       		.uleb128 0xb
 6612 0094 01       		.uleb128 0x1
 6613 0095 13       		.uleb128 0x13
 6614 0096 00       		.byte	0
 6615 0097 00       		.byte	0
 6616 0098 0D       		.uleb128 0xd
 6617 0099 0D       		.uleb128 0xd
 6618 009a 00       		.byte	0
 6619 009b 03       		.uleb128 0x3
 6620 009c 0E       		.uleb128 0xe
 6621 009d 3A       		.uleb128 0x3a
 6622 009e 0B       		.uleb128 0xb
 6623 009f 3B       		.uleb128 0x3b
 6624 00a0 0B       		.uleb128 0xb
 6625 00a1 39       		.uleb128 0x39
 6626 00a2 0B       		.uleb128 0xb
 6627 00a3 49       		.uleb128 0x49
 6628 00a4 13       		.uleb128 0x13
 6629 00a5 38       		.uleb128 0x38
 6630 00a6 0A       		.uleb128 0xa
 6631 00a7 00       		.byte	0
 6632 00a8 00       		.byte	0
 6633 00a9 0E       		.uleb128 0xe
 6634 00aa 0F       		.uleb128 0xf
 6635 00ab 00       		.byte	0
 6636 00ac 0B       		.uleb128 0xb
 6637 00ad 0B       		.uleb128 0xb
 6638 00ae 00       		.byte	0
 6639 00af 00       		.byte	0
 6640 00b0 0F       		.uleb128 0xf
 6641 00b1 26       		.uleb128 0x26
 6642 00b2 00       		.byte	0
 6643 00b3 49       		.uleb128 0x49
 6644 00b4 13       		.uleb128 0x13
 6645 00b5 00       		.byte	0
 6646 00b6 00       		.byte	0
 6647 00b7 10       		.uleb128 0x10
 6648 00b8 13       		.uleb128 0x13
 6649 00b9 01       		.byte	0x1
 6650 00ba 03       		.uleb128 0x3
 6651 00bb 0E       		.uleb128 0xe
 6652 00bc 0B       		.uleb128 0xb
ARM GAS  /var/folders/_2/qbh2zpt918qcm2b_6mgyydnm0000gn/T//ccIdySvu.s 			page 130


 6653 00bd 0B       		.uleb128 0xb
 6654 00be 3A       		.uleb128 0x3a
 6655 00bf 0B       		.uleb128 0xb
 6656 00c0 3B       		.uleb128 0x3b
 6657 00c1 0B       		.uleb128 0xb
 6658 00c2 39       		.uleb128 0x39
 6659 00c3 0B       		.uleb128 0xb
 6660 00c4 01       		.uleb128 0x1
 6661 00c5 13       		.uleb128 0x13
 6662 00c6 00       		.byte	0
 6663 00c7 00       		.byte	0
 6664 00c8 11       		.uleb128 0x11
 6665 00c9 0D       		.uleb128 0xd
 6666 00ca 00       		.byte	0
 6667 00cb 03       		.uleb128 0x3
 6668 00cc 08       		.uleb128 0x8
 6669 00cd 3A       		.uleb128 0x3a
 6670 00ce 0B       		.uleb128 0xb
 6671 00cf 3B       		.uleb128 0x3b
 6672 00d0 0B       		.uleb128 0xb
 6673 00d1 39       		.uleb128 0x39
 6674 00d2 0B       		.uleb128 0xb
 6675 00d3 49       		.uleb128 0x49
 6676 00d4 13       		.uleb128 0x13
 6677 00d5 38       		.uleb128 0x38
 6678 00d6 0A       		.uleb128 0xa
 6679 00d7 00       		.byte	0
 6680 00d8 00       		.byte	0
 6681 00d9 12       		.uleb128 0x12
 6682 00da 13       		.uleb128 0x13
 6683 00db 01       		.byte	0x1
 6684 00dc 03       		.uleb128 0x3
 6685 00dd 0E       		.uleb128 0xe
 6686 00de 0B       		.uleb128 0xb
 6687 00df 05       		.uleb128 0x5
 6688 00e0 3A       		.uleb128 0x3a
 6689 00e1 0B       		.uleb128 0xb
 6690 00e2 3B       		.uleb128 0x3b
 6691 00e3 0B       		.uleb128 0xb
 6692 00e4 39       		.uleb128 0x39
 6693 00e5 0B       		.uleb128 0xb
 6694 00e6 01       		.uleb128 0x1
 6695 00e7 13       		.uleb128 0x13
 6696 00e8 00       		.byte	0
 6697 00e9 00       		.byte	0
 6698 00ea 13       		.uleb128 0x13
 6699 00eb 15       		.uleb128 0x15
 6700 00ec 00       		.byte	0
 6701 00ed 27       		.uleb128 0x27
 6702 00ee 0C       		.uleb128 0xc
 6703 00ef 00       		.byte	0
 6704 00f0 00       		.byte	0
 6705 00f1 14       		.uleb128 0x14
 6706 00f2 15       		.uleb128 0x15
 6707 00f3 01       		.byte	0x1
 6708 00f4 27       		.uleb128 0x27
 6709 00f5 0C       		.uleb128 0xc
ARM GAS  /var/folders/_2/qbh2zpt918qcm2b_6mgyydnm0000gn/T//ccIdySvu.s 			page 131


 6710 00f6 49       		.uleb128 0x49
 6711 00f7 13       		.uleb128 0x13
 6712 00f8 01       		.uleb128 0x1
 6713 00f9 13       		.uleb128 0x13
 6714 00fa 00       		.byte	0
 6715 00fb 00       		.byte	0
 6716 00fc 15       		.uleb128 0x15
 6717 00fd 05       		.uleb128 0x5
 6718 00fe 00       		.byte	0
 6719 00ff 49       		.uleb128 0x49
 6720 0100 13       		.uleb128 0x13
 6721 0101 00       		.byte	0
 6722 0102 00       		.byte	0
 6723 0103 16       		.uleb128 0x16
 6724 0104 13       		.uleb128 0x13
 6725 0105 01       		.byte	0x1
 6726 0106 03       		.uleb128 0x3
 6727 0107 0E       		.uleb128 0xe
 6728 0108 0B       		.uleb128 0xb
 6729 0109 05       		.uleb128 0x5
 6730 010a 3A       		.uleb128 0x3a
 6731 010b 0B       		.uleb128 0xb
 6732 010c 3B       		.uleb128 0x3b
 6733 010d 05       		.uleb128 0x5
 6734 010e 39       		.uleb128 0x39
 6735 010f 0B       		.uleb128 0xb
 6736 0110 01       		.uleb128 0x1
 6737 0111 13       		.uleb128 0x13
 6738 0112 00       		.byte	0
 6739 0113 00       		.byte	0
 6740 0114 17       		.uleb128 0x17
 6741 0115 0D       		.uleb128 0xd
 6742 0116 00       		.byte	0
 6743 0117 03       		.uleb128 0x3
 6744 0118 0E       		.uleb128 0xe
 6745 0119 3A       		.uleb128 0x3a
 6746 011a 0B       		.uleb128 0xb
 6747 011b 3B       		.uleb128 0x3b
 6748 011c 05       		.uleb128 0x5
 6749 011d 39       		.uleb128 0x39
 6750 011e 0B       		.uleb128 0xb
 6751 011f 49       		.uleb128 0x49
 6752 0120 13       		.uleb128 0x13
 6753 0121 38       		.uleb128 0x38
 6754 0122 0A       		.uleb128 0xa
 6755 0123 00       		.byte	0
 6756 0124 00       		.byte	0
 6757 0125 18       		.uleb128 0x18
 6758 0126 13       		.uleb128 0x13
 6759 0127 01       		.byte	0x1
 6760 0128 03       		.uleb128 0x3
 6761 0129 0E       		.uleb128 0xe
 6762 012a 0B       		.uleb128 0xb
 6763 012b 0B       		.uleb128 0xb
 6764 012c 3A       		.uleb128 0x3a
 6765 012d 0B       		.uleb128 0xb
 6766 012e 3B       		.uleb128 0x3b
ARM GAS  /var/folders/_2/qbh2zpt918qcm2b_6mgyydnm0000gn/T//ccIdySvu.s 			page 132


 6767 012f 05       		.uleb128 0x5
 6768 0130 39       		.uleb128 0x39
 6769 0131 0B       		.uleb128 0xb
 6770 0132 01       		.uleb128 0x1
 6771 0133 13       		.uleb128 0x13
 6772 0134 00       		.byte	0
 6773 0135 00       		.byte	0
 6774 0136 19       		.uleb128 0x19
 6775 0137 13       		.uleb128 0x13
 6776 0138 01       		.byte	0x1
 6777 0139 0B       		.uleb128 0xb
 6778 013a 0B       		.uleb128 0xb
 6779 013b 3A       		.uleb128 0x3a
 6780 013c 0B       		.uleb128 0xb
 6781 013d 3B       		.uleb128 0x3b
 6782 013e 05       		.uleb128 0x5
 6783 013f 39       		.uleb128 0x39
 6784 0140 0B       		.uleb128 0xb
 6785 0141 01       		.uleb128 0x1
 6786 0142 13       		.uleb128 0x13
 6787 0143 00       		.byte	0
 6788 0144 00       		.byte	0
 6789 0145 1A       		.uleb128 0x1a
 6790 0146 17       		.uleb128 0x17
 6791 0147 01       		.byte	0x1
 6792 0148 0B       		.uleb128 0xb
 6793 0149 0B       		.uleb128 0xb
 6794 014a 3A       		.uleb128 0x3a
 6795 014b 0B       		.uleb128 0xb
 6796 014c 3B       		.uleb128 0x3b
 6797 014d 05       		.uleb128 0x5
 6798 014e 39       		.uleb128 0x39
 6799 014f 0B       		.uleb128 0xb
 6800 0150 01       		.uleb128 0x1
 6801 0151 13       		.uleb128 0x13
 6802 0152 00       		.byte	0
 6803 0153 00       		.byte	0
 6804 0154 1B       		.uleb128 0x1b
 6805 0155 0D       		.uleb128 0xd
 6806 0156 00       		.byte	0
 6807 0157 03       		.uleb128 0x3
 6808 0158 0E       		.uleb128 0xe
 6809 0159 3A       		.uleb128 0x3a
 6810 015a 0B       		.uleb128 0xb
 6811 015b 3B       		.uleb128 0x3b
 6812 015c 05       		.uleb128 0x5
 6813 015d 39       		.uleb128 0x39
 6814 015e 0B       		.uleb128 0xb
 6815 015f 49       		.uleb128 0x49
 6816 0160 13       		.uleb128 0x13
 6817 0161 00       		.byte	0
 6818 0162 00       		.byte	0
 6819 0163 1C       		.uleb128 0x1c
 6820 0164 15       		.uleb128 0x15
 6821 0165 01       		.byte	0x1
 6822 0166 27       		.uleb128 0x27
 6823 0167 0C       		.uleb128 0xc
ARM GAS  /var/folders/_2/qbh2zpt918qcm2b_6mgyydnm0000gn/T//ccIdySvu.s 			page 133


 6824 0168 01       		.uleb128 0x1
 6825 0169 13       		.uleb128 0x13
 6826 016a 00       		.byte	0
 6827 016b 00       		.byte	0
 6828 016c 1D       		.uleb128 0x1d
 6829 016d 34       		.uleb128 0x34
 6830 016e 00       		.byte	0
 6831 016f 03       		.uleb128 0x3
 6832 0170 0E       		.uleb128 0xe
 6833 0171 3A       		.uleb128 0x3a
 6834 0172 0B       		.uleb128 0xb
 6835 0173 3B       		.uleb128 0x3b
 6836 0174 05       		.uleb128 0x5
 6837 0175 39       		.uleb128 0x39
 6838 0176 0B       		.uleb128 0xb
 6839 0177 49       		.uleb128 0x49
 6840 0178 13       		.uleb128 0x13
 6841 0179 3F       		.uleb128 0x3f
 6842 017a 0C       		.uleb128 0xc
 6843 017b 3C       		.uleb128 0x3c
 6844 017c 0C       		.uleb128 0xc
 6845 017d 00       		.byte	0
 6846 017e 00       		.byte	0
 6847 017f 1E       		.uleb128 0x1e
 6848 0180 34       		.uleb128 0x34
 6849 0181 00       		.byte	0
 6850 0182 03       		.uleb128 0x3
 6851 0183 0E       		.uleb128 0xe
 6852 0184 3A       		.uleb128 0x3a
 6853 0185 0B       		.uleb128 0xb
 6854 0186 3B       		.uleb128 0x3b
 6855 0187 0B       		.uleb128 0xb
 6856 0188 39       		.uleb128 0x39
 6857 0189 0B       		.uleb128 0xb
 6858 018a 49       		.uleb128 0x49
 6859 018b 13       		.uleb128 0x13
 6860 018c 3F       		.uleb128 0x3f
 6861 018d 0C       		.uleb128 0xc
 6862 018e 3C       		.uleb128 0x3c
 6863 018f 0C       		.uleb128 0xc
 6864 0190 00       		.byte	0
 6865 0191 00       		.byte	0
 6866 0192 1F       		.uleb128 0x1f
 6867 0193 34       		.uleb128 0x34
 6868 0194 00       		.byte	0
 6869 0195 03       		.uleb128 0x3
 6870 0196 0E       		.uleb128 0xe
 6871 0197 3A       		.uleb128 0x3a
 6872 0198 0B       		.uleb128 0xb
 6873 0199 3B       		.uleb128 0x3b
 6874 019a 0B       		.uleb128 0xb
 6875 019b 39       		.uleb128 0x39
 6876 019c 0B       		.uleb128 0xb
 6877 019d 49       		.uleb128 0x49
 6878 019e 13       		.uleb128 0x13
 6879 019f 3F       		.uleb128 0x3f
 6880 01a0 0C       		.uleb128 0xc
ARM GAS  /var/folders/_2/qbh2zpt918qcm2b_6mgyydnm0000gn/T//ccIdySvu.s 			page 134


 6881 01a1 02       		.uleb128 0x2
 6882 01a2 0A       		.uleb128 0xa
 6883 01a3 00       		.byte	0
 6884 01a4 00       		.byte	0
 6885 01a5 20       		.uleb128 0x20
 6886 01a6 17       		.uleb128 0x17
 6887 01a7 01       		.byte	0x1
 6888 01a8 03       		.uleb128 0x3
 6889 01a9 0E       		.uleb128 0xe
 6890 01aa 0B       		.uleb128 0xb
 6891 01ab 0B       		.uleb128 0xb
 6892 01ac 3A       		.uleb128 0x3a
 6893 01ad 0B       		.uleb128 0xb
 6894 01ae 3B       		.uleb128 0x3b
 6895 01af 0B       		.uleb128 0xb
 6896 01b0 39       		.uleb128 0x39
 6897 01b1 0B       		.uleb128 0xb
 6898 01b2 01       		.uleb128 0x1
 6899 01b3 13       		.uleb128 0x13
 6900 01b4 00       		.byte	0
 6901 01b5 00       		.byte	0
 6902 01b6 21       		.uleb128 0x21
 6903 01b7 04       		.uleb128 0x4
 6904 01b8 01       		.byte	0x1
 6905 01b9 3E       		.uleb128 0x3e
 6906 01ba 0B       		.uleb128 0xb
 6907 01bb 0B       		.uleb128 0xb
 6908 01bc 0B       		.uleb128 0xb
 6909 01bd 49       		.uleb128 0x49
 6910 01be 13       		.uleb128 0x13
 6911 01bf 3A       		.uleb128 0x3a
 6912 01c0 0B       		.uleb128 0xb
 6913 01c1 3B       		.uleb128 0x3b
 6914 01c2 0B       		.uleb128 0xb
 6915 01c3 39       		.uleb128 0x39
 6916 01c4 0B       		.uleb128 0xb
 6917 01c5 01       		.uleb128 0x1
 6918 01c6 13       		.uleb128 0x13
 6919 01c7 00       		.byte	0
 6920 01c8 00       		.byte	0
 6921 01c9 22       		.uleb128 0x22
 6922 01ca 28       		.uleb128 0x28
 6923 01cb 00       		.byte	0
 6924 01cc 03       		.uleb128 0x3
 6925 01cd 0E       		.uleb128 0xe
 6926 01ce 1C       		.uleb128 0x1c
 6927 01cf 0B       		.uleb128 0xb
 6928 01d0 00       		.byte	0
 6929 01d1 00       		.byte	0
 6930 01d2 23       		.uleb128 0x23
 6931 01d3 04       		.uleb128 0x4
 6932 01d4 01       		.byte	0x1
 6933 01d5 03       		.uleb128 0x3
 6934 01d6 0E       		.uleb128 0xe
 6935 01d7 3E       		.uleb128 0x3e
 6936 01d8 0B       		.uleb128 0xb
 6937 01d9 0B       		.uleb128 0xb
ARM GAS  /var/folders/_2/qbh2zpt918qcm2b_6mgyydnm0000gn/T//ccIdySvu.s 			page 135


 6938 01da 0B       		.uleb128 0xb
 6939 01db 49       		.uleb128 0x49
 6940 01dc 13       		.uleb128 0x13
 6941 01dd 3A       		.uleb128 0x3a
 6942 01de 0B       		.uleb128 0xb
 6943 01df 3B       		.uleb128 0x3b
 6944 01e0 05       		.uleb128 0x5
 6945 01e1 39       		.uleb128 0x39
 6946 01e2 0B       		.uleb128 0xb
 6947 01e3 01       		.uleb128 0x1
 6948 01e4 13       		.uleb128 0x13
 6949 01e5 00       		.byte	0
 6950 01e6 00       		.byte	0
 6951 01e7 24       		.uleb128 0x24
 6952 01e8 28       		.uleb128 0x28
 6953 01e9 00       		.byte	0
 6954 01ea 03       		.uleb128 0x3
 6955 01eb 0E       		.uleb128 0xe
 6956 01ec 1C       		.uleb128 0x1c
 6957 01ed 0D       		.uleb128 0xd
 6958 01ee 00       		.byte	0
 6959 01ef 00       		.byte	0
 6960 01f0 25       		.uleb128 0x25
 6961 01f1 34       		.uleb128 0x34
 6962 01f2 00       		.byte	0
 6963 01f3 47       		.uleb128 0x47
 6964 01f4 13       		.uleb128 0x13
 6965 01f5 3A       		.uleb128 0x3a
 6966 01f6 0B       		.uleb128 0xb
 6967 01f7 3B       		.uleb128 0x3b
 6968 01f8 0B       		.uleb128 0xb
 6969 01f9 39       		.uleb128 0x39
 6970 01fa 0B       		.uleb128 0xb
 6971 01fb 02       		.uleb128 0x2
 6972 01fc 0A       		.uleb128 0xa
 6973 01fd 00       		.byte	0
 6974 01fe 00       		.byte	0
 6975 01ff 26       		.uleb128 0x26
 6976 0200 2E       		.uleb128 0x2e
 6977 0201 01       		.byte	0x1
 6978 0202 3F       		.uleb128 0x3f
 6979 0203 0C       		.uleb128 0xc
 6980 0204 03       		.uleb128 0x3
 6981 0205 0E       		.uleb128 0xe
 6982 0206 3A       		.uleb128 0x3a
 6983 0207 0B       		.uleb128 0xb
 6984 0208 3B       		.uleb128 0x3b
 6985 0209 05       		.uleb128 0x5
 6986 020a 39       		.uleb128 0x39
 6987 020b 0B       		.uleb128 0xb
 6988 020c 27       		.uleb128 0x27
 6989 020d 0C       		.uleb128 0xc
 6990 020e 49       		.uleb128 0x49
 6991 020f 13       		.uleb128 0x13
 6992 0210 20       		.uleb128 0x20
 6993 0211 0B       		.uleb128 0xb
 6994 0212 01       		.uleb128 0x1
ARM GAS  /var/folders/_2/qbh2zpt918qcm2b_6mgyydnm0000gn/T//ccIdySvu.s 			page 136


 6995 0213 13       		.uleb128 0x13
 6996 0214 00       		.byte	0
 6997 0215 00       		.byte	0
 6998 0216 27       		.uleb128 0x27
 6999 0217 05       		.uleb128 0x5
 7000 0218 00       		.byte	0
 7001 0219 03       		.uleb128 0x3
 7002 021a 0E       		.uleb128 0xe
 7003 021b 3A       		.uleb128 0x3a
 7004 021c 0B       		.uleb128 0xb
 7005 021d 3B       		.uleb128 0x3b
 7006 021e 05       		.uleb128 0x5
 7007 021f 39       		.uleb128 0x39
 7008 0220 0B       		.uleb128 0xb
 7009 0221 49       		.uleb128 0x49
 7010 0222 13       		.uleb128 0x13
 7011 0223 00       		.byte	0
 7012 0224 00       		.byte	0
 7013 0225 28       		.uleb128 0x28
 7014 0226 2E       		.uleb128 0x2e
 7015 0227 01       		.byte	0x1
 7016 0228 3F       		.uleb128 0x3f
 7017 0229 0C       		.uleb128 0xc
 7018 022a 03       		.uleb128 0x3
 7019 022b 0E       		.uleb128 0xe
 7020 022c 3A       		.uleb128 0x3a
 7021 022d 0B       		.uleb128 0xb
 7022 022e 3B       		.uleb128 0x3b
 7023 022f 0B       		.uleb128 0xb
 7024 0230 39       		.uleb128 0x39
 7025 0231 0B       		.uleb128 0xb
 7026 0232 27       		.uleb128 0x27
 7027 0233 0C       		.uleb128 0xc
 7028 0234 49       		.uleb128 0x49
 7029 0235 13       		.uleb128 0x13
 7030 0236 11       		.uleb128 0x11
 7031 0237 01       		.uleb128 0x1
 7032 0238 12       		.uleb128 0x12
 7033 0239 01       		.uleb128 0x1
 7034 023a 40       		.uleb128 0x40
 7035 023b 06       		.uleb128 0x6
 7036 023c 9642     		.uleb128 0x2116
 7037 023e 0C       		.uleb128 0xc
 7038 023f 01       		.uleb128 0x1
 7039 0240 13       		.uleb128 0x13
 7040 0241 00       		.byte	0
 7041 0242 00       		.byte	0
 7042 0243 29       		.uleb128 0x29
 7043 0244 05       		.uleb128 0x5
 7044 0245 00       		.byte	0
 7045 0246 03       		.uleb128 0x3
 7046 0247 0E       		.uleb128 0xe
 7047 0248 3A       		.uleb128 0x3a
 7048 0249 0B       		.uleb128 0xb
 7049 024a 3B       		.uleb128 0x3b
 7050 024b 0B       		.uleb128 0xb
 7051 024c 39       		.uleb128 0x39
ARM GAS  /var/folders/_2/qbh2zpt918qcm2b_6mgyydnm0000gn/T//ccIdySvu.s 			page 137


 7052 024d 0B       		.uleb128 0xb
 7053 024e 49       		.uleb128 0x49
 7054 024f 13       		.uleb128 0x13
 7055 0250 02       		.uleb128 0x2
 7056 0251 06       		.uleb128 0x6
 7057 0252 B742     		.uleb128 0x2137
 7058 0254 06       		.uleb128 0x6
 7059 0255 00       		.byte	0
 7060 0256 00       		.byte	0
 7061 0257 2A       		.uleb128 0x2a
 7062 0258 34       		.uleb128 0x34
 7063 0259 00       		.byte	0
 7064 025a 03       		.uleb128 0x3
 7065 025b 0E       		.uleb128 0xe
 7066 025c 3A       		.uleb128 0x3a
 7067 025d 0B       		.uleb128 0xb
 7068 025e 3B       		.uleb128 0x3b
 7069 025f 0B       		.uleb128 0xb
 7070 0260 39       		.uleb128 0x39
 7071 0261 0B       		.uleb128 0xb
 7072 0262 49       		.uleb128 0x49
 7073 0263 13       		.uleb128 0x13
 7074 0264 02       		.uleb128 0x2
 7075 0265 06       		.uleb128 0x6
 7076 0266 B742     		.uleb128 0x2137
 7077 0268 06       		.uleb128 0x6
 7078 0269 00       		.byte	0
 7079 026a 00       		.byte	0
 7080 026b 2B       		.uleb128 0x2b
 7081 026c 2E       		.uleb128 0x2e
 7082 026d 01       		.byte	0x1
 7083 026e 3F       		.uleb128 0x3f
 7084 026f 0C       		.uleb128 0xc
 7085 0270 03       		.uleb128 0x3
 7086 0271 0E       		.uleb128 0xe
 7087 0272 3A       		.uleb128 0x3a
 7088 0273 0B       		.uleb128 0xb
 7089 0274 3B       		.uleb128 0x3b
 7090 0275 0B       		.uleb128 0xb
 7091 0276 39       		.uleb128 0x39
 7092 0277 0B       		.uleb128 0xb
 7093 0278 27       		.uleb128 0x27
 7094 0279 0C       		.uleb128 0xc
 7095 027a 11       		.uleb128 0x11
 7096 027b 01       		.uleb128 0x1
 7097 027c 12       		.uleb128 0x12
 7098 027d 01       		.uleb128 0x1
 7099 027e 40       		.uleb128 0x40
 7100 027f 06       		.uleb128 0x6
 7101 0280 9642     		.uleb128 0x2116
 7102 0282 0C       		.uleb128 0xc
 7103 0283 01       		.uleb128 0x1
 7104 0284 13       		.uleb128 0x13
 7105 0285 00       		.byte	0
 7106 0286 00       		.byte	0
 7107 0287 2C       		.uleb128 0x2c
 7108 0288 05       		.uleb128 0x5
ARM GAS  /var/folders/_2/qbh2zpt918qcm2b_6mgyydnm0000gn/T//ccIdySvu.s 			page 138


 7109 0289 00       		.byte	0
 7110 028a 03       		.uleb128 0x3
 7111 028b 08       		.uleb128 0x8
 7112 028c 3A       		.uleb128 0x3a
 7113 028d 0B       		.uleb128 0xb
 7114 028e 3B       		.uleb128 0x3b
 7115 028f 0B       		.uleb128 0xb
 7116 0290 39       		.uleb128 0x39
 7117 0291 0B       		.uleb128 0xb
 7118 0292 49       		.uleb128 0x49
 7119 0293 13       		.uleb128 0x13
 7120 0294 02       		.uleb128 0x2
 7121 0295 06       		.uleb128 0x6
 7122 0296 B742     		.uleb128 0x2137
 7123 0298 06       		.uleb128 0x6
 7124 0299 00       		.byte	0
 7125 029a 00       		.byte	0
 7126 029b 2D       		.uleb128 0x2d
 7127 029c 34       		.uleb128 0x34
 7128 029d 00       		.byte	0
 7129 029e 03       		.uleb128 0x3
 7130 029f 08       		.uleb128 0x8
 7131 02a0 3A       		.uleb128 0x3a
 7132 02a1 0B       		.uleb128 0xb
 7133 02a2 3B       		.uleb128 0x3b
 7134 02a3 0B       		.uleb128 0xb
 7135 02a4 39       		.uleb128 0x39
 7136 02a5 0B       		.uleb128 0xb
 7137 02a6 49       		.uleb128 0x49
 7138 02a7 13       		.uleb128 0x13
 7139 02a8 02       		.uleb128 0x2
 7140 02a9 06       		.uleb128 0x6
 7141 02aa B742     		.uleb128 0x2137
 7142 02ac 06       		.uleb128 0x6
 7143 02ad 00       		.byte	0
 7144 02ae 00       		.byte	0
 7145 02af 2E       		.uleb128 0x2e
 7146 02b0 898201   		.uleb128 0x4109
 7147 02b3 01       		.byte	0x1
 7148 02b4 11       		.uleb128 0x11
 7149 02b5 01       		.uleb128 0x1
 7150 02b6 31       		.uleb128 0x31
 7151 02b7 13       		.uleb128 0x13
 7152 02b8 01       		.uleb128 0x1
 7153 02b9 13       		.uleb128 0x13
 7154 02ba 00       		.byte	0
 7155 02bb 00       		.byte	0
 7156 02bc 2F       		.uleb128 0x2f
 7157 02bd 8A8201   		.uleb128 0x410a
 7158 02c0 00       		.byte	0
 7159 02c1 02       		.uleb128 0x2
 7160 02c2 0A       		.uleb128 0xa
 7161 02c3 9142     		.uleb128 0x2111
 7162 02c5 0A       		.uleb128 0xa
 7163 02c6 00       		.byte	0
 7164 02c7 00       		.byte	0
 7165 02c8 30       		.uleb128 0x30
ARM GAS  /var/folders/_2/qbh2zpt918qcm2b_6mgyydnm0000gn/T//ccIdySvu.s 			page 139


 7166 02c9 898201   		.uleb128 0x4109
 7167 02cc 01       		.byte	0x1
 7168 02cd 11       		.uleb128 0x11
 7169 02ce 01       		.uleb128 0x1
 7170 02cf 31       		.uleb128 0x31
 7171 02d0 13       		.uleb128 0x13
 7172 02d1 00       		.byte	0
 7173 02d2 00       		.byte	0
 7174 02d3 31       		.uleb128 0x31
 7175 02d4 2E       		.uleb128 0x2e
 7176 02d5 01       		.byte	0x1
 7177 02d6 3F       		.uleb128 0x3f
 7178 02d7 0C       		.uleb128 0xc
 7179 02d8 03       		.uleb128 0x3
 7180 02d9 0E       		.uleb128 0xe
 7181 02da 3A       		.uleb128 0x3a
 7182 02db 0B       		.uleb128 0xb
 7183 02dc 3B       		.uleb128 0x3b
 7184 02dd 0B       		.uleb128 0xb
 7185 02de 39       		.uleb128 0x39
 7186 02df 0B       		.uleb128 0xb
 7187 02e0 27       		.uleb128 0x27
 7188 02e1 0C       		.uleb128 0xc
 7189 02e2 20       		.uleb128 0x20
 7190 02e3 0B       		.uleb128 0xb
 7191 02e4 01       		.uleb128 0x1
 7192 02e5 13       		.uleb128 0x13
 7193 02e6 00       		.byte	0
 7194 02e7 00       		.byte	0
 7195 02e8 32       		.uleb128 0x32
 7196 02e9 05       		.uleb128 0x5
 7197 02ea 00       		.byte	0
 7198 02eb 03       		.uleb128 0x3
 7199 02ec 0E       		.uleb128 0xe
 7200 02ed 3A       		.uleb128 0x3a
 7201 02ee 0B       		.uleb128 0xb
 7202 02ef 3B       		.uleb128 0x3b
 7203 02f0 0B       		.uleb128 0xb
 7204 02f1 39       		.uleb128 0x39
 7205 02f2 0B       		.uleb128 0xb
 7206 02f3 49       		.uleb128 0x49
 7207 02f4 13       		.uleb128 0x13
 7208 02f5 00       		.byte	0
 7209 02f6 00       		.byte	0
 7210 02f7 33       		.uleb128 0x33
 7211 02f8 0B       		.uleb128 0xb
 7212 02f9 01       		.byte	0x1
 7213 02fa 00       		.byte	0
 7214 02fb 00       		.byte	0
 7215 02fc 34       		.uleb128 0x34
 7216 02fd 34       		.uleb128 0x34
 7217 02fe 00       		.byte	0
 7218 02ff 03       		.uleb128 0x3
 7219 0300 0E       		.uleb128 0xe
 7220 0301 3A       		.uleb128 0x3a
 7221 0302 0B       		.uleb128 0xb
 7222 0303 3B       		.uleb128 0x3b
ARM GAS  /var/folders/_2/qbh2zpt918qcm2b_6mgyydnm0000gn/T//ccIdySvu.s 			page 140


 7223 0304 0B       		.uleb128 0xb
 7224 0305 39       		.uleb128 0x39
 7225 0306 0B       		.uleb128 0xb
 7226 0307 49       		.uleb128 0x49
 7227 0308 13       		.uleb128 0x13
 7228 0309 00       		.byte	0
 7229 030a 00       		.byte	0
 7230 030b 35       		.uleb128 0x35
 7231 030c 05       		.uleb128 0x5
 7232 030d 00       		.byte	0
 7233 030e 03       		.uleb128 0x3
 7234 030f 08       		.uleb128 0x8
 7235 0310 3A       		.uleb128 0x3a
 7236 0311 0B       		.uleb128 0xb
 7237 0312 3B       		.uleb128 0x3b
 7238 0313 0B       		.uleb128 0xb
 7239 0314 39       		.uleb128 0x39
 7240 0315 0B       		.uleb128 0xb
 7241 0316 49       		.uleb128 0x49
 7242 0317 13       		.uleb128 0x13
 7243 0318 00       		.byte	0
 7244 0319 00       		.byte	0
 7245 031a 36       		.uleb128 0x36
 7246 031b 2E       		.uleb128 0x2e
 7247 031c 01       		.byte	0x1
 7248 031d 3F       		.uleb128 0x3f
 7249 031e 0C       		.uleb128 0xc
 7250 031f 03       		.uleb128 0x3
 7251 0320 0E       		.uleb128 0xe
 7252 0321 3A       		.uleb128 0x3a
 7253 0322 0B       		.uleb128 0xb
 7254 0323 3B       		.uleb128 0x3b
 7255 0324 0B       		.uleb128 0xb
 7256 0325 39       		.uleb128 0x39
 7257 0326 0B       		.uleb128 0xb
 7258 0327 27       		.uleb128 0x27
 7259 0328 0C       		.uleb128 0xc
 7260 0329 49       		.uleb128 0x49
 7261 032a 13       		.uleb128 0x13
 7262 032b 11       		.uleb128 0x11
 7263 032c 01       		.uleb128 0x1
 7264 032d 12       		.uleb128 0x12
 7265 032e 01       		.uleb128 0x1
 7266 032f 40       		.uleb128 0x40
 7267 0330 0A       		.uleb128 0xa
 7268 0331 9742     		.uleb128 0x2117
 7269 0333 0C       		.uleb128 0xc
 7270 0334 01       		.uleb128 0x1
 7271 0335 13       		.uleb128 0x13
 7272 0336 00       		.byte	0
 7273 0337 00       		.byte	0
 7274 0338 37       		.uleb128 0x37
 7275 0339 05       		.uleb128 0x5
 7276 033a 00       		.byte	0
 7277 033b 03       		.uleb128 0x3
 7278 033c 0E       		.uleb128 0xe
 7279 033d 3A       		.uleb128 0x3a
ARM GAS  /var/folders/_2/qbh2zpt918qcm2b_6mgyydnm0000gn/T//ccIdySvu.s 			page 141


 7280 033e 0B       		.uleb128 0xb
 7281 033f 3B       		.uleb128 0x3b
 7282 0340 0B       		.uleb128 0xb
 7283 0341 39       		.uleb128 0x39
 7284 0342 0B       		.uleb128 0xb
 7285 0343 49       		.uleb128 0x49
 7286 0344 13       		.uleb128 0x13
 7287 0345 02       		.uleb128 0x2
 7288 0346 0A       		.uleb128 0xa
 7289 0347 00       		.byte	0
 7290 0348 00       		.byte	0
 7291 0349 38       		.uleb128 0x38
 7292 034a 0B       		.uleb128 0xb
 7293 034b 01       		.byte	0x1
 7294 034c 11       		.uleb128 0x11
 7295 034d 01       		.uleb128 0x1
 7296 034e 12       		.uleb128 0x12
 7297 034f 01       		.uleb128 0x1
 7298 0350 01       		.uleb128 0x1
 7299 0351 13       		.uleb128 0x13
 7300 0352 00       		.byte	0
 7301 0353 00       		.byte	0
 7302 0354 39       		.uleb128 0x39
 7303 0355 0B       		.uleb128 0xb
 7304 0356 01       		.byte	0x1
 7305 0357 55       		.uleb128 0x55
 7306 0358 06       		.uleb128 0x6
 7307 0359 01       		.uleb128 0x1
 7308 035a 13       		.uleb128 0x13
 7309 035b 00       		.byte	0
 7310 035c 00       		.byte	0
 7311 035d 3A       		.uleb128 0x3a
 7312 035e 34       		.uleb128 0x34
 7313 035f 00       		.byte	0
 7314 0360 03       		.uleb128 0x3
 7315 0361 0E       		.uleb128 0xe
 7316 0362 3A       		.uleb128 0x3a
 7317 0363 0B       		.uleb128 0xb
 7318 0364 3B       		.uleb128 0x3b
 7319 0365 0B       		.uleb128 0xb
 7320 0366 39       		.uleb128 0x39
 7321 0367 0B       		.uleb128 0xb
 7322 0368 49       		.uleb128 0x49
 7323 0369 13       		.uleb128 0x13
 7324 036a 02       		.uleb128 0x2
 7325 036b 0A       		.uleb128 0xa
 7326 036c 00       		.byte	0
 7327 036d 00       		.byte	0
 7328 036e 3B       		.uleb128 0x3b
 7329 036f 1D       		.uleb128 0x1d
 7330 0370 01       		.byte	0x1
 7331 0371 31       		.uleb128 0x31
 7332 0372 13       		.uleb128 0x13
 7333 0373 52       		.uleb128 0x52
 7334 0374 01       		.uleb128 0x1
 7335 0375 B842     		.uleb128 0x2138
 7336 0377 0B       		.uleb128 0xb
ARM GAS  /var/folders/_2/qbh2zpt918qcm2b_6mgyydnm0000gn/T//ccIdySvu.s 			page 142


 7337 0378 55       		.uleb128 0x55
 7338 0379 06       		.uleb128 0x6
 7339 037a 58       		.uleb128 0x58
 7340 037b 0B       		.uleb128 0xb
 7341 037c 59       		.uleb128 0x59
 7342 037d 0B       		.uleb128 0xb
 7343 037e 57       		.uleb128 0x57
 7344 037f 0B       		.uleb128 0xb
 7345 0380 00       		.byte	0
 7346 0381 00       		.byte	0
 7347 0382 3C       		.uleb128 0x3c
 7348 0383 05       		.uleb128 0x5
 7349 0384 00       		.byte	0
 7350 0385 31       		.uleb128 0x31
 7351 0386 13       		.uleb128 0x13
 7352 0387 00       		.byte	0
 7353 0388 00       		.byte	0
 7354 0389 3D       		.uleb128 0x3d
 7355 038a 05       		.uleb128 0x5
 7356 038b 00       		.byte	0
 7357 038c 31       		.uleb128 0x31
 7358 038d 13       		.uleb128 0x13
 7359 038e 02       		.uleb128 0x2
 7360 038f 06       		.uleb128 0x6
 7361 0390 B742     		.uleb128 0x2137
 7362 0392 06       		.uleb128 0x6
 7363 0393 00       		.byte	0
 7364 0394 00       		.byte	0
 7365 0395 3E       		.uleb128 0x3e
 7366 0396 2E       		.uleb128 0x2e
 7367 0397 01       		.byte	0x1
 7368 0398 3F       		.uleb128 0x3f
 7369 0399 0C       		.uleb128 0xc
 7370 039a 03       		.uleb128 0x3
 7371 039b 0E       		.uleb128 0xe
 7372 039c 3A       		.uleb128 0x3a
 7373 039d 0B       		.uleb128 0xb
 7374 039e 3B       		.uleb128 0x3b
 7375 039f 0B       		.uleb128 0xb
 7376 03a0 39       		.uleb128 0x39
 7377 03a1 0B       		.uleb128 0xb
 7378 03a2 27       		.uleb128 0x27
 7379 03a3 0C       		.uleb128 0xc
 7380 03a4 11       		.uleb128 0x11
 7381 03a5 01       		.uleb128 0x1
 7382 03a6 12       		.uleb128 0x12
 7383 03a7 01       		.uleb128 0x1
 7384 03a8 40       		.uleb128 0x40
 7385 03a9 06       		.uleb128 0x6
 7386 03aa 9742     		.uleb128 0x2117
 7387 03ac 0C       		.uleb128 0xc
 7388 03ad 01       		.uleb128 0x1
 7389 03ae 13       		.uleb128 0x13
 7390 03af 00       		.byte	0
 7391 03b0 00       		.byte	0
 7392 03b1 3F       		.uleb128 0x3f
 7393 03b2 0B       		.uleb128 0xb
ARM GAS  /var/folders/_2/qbh2zpt918qcm2b_6mgyydnm0000gn/T//ccIdySvu.s 			page 143


 7394 03b3 01       		.byte	0x1
 7395 03b4 55       		.uleb128 0x55
 7396 03b5 06       		.uleb128 0x6
 7397 03b6 00       		.byte	0
 7398 03b7 00       		.byte	0
 7399 03b8 40       		.uleb128 0x40
 7400 03b9 1D       		.uleb128 0x1d
 7401 03ba 01       		.byte	0x1
 7402 03bb 31       		.uleb128 0x31
 7403 03bc 13       		.uleb128 0x13
 7404 03bd 52       		.uleb128 0x52
 7405 03be 01       		.uleb128 0x1
 7406 03bf B842     		.uleb128 0x2138
 7407 03c1 0B       		.uleb128 0xb
 7408 03c2 55       		.uleb128 0x55
 7409 03c3 06       		.uleb128 0x6
 7410 03c4 58       		.uleb128 0x58
 7411 03c5 0B       		.uleb128 0xb
 7412 03c6 59       		.uleb128 0x59
 7413 03c7 0B       		.uleb128 0xb
 7414 03c8 57       		.uleb128 0x57
 7415 03c9 0B       		.uleb128 0xb
 7416 03ca 01       		.uleb128 0x1
 7417 03cb 13       		.uleb128 0x13
 7418 03cc 00       		.byte	0
 7419 03cd 00       		.byte	0
 7420 03ce 41       		.uleb128 0x41
 7421 03cf 898201   		.uleb128 0x4109
 7422 03d2 00       		.byte	0
 7423 03d3 11       		.uleb128 0x11
 7424 03d4 01       		.uleb128 0x1
 7425 03d5 31       		.uleb128 0x31
 7426 03d6 13       		.uleb128 0x13
 7427 03d7 00       		.byte	0
 7428 03d8 00       		.byte	0
 7429 03d9 42       		.uleb128 0x42
 7430 03da 0B       		.uleb128 0xb
 7431 03db 01       		.byte	0x1
 7432 03dc 11       		.uleb128 0x11
 7433 03dd 01       		.uleb128 0x1
 7434 03de 12       		.uleb128 0x12
 7435 03df 01       		.uleb128 0x1
 7436 03e0 00       		.byte	0
 7437 03e1 00       		.byte	0
 7438 03e2 43       		.uleb128 0x43
 7439 03e3 898201   		.uleb128 0x4109
 7440 03e6 01       		.byte	0x1
 7441 03e7 11       		.uleb128 0x11
 7442 03e8 01       		.uleb128 0x1
 7443 03e9 9542     		.uleb128 0x2115
 7444 03eb 0C       		.uleb128 0xc
 7445 03ec 31       		.uleb128 0x31
 7446 03ed 13       		.uleb128 0x13
 7447 03ee 00       		.byte	0
 7448 03ef 00       		.byte	0
 7449 03f0 44       		.uleb128 0x44
 7450 03f1 2E       		.uleb128 0x2e
ARM GAS  /var/folders/_2/qbh2zpt918qcm2b_6mgyydnm0000gn/T//ccIdySvu.s 			page 144


 7451 03f2 01       		.byte	0x1
 7452 03f3 31       		.uleb128 0x31
 7453 03f4 13       		.uleb128 0x13
 7454 03f5 11       		.uleb128 0x11
 7455 03f6 01       		.uleb128 0x1
 7456 03f7 12       		.uleb128 0x12
 7457 03f8 01       		.uleb128 0x1
 7458 03f9 40       		.uleb128 0x40
 7459 03fa 0A       		.uleb128 0xa
 7460 03fb 9742     		.uleb128 0x2117
 7461 03fd 0C       		.uleb128 0xc
 7462 03fe 01       		.uleb128 0x1
 7463 03ff 13       		.uleb128 0x13
 7464 0400 00       		.byte	0
 7465 0401 00       		.byte	0
 7466 0402 45       		.uleb128 0x45
 7467 0403 05       		.uleb128 0x5
 7468 0404 00       		.byte	0
 7469 0405 31       		.uleb128 0x31
 7470 0406 13       		.uleb128 0x13
 7471 0407 02       		.uleb128 0x2
 7472 0408 0A       		.uleb128 0xa
 7473 0409 00       		.byte	0
 7474 040a 00       		.byte	0
 7475 040b 46       		.uleb128 0x46
 7476 040c 2E       		.uleb128 0x2e
 7477 040d 01       		.byte	0x1
 7478 040e 31       		.uleb128 0x31
 7479 040f 13       		.uleb128 0x13
 7480 0410 11       		.uleb128 0x11
 7481 0411 01       		.uleb128 0x1
 7482 0412 12       		.uleb128 0x12
 7483 0413 01       		.uleb128 0x1
 7484 0414 40       		.uleb128 0x40
 7485 0415 06       		.uleb128 0x6
 7486 0416 9742     		.uleb128 0x2117
 7487 0418 0C       		.uleb128 0xc
 7488 0419 01       		.uleb128 0x1
 7489 041a 13       		.uleb128 0x13
 7490 041b 00       		.byte	0
 7491 041c 00       		.byte	0
 7492 041d 47       		.uleb128 0x47
 7493 041e 0B       		.uleb128 0xb
 7494 041f 01       		.byte	0x1
 7495 0420 31       		.uleb128 0x31
 7496 0421 13       		.uleb128 0x13
 7497 0422 55       		.uleb128 0x55
 7498 0423 06       		.uleb128 0x6
 7499 0424 01       		.uleb128 0x1
 7500 0425 13       		.uleb128 0x13
 7501 0426 00       		.byte	0
 7502 0427 00       		.byte	0
 7503 0428 48       		.uleb128 0x48
 7504 0429 34       		.uleb128 0x34
 7505 042a 00       		.byte	0
 7506 042b 31       		.uleb128 0x31
 7507 042c 13       		.uleb128 0x13
ARM GAS  /var/folders/_2/qbh2zpt918qcm2b_6mgyydnm0000gn/T//ccIdySvu.s 			page 145


 7508 042d 02       		.uleb128 0x2
 7509 042e 06       		.uleb128 0x6
 7510 042f B742     		.uleb128 0x2137
 7511 0431 06       		.uleb128 0x6
 7512 0432 00       		.byte	0
 7513 0433 00       		.byte	0
 7514 0434 49       		.uleb128 0x49
 7515 0435 0B       		.uleb128 0xb
 7516 0436 01       		.byte	0x1
 7517 0437 31       		.uleb128 0x31
 7518 0438 13       		.uleb128 0x13
 7519 0439 11       		.uleb128 0x11
 7520 043a 01       		.uleb128 0x1
 7521 043b 12       		.uleb128 0x12
 7522 043c 01       		.uleb128 0x1
 7523 043d 00       		.byte	0
 7524 043e 00       		.byte	0
 7525 043f 4A       		.uleb128 0x4a
 7526 0440 0B       		.uleb128 0xb
 7527 0441 01       		.byte	0x1
 7528 0442 31       		.uleb128 0x31
 7529 0443 13       		.uleb128 0x13
 7530 0444 55       		.uleb128 0x55
 7531 0445 06       		.uleb128 0x6
 7532 0446 00       		.byte	0
 7533 0447 00       		.byte	0
 7534 0448 4B       		.uleb128 0x4b
 7535 0449 34       		.uleb128 0x34
 7536 044a 00       		.byte	0
 7537 044b 31       		.uleb128 0x31
 7538 044c 13       		.uleb128 0x13
 7539 044d 00       		.byte	0
 7540 044e 00       		.byte	0
 7541 044f 4C       		.uleb128 0x4c
 7542 0450 2E       		.uleb128 0x2e
 7543 0451 01       		.byte	0x1
 7544 0452 31       		.uleb128 0x31
 7545 0453 13       		.uleb128 0x13
 7546 0454 11       		.uleb128 0x11
 7547 0455 01       		.uleb128 0x1
 7548 0456 12       		.uleb128 0x12
 7549 0457 01       		.uleb128 0x1
 7550 0458 40       		.uleb128 0x40
 7551 0459 06       		.uleb128 0x6
 7552 045a 9642     		.uleb128 0x2116
 7553 045c 0C       		.uleb128 0xc
 7554 045d 01       		.uleb128 0x1
 7555 045e 13       		.uleb128 0x13
 7556 045f 00       		.byte	0
 7557 0460 00       		.byte	0
 7558 0461 4D       		.uleb128 0x4d
 7559 0462 2E       		.uleb128 0x2e
 7560 0463 00       		.byte	0
 7561 0464 3F       		.uleb128 0x3f
 7562 0465 0C       		.uleb128 0xc
 7563 0466 3C       		.uleb128 0x3c
 7564 0467 0C       		.uleb128 0xc
ARM GAS  /var/folders/_2/qbh2zpt918qcm2b_6mgyydnm0000gn/T//ccIdySvu.s 			page 146


 7565 0468 8740     		.uleb128 0x2007
 7566 046a 0E       		.uleb128 0xe
 7567 046b 03       		.uleb128 0x3
 7568 046c 0E       		.uleb128 0xe
 7569 046d 3A       		.uleb128 0x3a
 7570 046e 0B       		.uleb128 0xb
 7571 046f 3B       		.uleb128 0x3b
 7572 0470 0B       		.uleb128 0xb
 7573 0471 39       		.uleb128 0x39
 7574 0472 0B       		.uleb128 0xb
 7575 0473 00       		.byte	0
 7576 0474 00       		.byte	0
 7577 0475 00       		.byte	0
 7578              		.section	.debug_loc,"",%progbits
 7579              	.Ldebug_loc0:
 7580              	.LLST64:
 7581 0000 D4040000 		.4byte	.LFB19-.Ltext0
 7582 0004 D6040000 		.4byte	.LCFI18-.Ltext0
 7583 0008 0200     		.2byte	0x2
 7584 000a 7D       		.byte	0x7d
 7585 000b 00       		.sleb128 0
 7586 000c D6040000 		.4byte	.LCFI18-.Ltext0
 7587 0010 14050000 		.4byte	.LFE19-.Ltext0
 7588 0014 0200     		.2byte	0x2
 7589 0016 7D       		.byte	0x7d
 7590 0017 10       		.sleb128 16
 7591 0018 00000000 		.4byte	0
 7592 001c 00000000 		.4byte	0
 7593              	.LVUS65:
 7594 0020 00       		.uleb128 0
 7595 0021 00       		.uleb128 .LVU468
 7596 0022 00       		.uleb128 .LVU468
 7597 0023 00       		.uleb128 .LVU478
 7598 0024 00       		.uleb128 .LVU478
 7599 0025 00       		.uleb128 .LVU484
 7600              	.LLST65:
 7601 0026 D4040000 		.4byte	.LVL167-.Ltext0
 7602 002a DC040000 		.4byte	.LVL168-.Ltext0
 7603 002e 0100     		.2byte	0x1
 7604 0030 50       		.byte	0x50
 7605 0031 DC040000 		.4byte	.LVL168-.Ltext0
 7606 0035 FE040000 		.4byte	.LVL172-.Ltext0
 7607 0039 0400     		.2byte	0x4
 7608 003b F3       		.byte	0xf3
 7609 003c 01       		.uleb128 0x1
 7610 003d 50       		.byte	0x50
 7611 003e 9F       		.byte	0x9f
 7612 003f FE040000 		.4byte	.LVL172-.Ltext0
 7613 0043 04050000 		.4byte	.LVL175-.Ltext0
 7614 0047 0100     		.2byte	0x1
 7615 0049 54       		.byte	0x54
 7616 004a 00000000 		.4byte	0
 7617 004e 00000000 		.4byte	0
 7618              	.LVUS66:
 7619 0052 00       		.uleb128 0
 7620 0053 00       		.uleb128 .LVU470
 7621 0054 00       		.uleb128 .LVU470
ARM GAS  /var/folders/_2/qbh2zpt918qcm2b_6mgyydnm0000gn/T//ccIdySvu.s 			page 147


 7622 0055 00       		.uleb128 0
 7623              	.LLST66:
 7624 0056 D4040000 		.4byte	.LVL167-.Ltext0
 7625 005a E1040000 		.4byte	.LVL169-1-.Ltext0
 7626 005e 0100     		.2byte	0x1
 7627 0060 51       		.byte	0x51
 7628 0061 E1040000 		.4byte	.LVL169-1-.Ltext0
 7629 0065 14050000 		.4byte	.LFE19-.Ltext0
 7630 0069 0400     		.2byte	0x4
 7631 006b F3       		.byte	0xf3
 7632 006c 01       		.uleb128 0x1
 7633 006d 51       		.byte	0x51
 7634 006e 9F       		.byte	0x9f
 7635 006f 00000000 		.4byte	0
 7636 0073 00000000 		.4byte	0
 7637              	.LVUS67:
 7638 0077 00       		.uleb128 .LVU472
 7639 0078 00       		.uleb128 .LVU483
 7640              	.LLST67:
 7641 0079 F4040000 		.4byte	.LVL171-.Ltext0
 7642 007d 02050000 		.4byte	.LVL174-.Ltext0
 7643 0081 0100     		.2byte	0x1
 7644 0083 50       		.byte	0x50
 7645 0084 00000000 		.4byte	0
 7646 0088 00000000 		.4byte	0
 7647              	.LLST19:
 7648 008c 84010000 		.4byte	.LFB18-.Ltext0
 7649 0090 88010000 		.4byte	.LCFI5-.Ltext0
 7650 0094 0200     		.2byte	0x2
 7651 0096 7D       		.byte	0x7d
 7652 0097 00       		.sleb128 0
 7653 0098 88010000 		.4byte	.LCFI5-.Ltext0
 7654 009c 5E020000 		.4byte	.LCFI6-.Ltext0
 7655 00a0 0200     		.2byte	0x2
 7656 00a2 7D       		.byte	0x7d
 7657 00a3 30       		.sleb128 48
 7658 00a4 5E020000 		.4byte	.LCFI6-.Ltext0
 7659 00a8 62020000 		.4byte	.LCFI7-.Ltext0
 7660 00ac 0200     		.2byte	0x2
 7661 00ae 7D       		.byte	0x7d
 7662 00af 24       		.sleb128 36
 7663 00b0 62020000 		.4byte	.LCFI7-.Ltext0
 7664 00b4 D8020000 		.4byte	.LFE18-.Ltext0
 7665 00b8 0200     		.2byte	0x2
 7666 00ba 7D       		.byte	0x7d
 7667 00bb 30       		.sleb128 48
 7668 00bc 00000000 		.4byte	0
 7669 00c0 00000000 		.4byte	0
 7670              	.LVUS20:
 7671 00c4 00       		.uleb128 0
 7672 00c5 00       		.uleb128 .LVU152
 7673 00c6 00       		.uleb128 .LVU152
 7674 00c7 00       		.uleb128 0
 7675              	.LLST20:
 7676 00c8 84010000 		.4byte	.LVL51-.Ltext0
 7677 00cc 8C010000 		.4byte	.LVL52-.Ltext0
 7678 00d0 0100     		.2byte	0x1
ARM GAS  /var/folders/_2/qbh2zpt918qcm2b_6mgyydnm0000gn/T//ccIdySvu.s 			page 148


 7679 00d2 50       		.byte	0x50
 7680 00d3 8C010000 		.4byte	.LVL52-.Ltext0
 7681 00d7 D8020000 		.4byte	.LFE18-.Ltext0
 7682 00db 0100     		.2byte	0x1
 7683 00dd 55       		.byte	0x55
 7684 00de 00000000 		.4byte	0
 7685 00e2 00000000 		.4byte	0
 7686              	.LVUS21:
 7687 00e6 00       		.uleb128 0
 7688 00e7 00       		.uleb128 .LVU153
 7689 00e8 00       		.uleb128 .LVU153
 7690 00e9 00       		.uleb128 .LVU155
 7691 00ea 00       		.uleb128 .LVU155
 7692 00eb 00       		.uleb128 0
 7693              	.LLST21:
 7694 00ec 84010000 		.4byte	.LVL51-.Ltext0
 7695 00f0 8E010000 		.4byte	.LVL53-.Ltext0
 7696 00f4 0100     		.2byte	0x1
 7697 00f6 51       		.byte	0x51
 7698 00f7 8E010000 		.4byte	.LVL53-.Ltext0
 7699 00fb 99010000 		.4byte	.LVL54-1-.Ltext0
 7700 00ff 0100     		.2byte	0x1
 7701 0101 50       		.byte	0x50
 7702 0102 99010000 		.4byte	.LVL54-1-.Ltext0
 7703 0106 D8020000 		.4byte	.LFE18-.Ltext0
 7704 010a 0600     		.2byte	0x6
 7705 010c F3       		.byte	0xf3
 7706 010d 03       		.uleb128 0x3
 7707 010e F5       		.byte	0xf5
 7708 010f 01       		.uleb128 0x1
 7709 0110 25       		.uleb128 0x25
 7710 0111 9F       		.byte	0x9f
 7711 0112 00000000 		.4byte	0
 7712 0116 00000000 		.4byte	0
 7713              	.LVUS22:
 7714 011a 00       		.uleb128 0
 7715 011b 00       		.uleb128 .LVU155
 7716 011c 00       		.uleb128 .LVU155
 7717 011d 00       		.uleb128 .LVU158
 7718 011e 00       		.uleb128 .LVU158
 7719 011f 00       		.uleb128 0
 7720              	.LLST22:
 7721 0120 84010000 		.4byte	.LVL51-.Ltext0
 7722 0124 99010000 		.4byte	.LVL54-1-.Ltext0
 7723 0128 0100     		.2byte	0x1
 7724 012a 52       		.byte	0x52
 7725 012b 99010000 		.4byte	.LVL54-1-.Ltext0
 7726 012f B2010000 		.4byte	.LVL58-.Ltext0
 7727 0133 0100     		.2byte	0x1
 7728 0135 57       		.byte	0x57
 7729 0136 B2010000 		.4byte	.LVL58-.Ltext0
 7730 013a D8020000 		.4byte	.LFE18-.Ltext0
 7731 013e 0400     		.2byte	0x4
 7732 0140 F3       		.byte	0xf3
 7733 0141 01       		.uleb128 0x1
 7734 0142 52       		.byte	0x52
 7735 0143 9F       		.byte	0x9f
ARM GAS  /var/folders/_2/qbh2zpt918qcm2b_6mgyydnm0000gn/T//ccIdySvu.s 			page 149


 7736 0144 00000000 		.4byte	0
 7737 0148 00000000 		.4byte	0
 7738              	.LVUS23:
 7739 014c 00       		.uleb128 0
 7740 014d 00       		.uleb128 .LVU155
 7741 014e 00       		.uleb128 .LVU155
 7742 014f 00       		.uleb128 .LVU180
 7743 0150 00       		.uleb128 .LVU180
 7744 0151 00       		.uleb128 .LVU229
 7745 0152 00       		.uleb128 .LVU229
 7746 0153 00       		.uleb128 .LVU235
 7747 0154 00       		.uleb128 .LVU235
 7748 0155 00       		.uleb128 .LVU251
 7749 0156 00       		.uleb128 .LVU251
 7750 0157 00       		.uleb128 .LVU274
 7751 0158 00       		.uleb128 .LVU274
 7752 0159 00       		.uleb128 .LVU275
 7753 015a 00       		.uleb128 .LVU275
 7754 015b 00       		.uleb128 .LVU277
 7755 015c 00       		.uleb128 .LVU277
 7756 015d 00       		.uleb128 0
 7757              	.LLST23:
 7758 015e 84010000 		.4byte	.LVL51-.Ltext0
 7759 0162 99010000 		.4byte	.LVL54-1-.Ltext0
 7760 0166 0100     		.2byte	0x1
 7761 0168 53       		.byte	0x53
 7762 0169 99010000 		.4byte	.LVL54-1-.Ltext0
 7763 016d F2010000 		.4byte	.LVL71-.Ltext0
 7764 0171 0100     		.2byte	0x1
 7765 0173 58       		.byte	0x58
 7766 0174 F2010000 		.4byte	.LVL71-.Ltext0
 7767 0178 62020000 		.4byte	.LVL89-.Ltext0
 7768 017c 0600     		.2byte	0x6
 7769 017e F3       		.byte	0xf3
 7770 017f 03       		.uleb128 0x3
 7771 0180 F5       		.byte	0xf5
 7772 0181 03       		.uleb128 0x3
 7773 0182 25       		.uleb128 0x25
 7774 0183 9F       		.byte	0x9f
 7775 0184 62020000 		.4byte	.LVL89-.Ltext0
 7776 0188 72020000 		.4byte	.LVL92-.Ltext0
 7777 018c 0100     		.2byte	0x1
 7778 018e 58       		.byte	0x58
 7779 018f 72020000 		.4byte	.LVL92-.Ltext0
 7780 0193 90020000 		.4byte	.LVL99-.Ltext0
 7781 0197 0600     		.2byte	0x6
 7782 0199 F3       		.byte	0xf3
 7783 019a 03       		.uleb128 0x3
 7784 019b F5       		.byte	0xf5
 7785 019c 03       		.uleb128 0x3
 7786 019d 25       		.uleb128 0x25
 7787 019e 9F       		.byte	0x9f
 7788 019f 90020000 		.4byte	.LVL99-.Ltext0
 7789 01a3 BE020000 		.4byte	.LVL109-.Ltext0
 7790 01a7 0100     		.2byte	0x1
 7791 01a9 58       		.byte	0x58
 7792 01aa BE020000 		.4byte	.LVL109-.Ltext0
ARM GAS  /var/folders/_2/qbh2zpt918qcm2b_6mgyydnm0000gn/T//ccIdySvu.s 			page 150


 7793 01ae C0020000 		.4byte	.LVL110-.Ltext0
 7794 01b2 0600     		.2byte	0x6
 7795 01b4 F3       		.byte	0xf3
 7796 01b5 03       		.uleb128 0x3
 7797 01b6 F5       		.byte	0xf5
 7798 01b7 03       		.uleb128 0x3
 7799 01b8 25       		.uleb128 0x25
 7800 01b9 9F       		.byte	0x9f
 7801 01ba C0020000 		.4byte	.LVL110-.Ltext0
 7802 01be CA020000 		.4byte	.LVL112-.Ltext0
 7803 01c2 0100     		.2byte	0x1
 7804 01c4 58       		.byte	0x58
 7805 01c5 CA020000 		.4byte	.LVL112-.Ltext0
 7806 01c9 D8020000 		.4byte	.LFE18-.Ltext0
 7807 01cd 0600     		.2byte	0x6
 7808 01cf F3       		.byte	0xf3
 7809 01d0 03       		.uleb128 0x3
 7810 01d1 F5       		.byte	0xf5
 7811 01d2 03       		.uleb128 0x3
 7812 01d3 25       		.uleb128 0x25
 7813 01d4 9F       		.byte	0x9f
 7814 01d5 00000000 		.4byte	0
 7815 01d9 00000000 		.4byte	0
 7816              	.LVUS24:
 7817 01dd 00       		.uleb128 0
 7818 01de 00       		.uleb128 .LVU229
 7819 01df 00       		.uleb128 .LVU229
 7820 01e0 00       		.uleb128 0
 7821              	.LLST24:
 7822 01e1 84010000 		.4byte	.LVL51-.Ltext0
 7823 01e5 62020000 		.4byte	.LVL89-.Ltext0
 7824 01e9 0200     		.2byte	0x2
 7825 01eb 91       		.byte	0x91
 7826 01ec 00       		.sleb128 0
 7827 01ed 62020000 		.4byte	.LVL89-.Ltext0
 7828 01f1 D8020000 		.4byte	.LFE18-.Ltext0
 7829 01f5 0200     		.2byte	0x2
 7830 01f7 91       		.byte	0x91
 7831 01f8 00       		.sleb128 0
 7832 01f9 00000000 		.4byte	0
 7833 01fd 00000000 		.4byte	0
 7834              	.LVUS25:
 7835 0201 00       		.uleb128 .LVU158
 7836 0202 00       		.uleb128 .LVU160
 7837 0203 00       		.uleb128 .LVU160
 7838 0204 00       		.uleb128 .LVU166
 7839              	.LLST25:
 7840 0205 B2010000 		.4byte	.LVL58-.Ltext0
 7841 0209 B5010000 		.4byte	.LVL59-1-.Ltext0
 7842 020d 0100     		.2byte	0x1
 7843 020f 50       		.byte	0x50
 7844 0210 B5010000 		.4byte	.LVL59-1-.Ltext0
 7845 0214 C2010000 		.4byte	.LVL63-.Ltext0
 7846 0218 0100     		.2byte	0x1
 7847 021a 57       		.byte	0x57
 7848 021b 00000000 		.4byte	0
 7849 021f 00000000 		.4byte	0
ARM GAS  /var/folders/_2/qbh2zpt918qcm2b_6mgyydnm0000gn/T//ccIdySvu.s 			page 151


 7850              	.LVUS26:
 7851 0223 00       		.uleb128 .LVU161
 7852 0224 00       		.uleb128 .LVU163
 7853 0225 00       		.uleb128 .LVU163
 7854 0226 00       		.uleb128 .LVU174
 7855              	.LLST26:
 7856 0227 B8010000 		.4byte	.LVL60-.Ltext0
 7857 022b BA010000 		.4byte	.LVL61-.Ltext0
 7858 022f 0100     		.2byte	0x1
 7859 0231 50       		.byte	0x50
 7860 0232 BA010000 		.4byte	.LVL61-.Ltext0
 7861 0236 D8010000 		.4byte	.LVL68-.Ltext0
 7862 023a 0100     		.2byte	0x1
 7863 023c 56       		.byte	0x56
 7864 023d 00000000 		.4byte	0
 7865 0241 00000000 		.4byte	0
 7866              	.LVUS27:
 7867 0245 00       		.uleb128 .LVU166
 7868 0246 00       		.uleb128 .LVU168
 7869 0247 00       		.uleb128 .LVU168
 7870 0248 00       		.uleb128 .LVU200
 7871 0249 00       		.uleb128 .LVU229
 7872 024a 00       		.uleb128 .LVU247
 7873 024b 00       		.uleb128 .LVU251
 7874 024c 00       		.uleb128 .LVU272
 7875 024d 00       		.uleb128 .LVU275
 7876 024e 00       		.uleb128 .LVU276
 7877              	.LLST27:
 7878 024f C2010000 		.4byte	.LVL63-.Ltext0
 7879 0253 C4010000 		.4byte	.LVL64-.Ltext0
 7880 0257 0100     		.2byte	0x1
 7881 0259 50       		.byte	0x50
 7882 025a C4010000 		.4byte	.LVL64-.Ltext0
 7883 025e 1E020000 		.4byte	.LVL82-.Ltext0
 7884 0262 0100     		.2byte	0x1
 7885 0264 57       		.byte	0x57
 7886 0265 62020000 		.4byte	.LVL89-.Ltext0
 7887 0269 8A020000 		.4byte	.LVL98-.Ltext0
 7888 026d 0100     		.2byte	0x1
 7889 026f 57       		.byte	0x57
 7890 0270 90020000 		.4byte	.LVL99-.Ltext0
 7891 0274 BC020000 		.4byte	.LVL108-.Ltext0
 7892 0278 0100     		.2byte	0x1
 7893 027a 57       		.byte	0x57
 7894 027b C0020000 		.4byte	.LVL110-.Ltext0
 7895 027f C2020000 		.4byte	.LVL111-.Ltext0
 7896 0283 0100     		.2byte	0x1
 7897 0285 57       		.byte	0x57
 7898 0286 00000000 		.4byte	0
 7899 028a 00000000 		.4byte	0
 7900              	.LVUS28:
 7901 028e 00       		.uleb128 .LVU172
 7902 028f 00       		.uleb128 .LVU177
 7903 0290 00       		.uleb128 .LVU177
 7904 0291 00       		.uleb128 .LVU229
 7905 0292 00       		.uleb128 .LVU229
 7906 0293 00       		.uleb128 .LVU232
ARM GAS  /var/folders/_2/qbh2zpt918qcm2b_6mgyydnm0000gn/T//ccIdySvu.s 			page 152


 7907 0294 00       		.uleb128 .LVU232
 7908 0295 00       		.uleb128 .LVU251
 7909 0296 00       		.uleb128 .LVU251
 7910 0297 00       		.uleb128 .LVU259
 7911 0298 00       		.uleb128 .LVU259
 7912 0299 00       		.uleb128 .LVU275
 7913 029a 00       		.uleb128 .LVU275
 7914 029b 00       		.uleb128 0
 7915              	.LLST28:
 7916 029c D4010000 		.4byte	.LVL67-.Ltext0
 7917 02a0 E8010000 		.4byte	.LVL69-.Ltext0
 7918 02a4 0100     		.2byte	0x1
 7919 02a6 50       		.byte	0x50
 7920 02a7 E8010000 		.4byte	.LVL69-.Ltext0
 7921 02ab 62020000 		.4byte	.LVL89-.Ltext0
 7922 02af 0100     		.2byte	0x1
 7923 02b1 59       		.byte	0x59
 7924 02b2 62020000 		.4byte	.LVL89-.Ltext0
 7925 02b6 68020000 		.4byte	.LVL90-.Ltext0
 7926 02ba 0100     		.2byte	0x1
 7927 02bc 50       		.byte	0x50
 7928 02bd 68020000 		.4byte	.LVL90-.Ltext0
 7929 02c1 90020000 		.4byte	.LVL99-.Ltext0
 7930 02c5 0100     		.2byte	0x1
 7931 02c7 59       		.byte	0x59
 7932 02c8 90020000 		.4byte	.LVL99-.Ltext0
 7933 02cc 9D020000 		.4byte	.LVL101-1-.Ltext0
 7934 02d0 0100     		.2byte	0x1
 7935 02d2 50       		.byte	0x50
 7936 02d3 9D020000 		.4byte	.LVL101-1-.Ltext0
 7937 02d7 C0020000 		.4byte	.LVL110-.Ltext0
 7938 02db 0100     		.2byte	0x1
 7939 02dd 59       		.byte	0x59
 7940 02de C0020000 		.4byte	.LVL110-.Ltext0
 7941 02e2 D8020000 		.4byte	.LFE18-.Ltext0
 7942 02e6 0100     		.2byte	0x1
 7943 02e8 50       		.byte	0x50
 7944 02e9 00000000 		.4byte	0
 7945 02ed 00000000 		.4byte	0
 7946              	.LVUS29:
 7947 02f1 01       		.uleb128 .LVU173
 7948 02f2 00       		.uleb128 .LVU183
 7949 02f3 00       		.uleb128 .LVU183
 7950 02f4 00       		.uleb128 .LVU187
 7951 02f5 00       		.uleb128 .LVU187
 7952 02f6 01       		.uleb128 .LVU201
 7953 02f7 00       		.uleb128 .LVU202
 7954 02f8 00       		.uleb128 .LVU205
 7955 02f9 00       		.uleb128 .LVU205
 7956 02fa 00       		.uleb128 .LVU229
 7957 02fb 00       		.uleb128 .LVU229
 7958 02fc 01       		.uleb128 .LVU230
 7959 02fd 01       		.uleb128 .LVU230
 7960 02fe 00       		.uleb128 .LVU251
 7961 02ff 00       		.uleb128 .LVU251
 7962 0300 01       		.uleb128 .LVU252
 7963 0301 01       		.uleb128 .LVU252
ARM GAS  /var/folders/_2/qbh2zpt918qcm2b_6mgyydnm0000gn/T//ccIdySvu.s 			page 153


 7964 0302 00       		.uleb128 .LVU259
 7965 0303 00       		.uleb128 .LVU259
 7966 0304 00       		.uleb128 .LVU275
 7967 0305 00       		.uleb128 .LVU275
 7968 0306 00       		.uleb128 0
 7969              	.LLST29:
 7970 0307 D4010000 		.4byte	.LVL67-.Ltext0
 7971 030b FC010000 		.4byte	.LVL73-.Ltext0
 7972 030f 0600     		.2byte	0x6
 7973 0311 9E       		.byte	0x9e
 7974 0312 04       		.uleb128 0x4
 7975 0313 00000000 		.4byte	0
 7976 0317 FC010000 		.4byte	.LVL73-.Ltext0
 7977 031b FE010000 		.4byte	.LVL74-.Ltext0
 7978 031f 0100     		.2byte	0x1
 7979 0321 50       		.byte	0x50
 7980 0322 FE010000 		.4byte	.LVL74-.Ltext0
 7981 0326 1E020000 		.4byte	.LVL82-.Ltext0
 7982 032a 0100     		.2byte	0x1
 7983 032c 5B       		.byte	0x5b
 7984 032d 24020000 		.4byte	.LVL83-.Ltext0
 7985 0331 27020000 		.4byte	.LVL84-1-.Ltext0
 7986 0335 0100     		.2byte	0x1
 7987 0337 50       		.byte	0x50
 7988 0338 27020000 		.4byte	.LVL84-1-.Ltext0
 7989 033c 62020000 		.4byte	.LVL89-.Ltext0
 7990 0340 0100     		.2byte	0x1
 7991 0342 5B       		.byte	0x5b
 7992 0343 62020000 		.4byte	.LVL89-.Ltext0
 7993 0347 62020000 		.4byte	.LVL89-.Ltext0
 7994 034b 0600     		.2byte	0x6
 7995 034d 9E       		.byte	0x9e
 7996 034e 04       		.uleb128 0x4
 7997 034f 00000000 		.4byte	0
 7998 0353 62020000 		.4byte	.LVL89-.Ltext0
 7999 0357 90020000 		.4byte	.LVL99-.Ltext0
 8000 035b 0600     		.2byte	0x6
 8001 035d 9E       		.byte	0x9e
 8002 035e 04       		.uleb128 0x4
 8003 035f 0000803F 		.4byte	0x3f800000
 8004 0363 90020000 		.4byte	.LVL99-.Ltext0
 8005 0367 90020000 		.4byte	.LVL99-.Ltext0
 8006 036b 0600     		.2byte	0x6
 8007 036d 9E       		.byte	0x9e
 8008 036e 04       		.uleb128 0x4
 8009 036f 00000000 		.4byte	0
 8010 0373 90020000 		.4byte	.LVL99-.Ltext0
 8011 0377 9D020000 		.4byte	.LVL101-1-.Ltext0
 8012 037b 0100     		.2byte	0x1
 8013 037d 50       		.byte	0x50
 8014 037e 9D020000 		.4byte	.LVL101-1-.Ltext0
 8015 0382 C0020000 		.4byte	.LVL110-.Ltext0
 8016 0386 0100     		.2byte	0x1
 8017 0388 59       		.byte	0x59
 8018 0389 C0020000 		.4byte	.LVL110-.Ltext0
 8019 038d D8020000 		.4byte	.LFE18-.Ltext0
 8020 0391 0600     		.2byte	0x6
ARM GAS  /var/folders/_2/qbh2zpt918qcm2b_6mgyydnm0000gn/T//ccIdySvu.s 			page 154


 8021 0393 9E       		.byte	0x9e
 8022 0394 04       		.uleb128 0x4
 8023 0395 00000000 		.4byte	0
 8024 0399 00000000 		.4byte	0
 8025 039d 00000000 		.4byte	0
 8026              	.LVUS30:
 8027 03a1 01       		.uleb128 .LVU173
 8028 03a2 01       		.uleb128 .LVU184
 8029 03a3 01       		.uleb128 .LVU184
 8030 03a4 01       		.uleb128 .LVU201
 8031 03a5 00       		.uleb128 .LVU202
 8032 03a6 00       		.uleb128 .LVU229
 8033 03a7 00       		.uleb128 .LVU229
 8034 03a8 00       		.uleb128 .LVU235
 8035 03a9 00       		.uleb128 .LVU235
 8036 03aa 00       		.uleb128 .LVU238
 8037 03ab 00       		.uleb128 .LVU238
 8038 03ac 00       		.uleb128 .LVU251
 8039 03ad 00       		.uleb128 .LVU251
 8040 03ae 00       		.uleb128 0
 8041              	.LLST30:
 8042 03af D4010000 		.4byte	.LVL67-.Ltext0
 8043 03b3 FC010000 		.4byte	.LVL73-.Ltext0
 8044 03b7 0600     		.2byte	0x6
 8045 03b9 9E       		.byte	0x9e
 8046 03ba 04       		.uleb128 0x4
 8047 03bb 00000000 		.4byte	0
 8048 03bf FC010000 		.4byte	.LVL73-.Ltext0
 8049 03c3 1E020000 		.4byte	.LVL82-.Ltext0
 8050 03c7 0100     		.2byte	0x1
 8051 03c9 58       		.byte	0x58
 8052 03ca 24020000 		.4byte	.LVL83-.Ltext0
 8053 03ce 62020000 		.4byte	.LVL89-.Ltext0
 8054 03d2 0100     		.2byte	0x1
 8055 03d4 58       		.byte	0x58
 8056 03d5 62020000 		.4byte	.LVL89-.Ltext0
 8057 03d9 72020000 		.4byte	.LVL92-.Ltext0
 8058 03dd 0600     		.2byte	0x6
 8059 03df 9E       		.byte	0x9e
 8060 03e0 04       		.uleb128 0x4
 8061 03e1 00000000 		.4byte	0
 8062 03e5 72020000 		.4byte	.LVL92-.Ltext0
 8063 03e9 74020000 		.4byte	.LVL93-.Ltext0
 8064 03ed 0100     		.2byte	0x1
 8065 03ef 50       		.byte	0x50
 8066 03f0 74020000 		.4byte	.LVL93-.Ltext0
 8067 03f4 90020000 		.4byte	.LVL99-.Ltext0
 8068 03f8 0100     		.2byte	0x1
 8069 03fa 58       		.byte	0x58
 8070 03fb 90020000 		.4byte	.LVL99-.Ltext0
 8071 03ff D8020000 		.4byte	.LFE18-.Ltext0
 8072 0403 0600     		.2byte	0x6
 8073 0405 9E       		.byte	0x9e
 8074 0406 04       		.uleb128 0x4
 8075 0407 00000000 		.4byte	0
 8076 040b 00000000 		.4byte	0
 8077 040f 00000000 		.4byte	0
ARM GAS  /var/folders/_2/qbh2zpt918qcm2b_6mgyydnm0000gn/T//ccIdySvu.s 			page 155


 8078              	.LVUS31:
 8079 0413 01       		.uleb128 .LVU173
 8080 0414 02       		.uleb128 .LVU185
 8081 0415 02       		.uleb128 .LVU185
 8082 0416 00       		.uleb128 .LVU187
 8083 0417 00       		.uleb128 .LVU187
 8084 0418 01       		.uleb128 .LVU201
 8085 0419 00       		.uleb128 .LVU202
 8086 041a 00       		.uleb128 .LVU229
 8087 041b 00       		.uleb128 .LVU229
 8088 041c 01       		.uleb128 .LVU236
 8089 041d 01       		.uleb128 .LVU236
 8090 041e 00       		.uleb128 .LVU251
 8091 041f 00       		.uleb128 .LVU251
 8092 0420 00       		.uleb128 .LVU257
 8093 0421 00       		.uleb128 .LVU257
 8094 0422 00       		.uleb128 .LVU275
 8095 0423 00       		.uleb128 .LVU275
 8096 0424 00       		.uleb128 0
 8097              	.LLST31:
 8098 0425 D4010000 		.4byte	.LVL67-.Ltext0
 8099 0429 FC010000 		.4byte	.LVL73-.Ltext0
 8100 042d 0600     		.2byte	0x6
 8101 042f 9E       		.byte	0x9e
 8102 0430 04       		.uleb128 0x4
 8103 0431 00000000 		.4byte	0
 8104 0435 FC010000 		.4byte	.LVL73-.Ltext0
 8105 0439 FE010000 		.4byte	.LVL74-.Ltext0
 8106 043d 0100     		.2byte	0x1
 8107 043f 50       		.byte	0x50
 8108 0440 FE010000 		.4byte	.LVL74-.Ltext0
 8109 0444 1E020000 		.4byte	.LVL82-.Ltext0
 8110 0448 0100     		.2byte	0x1
 8111 044a 5B       		.byte	0x5b
 8112 044b 24020000 		.4byte	.LVL83-.Ltext0
 8113 044f 62020000 		.4byte	.LVL89-.Ltext0
 8114 0453 0200     		.2byte	0x2
 8115 0455 91       		.byte	0x91
 8116 0456 54       		.sleb128 -44
 8117 0457 62020000 		.4byte	.LVL89-.Ltext0
 8118 045b 72020000 		.4byte	.LVL92-.Ltext0
 8119 045f 0600     		.2byte	0x6
 8120 0461 9E       		.byte	0x9e
 8121 0462 04       		.uleb128 0x4
 8122 0463 00000000 		.4byte	0
 8123 0467 72020000 		.4byte	.LVL92-.Ltext0
 8124 046b 90020000 		.4byte	.LVL99-.Ltext0
 8125 046f 0600     		.2byte	0x6
 8126 0471 9E       		.byte	0x9e
 8127 0472 04       		.uleb128 0x4
 8128 0473 0000803F 		.4byte	0x3f800000
 8129 0477 90020000 		.4byte	.LVL99-.Ltext0
 8130 047b 9A020000 		.4byte	.LVL100-.Ltext0
 8131 047f 0600     		.2byte	0x6
 8132 0481 9E       		.byte	0x9e
 8133 0482 04       		.uleb128 0x4
 8134 0483 00000000 		.4byte	0
ARM GAS  /var/folders/_2/qbh2zpt918qcm2b_6mgyydnm0000gn/T//ccIdySvu.s 			page 156


 8135 0487 9A020000 		.4byte	.LVL100-.Ltext0
 8136 048b C0020000 		.4byte	.LVL110-.Ltext0
 8137 048f 0200     		.2byte	0x2
 8138 0491 91       		.byte	0x91
 8139 0492 54       		.sleb128 -44
 8140 0493 C0020000 		.4byte	.LVL110-.Ltext0
 8141 0497 D8020000 		.4byte	.LFE18-.Ltext0
 8142 049b 0600     		.2byte	0x6
 8143 049d 9E       		.byte	0x9e
 8144 049e 04       		.uleb128 0x4
 8145 049f 00000000 		.4byte	0
 8146 04a3 00000000 		.4byte	0
 8147 04a7 00000000 		.4byte	0
 8148              	.LVUS32:
 8149 04ab 01       		.uleb128 .LVU173
 8150 04ac 00       		.uleb128 .LVU190
 8151 04ad 00       		.uleb128 .LVU190
 8152 04ae 00       		.uleb128 .LVU192
 8153 04af 00       		.uleb128 .LVU192
 8154 04b0 01       		.uleb128 .LVU201
 8155 04b1 00       		.uleb128 .LVU202
 8156 04b2 00       		.uleb128 .LVU205
 8157 04b3 00       		.uleb128 .LVU205
 8158 04b4 00       		.uleb128 .LVU229
 8159 04b5 00       		.uleb128 .LVU229
 8160 04b6 00       		.uleb128 .LVU241
 8161 04b7 00       		.uleb128 .LVU241
 8162 04b8 00       		.uleb128 .LVU244
 8163 04b9 00       		.uleb128 .LVU244
 8164 04ba 00       		.uleb128 .LVU251
 8165 04bb 00       		.uleb128 .LVU251
 8166 04bc 00       		.uleb128 .LVU261
 8167 04bd 00       		.uleb128 .LVU261
 8168 04be 00       		.uleb128 .LVU263
 8169 04bf 00       		.uleb128 .LVU263
 8170 04c0 00       		.uleb128 .LVU275
 8171 04c1 00       		.uleb128 .LVU275
 8172 04c2 00       		.uleb128 0
 8173              	.LLST32:
 8174 04c3 D4010000 		.4byte	.LVL67-.Ltext0
 8175 04c7 08020000 		.4byte	.LVL76-.Ltext0
 8176 04cb 0600     		.2byte	0x6
 8177 04cd 9E       		.byte	0x9e
 8178 04ce 04       		.uleb128 0x4
 8179 04cf 00000000 		.4byte	0
 8180 04d3 08020000 		.4byte	.LVL76-.Ltext0
 8181 04d7 0A020000 		.4byte	.LVL77-.Ltext0
 8182 04db 0100     		.2byte	0x1
 8183 04dd 50       		.byte	0x50
 8184 04de 0A020000 		.4byte	.LVL77-.Ltext0
 8185 04e2 1E020000 		.4byte	.LVL82-.Ltext0
 8186 04e6 0100     		.2byte	0x1
 8187 04e8 54       		.byte	0x54
 8188 04e9 24020000 		.4byte	.LVL83-.Ltext0
 8189 04ed 27020000 		.4byte	.LVL84-1-.Ltext0
 8190 04f1 0100     		.2byte	0x1
 8191 04f3 51       		.byte	0x51
ARM GAS  /var/folders/_2/qbh2zpt918qcm2b_6mgyydnm0000gn/T//ccIdySvu.s 			page 157


 8192 04f4 27020000 		.4byte	.LVL84-1-.Ltext0
 8193 04f8 62020000 		.4byte	.LVL89-.Ltext0
 8194 04fc 0100     		.2byte	0x1
 8195 04fe 54       		.byte	0x54
 8196 04ff 62020000 		.4byte	.LVL89-.Ltext0
 8197 0503 7C020000 		.4byte	.LVL95-.Ltext0
 8198 0507 0600     		.2byte	0x6
 8199 0509 9E       		.byte	0x9e
 8200 050a 04       		.uleb128 0x4
 8201 050b 00000000 		.4byte	0
 8202 050f 7C020000 		.4byte	.LVL95-.Ltext0
 8203 0513 80020000 		.4byte	.LVL96-.Ltext0
 8204 0517 0100     		.2byte	0x1
 8205 0519 50       		.byte	0x50
 8206 051a 80020000 		.4byte	.LVL96-.Ltext0
 8207 051e 90020000 		.4byte	.LVL99-.Ltext0
 8208 0522 0100     		.2byte	0x1
 8209 0524 54       		.byte	0x54
 8210 0525 90020000 		.4byte	.LVL99-.Ltext0
 8211 0529 A4020000 		.4byte	.LVL102-.Ltext0
 8212 052d 0600     		.2byte	0x6
 8213 052f 9E       		.byte	0x9e
 8214 0530 04       		.uleb128 0x4
 8215 0531 00000000 		.4byte	0
 8216 0535 A4020000 		.4byte	.LVL102-.Ltext0
 8217 0539 A6020000 		.4byte	.LVL103-.Ltext0
 8218 053d 0100     		.2byte	0x1
 8219 053f 50       		.byte	0x50
 8220 0540 A6020000 		.4byte	.LVL103-.Ltext0
 8221 0544 C0020000 		.4byte	.LVL110-.Ltext0
 8222 0548 0100     		.2byte	0x1
 8223 054a 54       		.byte	0x54
 8224 054b C0020000 		.4byte	.LVL110-.Ltext0
 8225 054f D8020000 		.4byte	.LFE18-.Ltext0
 8226 0553 0600     		.2byte	0x6
 8227 0555 9E       		.byte	0x9e
 8228 0556 04       		.uleb128 0x4
 8229 0557 00000000 		.4byte	0
 8230 055b 00000000 		.4byte	0
 8231 055f 00000000 		.4byte	0
 8232              	.LVUS33:
 8233 0563 01       		.uleb128 .LVU173
 8234 0564 00       		.uleb128 .LVU195
 8235 0565 00       		.uleb128 .LVU195
 8236 0566 00       		.uleb128 .LVU197
 8237 0567 00       		.uleb128 .LVU197
 8238 0568 01       		.uleb128 .LVU201
 8239 0569 00       		.uleb128 .LVU202
 8240 056a 00       		.uleb128 .LVU229
 8241 056b 00       		.uleb128 .LVU229
 8242 056c 01       		.uleb128 .LVU242
 8243 056d 01       		.uleb128 .LVU242
 8244 056e 00       		.uleb128 .LVU251
 8245 056f 00       		.uleb128 .LVU251
 8246 0570 00       		.uleb128 .LVU266
 8247 0571 00       		.uleb128 .LVU266
 8248 0572 00       		.uleb128 .LVU268
ARM GAS  /var/folders/_2/qbh2zpt918qcm2b_6mgyydnm0000gn/T//ccIdySvu.s 			page 158


 8249 0573 00       		.uleb128 .LVU268
 8250 0574 00       		.uleb128 .LVU275
 8251 0575 00       		.uleb128 .LVU275
 8252 0576 00       		.uleb128 0
 8253              	.LLST33:
 8254 0577 D4010000 		.4byte	.LVL67-.Ltext0
 8255 057b 12020000 		.4byte	.LVL79-.Ltext0
 8256 057f 0600     		.2byte	0x6
 8257 0581 9E       		.byte	0x9e
 8258 0582 04       		.uleb128 0x4
 8259 0583 00000000 		.4byte	0
 8260 0587 12020000 		.4byte	.LVL79-.Ltext0
 8261 058b 16020000 		.4byte	.LVL80-.Ltext0
 8262 058f 0100     		.2byte	0x1
 8263 0591 50       		.byte	0x50
 8264 0592 16020000 		.4byte	.LVL80-.Ltext0
 8265 0596 1E020000 		.4byte	.LVL82-.Ltext0
 8266 059a 0100     		.2byte	0x1
 8267 059c 5A       		.byte	0x5a
 8268 059d 24020000 		.4byte	.LVL83-.Ltext0
 8269 05a1 62020000 		.4byte	.LVL89-.Ltext0
 8270 05a5 0100     		.2byte	0x1
 8271 05a7 5A       		.byte	0x5a
 8272 05a8 62020000 		.4byte	.LVL89-.Ltext0
 8273 05ac 7C020000 		.4byte	.LVL95-.Ltext0
 8274 05b0 0600     		.2byte	0x6
 8275 05b2 9E       		.byte	0x9e
 8276 05b3 04       		.uleb128 0x4
 8277 05b4 00000000 		.4byte	0
 8278 05b8 7C020000 		.4byte	.LVL95-.Ltext0
 8279 05bc 90020000 		.4byte	.LVL99-.Ltext0
 8280 05c0 0100     		.2byte	0x1
 8281 05c2 58       		.byte	0x58
 8282 05c3 90020000 		.4byte	.LVL99-.Ltext0
 8283 05c7 AE020000 		.4byte	.LVL105-.Ltext0
 8284 05cb 0600     		.2byte	0x6
 8285 05cd 9E       		.byte	0x9e
 8286 05ce 04       		.uleb128 0x4
 8287 05cf 00000000 		.4byte	0
 8288 05d3 AE020000 		.4byte	.LVL105-.Ltext0
 8289 05d7 B2020000 		.4byte	.LVL106-.Ltext0
 8290 05db 0100     		.2byte	0x1
 8291 05dd 50       		.byte	0x50
 8292 05de B2020000 		.4byte	.LVL106-.Ltext0
 8293 05e2 C0020000 		.4byte	.LVL110-.Ltext0
 8294 05e6 0100     		.2byte	0x1
 8295 05e8 5A       		.byte	0x5a
 8296 05e9 C0020000 		.4byte	.LVL110-.Ltext0
 8297 05ed D8020000 		.4byte	.LFE18-.Ltext0
 8298 05f1 0600     		.2byte	0x6
 8299 05f3 9E       		.byte	0x9e
 8300 05f4 04       		.uleb128 0x4
 8301 05f5 00000000 		.4byte	0
 8302 05f9 00000000 		.4byte	0
 8303 05fd 00000000 		.4byte	0
 8304              	.LVUS34:
 8305 0601 01       		.uleb128 .LVU173
ARM GAS  /var/folders/_2/qbh2zpt918qcm2b_6mgyydnm0000gn/T//ccIdySvu.s 			page 159


 8306 0602 00       		.uleb128 .LVU200
 8307 0603 00       		.uleb128 .LVU200
 8308 0604 01       		.uleb128 .LVU201
 8309 0605 00       		.uleb128 .LVU202
 8310 0606 00       		.uleb128 .LVU229
 8311 0607 00       		.uleb128 .LVU229
 8312 0608 00       		.uleb128 .LVU247
 8313 0609 00       		.uleb128 .LVU247
 8314 060a 00       		.uleb128 .LVU251
 8315 060b 00       		.uleb128 .LVU251
 8316 060c 00       		.uleb128 .LVU272
 8317 060d 00       		.uleb128 .LVU272
 8318 060e 00       		.uleb128 .LVU275
 8319 060f 00       		.uleb128 .LVU275
 8320 0610 00       		.uleb128 0
 8321              	.LLST34:
 8322 0611 D4010000 		.4byte	.LVL67-.Ltext0
 8323 0615 1E020000 		.4byte	.LVL82-.Ltext0
 8324 0619 0600     		.2byte	0x6
 8325 061b 9E       		.byte	0x9e
 8326 061c 04       		.uleb128 0x4
 8327 061d 00000000 		.4byte	0
 8328 0621 1E020000 		.4byte	.LVL82-.Ltext0
 8329 0625 1E020000 		.4byte	.LVL82-.Ltext0
 8330 0629 0100     		.2byte	0x1
 8331 062b 50       		.byte	0x50
 8332 062c 24020000 		.4byte	.LVL83-.Ltext0
 8333 0630 62020000 		.4byte	.LVL89-.Ltext0
 8334 0634 0100     		.2byte	0x1
 8335 0636 57       		.byte	0x57
 8336 0637 62020000 		.4byte	.LVL89-.Ltext0
 8337 063b 8A020000 		.4byte	.LVL98-.Ltext0
 8338 063f 0600     		.2byte	0x6
 8339 0641 9E       		.byte	0x9e
 8340 0642 04       		.uleb128 0x4
 8341 0643 00000000 		.4byte	0
 8342 0647 8A020000 		.4byte	.LVL98-.Ltext0
 8343 064b 90020000 		.4byte	.LVL99-.Ltext0
 8344 064f 0100     		.2byte	0x1
 8345 0651 50       		.byte	0x50
 8346 0652 90020000 		.4byte	.LVL99-.Ltext0
 8347 0656 BC020000 		.4byte	.LVL108-.Ltext0
 8348 065a 0600     		.2byte	0x6
 8349 065c 9E       		.byte	0x9e
 8350 065d 04       		.uleb128 0x4
 8351 065e 00000000 		.4byte	0
 8352 0662 BC020000 		.4byte	.LVL108-.Ltext0
 8353 0666 C0020000 		.4byte	.LVL110-.Ltext0
 8354 066a 0100     		.2byte	0x1
 8355 066c 50       		.byte	0x50
 8356 066d C0020000 		.4byte	.LVL110-.Ltext0
 8357 0671 D8020000 		.4byte	.LFE18-.Ltext0
 8358 0675 0600     		.2byte	0x6
 8359 0677 9E       		.byte	0x9e
 8360 0678 04       		.uleb128 0x4
 8361 0679 00000000 		.4byte	0
 8362 067d 00000000 		.4byte	0
ARM GAS  /var/folders/_2/qbh2zpt918qcm2b_6mgyydnm0000gn/T//ccIdySvu.s 			page 160


 8363 0681 00000000 		.4byte	0
 8364              	.LLST12:
 8365 0685 E6000000 		.4byte	.LFB15-.Ltext0
 8366 0689 E8000000 		.4byte	.LCFI3-.Ltext0
 8367 068d 0200     		.2byte	0x2
 8368 068f 7D       		.byte	0x7d
 8369 0690 00       		.sleb128 0
 8370 0691 E8000000 		.4byte	.LCFI3-.Ltext0
 8371 0695 24010000 		.4byte	.LFE15-.Ltext0
 8372 0699 0200     		.2byte	0x2
 8373 069b 7D       		.byte	0x7d
 8374 069c 08       		.sleb128 8
 8375 069d 00000000 		.4byte	0
 8376 06a1 00000000 		.4byte	0
 8377              	.LVUS13:
 8378 06a5 00       		.uleb128 0
 8379 06a6 00       		.uleb128 .LVU90
 8380 06a7 00       		.uleb128 .LVU90
 8381 06a8 00       		.uleb128 0
 8382              	.LLST13:
 8383 06a9 E6000000 		.4byte	.LVL35-.Ltext0
 8384 06ad ED000000 		.4byte	.LVL36-1-.Ltext0
 8385 06b1 0100     		.2byte	0x1
 8386 06b3 50       		.byte	0x50
 8387 06b4 ED000000 		.4byte	.LVL36-1-.Ltext0
 8388 06b8 24010000 		.4byte	.LFE15-.Ltext0
 8389 06bc 0400     		.2byte	0x4
 8390 06be F3       		.byte	0xf3
 8391 06bf 01       		.uleb128 0x1
 8392 06c0 50       		.byte	0x50
 8393 06c1 9F       		.byte	0x9f
 8394 06c2 00000000 		.4byte	0
 8395 06c6 00000000 		.4byte	0
 8396              	.LVUS14:
 8397 06ca 00       		.uleb128 0
 8398 06cb 00       		.uleb128 .LVU90
 8399 06cc 00       		.uleb128 .LVU90
 8400 06cd 00       		.uleb128 .LVU96
 8401 06ce 00       		.uleb128 .LVU96
 8402 06cf 00       		.uleb128 0
 8403              	.LLST14:
 8404 06d0 E6000000 		.4byte	.LVL35-.Ltext0
 8405 06d4 ED000000 		.4byte	.LVL36-1-.Ltext0
 8406 06d8 0100     		.2byte	0x1
 8407 06da 51       		.byte	0x51
 8408 06db ED000000 		.4byte	.LVL36-1-.Ltext0
 8409 06df 18010000 		.4byte	.LVL42-.Ltext0
 8410 06e3 0100     		.2byte	0x1
 8411 06e5 54       		.byte	0x54
 8412 06e6 18010000 		.4byte	.LVL42-.Ltext0
 8413 06ea 24010000 		.4byte	.LFE15-.Ltext0
 8414 06ee 0600     		.2byte	0x6
 8415 06f0 F3       		.byte	0xf3
 8416 06f1 03       		.uleb128 0x3
 8417 06f2 F5       		.byte	0xf5
 8418 06f3 01       		.uleb128 0x1
 8419 06f4 25       		.uleb128 0x25
ARM GAS  /var/folders/_2/qbh2zpt918qcm2b_6mgyydnm0000gn/T//ccIdySvu.s 			page 161


 8420 06f5 9F       		.byte	0x9f
 8421 06f6 00000000 		.4byte	0
 8422 06fa 00000000 		.4byte	0
 8423              	.LVUS15:
 8424 06fe 02       		.uleb128 .LVU86
 8425 06ff 00       		.uleb128 .LVU90
 8426              	.LLST15:
 8427 0700 E6000000 		.4byte	.LVL35-.Ltext0
 8428 0704 ED000000 		.4byte	.LVL36-1-.Ltext0
 8429 0708 2500     		.2byte	0x25
 8430 070a F4       		.byte	0xf4
 8431 070b 2C       		.uleb128 0x2c
 8432 070c 08       		.byte	0x8
 8433 070d 00000000 		.4byte	0
 8434 0711 0000F03F 		.4byte	0x3ff00000
 8435 0715 70       		.byte	0x70
 8436 0716 00       		.sleb128 0
 8437 0717 0A       		.byte	0xa
 8438 0718 FFFF     		.2byte	0xffff
 8439 071a 1A       		.byte	0x1a
 8440 071b F7       		.byte	0xf7
 8441 071c 3A       		.uleb128 0x3a
 8442 071d F7       		.byte	0xf7
 8443 071e 2C       		.uleb128 0x2c
 8444 071f F4       		.byte	0xf4
 8445 0720 2C       		.uleb128 0x2c
 8446 0721 08       		.byte	0x8
 8447 0722 00000060 		.4byte	0x60000000
 8448 0726 FB211940 		.4byte	0x401921fb
 8449 072a 1E       		.byte	0x1e
 8450 072b 1B       		.byte	0x1b
 8451 072c F7       		.byte	0xf7
 8452 072d 25       		.uleb128 0x25
 8453 072e 9F       		.byte	0x9f
 8454 072f 00000000 		.4byte	0
 8455 0733 00000000 		.4byte	0
 8456              	.LVUS11:
 8457 0737 00       		.uleb128 0
 8458 0738 00       		.uleb128 .LVU83
 8459 0739 00       		.uleb128 .LVU83
 8460 073a 00       		.uleb128 0
 8461              	.LLST11:
 8462 073b E2000000 		.4byte	.LVL33-.Ltext0
 8463 073f E4000000 		.4byte	.LVL34-.Ltext0
 8464 0743 0100     		.2byte	0x1
 8465 0745 50       		.byte	0x50
 8466 0746 E4000000 		.4byte	.LVL34-.Ltext0
 8467 074a E6000000 		.4byte	.LFE14-.Ltext0
 8468 074e 0400     		.2byte	0x4
 8469 0750 F3       		.byte	0xf3
 8470 0751 01       		.uleb128 0x1
 8471 0752 50       		.byte	0x50
 8472 0753 9F       		.byte	0x9f
 8473 0754 00000000 		.4byte	0
 8474 0758 00000000 		.4byte	0
 8475              	.LLST7:
 8476 075c 76000000 		.4byte	.LFB13-.Ltext0
ARM GAS  /var/folders/_2/qbh2zpt918qcm2b_6mgyydnm0000gn/T//ccIdySvu.s 			page 162


 8477 0760 7A000000 		.4byte	.LCFI2-.Ltext0
 8478 0764 0200     		.2byte	0x2
 8479 0766 7D       		.byte	0x7d
 8480 0767 00       		.sleb128 0
 8481 0768 7A000000 		.4byte	.LCFI2-.Ltext0
 8482 076c E2000000 		.4byte	.LFE13-.Ltext0
 8483 0770 0200     		.2byte	0x2
 8484 0772 7D       		.byte	0x7d
 8485 0773 18       		.sleb128 24
 8486 0774 00000000 		.4byte	0
 8487 0778 00000000 		.4byte	0
 8488              	.LVUS8:
 8489 077c 00       		.uleb128 0
 8490 077d 00       		.uleb128 .LVU51
 8491 077e 00       		.uleb128 .LVU51
 8492 077f 00       		.uleb128 0
 8493              	.LLST8:
 8494 0780 76000000 		.4byte	.LVL21-.Ltext0
 8495 0784 88000000 		.4byte	.LVL23-.Ltext0
 8496 0788 0100     		.2byte	0x1
 8497 078a 50       		.byte	0x50
 8498 078b 88000000 		.4byte	.LVL23-.Ltext0
 8499 078f E2000000 		.4byte	.LFE13-.Ltext0
 8500 0793 0100     		.2byte	0x1
 8501 0795 54       		.byte	0x54
 8502 0796 00000000 		.4byte	0
 8503 079a 00000000 		.4byte	0
 8504              	.LVUS9:
 8505 079e 00       		.uleb128 0
 8506 079f 00       		.uleb128 .LVU48
 8507 07a0 00       		.uleb128 .LVU48
 8508 07a1 00       		.uleb128 0
 8509              	.LLST9:
 8510 07a2 76000000 		.4byte	.LVL21-.Ltext0
 8511 07a6 80000000 		.4byte	.LVL22-.Ltext0
 8512 07aa 0100     		.2byte	0x1
 8513 07ac 51       		.byte	0x51
 8514 07ad 80000000 		.4byte	.LVL22-.Ltext0
 8515 07b1 E2000000 		.4byte	.LFE13-.Ltext0
 8516 07b5 0100     		.2byte	0x1
 8517 07b7 55       		.byte	0x55
 8518 07b8 00000000 		.4byte	0
 8519 07bc 00000000 		.4byte	0
 8520              	.LVUS10:
 8521 07c0 00       		.uleb128 .LVU68
 8522 07c1 00       		.uleb128 0
 8523              	.LLST10:
 8524 07c2 D4000000 		.4byte	.LVL32-.Ltext0
 8525 07c6 E2000000 		.4byte	.LFE13-.Ltext0
 8526 07ca 0100     		.2byte	0x1
 8527 07cc 50       		.byte	0x50
 8528 07cd 00000000 		.4byte	0
 8529 07d1 00000000 		.4byte	0
 8530              	.LLST3:
 8531 07d5 1E000000 		.4byte	.LFB12-.Ltext0
 8532 07d9 20000000 		.4byte	.LCFI1-.Ltext0
 8533 07dd 0200     		.2byte	0x2
ARM GAS  /var/folders/_2/qbh2zpt918qcm2b_6mgyydnm0000gn/T//ccIdySvu.s 			page 163


 8534 07df 7D       		.byte	0x7d
 8535 07e0 00       		.sleb128 0
 8536 07e1 20000000 		.4byte	.LCFI1-.Ltext0
 8537 07e5 76000000 		.4byte	.LFE12-.Ltext0
 8538 07e9 0200     		.2byte	0x2
 8539 07eb 7D       		.byte	0x7d
 8540 07ec 18       		.sleb128 24
 8541 07ed 00000000 		.4byte	0
 8542 07f1 00000000 		.4byte	0
 8543              	.LVUS4:
 8544 07f5 00       		.uleb128 0
 8545 07f6 00       		.uleb128 .LVU19
 8546 07f7 00       		.uleb128 .LVU19
 8547 07f8 00       		.uleb128 0
 8548              	.LLST4:
 8549 07f9 1E000000 		.4byte	.LVL6-.Ltext0
 8550 07fd 28000000 		.4byte	.LVL8-.Ltext0
 8551 0801 0100     		.2byte	0x1
 8552 0803 50       		.byte	0x50
 8553 0804 28000000 		.4byte	.LVL8-.Ltext0
 8554 0808 76000000 		.4byte	.LFE12-.Ltext0
 8555 080c 0100     		.2byte	0x1
 8556 080e 54       		.byte	0x54
 8557 080f 00000000 		.4byte	0
 8558 0813 00000000 		.4byte	0
 8559              	.LVUS5:
 8560 0817 00       		.uleb128 0
 8561 0818 00       		.uleb128 .LVU18
 8562 0819 00       		.uleb128 .LVU18
 8563 081a 00       		.uleb128 .LVU37
 8564 081b 00       		.uleb128 .LVU37
 8565 081c 00       		.uleb128 0
 8566              	.LLST5:
 8567 081d 1E000000 		.4byte	.LVL6-.Ltext0
 8568 0821 26000000 		.4byte	.LVL7-.Ltext0
 8569 0825 0100     		.2byte	0x1
 8570 0827 51       		.byte	0x51
 8571 0828 26000000 		.4byte	.LVL7-.Ltext0
 8572 082c 62000000 		.4byte	.LVL18-.Ltext0
 8573 0830 0100     		.2byte	0x1
 8574 0832 56       		.byte	0x56
 8575 0833 62000000 		.4byte	.LVL18-.Ltext0
 8576 0837 76000000 		.4byte	.LFE12-.Ltext0
 8577 083b 0600     		.2byte	0x6
 8578 083d F3       		.byte	0xf3
 8579 083e 03       		.uleb128 0x3
 8580 083f F5       		.byte	0xf5
 8581 0840 01       		.uleb128 0x1
 8582 0841 25       		.uleb128 0x25
 8583 0842 9F       		.byte	0x9f
 8584 0843 00000000 		.4byte	0
 8585 0847 00000000 		.4byte	0
 8586              	.LVUS6:
 8587 084b 00       		.uleb128 .LVU23
 8588 084c 00       		.uleb128 .LVU25
 8589 084d 00       		.uleb128 .LVU25
 8590 084e 00       		.uleb128 0
ARM GAS  /var/folders/_2/qbh2zpt918qcm2b_6mgyydnm0000gn/T//ccIdySvu.s 			page 164


 8591              	.LLST6:
 8592 084f 36000000 		.4byte	.LVL11-.Ltext0
 8593 0853 38000000 		.4byte	.LVL12-.Ltext0
 8594 0857 0100     		.2byte	0x1
 8595 0859 50       		.byte	0x50
 8596 085a 38000000 		.4byte	.LVL12-.Ltext0
 8597 085e 76000000 		.4byte	.LFE12-.Ltext0
 8598 0862 0100     		.2byte	0x1
 8599 0864 55       		.byte	0x55
 8600 0865 00000000 		.4byte	0
 8601 0869 00000000 		.4byte	0
 8602              	.LLST0:
 8603 086d 00000000 		.4byte	.LFB11-.Ltext0
 8604 0871 02000000 		.4byte	.LCFI0-.Ltext0
 8605 0875 0200     		.2byte	0x2
 8606 0877 7D       		.byte	0x7d
 8607 0878 00       		.sleb128 0
 8608 0879 02000000 		.4byte	.LCFI0-.Ltext0
 8609 087d 1E000000 		.4byte	.LFE11-.Ltext0
 8610 0881 0200     		.2byte	0x2
 8611 0883 7D       		.byte	0x7d
 8612 0884 10       		.sleb128 16
 8613 0885 00000000 		.4byte	0
 8614 0889 00000000 		.4byte	0
 8615              	.LVUS1:
 8616 088d 00       		.uleb128 0
 8617 088e 00       		.uleb128 .LVU4
 8618 088f 00       		.uleb128 .LVU4
 8619 0890 00       		.uleb128 0
 8620              	.LLST1:
 8621 0891 00000000 		.4byte	.LVL0-.Ltext0
 8622 0895 06000000 		.4byte	.LVL1-.Ltext0
 8623 0899 0100     		.2byte	0x1
 8624 089b 50       		.byte	0x50
 8625 089c 06000000 		.4byte	.LVL1-.Ltext0
 8626 08a0 1E000000 		.4byte	.LFE11-.Ltext0
 8627 08a4 0100     		.2byte	0x1
 8628 08a6 54       		.byte	0x54
 8629 08a7 00000000 		.4byte	0
 8630 08ab 00000000 		.4byte	0
 8631              	.LVUS2:
 8632 08af 00       		.uleb128 0
 8633 08b0 00       		.uleb128 .LVU6
 8634 08b1 00       		.uleb128 .LVU6
 8635 08b2 00       		.uleb128 .LVU7
 8636 08b3 00       		.uleb128 .LVU7
 8637 08b4 00       		.uleb128 0
 8638              	.LLST2:
 8639 08b5 00000000 		.4byte	.LVL0-.Ltext0
 8640 08b9 0A000000 		.4byte	.LVL2-.Ltext0
 8641 08bd 0100     		.2byte	0x1
 8642 08bf 51       		.byte	0x51
 8643 08c0 0A000000 		.4byte	.LVL2-.Ltext0
 8644 08c4 0D000000 		.4byte	.LVL3-1-.Ltext0
 8645 08c8 0100     		.2byte	0x1
 8646 08ca 50       		.byte	0x50
 8647 08cb 0D000000 		.4byte	.LVL3-1-.Ltext0
ARM GAS  /var/folders/_2/qbh2zpt918qcm2b_6mgyydnm0000gn/T//ccIdySvu.s 			page 165


 8648 08cf 1E000000 		.4byte	.LFE11-.Ltext0
 8649 08d3 0600     		.2byte	0x6
 8650 08d5 F3       		.byte	0xf3
 8651 08d6 03       		.uleb128 0x3
 8652 08d7 F5       		.byte	0xf5
 8653 08d8 01       		.uleb128 0x1
 8654 08d9 25       		.uleb128 0x25
 8655 08da 9F       		.byte	0x9f
 8656 08db 00000000 		.4byte	0
 8657 08df 00000000 		.4byte	0
 8658              	.LLST81:
 8659 08e3 38060000 		.4byte	.LFB10-.Ltext0
 8660 08e7 3C060000 		.4byte	.LCFI24-.Ltext0
 8661 08eb 0200     		.2byte	0x2
 8662 08ed 7D       		.byte	0x7d
 8663 08ee 00       		.sleb128 0
 8664 08ef 3C060000 		.4byte	.LCFI24-.Ltext0
 8665 08f3 98060000 		.4byte	.LCFI25-.Ltext0
 8666 08f7 0200     		.2byte	0x2
 8667 08f9 7D       		.byte	0x7d
 8668 08fa 28       		.sleb128 40
 8669 08fb 98060000 		.4byte	.LCFI25-.Ltext0
 8670 08ff A8060000 		.4byte	.LFE10-.Ltext0
 8671 0903 0200     		.2byte	0x2
 8672 0905 7D       		.byte	0x7d
 8673 0906 1C       		.sleb128 28
 8674 0907 00000000 		.4byte	0
 8675 090b 00000000 		.4byte	0
 8676              	.LVUS82:
 8677 090f 00       		.uleb128 0
 8678 0910 00       		.uleb128 .LVU572
 8679 0911 00       		.uleb128 .LVU572
 8680 0912 00       		.uleb128 .LVU588
 8681 0913 00       		.uleb128 .LVU588
 8682 0914 00       		.uleb128 .LVU593
 8683 0915 00       		.uleb128 .LVU593
 8684 0916 00       		.uleb128 0
 8685              	.LLST82:
 8686 0917 38060000 		.4byte	.LVL204-.Ltext0
 8687 091b 46060000 		.4byte	.LVL205-.Ltext0
 8688 091f 0100     		.2byte	0x1
 8689 0921 50       		.byte	0x50
 8690 0922 46060000 		.4byte	.LVL205-.Ltext0
 8691 0926 7A060000 		.4byte	.LVL212-.Ltext0
 8692 092a 0100     		.2byte	0x1
 8693 092c 54       		.byte	0x54
 8694 092d 7A060000 		.4byte	.LVL212-.Ltext0
 8695 0931 96060000 		.4byte	.LVL215-.Ltext0
 8696 0935 0400     		.2byte	0x4
 8697 0937 74       		.byte	0x74
 8698 0938 FC7B     		.sleb128 -516
 8699 093a 9F       		.byte	0x9f
 8700 093b 96060000 		.4byte	.LVL215-.Ltext0
 8701 093f A8060000 		.4byte	.LFE10-.Ltext0
 8702 0943 0400     		.2byte	0x4
 8703 0945 F3       		.byte	0xf3
 8704 0946 01       		.uleb128 0x1
ARM GAS  /var/folders/_2/qbh2zpt918qcm2b_6mgyydnm0000gn/T//ccIdySvu.s 			page 166


 8705 0947 50       		.byte	0x50
 8706 0948 9F       		.byte	0x9f
 8707 0949 00000000 		.4byte	0
 8708 094d 00000000 		.4byte	0
 8709              	.LVUS83:
 8710 0951 00       		.uleb128 0
 8711 0952 00       		.uleb128 .LVU573
 8712 0953 00       		.uleb128 .LVU573
 8713 0954 00       		.uleb128 .LVU575
 8714 0955 00       		.uleb128 .LVU575
 8715 0956 00       		.uleb128 .LVU582
 8716              	.LLST83:
 8717 0957 38060000 		.4byte	.LVL204-.Ltext0
 8718 095b 48060000 		.4byte	.LVL206-.Ltext0
 8719 095f 0100     		.2byte	0x1
 8720 0961 51       		.byte	0x51
 8721 0962 48060000 		.4byte	.LVL206-.Ltext0
 8722 0966 4E060000 		.4byte	.LVL207-.Ltext0
 8723 096a 0400     		.2byte	0x4
 8724 096c F3       		.byte	0xf3
 8725 096d 01       		.uleb128 0x1
 8726 096e 51       		.byte	0x51
 8727 096f 9F       		.byte	0x9f
 8728 0970 4E060000 		.4byte	.LVL207-.Ltext0
 8729 0974 5B060000 		.4byte	.LVL208-1-.Ltext0
 8730 0978 0100     		.2byte	0x1
 8731 097a 50       		.byte	0x50
 8732 097b 00000000 		.4byte	0
 8733 097f 00000000 		.4byte	0
 8734              	.LVUS84:
 8735 0983 00       		.uleb128 0
 8736 0984 00       		.uleb128 .LVU575
 8737 0985 00       		.uleb128 .LVU575
 8738 0986 00       		.uleb128 0
 8739              	.LLST84:
 8740 0987 38060000 		.4byte	.LVL204-.Ltext0
 8741 098b 4D060000 		.4byte	.LVL207-1-.Ltext0
 8742 098f 0100     		.2byte	0x1
 8743 0991 52       		.byte	0x52
 8744 0992 4D060000 		.4byte	.LVL207-1-.Ltext0
 8745 0996 A8060000 		.4byte	.LFE10-.Ltext0
 8746 099a 0400     		.2byte	0x4
 8747 099c F3       		.byte	0xf3
 8748 099d 01       		.uleb128 0x1
 8749 099e 52       		.byte	0x52
 8750 099f 9F       		.byte	0x9f
 8751 09a0 00000000 		.4byte	0
 8752 09a4 00000000 		.4byte	0
 8753              	.LVUS85:
 8754 09a8 00       		.uleb128 .LVU585
 8755 09a9 00       		.uleb128 .LVU589
 8756 09aa 00       		.uleb128 .LVU589
 8757 09ab 00       		.uleb128 .LVU593
 8758              	.LLST85:
 8759 09ac 76060000 		.4byte	.LVL211-.Ltext0
 8760 09b0 7E060000 		.4byte	.LVL213-.Ltext0
 8761 09b4 0100     		.2byte	0x1
ARM GAS  /var/folders/_2/qbh2zpt918qcm2b_6mgyydnm0000gn/T//ccIdySvu.s 			page 167


 8762 09b6 50       		.byte	0x50
 8763 09b7 7E060000 		.4byte	.LVL213-.Ltext0
 8764 09bb 96060000 		.4byte	.LVL215-.Ltext0
 8765 09bf 0100     		.2byte	0x1
 8766 09c1 57       		.byte	0x57
 8767 09c2 00000000 		.4byte	0
 8768 09c6 00000000 		.4byte	0
 8769              	.LVUS86:
 8770 09ca 02       		.uleb128 .LVU587
 8771 09cb 00       		.uleb128 .LVU589
 8772              	.LLST86:
 8773 09cc 76060000 		.4byte	.LVL211-.Ltext0
 8774 09d0 7E060000 		.4byte	.LVL213-.Ltext0
 8775 09d4 0200     		.2byte	0x2
 8776 09d6 30       		.byte	0x30
 8777 09d7 9F       		.byte	0x9f
 8778 09d8 00000000 		.4byte	0
 8779 09dc 00000000 		.4byte	0
 8780              	.LLST75:
 8781 09e0 C8050000 		.4byte	.LFB9-.Ltext0
 8782 09e4 CC050000 		.4byte	.LCFI22-.Ltext0
 8783 09e8 0200     		.2byte	0x2
 8784 09ea 7D       		.byte	0x7d
 8785 09eb 00       		.sleb128 0
 8786 09ec CC050000 		.4byte	.LCFI22-.Ltext0
 8787 09f0 28060000 		.4byte	.LCFI23-.Ltext0
 8788 09f4 0200     		.2byte	0x2
 8789 09f6 7D       		.byte	0x7d
 8790 09f7 28       		.sleb128 40
 8791 09f8 28060000 		.4byte	.LCFI23-.Ltext0
 8792 09fc 38060000 		.4byte	.LFE9-.Ltext0
 8793 0a00 0200     		.2byte	0x2
 8794 0a02 7D       		.byte	0x7d
 8795 0a03 1C       		.sleb128 28
 8796 0a04 00000000 		.4byte	0
 8797 0a08 00000000 		.4byte	0
 8798              	.LVUS76:
 8799 0a0c 00       		.uleb128 0
 8800 0a0d 00       		.uleb128 .LVU542
 8801 0a0e 00       		.uleb128 .LVU542
 8802 0a0f 00       		.uleb128 .LVU558
 8803 0a10 00       		.uleb128 .LVU558
 8804 0a11 00       		.uleb128 .LVU563
 8805 0a12 00       		.uleb128 .LVU563
 8806 0a13 00       		.uleb128 0
 8807              	.LLST76:
 8808 0a14 C8050000 		.4byte	.LVL192-.Ltext0
 8809 0a18 D6050000 		.4byte	.LVL193-.Ltext0
 8810 0a1c 0100     		.2byte	0x1
 8811 0a1e 50       		.byte	0x50
 8812 0a1f D6050000 		.4byte	.LVL193-.Ltext0
 8813 0a23 0A060000 		.4byte	.LVL200-.Ltext0
 8814 0a27 0100     		.2byte	0x1
 8815 0a29 54       		.byte	0x54
 8816 0a2a 0A060000 		.4byte	.LVL200-.Ltext0
 8817 0a2e 26060000 		.4byte	.LVL203-.Ltext0
 8818 0a32 0400     		.2byte	0x4
ARM GAS  /var/folders/_2/qbh2zpt918qcm2b_6mgyydnm0000gn/T//ccIdySvu.s 			page 168


 8819 0a34 74       		.byte	0x74
 8820 0a35 EC7C     		.sleb128 -404
 8821 0a37 9F       		.byte	0x9f
 8822 0a38 26060000 		.4byte	.LVL203-.Ltext0
 8823 0a3c 38060000 		.4byte	.LFE9-.Ltext0
 8824 0a40 0400     		.2byte	0x4
 8825 0a42 F3       		.byte	0xf3
 8826 0a43 01       		.uleb128 0x1
 8827 0a44 50       		.byte	0x50
 8828 0a45 9F       		.byte	0x9f
 8829 0a46 00000000 		.4byte	0
 8830 0a4a 00000000 		.4byte	0
 8831              	.LVUS77:
 8832 0a4e 00       		.uleb128 0
 8833 0a4f 00       		.uleb128 .LVU543
 8834 0a50 00       		.uleb128 .LVU543
 8835 0a51 00       		.uleb128 .LVU545
 8836 0a52 00       		.uleb128 .LVU545
 8837 0a53 00       		.uleb128 .LVU552
 8838              	.LLST77:
 8839 0a54 C8050000 		.4byte	.LVL192-.Ltext0
 8840 0a58 D8050000 		.4byte	.LVL194-.Ltext0
 8841 0a5c 0100     		.2byte	0x1
 8842 0a5e 51       		.byte	0x51
 8843 0a5f D8050000 		.4byte	.LVL194-.Ltext0
 8844 0a63 DE050000 		.4byte	.LVL195-.Ltext0
 8845 0a67 0400     		.2byte	0x4
 8846 0a69 F3       		.byte	0xf3
 8847 0a6a 01       		.uleb128 0x1
 8848 0a6b 51       		.byte	0x51
 8849 0a6c 9F       		.byte	0x9f
 8850 0a6d DE050000 		.4byte	.LVL195-.Ltext0
 8851 0a71 EB050000 		.4byte	.LVL196-1-.Ltext0
 8852 0a75 0100     		.2byte	0x1
 8853 0a77 50       		.byte	0x50
 8854 0a78 00000000 		.4byte	0
 8855 0a7c 00000000 		.4byte	0
 8856              	.LVUS78:
 8857 0a80 00       		.uleb128 0
 8858 0a81 00       		.uleb128 .LVU545
 8859 0a82 00       		.uleb128 .LVU545
 8860 0a83 00       		.uleb128 0
 8861              	.LLST78:
 8862 0a84 C8050000 		.4byte	.LVL192-.Ltext0
 8863 0a88 DD050000 		.4byte	.LVL195-1-.Ltext0
 8864 0a8c 0100     		.2byte	0x1
 8865 0a8e 52       		.byte	0x52
 8866 0a8f DD050000 		.4byte	.LVL195-1-.Ltext0
 8867 0a93 38060000 		.4byte	.LFE9-.Ltext0
 8868 0a97 0400     		.2byte	0x4
 8869 0a99 F3       		.byte	0xf3
 8870 0a9a 01       		.uleb128 0x1
 8871 0a9b 52       		.byte	0x52
 8872 0a9c 9F       		.byte	0x9f
 8873 0a9d 00000000 		.4byte	0
 8874 0aa1 00000000 		.4byte	0
 8875              	.LVUS79:
ARM GAS  /var/folders/_2/qbh2zpt918qcm2b_6mgyydnm0000gn/T//ccIdySvu.s 			page 169


 8876 0aa5 00       		.uleb128 .LVU555
 8877 0aa6 00       		.uleb128 .LVU559
 8878 0aa7 00       		.uleb128 .LVU559
 8879 0aa8 00       		.uleb128 .LVU563
 8880              	.LLST79:
 8881 0aa9 06060000 		.4byte	.LVL199-.Ltext0
 8882 0aad 0E060000 		.4byte	.LVL201-.Ltext0
 8883 0ab1 0100     		.2byte	0x1
 8884 0ab3 50       		.byte	0x50
 8885 0ab4 0E060000 		.4byte	.LVL201-.Ltext0
 8886 0ab8 26060000 		.4byte	.LVL203-.Ltext0
 8887 0abc 0100     		.2byte	0x1
 8888 0abe 57       		.byte	0x57
 8889 0abf 00000000 		.4byte	0
 8890 0ac3 00000000 		.4byte	0
 8891              	.LVUS80:
 8892 0ac7 02       		.uleb128 .LVU557
 8893 0ac8 00       		.uleb128 .LVU559
 8894              	.LLST80:
 8895 0ac9 06060000 		.4byte	.LVL199-.Ltext0
 8896 0acd 0E060000 		.4byte	.LVL201-.Ltext0
 8897 0ad1 0200     		.2byte	0x2
 8898 0ad3 30       		.byte	0x30
 8899 0ad4 9F       		.byte	0x9f
 8900 0ad5 00000000 		.4byte	0
 8901 0ad9 00000000 		.4byte	0
 8902              	.LLST46:
 8903 0add A8030000 		.4byte	.LFB8-.Ltext0
 8904 0ae1 AC030000 		.4byte	.LCFI13-.Ltext0
 8905 0ae5 0200     		.2byte	0x2
 8906 0ae7 7D       		.byte	0x7d
 8907 0ae8 00       		.sleb128 0
 8908 0ae9 AC030000 		.4byte	.LCFI13-.Ltext0
 8909 0aed B8030000 		.4byte	.LCFI14-.Ltext0
 8910 0af1 0200     		.2byte	0x2
 8911 0af3 7D       		.byte	0x7d
 8912 0af4 28       		.sleb128 40
 8913 0af5 B8030000 		.4byte	.LCFI14-.Ltext0
 8914 0af9 BC030000 		.4byte	.LCFI15-.Ltext0
 8915 0afd 0200     		.2byte	0x2
 8916 0aff 7D       		.byte	0x7d
 8917 0b00 1C       		.sleb128 28
 8918 0b01 BC030000 		.4byte	.LCFI15-.Ltext0
 8919 0b05 78040000 		.4byte	.LFE8-.Ltext0
 8920 0b09 0200     		.2byte	0x2
 8921 0b0b 7D       		.byte	0x7d
 8922 0b0c 28       		.sleb128 40
 8923 0b0d 00000000 		.4byte	0
 8924 0b11 00000000 		.4byte	0
 8925              	.LVUS47:
 8926 0b15 00       		.uleb128 0
 8927 0b16 00       		.uleb128 .LVU359
 8928 0b17 00       		.uleb128 .LVU359
 8929 0b18 00       		.uleb128 .LVU360
 8930 0b19 00       		.uleb128 .LVU360
 8931 0b1a 00       		.uleb128 .LVU377
 8932 0b1b 00       		.uleb128 .LVU377
ARM GAS  /var/folders/_2/qbh2zpt918qcm2b_6mgyydnm0000gn/T//ccIdySvu.s 			page 170


 8933 0b1c 00       		.uleb128 .LVU396
 8934 0b1d 00       		.uleb128 .LVU396
 8935 0b1e 00       		.uleb128 .LVU402
 8936 0b1f 00       		.uleb128 .LVU402
 8937 0b20 00       		.uleb128 0
 8938              	.LLST47:
 8939 0b21 A8030000 		.4byte	.LVL133-.Ltext0
 8940 0b25 B6030000 		.4byte	.LVL134-.Ltext0
 8941 0b29 0100     		.2byte	0x1
 8942 0b2b 50       		.byte	0x50
 8943 0b2c B6030000 		.4byte	.LVL134-.Ltext0
 8944 0b30 BC030000 		.4byte	.LVL135-.Ltext0
 8945 0b34 0400     		.2byte	0x4
 8946 0b36 F3       		.byte	0xf3
 8947 0b37 01       		.uleb128 0x1
 8948 0b38 50       		.byte	0x50
 8949 0b39 9F       		.byte	0x9f
 8950 0b3a BC030000 		.4byte	.LVL135-.Ltext0
 8951 0b3e D6030000 		.4byte	.LVL141-.Ltext0
 8952 0b42 0100     		.2byte	0x1
 8953 0b44 50       		.byte	0x50
 8954 0b45 D6030000 		.4byte	.LVL141-.Ltext0
 8955 0b49 24040000 		.4byte	.LVL151-.Ltext0
 8956 0b4d 0400     		.2byte	0x4
 8957 0b4f F3       		.byte	0xf3
 8958 0b50 01       		.uleb128 0x1
 8959 0b51 50       		.byte	0x50
 8960 0b52 9F       		.byte	0x9f
 8961 0b53 24040000 		.4byte	.LVL151-.Ltext0
 8962 0b57 2E040000 		.4byte	.LVL154-.Ltext0
 8963 0b5b 0100     		.2byte	0x1
 8964 0b5d 50       		.byte	0x50
 8965 0b5e 2E040000 		.4byte	.LVL154-.Ltext0
 8966 0b62 78040000 		.4byte	.LFE8-.Ltext0
 8967 0b66 0400     		.2byte	0x4
 8968 0b68 F3       		.byte	0xf3
 8969 0b69 01       		.uleb128 0x1
 8970 0b6a 50       		.byte	0x50
 8971 0b6b 9F       		.byte	0x9f
 8972 0b6c 00000000 		.4byte	0
 8973 0b70 00000000 		.4byte	0
 8974              	.LVUS48:
 8975 0b74 00       		.uleb128 0
 8976 0b75 00       		.uleb128 .LVU359
 8977 0b76 00       		.uleb128 .LVU359
 8978 0b77 00       		.uleb128 .LVU360
 8979 0b78 00       		.uleb128 .LVU360
 8980 0b79 00       		.uleb128 .LVU378
 8981 0b7a 00       		.uleb128 .LVU378
 8982 0b7b 00       		.uleb128 .LVU396
 8983 0b7c 00       		.uleb128 .LVU396
 8984 0b7d 00       		.uleb128 .LVU402
 8985 0b7e 00       		.uleb128 .LVU402
 8986 0b7f 00       		.uleb128 0
 8987              	.LLST48:
 8988 0b80 A8030000 		.4byte	.LVL133-.Ltext0
 8989 0b84 B6030000 		.4byte	.LVL134-.Ltext0
ARM GAS  /var/folders/_2/qbh2zpt918qcm2b_6mgyydnm0000gn/T//ccIdySvu.s 			page 171


 8990 0b88 0100     		.2byte	0x1
 8991 0b8a 51       		.byte	0x51
 8992 0b8b B6030000 		.4byte	.LVL134-.Ltext0
 8993 0b8f BC030000 		.4byte	.LVL135-.Ltext0
 8994 0b93 0400     		.2byte	0x4
 8995 0b95 F3       		.byte	0xf3
 8996 0b96 01       		.uleb128 0x1
 8997 0b97 51       		.byte	0x51
 8998 0b98 9F       		.byte	0x9f
 8999 0b99 BC030000 		.4byte	.LVL135-.Ltext0
 9000 0b9d D9030000 		.4byte	.LVL142-1-.Ltext0
 9001 0ba1 0100     		.2byte	0x1
 9002 0ba3 51       		.byte	0x51
 9003 0ba4 D9030000 		.4byte	.LVL142-1-.Ltext0
 9004 0ba8 24040000 		.4byte	.LVL151-.Ltext0
 9005 0bac 0400     		.2byte	0x4
 9006 0bae F3       		.byte	0xf3
 9007 0baf 01       		.uleb128 0x1
 9008 0bb0 51       		.byte	0x51
 9009 0bb1 9F       		.byte	0x9f
 9010 0bb2 24040000 		.4byte	.LVL151-.Ltext0
 9011 0bb6 2E040000 		.4byte	.LVL154-.Ltext0
 9012 0bba 0100     		.2byte	0x1
 9013 0bbc 51       		.byte	0x51
 9014 0bbd 2E040000 		.4byte	.LVL154-.Ltext0
 9015 0bc1 78040000 		.4byte	.LFE8-.Ltext0
 9016 0bc5 0400     		.2byte	0x4
 9017 0bc7 F3       		.byte	0xf3
 9018 0bc8 01       		.uleb128 0x1
 9019 0bc9 51       		.byte	0x51
 9020 0bca 9F       		.byte	0x9f
 9021 0bcb 00000000 		.4byte	0
 9022 0bcf 00000000 		.4byte	0
 9023              	.LVUS49:
 9024 0bd3 00       		.uleb128 0
 9025 0bd4 00       		.uleb128 .LVU359
 9026 0bd5 00       		.uleb128 .LVU359
 9027 0bd6 00       		.uleb128 .LVU360
 9028 0bd7 00       		.uleb128 .LVU360
 9029 0bd8 00       		.uleb128 .LVU369
 9030 0bd9 00       		.uleb128 .LVU369
 9031 0bda 00       		.uleb128 .LVU385
 9032 0bdb 00       		.uleb128 .LVU385
 9033 0bdc 00       		.uleb128 .LVU396
 9034 0bdd 00       		.uleb128 .LVU396
 9035 0bde 00       		.uleb128 .LVU402
 9036 0bdf 00       		.uleb128 .LVU402
 9037 0be0 00       		.uleb128 0
 9038              	.LLST49:
 9039 0be1 A8030000 		.4byte	.LVL133-.Ltext0
 9040 0be5 B6030000 		.4byte	.LVL134-.Ltext0
 9041 0be9 0100     		.2byte	0x1
 9042 0beb 52       		.byte	0x52
 9043 0bec B6030000 		.4byte	.LVL134-.Ltext0
 9044 0bf0 BC030000 		.4byte	.LVL135-.Ltext0
 9045 0bf4 0400     		.2byte	0x4
 9046 0bf6 F3       		.byte	0xf3
ARM GAS  /var/folders/_2/qbh2zpt918qcm2b_6mgyydnm0000gn/T//ccIdySvu.s 			page 172


 9047 0bf7 01       		.uleb128 0x1
 9048 0bf8 52       		.byte	0x52
 9049 0bf9 9F       		.byte	0x9f
 9050 0bfa BC030000 		.4byte	.LVL135-.Ltext0
 9051 0bfe C8030000 		.4byte	.LVL139-.Ltext0
 9052 0c02 0100     		.2byte	0x1
 9053 0c04 52       		.byte	0x52
 9054 0c05 C8030000 		.4byte	.LVL139-.Ltext0
 9055 0c09 FA030000 		.4byte	.LVL145-.Ltext0
 9056 0c0d 0100     		.2byte	0x1
 9057 0c0f 57       		.byte	0x57
 9058 0c10 FA030000 		.4byte	.LVL145-.Ltext0
 9059 0c14 24040000 		.4byte	.LVL151-.Ltext0
 9060 0c18 0400     		.2byte	0x4
 9061 0c1a F3       		.byte	0xf3
 9062 0c1b 01       		.uleb128 0x1
 9063 0c1c 52       		.byte	0x52
 9064 0c1d 9F       		.byte	0x9f
 9065 0c1e 24040000 		.4byte	.LVL151-.Ltext0
 9066 0c22 2E040000 		.4byte	.LVL154-.Ltext0
 9067 0c26 0100     		.2byte	0x1
 9068 0c28 52       		.byte	0x52
 9069 0c29 2E040000 		.4byte	.LVL154-.Ltext0
 9070 0c2d 78040000 		.4byte	.LFE8-.Ltext0
 9071 0c31 0100     		.2byte	0x1
 9072 0c33 57       		.byte	0x57
 9073 0c34 00000000 		.4byte	0
 9074 0c38 00000000 		.4byte	0
 9075              	.LVUS50:
 9076 0c3c 00       		.uleb128 0
 9077 0c3d 00       		.uleb128 .LVU359
 9078 0c3e 00       		.uleb128 .LVU359
 9079 0c3f 00       		.uleb128 .LVU360
 9080 0c40 00       		.uleb128 .LVU360
 9081 0c41 00       		.uleb128 .LVU368
 9082 0c42 00       		.uleb128 .LVU368
 9083 0c43 00       		.uleb128 .LVU396
 9084 0c44 00       		.uleb128 .LVU396
 9085 0c45 00       		.uleb128 .LVU402
 9086 0c46 00       		.uleb128 .LVU402
 9087 0c47 00       		.uleb128 0
 9088              	.LLST50:
 9089 0c48 A8030000 		.4byte	.LVL133-.Ltext0
 9090 0c4c B6030000 		.4byte	.LVL134-.Ltext0
 9091 0c50 0100     		.2byte	0x1
 9092 0c52 53       		.byte	0x53
 9093 0c53 B6030000 		.4byte	.LVL134-.Ltext0
 9094 0c57 BC030000 		.4byte	.LVL135-.Ltext0
 9095 0c5b 0400     		.2byte	0x4
 9096 0c5d F3       		.byte	0xf3
 9097 0c5e 01       		.uleb128 0x1
 9098 0c5f 53       		.byte	0x53
 9099 0c60 9F       		.byte	0x9f
 9100 0c61 BC030000 		.4byte	.LVL135-.Ltext0
 9101 0c65 C6030000 		.4byte	.LVL138-.Ltext0
 9102 0c69 0100     		.2byte	0x1
 9103 0c6b 53       		.byte	0x53
ARM GAS  /var/folders/_2/qbh2zpt918qcm2b_6mgyydnm0000gn/T//ccIdySvu.s 			page 173


 9104 0c6c C6030000 		.4byte	.LVL138-.Ltext0
 9105 0c70 24040000 		.4byte	.LVL151-.Ltext0
 9106 0c74 0400     		.2byte	0x4
 9107 0c76 F3       		.byte	0xf3
 9108 0c77 01       		.uleb128 0x1
 9109 0c78 53       		.byte	0x53
 9110 0c79 9F       		.byte	0x9f
 9111 0c7a 24040000 		.4byte	.LVL151-.Ltext0
 9112 0c7e 2E040000 		.4byte	.LVL154-.Ltext0
 9113 0c82 0100     		.2byte	0x1
 9114 0c84 53       		.byte	0x53
 9115 0c85 2E040000 		.4byte	.LVL154-.Ltext0
 9116 0c89 78040000 		.4byte	.LFE8-.Ltext0
 9117 0c8d 0400     		.2byte	0x4
 9118 0c8f F3       		.byte	0xf3
 9119 0c90 01       		.uleb128 0x1
 9120 0c91 53       		.byte	0x53
 9121 0c92 9F       		.byte	0x9f
 9122 0c93 00000000 		.4byte	0
 9123 0c97 00000000 		.4byte	0
 9124              	.LVUS51:
 9125 0c9b 00       		.uleb128 .LVU362
 9126 0c9c 00       		.uleb128 .LVU392
 9127 0c9d 00       		.uleb128 .LVU399
 9128 0c9e 00       		.uleb128 0
 9129              	.LLST51:
 9130 0c9f C0030000 		.4byte	.LVL136-.Ltext0
 9131 0ca3 04040000 		.4byte	.LVL148-.Ltext0
 9132 0ca7 0100     		.2byte	0x1
 9133 0ca9 56       		.byte	0x56
 9134 0caa 28040000 		.4byte	.LVL152-.Ltext0
 9135 0cae 78040000 		.4byte	.LFE8-.Ltext0
 9136 0cb2 0100     		.2byte	0x1
 9137 0cb4 56       		.byte	0x56
 9138 0cb5 00000000 		.4byte	0
 9139 0cb9 00000000 		.4byte	0
 9140              	.LVUS52:
 9141 0cbd 03       		.uleb128 .LVU355
 9142 0cbe 00       		.uleb128 .LVU359
 9143 0cbf 00       		.uleb128 .LVU360
 9144 0cc0 00       		.uleb128 .LVU364
 9145 0cc1 00       		.uleb128 .LVU364
 9146 0cc2 00       		.uleb128 .LVU392
 9147 0cc3 00       		.uleb128 .LVU392
 9148 0cc4 00       		.uleb128 .LVU396
 9149 0cc5 00       		.uleb128 .LVU396
 9150 0cc6 00       		.uleb128 .LVU401
 9151 0cc7 00       		.uleb128 .LVU401
 9152 0cc8 00       		.uleb128 0
 9153              	.LLST52:
 9154 0cc9 A8030000 		.4byte	.LVL133-.Ltext0
 9155 0ccd B6030000 		.4byte	.LVL134-.Ltext0
 9156 0cd1 0200     		.2byte	0x2
 9157 0cd3 30       		.byte	0x30
 9158 0cd4 9F       		.byte	0x9f
 9159 0cd5 BC030000 		.4byte	.LVL135-.Ltext0
 9160 0cd9 C4030000 		.4byte	.LVL137-.Ltext0
ARM GAS  /var/folders/_2/qbh2zpt918qcm2b_6mgyydnm0000gn/T//ccIdySvu.s 			page 174


 9161 0cdd 0200     		.2byte	0x2
 9162 0cdf 30       		.byte	0x30
 9163 0ce0 9F       		.byte	0x9f
 9164 0ce1 C4030000 		.4byte	.LVL137-.Ltext0
 9165 0ce5 04040000 		.4byte	.LVL148-.Ltext0
 9166 0ce9 0100     		.2byte	0x1
 9167 0ceb 54       		.byte	0x54
 9168 0cec 04040000 		.4byte	.LVL148-.Ltext0
 9169 0cf0 24040000 		.4byte	.LVL151-.Ltext0
 9170 0cf4 0400     		.2byte	0x4
 9171 0cf6 76       		.byte	0x76
 9172 0cf7 947F     		.sleb128 -108
 9173 0cf9 9F       		.byte	0x9f
 9174 0cfa 24040000 		.4byte	.LVL151-.Ltext0
 9175 0cfe 2C040000 		.4byte	.LVL153-.Ltext0
 9176 0d02 0200     		.2byte	0x2
 9177 0d04 30       		.byte	0x30
 9178 0d05 9F       		.byte	0x9f
 9179 0d06 2C040000 		.4byte	.LVL153-.Ltext0
 9180 0d0a 78040000 		.4byte	.LFE8-.Ltext0
 9181 0d0e 0100     		.2byte	0x1
 9182 0d10 54       		.byte	0x54
 9183 0d11 00000000 		.4byte	0
 9184 0d15 00000000 		.4byte	0
 9185              	.LVUS53:
 9186 0d19 00       		.uleb128 .LVU370
 9187 0d1a 00       		.uleb128 .LVU391
 9188 0d1b 00       		.uleb128 .LVU402
 9189 0d1c 00       		.uleb128 0
 9190              	.LLST53:
 9191 0d1d CC030000 		.4byte	.LVL140-.Ltext0
 9192 0d21 00040000 		.4byte	.LVL147-.Ltext0
 9193 0d25 1500     		.2byte	0x15
 9194 0d27 F4       		.byte	0xf4
 9195 0d28 2C       		.uleb128 0x2c
 9196 0d29 08       		.byte	0x8
 9197 0d2a 00000000 		.4byte	0
 9198 0d2e 80841E41 		.4byte	0x411e8480
 9199 0d32 78       		.byte	0x78
 9200 0d33 00       		.sleb128 0
 9201 0d34 F7       		.byte	0xf7
 9202 0d35 33       		.uleb128 0x33
 9203 0d36 F7       		.byte	0xf7
 9204 0d37 2C       		.uleb128 0x2c
 9205 0d38 1B       		.byte	0x1b
 9206 0d39 F7       		.byte	0xf7
 9207 0d3a 33       		.uleb128 0x33
 9208 0d3b 9F       		.byte	0x9f
 9209 0d3c 2E040000 		.4byte	.LVL154-.Ltext0
 9210 0d40 78040000 		.4byte	.LFE8-.Ltext0
 9211 0d44 1500     		.2byte	0x15
 9212 0d46 F4       		.byte	0xf4
 9213 0d47 2C       		.uleb128 0x2c
 9214 0d48 08       		.byte	0x8
 9215 0d49 00000000 		.4byte	0
 9216 0d4d 80841E41 		.4byte	0x411e8480
 9217 0d51 78       		.byte	0x78
ARM GAS  /var/folders/_2/qbh2zpt918qcm2b_6mgyydnm0000gn/T//ccIdySvu.s 			page 175


 9218 0d52 00       		.sleb128 0
 9219 0d53 F7       		.byte	0xf7
 9220 0d54 33       		.uleb128 0x33
 9221 0d55 F7       		.byte	0xf7
 9222 0d56 2C       		.uleb128 0x2c
 9223 0d57 1B       		.byte	0x1b
 9224 0d58 F7       		.byte	0xf7
 9225 0d59 33       		.uleb128 0x33
 9226 0d5a 9F       		.byte	0x9f
 9227 0d5b 00000000 		.4byte	0
 9228 0d5f 00000000 		.4byte	0
 9229              	.LVUS54:
 9230 0d63 01       		.uleb128 .LVU371
 9231 0d64 00       		.uleb128 .LVU391
 9232 0d65 00       		.uleb128 .LVU402
 9233 0d66 00       		.uleb128 0
 9234              	.LLST54:
 9235 0d67 CC030000 		.4byte	.LVL140-.Ltext0
 9236 0d6b 00040000 		.4byte	.LVL147-.Ltext0
 9237 0d6f 0F00     		.2byte	0xf
 9238 0d71 78       		.byte	0x78
 9239 0d72 00       		.sleb128 0
 9240 0d73 F7       		.byte	0xf7
 9241 0d74 33       		.uleb128 0x33
 9242 0d75 F7       		.byte	0xf7
 9243 0d76 25       		.uleb128 0x25
 9244 0d77 F4       		.byte	0xf4
 9245 0d78 25       		.uleb128 0x25
 9246 0d79 04       		.byte	0x4
 9247 0d7a BD378635 		.4byte	0x358637bd
 9248 0d7e 1E       		.byte	0x1e
 9249 0d7f 9F       		.byte	0x9f
 9250 0d80 2E040000 		.4byte	.LVL154-.Ltext0
 9251 0d84 78040000 		.4byte	.LFE8-.Ltext0
 9252 0d88 0F00     		.2byte	0xf
 9253 0d8a 78       		.byte	0x78
 9254 0d8b 00       		.sleb128 0
 9255 0d8c F7       		.byte	0xf7
 9256 0d8d 33       		.uleb128 0x33
 9257 0d8e F7       		.byte	0xf7
 9258 0d8f 25       		.uleb128 0x25
 9259 0d90 F4       		.byte	0xf4
 9260 0d91 25       		.uleb128 0x25
 9261 0d92 04       		.byte	0x4
 9262 0d93 BD378635 		.4byte	0x358637bd
 9263 0d97 1E       		.byte	0x1e
 9264 0d98 9F       		.byte	0x9f
 9265 0d99 00000000 		.4byte	0
 9266 0d9d 00000000 		.4byte	0
 9267              	.LVUS56:
 9268 0da1 02       		.uleb128 .LVU409
 9269 0da2 02       		.uleb128 .LVU418
 9270 0da3 02       		.uleb128 .LVU418
 9271 0da4 02       		.uleb128 .LVU427
 9272 0da5 02       		.uleb128 .LVU427
 9273 0da6 02       		.uleb128 .LVU436
 9274 0da7 02       		.uleb128 .LVU436
ARM GAS  /var/folders/_2/qbh2zpt918qcm2b_6mgyydnm0000gn/T//ccIdySvu.s 			page 176


 9275 0da8 00       		.uleb128 0
 9276              	.LLST56:
 9277 0da9 46040000 		.4byte	.LVL158-.Ltext0
 9278 0dad 4C040000 		.4byte	.LVL159-.Ltext0
 9279 0db1 0200     		.2byte	0x2
 9280 0db3 30       		.byte	0x30
 9281 0db4 9F       		.byte	0x9f
 9282 0db5 4C040000 		.4byte	.LVL159-.Ltext0
 9283 0db9 50040000 		.4byte	.LVL160-.Ltext0
 9284 0dbd 0200     		.2byte	0x2
 9285 0dbf 31       		.byte	0x31
 9286 0dc0 9F       		.byte	0x9f
 9287 0dc1 50040000 		.4byte	.LVL160-.Ltext0
 9288 0dc5 54040000 		.4byte	.LVL161-.Ltext0
 9289 0dc9 0200     		.2byte	0x2
 9290 0dcb 32       		.byte	0x32
 9291 0dcc 9F       		.byte	0x9f
 9292 0dcd 54040000 		.4byte	.LVL161-.Ltext0
 9293 0dd1 78040000 		.4byte	.LFE8-.Ltext0
 9294 0dd5 0200     		.2byte	0x2
 9295 0dd7 33       		.byte	0x33
 9296 0dd8 9F       		.byte	0x9f
 9297 0dd9 00000000 		.4byte	0
 9298 0ddd 00000000 		.4byte	0
 9299              	.LVUS57:
 9300 0de1 04       		.uleb128 .LVU411
 9301 0de2 00       		.uleb128 .LVU416
 9302 0de3 04       		.uleb128 .LVU420
 9303 0de4 00       		.uleb128 .LVU425
 9304 0de5 04       		.uleb128 .LVU429
 9305 0de6 00       		.uleb128 .LVU434
 9306              	.LLST57:
 9307 0de7 46040000 		.4byte	.LVL158-.Ltext0
 9308 0deb 4C040000 		.4byte	.LVL159-.Ltext0
 9309 0def 0100     		.2byte	0x1
 9310 0df1 54       		.byte	0x54
 9311 0df2 4C040000 		.4byte	.LVL159-.Ltext0
 9312 0df6 50040000 		.4byte	.LVL160-.Ltext0
 9313 0dfa 0300     		.2byte	0x3
 9314 0dfc 74       		.byte	0x74
 9315 0dfd 24       		.sleb128 36
 9316 0dfe 9F       		.byte	0x9f
 9317 0dff 50040000 		.4byte	.LVL160-.Ltext0
 9318 0e03 54040000 		.4byte	.LVL161-.Ltext0
 9319 0e07 0400     		.2byte	0x4
 9320 0e09 74       		.byte	0x74
 9321 0e0a C800     		.sleb128 72
 9322 0e0c 9F       		.byte	0x9f
 9323 0e0d 00000000 		.4byte	0
 9324 0e11 00000000 		.4byte	0
 9325              	.LVUS55:
 9326 0e15 02       		.uleb128 .LVU389
 9327 0e16 00       		.uleb128 .LVU392
 9328              	.LLST55:
 9329 0e17 FC030000 		.4byte	.LVL146-.Ltext0
 9330 0e1b 04040000 		.4byte	.LVL148-.Ltext0
 9331 0e1f 0200     		.2byte	0x2
ARM GAS  /var/folders/_2/qbh2zpt918qcm2b_6mgyydnm0000gn/T//ccIdySvu.s 			page 177


 9332 0e21 30       		.byte	0x30
 9333 0e22 9F       		.byte	0x9f
 9334 0e23 00000000 		.4byte	0
 9335 0e27 00000000 		.4byte	0
 9336              	.LLST40:
 9337 0e2b 78030000 		.4byte	.LFB7-.Ltext0
 9338 0e2f 7C030000 		.4byte	.LCFI11-.Ltext0
 9339 0e33 0200     		.2byte	0x2
 9340 0e35 7D       		.byte	0x7d
 9341 0e36 00       		.sleb128 0
 9342 0e37 7C030000 		.4byte	.LCFI11-.Ltext0
 9343 0e3b A4030000 		.4byte	.LCFI12-.Ltext0
 9344 0e3f 0200     		.2byte	0x2
 9345 0e41 7D       		.byte	0x7d
 9346 0e42 28       		.sleb128 40
 9347 0e43 A4030000 		.4byte	.LCFI12-.Ltext0
 9348 0e47 A8030000 		.4byte	.LFE7-.Ltext0
 9349 0e4b 0200     		.2byte	0x2
 9350 0e4d 7D       		.byte	0x7d
 9351 0e4e 1C       		.sleb128 28
 9352 0e4f 00000000 		.4byte	0
 9353 0e53 00000000 		.4byte	0
 9354              	.LVUS41:
 9355 0e57 00       		.uleb128 0
 9356 0e58 00       		.uleb128 .LVU346
 9357 0e59 00       		.uleb128 .LVU346
 9358 0e5a 00       		.uleb128 0
 9359              	.LLST41:
 9360 0e5b 78030000 		.4byte	.LVL130-.Ltext0
 9361 0e5f 8C030000 		.4byte	.LVL131-.Ltext0
 9362 0e63 0100     		.2byte	0x1
 9363 0e65 50       		.byte	0x50
 9364 0e66 8C030000 		.4byte	.LVL131-.Ltext0
 9365 0e6a A8030000 		.4byte	.LFE7-.Ltext0
 9366 0e6e 0400     		.2byte	0x4
 9367 0e70 78       		.byte	0x78
 9368 0e71 947F     		.sleb128 -108
 9369 0e73 9F       		.byte	0x9f
 9370 0e74 00000000 		.4byte	0
 9371 0e78 00000000 		.4byte	0
 9372              	.LVUS42:
 9373 0e7c 00       		.uleb128 0
 9374 0e7d 00       		.uleb128 .LVU346
 9375 0e7e 00       		.uleb128 .LVU346
 9376 0e7f 00       		.uleb128 0
 9377              	.LLST42:
 9378 0e80 78030000 		.4byte	.LVL130-.Ltext0
 9379 0e84 8C030000 		.4byte	.LVL131-.Ltext0
 9380 0e88 0100     		.2byte	0x1
 9381 0e8a 51       		.byte	0x51
 9382 0e8b 8C030000 		.4byte	.LVL131-.Ltext0
 9383 0e8f A8030000 		.4byte	.LFE7-.Ltext0
 9384 0e93 0100     		.2byte	0x1
 9385 0e95 55       		.byte	0x55
 9386 0e96 00000000 		.4byte	0
 9387 0e9a 00000000 		.4byte	0
 9388              	.LVUS43:
ARM GAS  /var/folders/_2/qbh2zpt918qcm2b_6mgyydnm0000gn/T//ccIdySvu.s 			page 178


 9389 0e9e 00       		.uleb128 0
 9390 0e9f 00       		.uleb128 .LVU346
 9391 0ea0 00       		.uleb128 .LVU346
 9392 0ea1 00       		.uleb128 0
 9393              	.LLST43:
 9394 0ea2 78030000 		.4byte	.LVL130-.Ltext0
 9395 0ea6 8C030000 		.4byte	.LVL131-.Ltext0
 9396 0eaa 0100     		.2byte	0x1
 9397 0eac 52       		.byte	0x52
 9398 0ead 8C030000 		.4byte	.LVL131-.Ltext0
 9399 0eb1 A8030000 		.4byte	.LFE7-.Ltext0
 9400 0eb5 0400     		.2byte	0x4
 9401 0eb7 F3       		.byte	0xf3
 9402 0eb8 01       		.uleb128 0x1
 9403 0eb9 52       		.byte	0x52
 9404 0eba 9F       		.byte	0x9f
 9405 0ebb 00000000 		.4byte	0
 9406 0ebf 00000000 		.4byte	0
 9407              	.LVUS44:
 9408 0ec3 00       		.uleb128 0
 9409 0ec4 00       		.uleb128 .LVU346
 9410 0ec5 00       		.uleb128 .LVU346
 9411 0ec6 00       		.uleb128 0
 9412              	.LLST44:
 9413 0ec7 78030000 		.4byte	.LVL130-.Ltext0
 9414 0ecb 8C030000 		.4byte	.LVL131-.Ltext0
 9415 0ecf 0100     		.2byte	0x1
 9416 0ed1 53       		.byte	0x53
 9417 0ed2 8C030000 		.4byte	.LVL131-.Ltext0
 9418 0ed6 A8030000 		.4byte	.LFE7-.Ltext0
 9419 0eda 0100     		.2byte	0x1
 9420 0edc 57       		.byte	0x57
 9421 0edd 00000000 		.4byte	0
 9422 0ee1 00000000 		.4byte	0
 9423              	.LVUS45:
 9424 0ee5 03       		.uleb128 .LVU343
 9425 0ee6 00       		.uleb128 .LVU346
 9426              	.LLST45:
 9427 0ee7 78030000 		.4byte	.LVL130-.Ltext0
 9428 0eeb 8C030000 		.4byte	.LVL131-.Ltext0
 9429 0eef 0200     		.2byte	0x2
 9430 0ef1 30       		.byte	0x30
 9431 0ef2 9F       		.byte	0x9f
 9432 0ef3 00000000 		.4byte	0
 9433 0ef7 00000000 		.4byte	0
 9434              	.LLST35:
 9435 0efb D8020000 		.4byte	.LFB6-.Ltext0
 9436 0eff DE020000 		.4byte	.LCFI8-.Ltext0
 9437 0f03 0200     		.2byte	0x2
 9438 0f05 7D       		.byte	0x7d
 9439 0f06 00       		.sleb128 0
 9440 0f07 DE020000 		.4byte	.LCFI8-.Ltext0
 9441 0f0b F2020000 		.4byte	.LCFI9-.Ltext0
 9442 0f0f 0200     		.2byte	0x2
 9443 0f11 7D       		.byte	0x7d
 9444 0f12 28       		.sleb128 40
 9445 0f13 F2020000 		.4byte	.LCFI9-.Ltext0
ARM GAS  /var/folders/_2/qbh2zpt918qcm2b_6mgyydnm0000gn/T//ccIdySvu.s 			page 179


 9446 0f17 F6020000 		.4byte	.LCFI10-.Ltext0
 9447 0f1b 0200     		.2byte	0x2
 9448 0f1d 7D       		.byte	0x7d
 9449 0f1e 1C       		.sleb128 28
 9450 0f1f F6020000 		.4byte	.LCFI10-.Ltext0
 9451 0f23 78030000 		.4byte	.LFE6-.Ltext0
 9452 0f27 0200     		.2byte	0x2
 9453 0f29 7D       		.byte	0x7d
 9454 0f2a 28       		.sleb128 40
 9455 0f2b 00000000 		.4byte	0
 9456 0f2f 00000000 		.4byte	0
 9457              	.LVUS36:
 9458 0f33 00       		.uleb128 0
 9459 0f34 00       		.uleb128 .LVU288
 9460 0f35 00       		.uleb128 .LVU288
 9461 0f36 00       		.uleb128 .LVU289
 9462 0f37 00       		.uleb128 .LVU289
 9463 0f38 00       		.uleb128 .LVU296
 9464 0f39 00       		.uleb128 .LVU296
 9465 0f3a 00       		.uleb128 .LVU324
 9466 0f3b 00       		.uleb128 .LVU324
 9467 0f3c 00       		.uleb128 .LVU334
 9468 0f3d 00       		.uleb128 .LVU334
 9469 0f3e 00       		.uleb128 0
 9470              	.LLST36:
 9471 0f3f D8020000 		.4byte	.LVL113-.Ltext0
 9472 0f43 F0020000 		.4byte	.LVL114-.Ltext0
 9473 0f47 0100     		.2byte	0x1
 9474 0f49 50       		.byte	0x50
 9475 0f4a F0020000 		.4byte	.LVL114-.Ltext0
 9476 0f4e F6020000 		.4byte	.LVL115-.Ltext0
 9477 0f52 0400     		.2byte	0x4
 9478 0f54 F3       		.byte	0xf3
 9479 0f55 01       		.uleb128 0x1
 9480 0f56 50       		.byte	0x50
 9481 0f57 9F       		.byte	0x9f
 9482 0f58 F6020000 		.4byte	.LVL115-.Ltext0
 9483 0f5c FE020000 		.4byte	.LVL117-.Ltext0
 9484 0f60 0100     		.2byte	0x1
 9485 0f62 50       		.byte	0x50
 9486 0f63 FE020000 		.4byte	.LVL117-.Ltext0
 9487 0f67 22030000 		.4byte	.LVL124-.Ltext0
 9488 0f6b 0400     		.2byte	0x4
 9489 0f6d F3       		.byte	0xf3
 9490 0f6e 01       		.uleb128 0x1
 9491 0f6f 50       		.byte	0x50
 9492 0f70 9F       		.byte	0x9f
 9493 0f71 22030000 		.4byte	.LVL124-.Ltext0
 9494 0f75 32030000 		.4byte	.LVL126-.Ltext0
 9495 0f79 0100     		.2byte	0x1
 9496 0f7b 50       		.byte	0x50
 9497 0f7c 32030000 		.4byte	.LVL126-.Ltext0
 9498 0f80 78030000 		.4byte	.LFE6-.Ltext0
 9499 0f84 0400     		.2byte	0x4
 9500 0f86 F3       		.byte	0xf3
 9501 0f87 01       		.uleb128 0x1
 9502 0f88 50       		.byte	0x50
ARM GAS  /var/folders/_2/qbh2zpt918qcm2b_6mgyydnm0000gn/T//ccIdySvu.s 			page 180


 9503 0f89 9F       		.byte	0x9f
 9504 0f8a 00000000 		.4byte	0
 9505 0f8e 00000000 		.4byte	0
 9506              	.LVUS37:
 9507 0f92 02       		.uleb128 .LVU293
 9508 0f93 02       		.uleb128 .LVU305
 9509 0f94 02       		.uleb128 .LVU305
 9510 0f95 02       		.uleb128 .LVU314
 9511 0f96 02       		.uleb128 .LVU314
 9512 0f97 02       		.uleb128 .LVU323
 9513 0f98 02       		.uleb128 .LVU323
 9514 0f99 00       		.uleb128 .LVU324
 9515              	.LLST37:
 9516 0f9a FA020000 		.4byte	.LVL116-.Ltext0
 9517 0f9e 18030000 		.4byte	.LVL121-.Ltext0
 9518 0fa2 0200     		.2byte	0x2
 9519 0fa4 30       		.byte	0x30
 9520 0fa5 9F       		.byte	0x9f
 9521 0fa6 18030000 		.4byte	.LVL121-.Ltext0
 9522 0faa 1C030000 		.4byte	.LVL122-.Ltext0
 9523 0fae 0200     		.2byte	0x2
 9524 0fb0 31       		.byte	0x31
 9525 0fb1 9F       		.byte	0x9f
 9526 0fb2 1C030000 		.4byte	.LVL122-.Ltext0
 9527 0fb6 20030000 		.4byte	.LVL123-.Ltext0
 9528 0fba 0200     		.2byte	0x2
 9529 0fbc 32       		.byte	0x32
 9530 0fbd 9F       		.byte	0x9f
 9531 0fbe 20030000 		.4byte	.LVL123-.Ltext0
 9532 0fc2 22030000 		.4byte	.LVL124-.Ltext0
 9533 0fc6 0200     		.2byte	0x2
 9534 0fc8 33       		.byte	0x33
 9535 0fc9 9F       		.byte	0x9f
 9536 0fca 00000000 		.4byte	0
 9537 0fce 00000000 		.4byte	0
 9538              	.LVUS38:
 9539 0fd2 01       		.uleb128 .LVU298
 9540 0fd3 00       		.uleb128 .LVU303
 9541 0fd4 04       		.uleb128 .LVU307
 9542 0fd5 00       		.uleb128 .LVU312
 9543 0fd6 04       		.uleb128 .LVU316
 9544 0fd7 00       		.uleb128 .LVU321
 9545              	.LLST38:
 9546 0fd8 10030000 		.4byte	.LVL120-.Ltext0
 9547 0fdc 18030000 		.4byte	.LVL121-.Ltext0
 9548 0fe0 0600     		.2byte	0x6
 9549 0fe2 03       		.byte	0x3
 9550 0fe3 00000000 		.4byte	dtermLowpass
 9551 0fe7 9F       		.byte	0x9f
 9552 0fe8 18030000 		.4byte	.LVL121-.Ltext0
 9553 0fec 1C030000 		.4byte	.LVL122-.Ltext0
 9554 0ff0 0600     		.2byte	0x6
 9555 0ff2 03       		.byte	0x3
 9556 0ff3 24000000 		.4byte	dtermLowpass+36
 9557 0ff7 9F       		.byte	0x9f
 9558 0ff8 1C030000 		.4byte	.LVL122-.Ltext0
 9559 0ffc 20030000 		.4byte	.LVL123-.Ltext0
ARM GAS  /var/folders/_2/qbh2zpt918qcm2b_6mgyydnm0000gn/T//ccIdySvu.s 			page 181


 9560 1000 0600     		.2byte	0x6
 9561 1002 03       		.byte	0x3
 9562 1003 48000000 		.4byte	dtermLowpass+72
 9563 1007 9F       		.byte	0x9f
 9564 1008 00000000 		.4byte	0
 9565 100c 00000000 		.4byte	0
 9566              	.LVUS39:
 9567 1010 02       		.uleb128 .LVU331
 9568 1011 00       		.uleb128 .LVU334
 9569 1012 00       		.uleb128 .LVU334
 9570 1013 00       		.uleb128 .LVU336
 9571 1014 00       		.uleb128 .LVU336
 9572 1015 01       		.uleb128 .LVU338
 9573 1016 01       		.uleb128 .LVU338
 9574 1017 00       		.uleb128 0
 9575              	.LLST39:
 9576 1018 2E030000 		.4byte	.LVL125-.Ltext0
 9577 101c 32030000 		.4byte	.LVL126-.Ltext0
 9578 1020 0200     		.2byte	0x2
 9579 1022 30       		.byte	0x30
 9580 1023 9F       		.byte	0x9f
 9581 1024 32030000 		.4byte	.LVL126-.Ltext0
 9582 1028 3A030000 		.4byte	.LVL128-.Ltext0
 9583 102c 0100     		.2byte	0x1
 9584 102e 54       		.byte	0x54
 9585 102f 3A030000 		.4byte	.LVL128-.Ltext0
 9586 1033 4A030000 		.4byte	.LVL129-.Ltext0
 9587 1037 0300     		.2byte	0x3
 9588 1039 74       		.byte	0x74
 9589 103a 7F       		.sleb128 -1
 9590 103b 9F       		.byte	0x9f
 9591 103c 4A030000 		.4byte	.LVL129-.Ltext0
 9592 1040 78030000 		.4byte	.LFE6-.Ltext0
 9593 1044 0100     		.2byte	0x1
 9594 1046 54       		.byte	0x54
 9595 1047 00000000 		.4byte	0
 9596 104b 00000000 		.4byte	0
 9597              	.LLST16:
 9598 104f 24010000 		.4byte	.LFB5-.Ltext0
 9599 1053 2A010000 		.4byte	.LCFI4-.Ltext0
 9600 1057 0200     		.2byte	0x2
 9601 1059 7D       		.byte	0x7d
 9602 105a 00       		.sleb128 0
 9603 105b 2A010000 		.4byte	.LCFI4-.Ltext0
 9604 105f 7C010000 		.4byte	.LFE5-.Ltext0
 9605 1063 0200     		.2byte	0x2
 9606 1065 7D       		.byte	0x7d
 9607 1066 08       		.sleb128 8
 9608 1067 00000000 		.4byte	0
 9609 106b 00000000 		.4byte	0
 9610              	.LVUS17:
 9611 106f 02       		.uleb128 .LVU109
 9612 1070 02       		.uleb128 .LVU120
 9613 1071 02       		.uleb128 .LVU120
 9614 1072 02       		.uleb128 .LVU129
 9615 1073 02       		.uleb128 .LVU129
 9616 1074 02       		.uleb128 .LVU138
ARM GAS  /var/folders/_2/qbh2zpt918qcm2b_6mgyydnm0000gn/T//ccIdySvu.s 			page 182


 9617 1075 02       		.uleb128 .LVU138
 9618 1076 05       		.uleb128 .LVU141
 9619              	.LLST17:
 9620 1077 36010000 		.4byte	.LVL43-.Ltext0
 9621 107b 54010000 		.4byte	.LVL47-.Ltext0
 9622 107f 0200     		.2byte	0x2
 9623 1081 30       		.byte	0x30
 9624 1082 9F       		.byte	0x9f
 9625 1083 54010000 		.4byte	.LVL47-.Ltext0
 9626 1087 58010000 		.4byte	.LVL48-.Ltext0
 9627 108b 0200     		.2byte	0x2
 9628 108d 31       		.byte	0x31
 9629 108e 9F       		.byte	0x9f
 9630 108f 58010000 		.4byte	.LVL48-.Ltext0
 9631 1093 5C010000 		.4byte	.LVL49-.Ltext0
 9632 1097 0200     		.2byte	0x2
 9633 1099 32       		.byte	0x32
 9634 109a 9F       		.byte	0x9f
 9635 109b 5C010000 		.4byte	.LVL49-.Ltext0
 9636 109f 5C010000 		.4byte	.LVL49-.Ltext0
 9637 10a3 0200     		.2byte	0x2
 9638 10a5 33       		.byte	0x33
 9639 10a6 9F       		.byte	0x9f
 9640 10a7 00000000 		.4byte	0
 9641 10ab 00000000 		.4byte	0
 9642              	.LVUS18:
 9643 10af 01       		.uleb128 .LVU113
 9644 10b0 00       		.uleb128 .LVU118
 9645 10b1 04       		.uleb128 .LVU122
 9646 10b2 00       		.uleb128 .LVU127
 9647 10b3 04       		.uleb128 .LVU131
 9648 10b4 00       		.uleb128 .LVU136
 9649              	.LLST18:
 9650 10b5 4C010000 		.4byte	.LVL46-.Ltext0
 9651 10b9 54010000 		.4byte	.LVL47-.Ltext0
 9652 10bd 0600     		.2byte	0x6
 9653 10bf 03       		.byte	0x3
 9654 10c0 00000000 		.4byte	dtermPT1
 9655 10c4 9F       		.byte	0x9f
 9656 10c5 54010000 		.4byte	.LVL47-.Ltext0
 9657 10c9 58010000 		.4byte	.LVL48-.Ltext0
 9658 10cd 0600     		.2byte	0x6
 9659 10cf 03       		.byte	0x3
 9660 10d0 08000000 		.4byte	dtermPT1+8
 9661 10d4 9F       		.byte	0x9f
 9662 10d5 58010000 		.4byte	.LVL48-.Ltext0
 9663 10d9 5C010000 		.4byte	.LVL49-.Ltext0
 9664 10dd 0600     		.2byte	0x6
 9665 10df 03       		.byte	0x3
 9666 10e0 10000000 		.4byte	dtermPT1+16
 9667 10e4 9F       		.byte	0x9f
 9668 10e5 00000000 		.4byte	0
 9669 10e9 00000000 		.4byte	0
 9670              	.LLST71:
 9671 10ed 44050000 		.4byte	.LFB4-.Ltext0
 9672 10f1 46050000 		.4byte	.LCFI20-.Ltext0
 9673 10f5 0200     		.2byte	0x2
ARM GAS  /var/folders/_2/qbh2zpt918qcm2b_6mgyydnm0000gn/T//ccIdySvu.s 			page 183


 9674 10f7 7D       		.byte	0x7d
 9675 10f8 00       		.sleb128 0
 9676 10f9 46050000 		.4byte	.LCFI20-.Ltext0
 9677 10fd A6050000 		.4byte	.LCFI21-.Ltext0
 9678 1101 0200     		.2byte	0x2
 9679 1103 7D       		.byte	0x7d
 9680 1104 20       		.sleb128 32
 9681 1105 A6050000 		.4byte	.LCFI21-.Ltext0
 9682 1109 C8050000 		.4byte	.LFE4-.Ltext0
 9683 110d 0200     		.2byte	0x2
 9684 110f 7D       		.byte	0x7d
 9685 1110 14       		.sleb128 20
 9686 1111 00000000 		.4byte	0
 9687 1115 00000000 		.4byte	0
 9688              	.LVUS72:
 9689 1119 00       		.uleb128 .LVU512
 9690 111a 00       		.uleb128 .LVU516
 9691              	.LLST72:
 9692 111b 5C050000 		.4byte	.LVL183-.Ltext0
 9693 111f 63050000 		.4byte	.LVL184-1-.Ltext0
 9694 1123 0100     		.2byte	0x1
 9695 1125 50       		.byte	0x50
 9696 1126 00000000 		.4byte	0
 9697 112a 00000000 		.4byte	0
 9698              	.LVUS73:
 9699 112e 00       		.uleb128 .LVU519
 9700 112f 00       		.uleb128 .LVU523
 9701 1130 00       		.uleb128 .LVU523
 9702 1131 00       		.uleb128 .LVU524
 9703 1132 00       		.uleb128 .LVU524
 9704 1133 04       		.uleb128 .LVU534
 9705              	.LLST73:
 9706 1134 7A050000 		.4byte	.LVL187-.Ltext0
 9707 1138 80050000 		.4byte	.LVL188-.Ltext0
 9708 113c 0100     		.2byte	0x1
 9709 113e 50       		.byte	0x50
 9710 113f 80050000 		.4byte	.LVL188-.Ltext0
 9711 1143 87050000 		.4byte	.LVL189-1-.Ltext0
 9712 1147 0100     		.2byte	0x1
 9713 1149 53       		.byte	0x53
 9714 114a 87050000 		.4byte	.LVL189-1-.Ltext0
 9715 114e A4050000 		.4byte	.LVL191-.Ltext0
 9716 1152 0100     		.2byte	0x1
 9717 1154 55       		.byte	0x55
 9718 1155 00000000 		.4byte	0
 9719 1159 00000000 		.4byte	0
 9720              	.LVUS74:
 9721 115d 02       		.uleb128 .LVU521
 9722 115e 01       		.uleb128 .LVU525
 9723 115f 01       		.uleb128 .LVU525
 9724 1160 01       		.uleb128 .LVU528
 9725 1161 01       		.uleb128 .LVU528
 9726 1162 01       		.uleb128 .LVU531
 9727 1163 01       		.uleb128 .LVU531
 9728 1164 04       		.uleb128 .LVU534
 9729              	.LLST74:
 9730 1165 7A050000 		.4byte	.LVL187-.Ltext0
ARM GAS  /var/folders/_2/qbh2zpt918qcm2b_6mgyydnm0000gn/T//ccIdySvu.s 			page 184


 9731 1169 88050000 		.4byte	.LVL189-.Ltext0
 9732 116d 0200     		.2byte	0x2
 9733 116f 30       		.byte	0x30
 9734 1170 9F       		.byte	0x9f
 9735 1171 88050000 		.4byte	.LVL189-.Ltext0
 9736 1175 96050000 		.4byte	.LVL190-.Ltext0
 9737 1179 0200     		.2byte	0x2
 9738 117b 31       		.byte	0x31
 9739 117c 9F       		.byte	0x9f
 9740 117d 96050000 		.4byte	.LVL190-.Ltext0
 9741 1181 A4050000 		.4byte	.LVL191-.Ltext0
 9742 1185 0200     		.2byte	0x2
 9743 1187 32       		.byte	0x32
 9744 1188 9F       		.byte	0x9f
 9745 1189 A4050000 		.4byte	.LVL191-.Ltext0
 9746 118d A4050000 		.4byte	.LVL191-.Ltext0
 9747 1191 0200     		.2byte	0x2
 9748 1193 33       		.byte	0x33
 9749 1194 9F       		.byte	0x9f
 9750 1195 00000000 		.4byte	0
 9751 1199 00000000 		.4byte	0
 9752              	.LLST87:
 9753 119d A8060000 		.4byte	.LFB3-.Ltext0
 9754 11a1 AA060000 		.4byte	.LCFI26-.Ltext0
 9755 11a5 0200     		.2byte	0x2
 9756 11a7 7D       		.byte	0x7d
 9757 11a8 00       		.sleb128 0
 9758 11a9 AA060000 		.4byte	.LCFI26-.Ltext0
 9759 11ad DE060000 		.4byte	.LCFI27-.Ltext0
 9760 11b1 0200     		.2byte	0x2
 9761 11b3 7D       		.byte	0x7d
 9762 11b4 10       		.sleb128 16
 9763 11b5 DE060000 		.4byte	.LCFI27-.Ltext0
 9764 11b9 E8060000 		.4byte	.LFE3-.Ltext0
 9765 11bd 0200     		.2byte	0x2
 9766 11bf 7D       		.byte	0x7d
 9767 11c0 00       		.sleb128 0
 9768 11c1 00000000 		.4byte	0
 9769 11c5 00000000 		.4byte	0
 9770              	.LVUS88:
 9771 11c9 00       		.uleb128 0
 9772 11ca 00       		.uleb128 .LVU601
 9773 11cb 00       		.uleb128 .LVU601
 9774 11cc 00       		.uleb128 .LVU606
 9775 11cd 00       		.uleb128 .LVU606
 9776 11ce 00       		.uleb128 .LVU607
 9777 11cf 00       		.uleb128 .LVU607
 9778 11d0 00       		.uleb128 0
 9779              	.LLST88:
 9780 11d1 A8060000 		.4byte	.LVL216-.Ltext0
 9781 11d5 B7060000 		.4byte	.LVL217-1-.Ltext0
 9782 11d9 0100     		.2byte	0x1
 9783 11db 50       		.byte	0x50
 9784 11dc B7060000 		.4byte	.LVL217-1-.Ltext0
 9785 11e0 DE060000 		.4byte	.LVL221-.Ltext0
 9786 11e4 0100     		.2byte	0x1
 9787 11e6 55       		.byte	0x55
ARM GAS  /var/folders/_2/qbh2zpt918qcm2b_6mgyydnm0000gn/T//ccIdySvu.s 			page 185


 9788 11e7 DE060000 		.4byte	.LVL221-.Ltext0
 9789 11eb E1060000 		.4byte	.LVL222-1-.Ltext0
 9790 11ef 0100     		.2byte	0x1
 9791 11f1 50       		.byte	0x50
 9792 11f2 E1060000 		.4byte	.LVL222-1-.Ltext0
 9793 11f6 E8060000 		.4byte	.LFE3-.Ltext0
 9794 11fa 0400     		.2byte	0x4
 9795 11fc F3       		.byte	0xf3
 9796 11fd 01       		.uleb128 0x1
 9797 11fe 50       		.byte	0x50
 9798 11ff 9F       		.byte	0x9f
 9799 1200 00000000 		.4byte	0
 9800 1204 00000000 		.4byte	0
 9801              	.LLST58:
 9802 1208 78040000 		.4byte	.LFB17-.Ltext0
 9803 120c 7C040000 		.4byte	.LCFI16-.Ltext0
 9804 1210 0200     		.2byte	0x2
 9805 1212 7D       		.byte	0x7d
 9806 1213 00       		.sleb128 0
 9807 1214 7C040000 		.4byte	.LCFI16-.Ltext0
 9808 1218 B6040000 		.4byte	.LCFI17-.Ltext0
 9809 121c 0200     		.2byte	0x2
 9810 121e 7D       		.byte	0x7d
 9811 121f 20       		.sleb128 32
 9812 1220 B6040000 		.4byte	.LCFI17-.Ltext0
 9813 1224 D4040000 		.4byte	.LFE17-.Ltext0
 9814 1228 0200     		.2byte	0x2
 9815 122a 7D       		.byte	0x7d
 9816 122b 18       		.sleb128 24
 9817 122c 00000000 		.4byte	0
 9818 1230 00000000 		.4byte	0
 9819              	.LVUS59:
 9820 1234 00       		.uleb128 0
 9821 1235 00       		.uleb128 .LVU456
 9822 1236 00       		.uleb128 .LVU456
 9823 1237 00       		.uleb128 .LVU460
 9824 1238 00       		.uleb128 .LVU460
 9825 1239 00       		.uleb128 0
 9826              	.LLST59:
 9827 123a 78040000 		.4byte	.LVL162-.Ltext0
 9828 123e 9E040000 		.4byte	.LVL164-.Ltext0
 9829 1242 0100     		.2byte	0x1
 9830 1244 50       		.byte	0x50
 9831 1245 9E040000 		.4byte	.LVL164-.Ltext0
 9832 1249 B4040000 		.4byte	.LVL166-.Ltext0
 9833 124d 0400     		.2byte	0x4
 9834 124f 74       		.byte	0x74
 9835 1250 8C7B     		.sleb128 -628
 9836 1252 9F       		.byte	0x9f
 9837 1253 B4040000 		.4byte	.LVL166-.Ltext0
 9838 1257 D4040000 		.4byte	.LFE17-.Ltext0
 9839 125b 0400     		.2byte	0x4
 9840 125d F3       		.byte	0xf3
 9841 125e 01       		.uleb128 0x1
 9842 125f 50       		.byte	0x50
 9843 1260 9F       		.byte	0x9f
 9844 1261 00000000 		.4byte	0
ARM GAS  /var/folders/_2/qbh2zpt918qcm2b_6mgyydnm0000gn/T//ccIdySvu.s 			page 186


 9845 1265 00000000 		.4byte	0
 9846              	.LVUS60:
 9847 1269 03       		.uleb128 .LVU451
 9848 126a 00       		.uleb128 .LVU460
 9849              	.LLST60:
 9850 126b 96040000 		.4byte	.LVL163-.Ltext0
 9851 126f B4040000 		.4byte	.LVL166-.Ltext0
 9852 1273 0600     		.2byte	0x6
 9853 1275 9E       		.byte	0x9e
 9854 1276 04       		.uleb128 0x4
 9855 1277 85F99D41 		.4byte	0x419df985
 9856 127b 00000000 		.4byte	0
 9857 127f 00000000 		.4byte	0
 9858              	.LVUS61:
 9859 1283 05       		.uleb128 .LVU453
 9860 1284 00       		.uleb128 .LVU460
 9861              	.LLST61:
 9862 1285 96040000 		.4byte	.LVL163-.Ltext0
 9863 1289 B4040000 		.4byte	.LVL166-.Ltext0
 9864 128d 0200     		.2byte	0x2
 9865 128f 30       		.byte	0x30
 9866 1290 9F       		.byte	0x9f
 9867 1291 00000000 		.4byte	0
 9868 1295 00000000 		.4byte	0
 9869              	.LVUS62:
 9870 1299 05       		.uleb128 .LVU453
 9871 129a 00       		.uleb128 .LVU456
 9872 129b 00       		.uleb128 .LVU456
 9873 129c 00       		.uleb128 .LVU460
 9874              	.LLST62:
 9875 129d 96040000 		.4byte	.LVL163-.Ltext0
 9876 12a1 9E040000 		.4byte	.LVL164-.Ltext0
 9877 12a5 0100     		.2byte	0x1
 9878 12a7 50       		.byte	0x50
 9879 12a8 9E040000 		.4byte	.LVL164-.Ltext0
 9880 12ac B4040000 		.4byte	.LVL166-.Ltext0
 9881 12b0 0400     		.2byte	0x4
 9882 12b2 74       		.byte	0x74
 9883 12b3 8C7B     		.sleb128 -628
 9884 12b5 9F       		.byte	0x9f
 9885 12b6 00000000 		.4byte	0
 9886 12ba 00000000 		.4byte	0
 9887              	.LVUS63:
 9888 12be 07       		.uleb128 .LVU455
 9889 12bf 00       		.uleb128 .LVU456
 9890              	.LLST63:
 9891 12c0 96040000 		.4byte	.LVL163-.Ltext0
 9892 12c4 9E040000 		.4byte	.LVL164-.Ltext0
 9893 12c8 0200     		.2byte	0x2
 9894 12ca 30       		.byte	0x30
 9895 12cb 9F       		.byte	0x9f
 9896 12cc 00000000 		.4byte	0
 9897 12d0 00000000 		.4byte	0
 9898              	.LLST68:
 9899 12d4 14050000 		.4byte	.LFB20-.Ltext0
 9900 12d8 16050000 		.4byte	.LCFI19-.Ltext0
 9901 12dc 0200     		.2byte	0x2
ARM GAS  /var/folders/_2/qbh2zpt918qcm2b_6mgyydnm0000gn/T//ccIdySvu.s 			page 187


 9902 12de 7D       		.byte	0x7d
 9903 12df 00       		.sleb128 0
 9904 12e0 16050000 		.4byte	.LCFI19-.Ltext0
 9905 12e4 44050000 		.4byte	.LFE20-.Ltext0
 9906 12e8 0200     		.2byte	0x2
 9907 12ea 7D       		.byte	0x7d
 9908 12eb 10       		.sleb128 16
 9909 12ec 00000000 		.4byte	0
 9910 12f0 00000000 		.4byte	0
 9911              	.LVUS69:
 9912 12f4 00       		.uleb128 0
 9913 12f5 00       		.uleb128 .LVU490
 9914 12f6 00       		.uleb128 .LVU490
 9915 12f7 00       		.uleb128 .LVU495
 9916 12f8 00       		.uleb128 .LVU495
 9917 12f9 00       		.uleb128 0
 9918              	.LLST69:
 9919 12fa 14050000 		.4byte	.LVL176-.Ltext0
 9920 12fe 1D050000 		.4byte	.LVL177-1-.Ltext0
 9921 1302 0100     		.2byte	0x1
 9922 1304 50       		.byte	0x50
 9923 1305 1D050000 		.4byte	.LVL177-1-.Ltext0
 9924 1309 2C050000 		.4byte	.LVL179-.Ltext0
 9925 130d 0100     		.2byte	0x1
 9926 130f 55       		.byte	0x55
 9927 1310 2C050000 		.4byte	.LVL179-.Ltext0
 9928 1314 44050000 		.4byte	.LFE20-.Ltext0
 9929 1318 0600     		.2byte	0x6
 9930 131a F3       		.byte	0xf3
 9931 131b 03       		.uleb128 0x3
 9932 131c F5       		.byte	0xf5
 9933 131d 00       		.uleb128 0
 9934 131e 25       		.uleb128 0x25
 9935 131f 9F       		.byte	0x9f
 9936 1320 00000000 		.4byte	0
 9937 1324 00000000 		.4byte	0
 9938              	.LVUS70:
 9939 1328 00       		.uleb128 0
 9940 1329 00       		.uleb128 .LVU490
 9941 132a 00       		.uleb128 .LVU490
 9942 132b 00       		.uleb128 0
 9943              	.LLST70:
 9944 132c 14050000 		.4byte	.LVL176-.Ltext0
 9945 1330 1D050000 		.4byte	.LVL177-1-.Ltext0
 9946 1334 0100     		.2byte	0x1
 9947 1336 51       		.byte	0x51
 9948 1337 1D050000 		.4byte	.LVL177-1-.Ltext0
 9949 133b 44050000 		.4byte	.LFE20-.Ltext0
 9950 133f 0100     		.2byte	0x1
 9951 1341 56       		.byte	0x56
 9952 1342 00000000 		.4byte	0
 9953 1346 00000000 		.4byte	0
 9954              		.section	.debug_aranges,"",%progbits
 9955 0000 1C000000 		.4byte	0x1c
 9956 0004 0200     		.2byte	0x2
 9957 0006 00000000 		.4byte	.Ldebug_info0
 9958 000a 04       		.byte	0x4
ARM GAS  /var/folders/_2/qbh2zpt918qcm2b_6mgyydnm0000gn/T//ccIdySvu.s 			page 188


 9959 000b 00       		.byte	0
 9960 000c 0000     		.2byte	0
 9961 000e 0000     		.2byte	0
 9962 0010 00000000 		.4byte	.Ltext0
 9963 0014 E8060000 		.4byte	.Letext0-.Ltext0
 9964 0018 00000000 		.4byte	0
 9965 001c 00000000 		.4byte	0
 9966              		.section	.debug_ranges,"",%progbits
 9967              	.Ldebug_ranges0:
 9968 0000 4C010000 		.4byte	.LBB22-.Ltext0
 9969 0004 54010000 		.4byte	.LBE22-.Ltext0
 9970 0008 54010000 		.4byte	.LBB26-.Ltext0
 9971 000c 58010000 		.4byte	.LBE26-.Ltext0
 9972 0010 58010000 		.4byte	.LBB27-.Ltext0
 9973 0014 5C010000 		.4byte	.LBE27-.Ltext0
 9974 0018 00000000 		.4byte	0
 9975 001c 00000000 		.4byte	0
 9976 0020 10030000 		.4byte	.LBB29-.Ltext0
 9977 0024 18030000 		.4byte	.LBE29-.Ltext0
 9978 0028 18030000 		.4byte	.LBB33-.Ltext0
 9979 002c 1C030000 		.4byte	.LBE33-.Ltext0
 9980 0030 1C030000 		.4byte	.LBB34-.Ltext0
 9981 0034 20030000 		.4byte	.LBE34-.Ltext0
 9982 0038 00000000 		.4byte	0
 9983 003c 00000000 		.4byte	0
 9984 0040 26030000 		.4byte	.LBB35-.Ltext0
 9985 0044 2C030000 		.4byte	.LBE35-.Ltext0
 9986 0048 2E030000 		.4byte	.LBB36-.Ltext0
 9987 004c 78030000 		.4byte	.LBE36-.Ltext0
 9988 0050 00000000 		.4byte	0
 9989 0054 00000000 		.4byte	0
 9990 0058 78030000 		.4byte	.LBB37-.Ltext0
 9991 005c 78030000 		.4byte	.LBE37-.Ltext0
 9992 0060 8C030000 		.4byte	.LBB38-.Ltext0
 9993 0064 A2030000 		.4byte	.LBE38-.Ltext0
 9994 0068 00000000 		.4byte	0
 9995 006c 00000000 		.4byte	0
 9996 0070 F8030000 		.4byte	.LBB39-.Ltext0
 9997 0074 FA030000 		.4byte	.LBE39-.Ltext0
 9998 0078 FC030000 		.4byte	.LBB40-.Ltext0
 9999 007c 24040000 		.4byte	.LBE40-.Ltext0
 10000 0080 00000000 		.4byte	0
 10001 0084 00000000 		.4byte	0
 10002 0088 46040000 		.4byte	.LBB42-.Ltext0
 10003 008c 4C040000 		.4byte	.LBE42-.Ltext0
 10004 0090 4C040000 		.4byte	.LBB46-.Ltext0
 10005 0094 50040000 		.4byte	.LBE46-.Ltext0
 10006 0098 50040000 		.4byte	.LBB47-.Ltext0
 10007 009c 54040000 		.4byte	.LBE47-.Ltext0
 10008 00a0 00000000 		.4byte	0
 10009 00a4 00000000 		.4byte	0
 10010 00a8 88040000 		.4byte	.LBB56-.Ltext0
 10011 00ac 8A040000 		.4byte	.LBE56-.Ltext0
 10012 00b0 92040000 		.4byte	.LBB63-.Ltext0
 10013 00b4 96040000 		.4byte	.LBE63-.Ltext0
 10014 00b8 96040000 		.4byte	.LBB64-.Ltext0
 10015 00bc 96040000 		.4byte	.LBE64-.Ltext0
ARM GAS  /var/folders/_2/qbh2zpt918qcm2b_6mgyydnm0000gn/T//ccIdySvu.s 			page 189


 10016 00c0 00000000 		.4byte	0
 10017 00c4 00000000 		.4byte	0
 10018 00c8 8A040000 		.4byte	.LBB58-.Ltext0
 10019 00cc 92040000 		.4byte	.LBE58-.Ltext0
 10020 00d0 96040000 		.4byte	.LBB65-.Ltext0
 10021 00d4 B4040000 		.4byte	.LBE65-.Ltext0
 10022 00d8 00000000 		.4byte	0
 10023 00dc 00000000 		.4byte	0
 10024 00e0 74050000 		.4byte	.LBB67-.Ltext0
 10025 00e4 78050000 		.4byte	.LBE67-.Ltext0
 10026 00e8 7A050000 		.4byte	.LBB68-.Ltext0
 10027 00ec A4050000 		.4byte	.LBE68-.Ltext0
 10028 00f0 00000000 		.4byte	0
 10029 00f4 00000000 		.4byte	0
 10030 00f8 FC050000 		.4byte	.LBB70-.Ltext0
 10031 00fc 04060000 		.4byte	.LBE70-.Ltext0
 10032 0100 06060000 		.4byte	.LBB71-.Ltext0
 10033 0104 26060000 		.4byte	.LBE71-.Ltext0
 10034 0108 00000000 		.4byte	0
 10035 010c 00000000 		.4byte	0
 10036 0110 6C060000 		.4byte	.LBB73-.Ltext0
 10037 0114 74060000 		.4byte	.LBE73-.Ltext0
 10038 0118 76060000 		.4byte	.LBB74-.Ltext0
 10039 011c 96060000 		.4byte	.LBE74-.Ltext0
 10040 0120 00000000 		.4byte	0
 10041 0124 00000000 		.4byte	0
 10042              		.section	.debug_line,"",%progbits
 10043              	.Ldebug_line0:
 10044 0000 8E0A0000 		.section	.debug_str,"MS",%progbits,1
 10044      0300EC01 
 10044      00000201 
 10044      FB0E0D00 
 10044      01010101 
 10045              	.LASF255:
 10046 0000 63616C63 		.ascii	"calculateNyquistAdjustNotchHz\000"
 10046      756C6174 
 10046      654E7971 
 10046      75697374 
 10046      41646A75 
 10047              	.LASF266:
 10048 001e 6779726F 		.ascii	"gyroInitFilterNotch1\000"
 10048      496E6974 
 10048      46696C74 
 10048      65724E6F 
 10048      74636831 
 10049              	.LASF265:
 10050 0033 6779726F 		.ascii	"gyroInitFilterNotch2\000"
 10050      496E6974 
 10050      46696C74 
 10050      65724E6F 
 10050      74636832 
 10051              	.LASF173:
 10052 0048 6779726F 		.ascii	"gyro_soft_notch_hz_1\000"
 10052      5F736F66 
 10052      745F6E6F 
 10052      7463685F 
 10052      687A5F31 
ARM GAS  /var/folders/_2/qbh2zpt918qcm2b_6mgyydnm0000gn/T//ccIdySvu.s 			page 190


 10053              	.LASF175:
 10054 005d 6779726F 		.ascii	"gyro_soft_notch_hz_2\000"
 10054      5F736F66 
 10054      745F6E6F 
 10054      7463685F 
 10054      687A5F32 
 10055              	.LASF160:
 10056 0072 6779726F 		.ascii	"gyroADCRaw\000"
 10056      41444352 
 10056      617700
 10057              	.LASF234:
 10058 007d 5F5F6664 		.ascii	"__fdlibm_xopen\000"
 10058      6C69626D 
 10058      5F786F70 
 10058      656E00
 10059              	.LASF267:
 10060 008c 6779726F 		.ascii	"gyroInitLowPassFilter\000"
 10060      496E6974 
 10060      4C6F7750 
 10060      61737346 
 10060      696C7465 
 10061              	.LASF198:
 10062 00a2 62697175 		.ascii	"biquadFilterState\000"
 10062      61644669 
 10062      6C746572 
 10062      53746174 
 10062      6500
 10063              	.LASF260:
 10064 00b4 696E7075 		.ascii	"input\000"
 10064      7400
 10065              	.LASF188:
 10066 00ba 64746572 		.ascii	"dterm_lowpass_hz\000"
 10066      6D5F6C6F 
 10066      77706173 
 10066      735F687A 
 10066      00
 10067              	.LASF44:
 10068 00cb 5F6F6E5F 		.ascii	"_on_exit_args\000"
 10068      65786974 
 10068      5F617267 
 10068      7300
 10069              	.LASF161:
 10070 00d9 74656D70 		.ascii	"temperature\000"
 10070      65726174 
 10070      75726500 
 10071              	.LASF268:
 10072 00e5 736C6F74 		.ascii	"slot\000"
 10072      00
 10073              	.LASF111:
 10074 00ea 5F776374 		.ascii	"_wctomb_state\000"
 10074      6F6D625F 
 10074      73746174 
 10074      6500
 10075              	.LASF237:
 10076 00f8 63656E74 		.ascii	"centerFreq\000"
 10076      65724672 
 10076      657100
ARM GAS  /var/folders/_2/qbh2zpt918qcm2b_6mgyydnm0000gn/T//ccIdySvu.s 			page 191


 10077              	.LASF108:
 10078 0103 5F723438 		.ascii	"_r48\000"
 10078      00
 10079              	.LASF282:
 10080 0108 66696C74 		.ascii	"filterGetNotchQ\000"
 10080      65724765 
 10080      744E6F74 
 10080      63685100 
 10081              	.LASF246:
 10082 0118 6F6D6567 		.ascii	"omega\000"
 10082      6100
 10083              	.LASF113:
 10084 011e 5F736967 		.ascii	"_signal_buf\000"
 10084      6E616C5F 
 10084      62756600 
 10085              	.LASF2:
 10086 012a 756E7369 		.ascii	"unsigned int\000"
 10086      676E6564 
 10086      20696E74 
 10086      00
 10087              	.LASF183:
 10088 0137 64746572 		.ascii	"dtermFilter_s\000"
 10088      6D46696C 
 10088      7465725F 
 10088      7300
 10089              	.LASF189:
 10090 0145 64746572 		.ascii	"dtermFilter_t\000"
 10090      6D46696C 
 10090      7465725F 
 10090      7400
 10091              	.LASF200:
 10092 0153 46494C54 		.ascii	"FILTER_LOWPASS\000"
 10092      45525F4C 
 10092      4F575041 
 10092      535300
 10093              	.LASF58:
 10094 0162 5F6C6266 		.ascii	"_lbfsize\000"
 10094      73697A65 
 10094      00
 10095              	.LASF56:
 10096 016b 5F666C61 		.ascii	"_flags\000"
 10096      677300
 10097              	.LASF12:
 10098 0172 5F5F696E 		.ascii	"__int32_t\000"
 10098      7433325F 
 10098      7400
 10099              	.LASF145:
 10100 017c 6379636C 		.ascii	"cyclesRemaining\000"
 10100      65735265 
 10100      6D61696E 
 10100      696E6700 
 10101              	.LASF73:
 10102 018c 5F657272 		.ascii	"_errno\000"
 10102      6E6F00
 10103              	.LASF240:
 10104 0193 6E6F7463 		.ascii	"notchCutoffHz\000"
 10104      68437574 
ARM GAS  /var/folders/_2/qbh2zpt918qcm2b_6mgyydnm0000gn/T//ccIdySvu.s 			page 192


 10104      6F666648 
 10104      7A00
 10105              	.LASF172:
 10106 01a1 6779726F 		.ascii	"gyro_lowpass2_Hz\000"
 10106      5F6C6F77 
 10106      70617373 
 10106      325F487A 
 10106      00
 10107              	.LASF252:
 10108 01b2 61786973 		.ascii	"axis\000"
 10108      00
 10109              	.LASF70:
 10110 01b7 5F6D6273 		.ascii	"_mbstate\000"
 10110      74617465 
 10110      00
 10111              	.LASF227:
 10112 01c0 64746572 		.ascii	"dtermNotchFilterApply\000"
 10112      6D4E6F74 
 10112      63684669 
 10112      6C746572 
 10112      4170706C 
 10113              	.LASF210:
 10114 01d6 6C6F7770 		.ascii	"lowpassFilterApplyFn\000"
 10114      61737346 
 10114      696C7465 
 10114      72417070 
 10114      6C79466E 
 10115              	.LASF60:
 10116 01eb 5F726561 		.ascii	"_read\000"
 10116      6400
 10117              	.LASF115:
 10118 01f1 5F6D6272 		.ascii	"_mbrlen_state\000"
 10118      6C656E5F 
 10118      73746174 
 10118      6500
 10119              	.LASF213:
 10120 01ff 6C6F7770 		.ascii	"lowpass2Filter\000"
 10120      61737332 
 10120      46696C74 
 10120      657200
 10121              	.LASF209:
 10122 020e 6779726F 		.ascii	"gyroDev\000"
 10122      44657600 
 10123              	.LASF259:
 10124 0216 62697175 		.ascii	"biquadFilterApplyDyn\000"
 10124      61644669 
 10124      6C746572 
 10124      4170706C 
 10124      7944796E 
 10125              	.LASF75:
 10126 022b 5F737464 		.ascii	"_stdout\000"
 10126      6F757400 
 10127              	.LASF19:
 10128 0233 5F66706F 		.ascii	"_fpos_t\000"
 10128      735F7400 
 10129              	.LASF51:
 10130 023b 5F666E73 		.ascii	"_fns\000"
ARM GAS  /var/folders/_2/qbh2zpt918qcm2b_6mgyydnm0000gn/T//ccIdySvu.s 			page 193


 10130      00
 10131              	.LASF226:
 10132 0240 64746572 		.ascii	"dtermLowpass_t\000"
 10132      6D4C6F77 
 10132      70617373 
 10132      5F7400
 10133              	.LASF59:
 10134 024f 5F636F6F 		.ascii	"_cookie\000"
 10134      6B696500 
 10135              	.LASF275:
 10136 0257 6C70665F 		.ascii	"lpf_type\000"
 10136      74797065 
 10136      00
 10137              	.LASF271:
 10138 0260 6779726F 		.ascii	"gyroDt\000"
 10138      447400
 10139              	.LASF33:
 10140 0267 5F426967 		.ascii	"_Bigint\000"
 10140      696E7400 
 10141              	.LASF221:
 10142 026f 6779726F 		.ascii	"gyroSensor\000"
 10142      53656E73 
 10142      6F7200
 10143              	.LASF41:
 10144 027a 5F5F746D 		.ascii	"__tm_wday\000"
 10144      5F776461 
 10144      7900
 10145              	.LASF186:
 10146 0284 64746572 		.ascii	"dterm_lowpass2_hz\000"
 10146      6D5F6C6F 
 10146      77706173 
 10146      73325F68 
 10146      7A00
 10147              	.LASF83:
 10148 0296 5F726573 		.ascii	"_result\000"
 10148      756C7400 
 10149              	.LASF180:
 10150 029e 6779726F 		.ascii	"gyroCalibrationDuration\000"
 10150      43616C69 
 10150      62726174 
 10150      696F6E44 
 10150      75726174 
 10151              	.LASF254:
 10152 02b6 70743146 		.ascii	"pt1FilterInit\000"
 10152      696C7465 
 10152      72496E69 
 10152      7400
 10153              	.LASF133:
 10154 02c4 75696E74 		.ascii	"uint32_t\000"
 10154      33325F74 
 10154      00
 10155              	.LASF37:
 10156 02cd 5F5F746D 		.ascii	"__tm_hour\000"
 10156      5F686F75 
 10156      7200
 10157              	.LASF216:
 10158 02d7 6E6F7463 		.ascii	"notchFilter2ApplyFn\000"
ARM GAS  /var/folders/_2/qbh2zpt918qcm2b_6mgyydnm0000gn/T//ccIdySvu.s 			page 194


 10158      6846696C 
 10158      74657232 
 10158      4170706C 
 10158      79466E00 
 10159              	.LASF262:
 10160 02eb 62697175 		.ascii	"biquadFilterApply\000"
 10160      61644669 
 10160      6C746572 
 10160      4170706C 
 10160      7900
 10161              	.LASF211:
 10162 02fd 6C6F7770 		.ascii	"lowpassFilter\000"
 10162      61737346 
 10162      696C7465 
 10162      7200
 10163              	.LASF23:
 10164 030b 5F5F636F 		.ascii	"__count\000"
 10164      756E7400 
 10165              	.LASF0:
 10166 0313 666C6F61 		.ascii	"float\000"
 10166      7400
 10167              	.LASF223:
 10168 0319 64746572 		.ascii	"dtermLowpass\000"
 10168      6D4C6F77 
 10168      70617373 
 10168      00
 10169              	.LASF171:
 10170 0326 6779726F 		.ascii	"gyro_lowpass_Hz\000"
 10170      5F6C6F77 
 10170      70617373 
 10170      5F487A00 
 10171              	.LASF36:
 10172 0336 5F5F746D 		.ascii	"__tm_min\000"
 10172      5F6D696E 
 10172      00
 10173              	.LASF126:
 10174 033f 5F696D70 		.ascii	"_impure_ptr\000"
 10174      7572655F 
 10174      70747200 
 10175              	.LASF121:
 10176 034b 5F6E6578 		.ascii	"_nextf\000"
 10176      746600
 10177              	.LASF278:
 10178 0352 6779726F 		.ascii	"gyroInitFilters\000"
 10178      496E6974 
 10178      46696C74 
 10178      65727300 
 10179              	.LASF130:
 10180 0362 696E7431 		.ascii	"int16_t\000"
 10180      365F7400 
 10181              	.LASF98:
 10182 036a 5F72616E 		.ascii	"_rand48\000"
 10182      64343800 
 10183              	.LASF261:
 10184 0372 72657375 		.ascii	"result\000"
 10184      6C7400
 10185              	.LASF151:
ARM GAS  /var/folders/_2/qbh2zpt918qcm2b_6mgyydnm0000gn/T//ccIdySvu.s 			page 195


 10186 0379 6779726F 		.ascii	"gyroZero\000"
 10186      5A65726F 
 10186      00
 10187              	.LASF84:
 10188 0382 5F726573 		.ascii	"_result_k\000"
 10188      756C745F 
 10188      6B00
 10189              	.LASF16:
 10190 038c 6C6F6E67 		.ascii	"long long unsigned int\000"
 10190      206C6F6E 
 10190      6720756E 
 10190      7369676E 
 10190      65642069 
 10191              	.LASF104:
 10192 03a3 5F617363 		.ascii	"_asctime_buf\000"
 10192      74696D65 
 10192      5F627566 
 10192      00
 10193              	.LASF55:
 10194 03b0 5F5F7346 		.ascii	"__sFILE\000"
 10194      494C4500 
 10195              	.LASF32:
 10196 03b8 5F776473 		.ascii	"_wds\000"
 10196      00
 10197              	.LASF140:
 10198 03bd 6F6C6453 		.ascii	"oldSigma\000"
 10198      69676D61 
 10198      00
 10199              	.LASF10:
 10200 03c6 5F5F7569 		.ascii	"__uint16_t\000"
 10200      6E743136 
 10200      5F7400
 10201              	.LASF257:
 10202 03d1 665F6375 		.ascii	"f_cut\000"
 10202      7400
 10203              	.LASF94:
 10204 03d7 5F5F4649 		.ascii	"__FILE\000"
 10204      4C4500
 10205              	.LASF222:
 10206 03de 6779726F 		.ascii	"gyroLowpassFilter_u\000"
 10206      4C6F7770 
 10206      61737346 
 10206      696C7465 
 10206      725F7500 
 10207              	.LASF235:
 10208 03f2 5F5F6664 		.ascii	"__fdlibm_posix\000"
 10208      6C69626D 
 10208      5F706F73 
 10208      697800
 10209              	.LASF225:
 10210 0401 62697175 		.ascii	"biquadFilter\000"
 10210      61644669 
 10210      6C746572 
 10210      00
 10211              	.LASF67:
 10212 040e 5F6F6666 		.ascii	"_offset\000"
 10212      73657400 
ARM GAS  /var/folders/_2/qbh2zpt918qcm2b_6mgyydnm0000gn/T//ccIdySvu.s 			page 196


 10213              	.LASF273:
 10214 0416 6163634C 		.ascii	"accLpfHz\000"
 10214      7066487A 
 10214      00
 10215              	.LASF197:
 10216 041f 70743146 		.ascii	"pt1FilterState\000"
 10216      696C7465 
 10216      72537461 
 10216      746500
 10217              	.LASF142:
 10218 042e 73746465 		.ascii	"stdev_t\000"
 10218      765F7400 
 10219              	.LASF78:
 10220 0436 5F656D65 		.ascii	"_emergency\000"
 10220      7267656E 
 10220      637900
 10221              	.LASF244:
 10222 0441 72656672 		.ascii	"refreshrate\000"
 10222      65736872 
 10222      61746500 
 10223              	.LASF272:
 10224 044d 61636365 		.ascii	"accelInitLowPassFilter\000"
 10224      6C496E69 
 10224      744C6F77 
 10224      50617373 
 10224      46696C74 
 10225              	.LASF170:
 10226 0464 6779726F 		.ascii	"gyroConfig_s\000"
 10226      436F6E66 
 10226      69675F73 
 10226      00
 10227              	.LASF181:
 10228 0471 6779726F 		.ascii	"gyroConfig_t\000"
 10228      436F6E66 
 10228      69675F74 
 10228      00
 10229              	.LASF35:
 10230 047e 5F5F746D 		.ascii	"__tm_sec\000"
 10230      5F736563 
 10230      00
 10231              	.LASF194:
 10232 0487 62697175 		.ascii	"biquadFilter_s\000"
 10232      61644669 
 10232      6C746572 
 10232      5F7300
 10233              	.LASF195:
 10234 0496 62697175 		.ascii	"biquadFilter_t\000"
 10234      61644669 
 10234      6C746572 
 10234      5F7400
 10235              	.LASF128:
 10236 04a5 7375626F 		.ascii	"suboptarg\000"
 10236      70746172 
 10236      6700
 10237              	.LASF42:
 10238 04af 5F5F746D 		.ascii	"__tm_yday\000"
 10238      5F796461 
ARM GAS  /var/folders/_2/qbh2zpt918qcm2b_6mgyydnm0000gn/T//ccIdySvu.s 			page 197


 10238      7900
 10239              	.LASF77:
 10240 04b9 5F696E63 		.ascii	"_inc\000"
 10240      00
 10241              	.LASF50:
 10242 04be 5F696E64 		.ascii	"_ind\000"
 10242      00
 10243              	.LASF136:
 10244 04c3 66696C74 		.ascii	"filterApplyPtr\000"
 10244      65724170 
 10244      706C7950 
 10244      747200
 10245              	.LASF166:
 10246 04d2 6D707544 		.ascii	"mpuDividerDrops\000"
 10246      69766964 
 10246      65724472 
 10246      6F707300 
 10247              	.LASF248:
 10248 04e2 474E5520 		.ascii	"GNU C17 9.2.1 20191025 (release) [ARM/arm-9-branch "
 10248      43313720 
 10248      392E322E 
 10248      31203230 
 10248      31393130 
 10249 0515 72657669 		.ascii	"revision 277599] -mcpu=cortex-m4 -mthumb -mfloat-ab"
 10249      73696F6E 
 10249      20323737 
 10249      3539395D 
 10249      202D6D63 
 10250 0548 693D736F 		.ascii	"i=soft -march=armv7e-m -g -gdwarf-2 -Os -fomit-fram"
 10250      6674202D 
 10250      6D617263 
 10250      683D6172 
 10250      6D763765 
 10251 057b 652D706F 		.ascii	"e-pointer\000"
 10251      696E7465 
 10251      7200
 10252              	.LASF137:
 10253 0585 73746465 		.ascii	"stdev_s\000"
 10253      765F7300 
 10254              	.LASF29:
 10255 058d 5F6E6578 		.ascii	"_next\000"
 10255      7400
 10256              	.LASF117:
 10257 0593 5F6D6273 		.ascii	"_mbsrtowcs_state\000"
 10257      72746F77 
 10257      63735F73 
 10257      74617465 
 10257      00
 10258              	.LASF162:
 10259 05a4 64617461 		.ascii	"dataReady\000"
 10259      52656164 
 10259      7900
 10260              	.LASF280:
 10261 05ae 636F735F 		.ascii	"cos_approx\000"
 10261      61707072 
 10261      6F7800
 10262              	.LASF24:
ARM GAS  /var/folders/_2/qbh2zpt918qcm2b_6mgyydnm0000gn/T//ccIdySvu.s 			page 198


 10263 05b9 5F5F7661 		.ascii	"__value\000"
 10263      6C756500 
 10264              	.LASF283:
 10265 05c1 6761696E 		.ascii	"gain\000"
 10265      00
 10266              	.LASF85:
 10267 05c6 5F703573 		.ascii	"_p5s\000"
 10267      00
 10268              	.LASF143:
 10269 05cb 6779726F 		.ascii	"gyroCalibration_s\000"
 10269      43616C69 
 10269      62726174 
 10269      696F6E5F 
 10269      7300
 10270              	.LASF147:
 10271 05dd 6779726F 		.ascii	"gyroCalibration_t\000"
 10271      43616C69 
 10271      62726174 
 10271      696F6E5F 
 10271      7400
 10272              	.LASF139:
 10273 05ef 6E65774D 		.ascii	"newMean\000"
 10273      65616E00 
 10274              	.LASF179:
 10275 05f7 6779726F 		.ascii	"gyro_lowpass2_type\000"
 10275      5F6C6F77 
 10275      70617373 
 10275      325F7479 
 10275      706500
 10276              	.LASF119:
 10277 060a 5F776373 		.ascii	"_wcsrtombs_state\000"
 10277      72746F6D 
 10277      62735F73 
 10277      74617465 
 10277      00
 10278              	.LASF109:
 10279 061b 5F6D626C 		.ascii	"_mblen_state\000"
 10279      656E5F73 
 10279      74617465 
 10279      00
 10280              	.LASF27:
 10281 0628 63686172 		.ascii	"char\000"
 10281      00
 10282              	.LASF38:
 10283 062d 5F5F746D 		.ascii	"__tm_mday\000"
 10283      5F6D6461 
 10283      7900
 10284              	.LASF91:
 10285 0637 5F736967 		.ascii	"_sig_func\000"
 10285      5F66756E 
 10285      6300
 10286              	.LASF116:
 10287 0641 5F6D6272 		.ascii	"_mbrtowc_state\000"
 10287      746F7763 
 10287      5F737461 
 10287      746500
 10288              	.LASF90:
ARM GAS  /var/folders/_2/qbh2zpt918qcm2b_6mgyydnm0000gn/T//ccIdySvu.s 			page 199


 10289 0650 5F617465 		.ascii	"_atexit0\000"
 10289      78697430 
 10289      00
 10290              	.LASF199:
 10291 0659 6779726F 		.ascii	"gyroLowpassFilter_t\000"
 10291      4C6F7770 
 10291      61737346 
 10291      696C7465 
 10291      725F7400 
 10292              	.LASF26:
 10293 066d 5F666C6F 		.ascii	"_flock_t\000"
 10293      636B5F74 
 10293      00
 10294              	.LASF190:
 10295 0676 64746572 		.ascii	"dtermFilterSettings\000"
 10295      6D46696C 
 10295      74657253 
 10295      65747469 
 10295      6E677300 
 10296              	.LASF251:
 10297 068a 6E6F7463 		.ascii	"notchQ\000"
 10297      685100
 10298              	.LASF182:
 10299 0691 6779726F 		.ascii	"gyroConfig\000"
 10299      436F6E66 
 10299      696700
 10300              	.LASF256:
 10301 069c 70743146 		.ascii	"pt1FilterGain\000"
 10301      696C7465 
 10301      72476169 
 10301      6E00
 10302              	.LASF21:
 10303 06aa 5F5F7763 		.ascii	"__wch\000"
 10303      6800
 10304              	.LASF97:
 10305 06b0 5F696F62 		.ascii	"_iobs\000"
 10305      7300
 10306              	.LASF129:
 10307 06b6 75696E74 		.ascii	"uint8_t\000"
 10307      385F7400 
 10308              	.LASF245:
 10309 06be 46696C74 		.ascii	"FilterType\000"
 10309      65725479 
 10309      706500
 10310              	.LASF63:
 10311 06c9 5F636C6F 		.ascii	"_close\000"
 10311      736500
 10312              	.LASF81:
 10313 06d0 5F5F7364 		.ascii	"__sdidinit\000"
 10313      6964696E 
 10313      697400
 10314              	.LASF218:
 10315 06db 6E6F7463 		.ascii	"notchFilterDynApplyFn\000"
 10315      6846696C 
 10315      74657244 
 10315      796E4170 
 10315      706C7946 
ARM GAS  /var/folders/_2/qbh2zpt918qcm2b_6mgyydnm0000gn/T//ccIdySvu.s 			page 200


 10316              	.LASF270:
 10317 06f1 6C706648 		.ascii	"lpfHz\000"
 10317      7A00
 10318              	.LASF215:
 10319 06f7 6E6F7463 		.ascii	"notchFilter1\000"
 10319      6846696C 
 10319      74657231 
 10319      00
 10320              	.LASF224:
 10321 0704 70743146 		.ascii	"pt1Filter\000"
 10321      696C7465 
 10321      7200
 10322              	.LASF74:
 10323 070e 5F737464 		.ascii	"_stdin\000"
 10323      696E00
 10324              	.LASF106:
 10325 0715 5F67616D 		.ascii	"_gamma_signgam\000"
 10325      6D615F73 
 10325      69676E67 
 10325      616D00
 10326              	.LASF3:
 10327 0724 6C6F6E67 		.ascii	"long long int\000"
 10327      206C6F6E 
 10327      6720696E 
 10327      7400
 10328              	.LASF53:
 10329 0732 5F626173 		.ascii	"_base\000"
 10329      6500
 10330              	.LASF86:
 10331 0738 5F667265 		.ascii	"_freelist\000"
 10331      656C6973 
 10331      7400
 10332              	.LASF100:
 10333 0742 5F6D756C 		.ascii	"_mult\000"
 10333      7400
 10334              	.LASF28:
 10335 0748 5F5F554C 		.ascii	"__ULong\000"
 10335      6F6E6700 
 10336              	.LASF233:
 10337 0750 5F5F6664 		.ascii	"__fdlibm_svid\000"
 10337      6C69626D 
 10337      5F737669 
 10337      6400
 10338              	.LASF118:
 10339 075e 5F776372 		.ascii	"_wcrtomb_state\000"
 10339      746F6D62 
 10339      5F737461 
 10339      746500
 10340              	.LASF250:
 10341 076d 2F557365 		.ascii	"/Users/rdaneel/Desktop/brightflight_015.4\000"
 10341      72732F72 
 10341      64616E65 
 10341      656C2F44 
 10341      65736B74 
 10342              	.LASF57:
 10343 0797 5F66696C 		.ascii	"_file\000"
 10343      6500
ARM GAS  /var/folders/_2/qbh2zpt918qcm2b_6mgyydnm0000gn/T//ccIdySvu.s 			page 201


 10344              	.LASF253:
 10345 079d 6779726F 		.ascii	"gyroInitFilterDynNotch\000"
 10345      496E6974 
 10345      46696C74 
 10345      65724479 
 10345      6E4E6F74 
 10346              	.LASF8:
 10347 07b4 5F5F696E 		.ascii	"__int16_t\000"
 10347      7431365F 
 10347      7400
 10348              	.LASF258:
 10349 07be 6E756C6C 		.ascii	"nullFilterApply\000"
 10349      46696C74 
 10349      65724170 
 10349      706C7900 
 10350              	.LASF141:
 10351 07ce 6E657753 		.ascii	"newSigma\000"
 10351      69676D61 
 10351      00
 10352              	.LASF157:
 10353 07d7 7363616C 		.ascii	"scale\000"
 10353      6500
 10354              	.LASF264:
 10355 07dd 62697175 		.ascii	"biquadFilterInit\000"
 10355      61644669 
 10355      6C746572 
 10355      496E6974 
 10355      00
 10356              	.LASF230:
 10357 07ee 64746572 		.ascii	"dtermLowpassFilter2Apply\000"
 10357      6D4C6F77 
 10357      70617373 
 10357      46696C74 
 10357      65723241 
 10358              	.LASF82:
 10359 0807 5F5F636C 		.ascii	"__cleanup\000"
 10359      65616E75 
 10359      7000
 10360              	.LASF236:
 10361 0811 5F5F6664 		.ascii	"__fdlib_version\000"
 10361      6C69625F 
 10361      76657273 
 10361      696F6E00 
 10362              	.LASF25:
 10363 0821 5F6D6273 		.ascii	"_mbstate_t\000"
 10363      74617465 
 10363      5F7400
 10364              	.LASF187:
 10365 082c 64746572 		.ascii	"dterm_lowpass_type\000"
 10365      6D5F6C6F 
 10365      77706173 
 10365      735F7479 
 10365      706500
 10366              	.LASF174:
 10367 083f 6779726F 		.ascii	"gyro_soft_notch_cutoff_1\000"
 10367      5F736F66 
 10367      745F6E6F 
ARM GAS  /var/folders/_2/qbh2zpt918qcm2b_6mgyydnm0000gn/T//ccIdySvu.s 			page 202


 10367      7463685F 
 10367      6375746F 
 10368              	.LASF176:
 10369 0858 6779726F 		.ascii	"gyro_soft_notch_cutoff_2\000"
 10369      5F736F66 
 10369      745F6E6F 
 10369      7463685F 
 10369      6375746F 
 10370              	.LASF274:
 10371 0871 696E6974 		.ascii	"initDtermLpfFilter\000"
 10371      44746572 
 10371      6D4C7066 
 10371      46696C74 
 10371      657200
 10372              	.LASF43:
 10373 0884 5F5F746D 		.ascii	"__tm_isdst\000"
 10373      5F697364 
 10373      737400
 10374              	.LASF155:
 10375 088f 6779726F 		.ascii	"gyro\000"
 10375      00
 10376              	.LASF185:
 10377 0894 64746572 		.ascii	"dterm_notch_cutoff_hz\000"
 10377      6D5F6E6F 
 10377      7463685F 
 10377      6375746F 
 10377      66665F68 
 10378              	.LASF202:
 10379 08aa 46494C54 		.ascii	"FILTER_PT1\000"
 10379      45525F50 
 10379      543100
 10380              	.LASF120:
 10381 08b5 5F685F65 		.ascii	"_h_errno\000"
 10381      72726E6F 
 10381      00
 10382              	.LASF168:
 10383 08be 5F426F6F 		.ascii	"_Bool\000"
 10383      6C00
 10384              	.LASF249:
 10385 08c4 66696C74 		.ascii	"filter.c\000"
 10385      65722E63 
 10385      00
 10386              	.LASF152:
 10387 08cd 63616C69 		.ascii	"calibration\000"
 10387      62726174 
 10387      696F6E00 
 10388              	.LASF39:
 10389 08d9 5F5F746D 		.ascii	"__tm_mon\000"
 10389      5F6D6F6E 
 10389      00
 10390              	.LASF4:
 10391 08e2 6C6F6E67 		.ascii	"long double\000"
 10391      20646F75 
 10391      626C6500 
 10392              	.LASF17:
 10393 08ee 5F4C4F43 		.ascii	"_LOCK_T\000"
 10393      4B5F5400 
ARM GAS  /var/folders/_2/qbh2zpt918qcm2b_6mgyydnm0000gn/T//ccIdySvu.s 			page 203


 10394              	.LASF131:
 10395 08f6 75696E74 		.ascii	"uint16_t\000"
 10395      31365F74 
 10395      00
 10396              	.LASF241:
 10397 08ff 6779726F 		.ascii	"gyroFrequencyNyquist\000"
 10397      46726571 
 10397      75656E63 
 10397      794E7971 
 10397      75697374 
 10398              	.LASF144:
 10399 0914 76617269 		.ascii	"varianz\000"
 10399      616E7A00 
 10400              	.LASF159:
 10401 091c 6779726F 		.ascii	"gyroADCRawPrevious\000"
 10401      41444352 
 10401      61775072 
 10401      6576696F 
 10401      757300
 10402              	.LASF61:
 10403 092f 5F777269 		.ascii	"_write\000"
 10403      746500
 10404              	.LASF146:
 10405 0936 6779726F 		.ascii	"gyroMovementCalibrationThreshold\000"
 10405      4D6F7665 
 10405      6D656E74 
 10405      43616C69 
 10405      62726174 
 10406              	.LASF149:
 10407 0957 74617267 		.ascii	"targetLoopTime\000"
 10407      65744C6F 
 10407      6F705469 
 10407      6D6500
 10408              	.LASF201:
 10409 0966 46494C54 		.ascii	"FILTER_LOWPASS2\000"
 10409      45525F4C 
 10409      4F575041 
 10409      53533200 
 10410              	.LASF49:
 10411 0976 5F617465 		.ascii	"_atexit\000"
 10411      78697400 
 10412              	.LASF150:
 10413 097e 6779726F 		.ascii	"gyroADCf\000"
 10413      41444366 
 10413      00
 10414              	.LASF9:
 10415 0987 73686F72 		.ascii	"short int\000"
 10415      7420696E 
 10415      7400
 10416              	.LASF217:
 10417 0991 6E6F7463 		.ascii	"notchFilter2\000"
 10417      6846696C 
 10417      74657232 
 10417      00
 10418              	.LASF276:
 10419 099e 696E6974 		.ascii	"initDtermLowpassFilter\000"
 10419      44746572 
ARM GAS  /var/folders/_2/qbh2zpt918qcm2b_6mgyydnm0000gn/T//ccIdySvu.s 			page 204


 10419      6D4C6F77 
 10419      70617373 
 10419      46696C74 
 10420              	.LASF13:
 10421 09b5 6C6F6E67 		.ascii	"long int\000"
 10421      20696E74 
 10421      00
 10422              	.LASF219:
 10423 09be 6E6F7463 		.ascii	"notchFilterDyn\000"
 10423      6846696C 
 10423      74657244 
 10423      796E00
 10424              	.LASF196:
 10425 09cd 61636365 		.ascii	"accelFilter\000"
 10425      6C46696C 
 10425      74657200 
 10426              	.LASF93:
 10427 09d9 5F5F7366 		.ascii	"__sf\000"
 10427      00
 10428              	.LASF31:
 10429 09de 5F736967 		.ascii	"_sign\000"
 10429      6E00
 10430              	.LASF242:
 10431 09e4 66696C74 		.ascii	"filter\000"
 10431      657200
 10432              	.LASF263:
 10433 09eb 70743146 		.ascii	"pt1FilterApply\000"
 10433      696C7465 
 10433      72417070 
 10433      6C7900
 10434              	.LASF191:
 10435 09fa 70743146 		.ascii	"pt1Filter_s\000"
 10435      696C7465 
 10435      725F7300 
 10436              	.LASF193:
 10437 0a06 70743146 		.ascii	"pt1Filter_t\000"
 10437      696C7465 
 10437      725F7400 
 10438              	.LASF68:
 10439 0a12 5F646174 		.ascii	"_data\000"
 10439      6100
 10440              	.LASF22:
 10441 0a18 5F5F7763 		.ascii	"__wchb\000"
 10441      686200
 10442              	.LASF127:
 10443 0a1f 5F676C6F 		.ascii	"_global_impure_ptr\000"
 10443      62616C5F 
 10443      696D7075 
 10443      72655F70 
 10443      747200
 10444              	.LASF40:
 10445 0a32 5F5F746D 		.ascii	"__tm_year\000"
 10445      5F796561 
 10445      7200
 10446              	.LASF232:
 10447 0a3c 5F5F6664 		.ascii	"__fdlibm_ieee\000"
 10447      6C69626D 
ARM GAS  /var/folders/_2/qbh2zpt918qcm2b_6mgyydnm0000gn/T//ccIdySvu.s 			page 205


 10447      5F696565 
 10447      6500
 10448              	.LASF105:
 10449 0a4a 5F6C6F63 		.ascii	"_localtime_buf\000"
 10449      616C7469 
 10449      6D655F62 
 10449      756600
 10450              	.LASF123:
 10451 0a59 5F756E75 		.ascii	"_unused\000"
 10451      73656400 
 10452              	.LASF7:
 10453 0a61 5F5F7569 		.ascii	"__uint8_t\000"
 10453      6E74385F 
 10453      7400
 10454              	.LASF89:
 10455 0a6b 5F6E6577 		.ascii	"_new\000"
 10455      00
 10456              	.LASF204:
 10457 0a70 46494C54 		.ascii	"FILTER_LPF\000"
 10457      45525F4C 
 10457      504600
 10458              	.LASF87:
 10459 0a7b 5F637674 		.ascii	"_cvtlen\000"
 10459      6C656E00 
 10460              	.LASF30:
 10461 0a83 5F6D6178 		.ascii	"_maxwds\000"
 10461      77647300 
 10462              	.LASF112:
 10463 0a8b 5F6C3634 		.ascii	"_l64a_buf\000"
 10463      615F6275 
 10463      6600
 10464              	.LASF192:
 10465 0a95 73746174 		.ascii	"state\000"
 10465      6500
 10466              	.LASF239:
 10467 0a9b 6E6F7463 		.ascii	"notchHz\000"
 10467      68487A00 
 10468              	.LASF212:
 10469 0aa3 6C6F7770 		.ascii	"lowpass2FilterApplyFn\000"
 10469      61737332 
 10469      46696C74 
 10469      65724170 
 10469      706C7946 
 10470              	.LASF208:
 10471 0ab9 6779726F 		.ascii	"gyroSensor_s\000"
 10471      53656E73 
 10471      6F725F73 
 10471      00
 10472              	.LASF220:
 10473 0ac6 6779726F 		.ascii	"gyroSensor_t\000"
 10473      53656E73 
 10473      6F725F74 
 10473      00
 10474              	.LASF243:
 10475 0ad3 66726571 		.ascii	"freq\000"
 10475      00
 10476              	.LASF66:
ARM GAS  /var/folders/_2/qbh2zpt918qcm2b_6mgyydnm0000gn/T//ccIdySvu.s 			page 206


 10477 0ad8 5F626C6B 		.ascii	"_blksize\000"
 10477      73697A65 
 10477      00
 10478              	.LASF34:
 10479 0ae1 5F5F746D 		.ascii	"__tm\000"
 10479      00
 10480              	.LASF69:
 10481 0ae6 5F6C6F63 		.ascii	"_lock\000"
 10481      6B00
 10482              	.LASF205:
 10483 0aec 46494C54 		.ascii	"FILTER_NOTCH\000"
 10483      45525F4E 
 10483      4F544348 
 10483      00
 10484              	.LASF206:
 10485 0af9 46494C54 		.ascii	"FILTER_BPF\000"
 10485      45525F42 
 10485      504600
 10486              	.LASF15:
 10487 0b04 6C6F6E67 		.ascii	"long unsigned int\000"
 10487      20756E73 
 10487      69676E65 
 10487      6420696E 
 10487      7400
 10488              	.LASF96:
 10489 0b16 5F6E696F 		.ascii	"_niobs\000"
 10489      627300
 10490              	.LASF20:
 10491 0b1d 77696E74 		.ascii	"wint_t\000"
 10491      5F7400
 10492              	.LASF247:
 10493 0b24 616C7068 		.ascii	"alpha\000"
 10493      6100
 10494              	.LASF184:
 10495 0b2a 64746572 		.ascii	"dterm_notch_hz\000"
 10495      6D5F6E6F 
 10495      7463685F 
 10495      687A00
 10496              	.LASF132:
 10497 0b39 696E7433 		.ascii	"int32_t\000"
 10497      325F7400 
 10498              	.LASF46:
 10499 0b41 5F64736F 		.ascii	"_dso_handle\000"
 10499      5F68616E 
 10499      646C6500 
 10500              	.LASF124:
 10501 0b4d 5F5F6C6F 		.ascii	"__lock\000"
 10501      636B00
 10502              	.LASF164:
 10503 0b54 68617264 		.ascii	"hardware_lpf\000"
 10503      77617265 
 10503      5F6C7066 
 10503      00
 10504              	.LASF158:
 10505 0b61 6779726F 		.ascii	"gyroADC\000"
 10505      41444300 
 10506              	.LASF153:
ARM GAS  /var/folders/_2/qbh2zpt918qcm2b_6mgyydnm0000gn/T//ccIdySvu.s 			page 207


 10507 0b69 6779726F 		.ascii	"gyroIsCalibrated\000"
 10507      49734361 
 10507      6C696272 
 10507      61746564 
 10507      00
 10508              	.LASF269:
 10509 0b7a 74797065 		.ascii	"type\000"
 10509      00
 10510              	.LASF277:
 10511 0b7f 696E6974 		.ascii	"initDtermNotchFilter\000"
 10511      44746572 
 10511      6D4E6F74 
 10511      63684669 
 10511      6C746572 
 10512              	.LASF88:
 10513 0b94 5F637674 		.ascii	"_cvtbuf\000"
 10513      62756600 
 10514              	.LASF156:
 10515 0b9c 6779726F 		.ascii	"gyroDev_s\000"
 10515      4465765F 
 10515      7300
 10516              	.LASF6:
 10517 0ba6 756E7369 		.ascii	"unsigned char\000"
 10517      676E6564 
 10517      20636861 
 10517      7200
 10518              	.LASF169:
 10519 0bb4 6779726F 		.ascii	"gyroDev_t\000"
 10519      4465765F 
 10519      7400
 10520              	.LASF14:
 10521 0bbe 5F5F7569 		.ascii	"__uint32_t\000"
 10521      6E743332 
 10521      5F7400
 10522              	.LASF135:
 10523 0bc9 66696C74 		.ascii	"filter_s\000"
 10523      65725F73 
 10523      00
 10524              	.LASF134:
 10525 0bd2 66696C74 		.ascii	"filter_t\000"
 10525      65725F74 
 10525      00
 10526              	.LASF138:
 10527 0bdb 6F6C644D 		.ascii	"oldMean\000"
 10527      65616E00 
 10528              	.LASF114:
 10529 0be3 5F676574 		.ascii	"_getdate_err\000"
 10529      64617465 
 10529      5F657272 
 10529      00
 10530              	.LASF231:
 10531 0bf0 64746572 		.ascii	"dtermPT1\000"
 10531      6D505431 
 10531      00
 10532              	.LASF148:
 10533 0bf9 6779726F 		.ascii	"gyro_s\000"
 10533      5F7300
ARM GAS  /var/folders/_2/qbh2zpt918qcm2b_6mgyydnm0000gn/T//ccIdySvu.s 			page 208


 10534              	.LASF154:
 10535 0c00 6779726F 		.ascii	"gyro_t\000"
 10535      5F7400
 10536              	.LASF101:
 10537 0c07 5F616464 		.ascii	"_add\000"
 10537      00
 10538              	.LASF52:
 10539 0c0c 5F5F7362 		.ascii	"__sbuf\000"
 10539      756600
 10540              	.LASF163:
 10541 0c13 6779726F 		.ascii	"gyro_high_fsr\000"
 10541      5F686967 
 10541      685F6673 
 10541      7200
 10542              	.LASF95:
 10543 0c21 5F676C75 		.ascii	"_glue\000"
 10543      6500
 10544              	.LASF281:
 10545 0c27 5F5F6664 		.ascii	"__fdlibm_version\000"
 10545      6C69626D 
 10545      5F766572 
 10545      73696F6E 
 10545      00
 10546              	.LASF92:
 10547 0c38 5F5F7367 		.ascii	"__sglue\000"
 10547      6C756500 
 10548              	.LASF238:
 10549 0c40 6375746F 		.ascii	"cutoffFreq\000"
 10549      66664672 
 10549      657100
 10550              	.LASF103:
 10551 0c4b 5F737472 		.ascii	"_strtok_last\000"
 10551      746F6B5F 
 10551      6C617374 
 10551      00
 10552              	.LASF110:
 10553 0c58 5F6D6274 		.ascii	"_mbtowc_state\000"
 10553      6F77635F 
 10553      73746174 
 10553      6500
 10554              	.LASF177:
 10555 0c66 44796E4E 		.ascii	"DynNotchFilterActive\000"
 10555      6F746368 
 10555      46696C74 
 10555      65724163 
 10555      74697665 
 10556              	.LASF80:
 10557 0c7b 5F6C6F63 		.ascii	"_locale\000"
 10557      616C6500 
 10558              	.LASF203:
 10559 0c83 46494C54 		.ascii	"FILTER_BIQUAD\000"
 10559      45525F42 
 10559      49515541 
 10559      4400
 10560              	.LASF45:
 10561 0c91 5F666E61 		.ascii	"_fnargs\000"
 10561      72677300 
ARM GAS  /var/folders/_2/qbh2zpt918qcm2b_6mgyydnm0000gn/T//ccIdySvu.s 			page 209


 10562              	.LASF5:
 10563 0c99 7369676E 		.ascii	"signed char\000"
 10563      65642063 
 10563      68617200 
 10564              	.LASF72:
 10565 0ca5 5F726565 		.ascii	"_reent\000"
 10565      6E7400
 10566              	.LASF11:
 10567 0cac 73686F72 		.ascii	"short unsigned int\000"
 10567      7420756E 
 10567      7369676E 
 10567      65642069 
 10567      6E7400
 10568              	.LASF229:
 10569 0cbf 64746572 		.ascii	"dtermLowpassFilterApply\000"
 10569      6D4C6F77 
 10569      70617373 
 10569      46696C74 
 10569      65724170 
 10570              	.LASF47:
 10571 0cd7 5F666E74 		.ascii	"_fntypes\000"
 10571      79706573 
 10571      00
 10572              	.LASF214:
 10573 0ce0 6E6F7463 		.ascii	"notchFilter1ApplyFn\000"
 10573      6846696C 
 10573      74657231 
 10573      4170706C 
 10573      79466E00 
 10574              	.LASF228:
 10575 0cf4 64746572 		.ascii	"dtermNotch\000"
 10575      6D4E6F74 
 10575      636800
 10576              	.LASF54:
 10577 0cff 5F73697A 		.ascii	"_size\000"
 10577      6500
 10578              	.LASF1:
 10579 0d05 646F7562 		.ascii	"double\000"
 10579      6C6500
 10580              	.LASF18:
 10581 0d0c 5F6F6666 		.ascii	"_off_t\000"
 10581      5F7400
 10582              	.LASF65:
 10583 0d13 5F6E6275 		.ascii	"_nbuf\000"
 10583      6600
 10584              	.LASF102:
 10585 0d19 5F756E75 		.ascii	"_unused_rand\000"
 10585      7365645F 
 10585      72616E64 
 10585      00
 10586              	.LASF79:
 10587 0d26 5F756E73 		.ascii	"_unspecified_locale_info\000"
 10587      70656369 
 10587      66696564 
 10587      5F6C6F63 
 10587      616C655F 
 10588              	.LASF178:
ARM GAS  /var/folders/_2/qbh2zpt918qcm2b_6mgyydnm0000gn/T//ccIdySvu.s 			page 210


 10589 0d3f 6779726F 		.ascii	"gyro_lowpass_type\000"
 10589      5F6C6F77 
 10589      70617373 
 10589      5F747970 
 10589      6500
 10590              	.LASF71:
 10591 0d51 5F666C61 		.ascii	"_flags2\000"
 10591      67733200 
 10592              	.LASF48:
 10593 0d59 5F69735F 		.ascii	"_is_cxa\000"
 10593      63786100 
 10594              	.LASF279:
 10595 0d61 73696E5F 		.ascii	"sin_approx\000"
 10595      61707072 
 10595      6F7800
 10596              	.LASF99:
 10597 0d6c 5F736565 		.ascii	"_seed\000"
 10597      6400
 10598              	.LASF107:
 10599 0d72 5F72616E 		.ascii	"_rand_next\000"
 10599      645F6E65 
 10599      787400
 10600              	.LASF125:
 10601 0d7d 5F5F6C6F 		.ascii	"__locale_t\000"
 10601      63616C65 
 10601      5F7400
 10602              	.LASF62:
 10603 0d88 5F736565 		.ascii	"_seek\000"
 10603      6B00
 10604              	.LASF165:
 10605 0d8e 68617264 		.ascii	"hardware_32khz_lpf\000"
 10605      77617265 
 10605      5F33326B 
 10605      687A5F6C 
 10605      706600
 10606              	.LASF76:
 10607 0da1 5F737464 		.ascii	"_stderr\000"
 10607      65727200 
 10608              	.LASF122:
 10609 0da9 5F6E6D61 		.ascii	"_nmalloc\000"
 10609      6C6C6F63 
 10609      00
 10610              	.LASF64:
 10611 0db2 5F756275 		.ascii	"_ubuf\000"
 10611      6600
 10612              	.LASF167:
 10613 0db8 6779726F 		.ascii	"gyroHasOverflowProtection\000"
 10613      4861734F 
 10613      76657266 
 10613      6C6F7750 
 10613      726F7465 
 10614              	.LASF207:
 10615 0dd2 62697175 		.ascii	"biquadFilterType_e\000"
 10615      61644669 
 10615      6C746572 
 10615      54797065 
 10615      5F6500
ARM GAS  /var/folders/_2/qbh2zpt918qcm2b_6mgyydnm0000gn/T//ccIdySvu.s 			page 211


 10616              		.ident	"GCC: (GNU Tools for Arm Embedded Processors 9-2019-q4-major) 9.2.1 20191025 (release) [ARM
ARM GAS  /var/folders/_2/qbh2zpt918qcm2b_6mgyydnm0000gn/T//ccIdySvu.s 			page 212


DEFINED SYMBOLS
                            *ABS*:0000000000000000 filter.c
/var/folders/_2/qbh2zpt918qcm2b_6mgyydnm0000gn/T//ccIdySvu.s:76     .text:0000000000000000 $t
/var/folders/_2/qbh2zpt918qcm2b_6mgyydnm0000gn/T//ccIdySvu.s:84     .text:0000000000000000 pt1FilterApply
/var/folders/_2/qbh2zpt918qcm2b_6mgyydnm0000gn/T//ccIdySvu.s:145    .text:000000000000001e biquadFilterApply
/var/folders/_2/qbh2zpt918qcm2b_6mgyydnm0000gn/T//ccIdySvu.s:269    .text:0000000000000076 biquadFilterApplyDyn
/var/folders/_2/qbh2zpt918qcm2b_6mgyydnm0000gn/T//ccIdySvu.s:408    .text:00000000000000e2 nullFilterApply
/var/folders/_2/qbh2zpt918qcm2b_6mgyydnm0000gn/T//ccIdySvu.s:439    .text:00000000000000e6 pt1FilterGain
/var/folders/_2/qbh2zpt918qcm2b_6mgyydnm0000gn/T//ccIdySvu.s:498    .text:0000000000000118 $d
/var/folders/_2/qbh2zpt918qcm2b_6mgyydnm0000gn/T//ccIdySvu.s:505    .text:0000000000000124 $t
/var/folders/_2/qbh2zpt918qcm2b_6mgyydnm0000gn/T//ccIdySvu.s:512    .text:0000000000000124 initDtermLowpassFilter
/var/folders/_2/qbh2zpt918qcm2b_6mgyydnm0000gn/T//ccIdySvu.s:633    .text:0000000000000160 $d
                            *COM*:0000000000000004 dtermLowpassFilter2Apply
                            *COM*:0000000000000018 dtermPT1
/var/folders/_2/qbh2zpt918qcm2b_6mgyydnm0000gn/T//ccIdySvu.s:643    .text:000000000000017c $t
/var/folders/_2/qbh2zpt918qcm2b_6mgyydnm0000gn/T//ccIdySvu.s:650    .text:000000000000017c pt1FilterInit
/var/folders/_2/qbh2zpt918qcm2b_6mgyydnm0000gn/T//ccIdySvu.s:680    .text:0000000000000184 biquadFilterInit
/var/folders/_2/qbh2zpt918qcm2b_6mgyydnm0000gn/T//ccIdySvu.s:1103   .text:00000000000002d0 $d
/var/folders/_2/qbh2zpt918qcm2b_6mgyydnm0000gn/T//ccIdySvu.s:1108   .text:00000000000002d8 $t
/var/folders/_2/qbh2zpt918qcm2b_6mgyydnm0000gn/T//ccIdySvu.s:1115   .text:00000000000002d8 initDtermLpfFilter
/var/folders/_2/qbh2zpt918qcm2b_6mgyydnm0000gn/T//ccIdySvu.s:1315   .text:0000000000000354 $d
                            *COM*:0000000000000004 dtermLowpassFilterApply
                            *COM*:000000000000006c dtermLowpass
/var/folders/_2/qbh2zpt918qcm2b_6mgyydnm0000gn/T//ccIdySvu.s:1328   .text:0000000000000378 $t
/var/folders/_2/qbh2zpt918qcm2b_6mgyydnm0000gn/T//ccIdySvu.s:1335   .text:0000000000000378 accelInitLowPassFilter
/var/folders/_2/qbh2zpt918qcm2b_6mgyydnm0000gn/T//ccIdySvu.s:1406   .text:00000000000003a8 gyroInitLowPassFilter
/var/folders/_2/qbh2zpt918qcm2b_6mgyydnm0000gn/T//ccIdySvu.s:1665   .text:0000000000000458 $d
/var/folders/_2/qbh2zpt918qcm2b_6mgyydnm0000gn/T//ccIdySvu.s:1677   .text:0000000000000478 $t
/var/folders/_2/qbh2zpt918qcm2b_6mgyydnm0000gn/T//ccIdySvu.s:1684   .text:0000000000000478 gyroInitFilterDynNotch
/var/folders/_2/qbh2zpt918qcm2b_6mgyydnm0000gn/T//ccIdySvu.s:1790   .text:00000000000004bc $d
/var/folders/_2/qbh2zpt918qcm2b_6mgyydnm0000gn/T//ccIdySvu.s:1799   .text:00000000000004d4 $t
/var/folders/_2/qbh2zpt918qcm2b_6mgyydnm0000gn/T//ccIdySvu.s:1806   .text:00000000000004d4 calculateNyquistAdjustNotchHz
/var/folders/_2/qbh2zpt918qcm2b_6mgyydnm0000gn/T//ccIdySvu.s:1885   .text:0000000000000508 $d
/var/folders/_2/qbh2zpt918qcm2b_6mgyydnm0000gn/T//ccIdySvu.s:1891   .text:0000000000000514 $t
/var/folders/_2/qbh2zpt918qcm2b_6mgyydnm0000gn/T//ccIdySvu.s:1898   .text:0000000000000514 filterGetNotchQ
/var/folders/_2/qbh2zpt918qcm2b_6mgyydnm0000gn/T//ccIdySvu.s:1972   .text:0000000000000544 initDtermNotchFilter
/var/folders/_2/qbh2zpt918qcm2b_6mgyydnm0000gn/T//ccIdySvu.s:2096   .text:00000000000005a8 $d
                            *COM*:0000000000000004 dtermNotchFilterApply
                            *COM*:000000000000006c dtermNotch
/var/folders/_2/qbh2zpt918qcm2b_6mgyydnm0000gn/T//ccIdySvu.s:2107   .text:00000000000005c8 $t
/var/folders/_2/qbh2zpt918qcm2b_6mgyydnm0000gn/T//ccIdySvu.s:2114   .text:00000000000005c8 gyroInitFilterNotch1
/var/folders/_2/qbh2zpt918qcm2b_6mgyydnm0000gn/T//ccIdySvu.s:2235   .text:000000000000062c $d
/var/folders/_2/qbh2zpt918qcm2b_6mgyydnm0000gn/T//ccIdySvu.s:2241   .text:0000000000000638 $t
/var/folders/_2/qbh2zpt918qcm2b_6mgyydnm0000gn/T//ccIdySvu.s:2248   .text:0000000000000638 gyroInitFilterNotch2
/var/folders/_2/qbh2zpt918qcm2b_6mgyydnm0000gn/T//ccIdySvu.s:2369   .text:000000000000069c $d
/var/folders/_2/qbh2zpt918qcm2b_6mgyydnm0000gn/T//ccIdySvu.s:2375   .text:00000000000006a8 $t
/var/folders/_2/qbh2zpt918qcm2b_6mgyydnm0000gn/T//ccIdySvu.s:2382   .text:00000000000006a8 gyroInitFilters
/var/folders/_2/qbh2zpt918qcm2b_6mgyydnm0000gn/T//ccIdySvu.s:2451   .text:00000000000006e4 $d
                            *COM*:0000000000000274 gyroSensor
                            *COM*:000000000000006c accelFilter

UNDEFINED SYMBOLS
__aeabi_fsub
__aeabi_fmul
__aeabi_fadd
__aeabi_i2d
__aeabi_dmul
ARM GAS  /var/folders/_2/qbh2zpt918qcm2b_6mgyydnm0000gn/T//ccIdySvu.s 			page 213


__aeabi_ddiv
__aeabi_d2f
__aeabi_fdiv
__aeabi_ui2f
dtermFilterSettings
gyro
sin_approx
cos_approx
__aeabi_ui2d
__aeabi_d2uiz
gyroConfig
