ARM GAS  /var/folders/_2/qbh2zpt918qcm2b_6mgyydnm0000gn/T//ccIdySvu.s 			page 1


   1              		.cpu cortex-m4
   2              		.eabi_attribute 20, 1	@ Tag_ABI_FP_denormal
   3              		.eabi_attribute 21, 1	@ Tag_ABI_FP_exceptions
   4              		.eabi_attribute 23, 3	@ Tag_ABI_FP_number_model
   5              		.eabi_attribute 24, 1	@ Tag_ABI_align8_needed
   6              		.eabi_attribute 25, 1	@ Tag_ABI_align8_preserved
   7              		.eabi_attribute 26, 1	@ Tag_ABI_enum_size
   8              		.eabi_attribute 30, 4	@ Tag_ABI_optimization_goals
   9              		.eabi_attribute 34, 1	@ Tag_CPU_unaligned_access
  10              		.eabi_attribute 18, 4	@ Tag_ABI_PCS_wchar_t
  11              		.file	"filter.c"
  12              	@ GNU C17 (GNU Tools for Arm Embedded Processors 9-2019-q4-major) version 9.2.1 20191025 (release) 
  13              	@	compiled by GNU C version 4.2.1 Compatible Apple LLVM 9.0.0 (clang-900.0.39.2), GMP version 6.1.0
  14              	
  15              	@ GGC heuristics: --param ggc-min-expand=100 --param ggc-min-heapsize=131072
  16              	@ options passed:  -I .
  17              	@ -I /Users/rdaneel/Binary/Roaming/C-Code/StmProjects/stm32f3x/lib/STM32F30x_DSP_StdPeriph_Lib_V1.2
  18              	@ -I /Users/rdaneel/Binary/Roaming/C-Code/StmProjects/stm32f3x/lib/STM32F30x_DSP_StdPeriph_Lib_V1.2
  19              	@ -I /Users/rdaneel/Binary/Roaming/C-Code/StmProjects/stm32f3x/lib/STM32F30x_DSP_StdPeriph_Lib_V1.2
  20              	@ -imultilib thumb/v7e-m/nofp
  21              	@ -iprefix /usr/local/Cellar/arm-none-eabi-gcc/9-2019-q4-major/gcc/bin/../lib/gcc/arm-none-eabi/9.2
  22              	@ -isysroot /usr/local/Cellar/arm-none-eabi-gcc/9-2019-q4-major/gcc/bin/../arm-none-eabi
  23              	@ -D__USES_INITFINI__ -D STM32F30X_MD -D USE_STDPERIPH_DRIVER
  24              	@ -D HSE_VALUE=8000000 -D RUN_FROM_FLASH=1 filter.c -mcpu=cortex-m4 -mthumb
  25              	@ -mfloat-abi=soft -march=armv7e-m -auxbase-strip filter.o -g -gdwarf-2 -Os
  26              	@ -Wall -fomit-frame-pointer -fverbose-asm
  27              	@ options enabled:  -faggressive-loop-optimizations -fassume-phsa
  28              	@ -fauto-inc-dec -fbranch-count-reg -fcaller-saves -fcode-hoisting
  29              	@ -fcombine-stack-adjustments -fcommon -fcompare-elim -fcprop-registers
  30              	@ -fcrossjumping -fcse-follow-jumps -fdefer-pop
  31              	@ -fdelete-null-pointer-checks -fdevirtualize -fdevirtualize-speculatively
  32              	@ -fdwarf2-cfi-asm -fearly-inlining -feliminate-unused-debug-types
  33              	@ -fexpensive-optimizations -fforward-propagate -ffp-int-builtin-inexact
  34              	@ -ffunction-cse -fgcse -fgcse-lm -fgnu-runtime -fgnu-unique
  35              	@ -fguess-branch-probability -fhoist-adjacent-loads -fident -fif-conversion
  36              	@ -fif-conversion2 -findirect-inlining -finline -finline-atomics
  37              	@ -finline-functions -finline-functions-called-once
  38              	@ -finline-small-functions -fipa-bit-cp -fipa-cp -fipa-icf
  39              	@ -fipa-icf-functions -fipa-icf-variables -fipa-profile -fipa-pure-const
  40              	@ -fipa-ra -fipa-reference -fipa-reference-addressable -fipa-sra
  41              	@ -fipa-stack-alignment -fipa-vrp -fira-hoist-pressure
  42              	@ -fira-share-save-slots -fira-share-spill-slots
  43              	@ -fisolate-erroneous-paths-dereference -fivopts -fkeep-static-consts
  44              	@ -fleading-underscore -flifetime-dse -flra-remat -flto-odr-type-merging
  45              	@ -fmath-errno -fmerge-constants -fmerge-debug-strings
  46              	@ -fmove-loop-invariants -fomit-frame-pointer -foptimize-sibling-calls
  47              	@ -fpartial-inlining -fpeephole -fpeephole2 -fplt -fprefetch-loop-arrays
  48              	@ -freg-struct-return -freorder-blocks -freorder-functions
  49              	@ -frerun-cse-after-loop -fsched-critical-path-heuristic
  50              	@ -fsched-dep-count-heuristic -fsched-group-heuristic -fsched-interblock
  51              	@ -fsched-last-insn-heuristic -fsched-pressure -fsched-rank-heuristic
  52              	@ -fsched-spec -fsched-spec-insn-heuristic -fsched-stalled-insns-dep
  53              	@ -fschedule-insns2 -fsection-anchors -fsemantic-interposition
  54              	@ -fshow-column -fshrink-wrap-separate -fsigned-zeros
  55              	@ -fsplit-ivs-in-unroller -fsplit-wide-types -fssa-backprop -fssa-phiopt
  56              	@ -fstdarg-opt -fstore-merging -fstrict-aliasing
  57              	@ -fstrict-volatile-bitfields -fsync-libcalls -fthread-jumps
ARM GAS  /var/folders/_2/qbh2zpt918qcm2b_6mgyydnm0000gn/T//ccIdySvu.s 			page 2


  58              	@ -ftoplevel-reorder -ftrapping-math -ftree-bit-ccp -ftree-builtin-call-dce
  59              	@ -ftree-ccp -ftree-ch -ftree-coalesce-vars -ftree-copy-prop -ftree-cselim
  60              	@ -ftree-dce -ftree-dominator-opts -ftree-dse -ftree-forwprop -ftree-fre
  61              	@ -ftree-loop-if-convert -ftree-loop-im -ftree-loop-ivcanon
  62              	@ -ftree-loop-optimize -ftree-parallelize-loops= -ftree-phiprop -ftree-pre
  63              	@ -ftree-pta -ftree-reassoc -ftree-scev-cprop -ftree-sink -ftree-slsr
  64              	@ -ftree-sra -ftree-switch-conversion -ftree-tail-merge -ftree-ter
  65              	@ -ftree-vrp -funit-at-a-time -fvar-tracking -fvar-tracking-assignments
  66              	@ -fverbose-asm -fzero-initialized-in-bss -masm-syntax-unified -mbe32
  67              	@ -mlittle-endian -mpic-data-is-text-relative -msched-prolog -mthumb
  68              	@ -munaligned-access -mvectorize-with-neon-quad
  69              	
  70              		.text
  71              	.Ltext0:
  72              		.cfi_sections	.debug_frame
  73              		.global	__aeabi_fsub
  74              		.global	__aeabi_fmul
  75              		.global	__aeabi_fadd
  76              		.align	1
  77              		.global	pt1FilterApply
  78              		.arch armv7e-m
  79              		.syntax unified
  80              		.thumb
  81              		.thumb_func
  82              		.fpu softvfp
  83              		.type	pt1FilterApply, %function
  84              	pt1FilterApply:
  85              	.LVL0:
  86              	.LFB11:
  87              		.file 1 "filter.c"
   1:filter.c      **** #include "filter.h"
   2:filter.c      **** #include "maths.h"
   3:filter.c      **** #include <math.h>
   4:filter.c      **** 
   5:filter.c      **** gyroSensor_t gyroSensor; //Initalizing the gyro with the variables that holds the filter functions 
   6:filter.c      **** 
   7:filter.c      **** void gyroInitFilters (gyroSensor_t *gyroSensor){
   8:filter.c      **** 	gyroInitLowPassFilter(gyroSensor, FILTER_LOWPASS, gyroConfig.gyro_lowpass_type, gyroConfig.gyro_lo
   9:filter.c      **** 	gyroInitLowPassFilter(gyroSensor, FILTER_LOWPASS2, gyroConfig.gyro_lowpass2_type, gyroConfig.gyro_
  10:filter.c      **** 	gyroInitFilterNotch1(gyroSensor, gyroConfig.gyro_soft_notch_hz_1, gyroConfig.gyro_soft_notch_cutof
  11:filter.c      **** 	gyroInitFilterNotch2(gyroSensor, gyroConfig.gyro_soft_notch_hz_2, gyroConfig.gyro_soft_notch_cutof
  12:filter.c      **** 	gyroInitFilterDynNotch(gyroSensor);
  13:filter.c      **** 	
  14:filter.c      **** };
  15:filter.c      **** 
  16:filter.c      **** void initDtermNotchFilter(){	
  17:filter.c      **** 	
  18:filter.c      **** 	dtermNotchFilterApply = nullFilterApply;
  19:filter.c      **** 	uint16_t notchHz;
  20:filter.c      **** 	
  21:filter.c      **** 	//Initalization of the dterm Notch filter
  22:filter.c      **** 	if(dtermFilterSettings.dterm_notch_hz && dtermFilterSettings.dterm_notch_cutoff_hz){
  23:filter.c      **** 		notchHz = calculateNyquistAdjustNotchHz(dtermFilterSettings.dterm_notch_hz, dtermFilterSettings.d
  24:filter.c      **** 		dtermNotchFilterApply = (filterApplyPtr) biquadFilterApply;
  25:filter.c      **** 		const float notchQ = filterGetNotchQ(notchHz, dtermFilterSettings.dterm_notch_cutoff_hz);
  26:filter.c      **** 		for(int axis = 0; axis < 3; ++axis){
  27:filter.c      **** 			biquadFilterInit(&dtermNotch[axis], notchHz, gyro.targetLoopTime, notchQ, FILTER_NOTCH);
ARM GAS  /var/folders/_2/qbh2zpt918qcm2b_6mgyydnm0000gn/T//ccIdySvu.s 			page 3


  28:filter.c      **** 		};
  29:filter.c      **** 	};
  30:filter.c      **** };
  31:filter.c      **** 
  32:filter.c      **** void initDtermLowpassFilter(void){	
  33:filter.c      **** 
  34:filter.c      **** 	dtermLowpassFilter2Apply = nullFilterApply;
  35:filter.c      **** 	
  36:filter.c      **** 	//Initalization of the 2nd LowpassFilter pt1Filter
  37:filter.c      **** 	if(dtermFilterSettings.dterm_lowpass2_hz){
  38:filter.c      **** 		dtermLowpassFilter2Apply = (filterApplyPtr) pt1FilterApply;
  39:filter.c      **** 		for(int axis = 0; axis < 3; ++axis){
  40:filter.c      **** 			pt1FilterInit(&dtermPT1[axis], pt1FilterGain(dtermFilterSettings.dterm_lowpass2_hz, gyro.targetL
  41:filter.c      **** 		};	
  42:filter.c      **** 	};
  43:filter.c      **** };
  44:filter.c      **** 
  45:filter.c      **** void initDtermLpfFilter(uint8_t lpf_type){
  46:filter.c      **** 	
  47:filter.c      **** 	dtermLowpassFilterApply = nullFilterApply;
  48:filter.c      **** 
  49:filter.c      **** 	//Initalization of the 	1st LowPassFilter pt1Filter or BIQUAD
  50:filter.c      **** 	if(lpf_type){
  51:filter.c      **** 		switch(dtermFilterSettings.dterm_lowpass_type){
  52:filter.c      **** 			case FILTER_PT1:
  53:filter.c      **** 				dtermLowpassFilterApply = (filterApplyPtr) pt1FilterApply;
  54:filter.c      **** 				for(int axis = 0; axis < 3; ++axis){
  55:filter.c      **** 					pt1FilterInit(&dtermLowpass[axis].pt1Filter, pt1FilterGain(dtermFilterSettings.dterm_lowpass_h
  56:filter.c      **** 				};
  57:filter.c      **** 			break;
  58:filter.c      **** 			case FILTER_BIQUAD:
  59:filter.c      **** 				dtermLowpassFilterApply = (filterApplyPtr) biquadFilterApply;
  60:filter.c      **** 				for(int axis = 0; axis < 3; ++axis){
  61:filter.c      **** 					biquadFilterInit(&dtermLowpass[axis].biquadFilter, dtermFilterSettings.dterm_lowpass_hz, gyro.
  62:filter.c      **** 				};
  63:filter.c      **** 			break;
  64:filter.c      **** 			default:
  65:filter.c      **** 			break;
  66:filter.c      **** 		};
  67:filter.c      **** 	};
  68:filter.c      **** };
  69:filter.c      **** 
  70:filter.c      **** 
  71:filter.c      **** void accelInitLowPassFilter(biquadFilter_t *filter, float accLpfHz, uint16_t refreshrate, float Q, 
  72:filter.c      **** 	for(int axis =0; axis < 3; ++axis){
  73:filter.c      **** 		 biquadFilterInit(&filter[axis], accLpfHz, refreshrate, Q, type);
  74:filter.c      **** 	}
  75:filter.c      **** };
  76:filter.c      **** 
  77:filter.c      **** 
  78:filter.c      **** void gyroInitLowPassFilter(gyroSensor_t *gyroSensor, int slot, int type, uint16_t lpfHz){
  79:filter.c      **** 	filterApplyPtr* lowpassFilterApplyFn; //filterApplyPTr** because we point to a Pointer that points
  80:filter.c      **** 	gyroLowpassFilter_t* lowpassFilter = NULL;
  81:filter.c      **** 
  82:filter.c      **** 	// Define the lowpassFilter function in the gyroSensor Structure
  83:filter.c      **** 	switch(slot){
  84:filter.c      **** 		case FILTER_LOWPASS: // PT1 Filter
ARM GAS  /var/folders/_2/qbh2zpt918qcm2b_6mgyydnm0000gn/T//ccIdySvu.s 			page 4


  85:filter.c      **** 			lowpassFilterApplyFn = &gyroSensor->lowpassFilterApplyFn;
  86:filter.c      **** 			lowpassFilter = &gyroSensor->lowpassFilter[0]; //one possible way
  87:filter.c      **** 		break;
  88:filter.c      **** 		case FILTER_LOWPASS2: 
  89:filter.c      **** 			lowpassFilterApplyFn = &gyroSensor->lowpass2FilterApplyFn;
  90:filter.c      **** 			lowpassFilter = gyroSensor->lowpass2Filter; //second possbile way
  91:filter.c      **** 		break;
  92:filter.c      **** 		default:
  93:filter.c      **** 		return;
  94:filter.c      **** 	};
  95:filter.c      **** 	
  96:filter.c      **** 	// Calculation of constants that need to be used 
  97:filter.c      **** 	const uint32_t gyroFrequencyNyquist = (1e6/2/gyro.targetLoopTime);
  98:filter.c      **** 	const float gyroDt = gyro.targetLoopTime * 1.0e-6f;
  99:filter.c      **** 	const float gain = pt1FilterGain(lpfHz, gyroDt);
 100:filter.c      **** 	
 101:filter.c      **** 	//Dereference the pointer lowpassFilerApplyFn because it´s a pointer pointer (filterApplyPtr) and
 102:filter.c      **** 	//gyroSensor->lowpassFilterApplyFn should be the address of the function nullFilerApply.
 103:filter.c      **** 	// if the lpfHz is specified it must be lower then Nyquist frequenzy otherwise no filter will be a
 104:filter.c      **** 	*lowpassFilterApplyFn = nullFilterApply; //dereferenzing because lowpassFilterApplyFn is from Type
 105:filter.c      **** 	if(lpfHz && lpfHz <= gyroFrequencyNyquist){
 106:filter.c      **** 		switch (type){
 107:filter.c      **** 		case FILTER_PT1:
 108:filter.c      **** 			*lowpassFilterApplyFn = (filterApplyPtr) pt1FilterApply;
 109:filter.c      **** 			for (int axis = 0; axis < XYZ_AXIS_COUNT; ++axis){
 110:filter.c      **** 				pt1FilterInit(&lowpassFilter[axis].pt1FilterState, gain);
 111:filter.c      **** 			};
 112:filter.c      **** 		break;
 113:filter.c      **** 		case FILTER_BIQUAD:
 114:filter.c      **** 			*lowpassFilterApplyFn = (filterApplyPtr) biquadFilterApply;
 115:filter.c      **** 			for (int axis = 0; axis < XYZ_AXIS_COUNT; ++axis){
 116:filter.c      **** 				biquadFilterInit(&lowpassFilter[axis].biquadFilterState, lpfHz, gyro.targetLoopTime, BIQUAD_Q, 
 117:filter.c      **** 			};
 118:filter.c      **** 		break;
 119:filter.c      **** 		};
 120:filter.c      **** 	};
 121:filter.c      **** };
 122:filter.c      **** 
 123:filter.c      **** 
 124:filter.c      **** void gyroInitFilterNotch1(gyroSensor_t *gyroSensor, uint16_t notchHz, uint16_t notchCutoffHz){
 125:filter.c      **** 	gyroSensor->notchFilter1ApplyFn = nullFilterApply;
 126:filter.c      **** 	notchHz = calculateNyquistAdjustNotchHz(notchHz, notchCutoffHz);
 127:filter.c      **** 	
 128:filter.c      **** 	if (notchHz != 0 && notchCutoffHz != 0) {
 129:filter.c      **** 		gyroSensor->notchFilter1ApplyFn = (filterApplyPtr) biquadFilterApply;
 130:filter.c      **** 		const float notchQ = filterGetNotchQ(notchHz, notchCutoffHz);
 131:filter.c      **** 		for (int axis = 0; axis < XYZ_AXIS_COUNT; ++axis) {
 132:filter.c      **** 			biquadFilterInit(&gyroSensor->notchFilter1[axis], notchHz, gyro.targetLoopTime, notchQ, FILTER_N
 133:filter.c      **** 		};
 134:filter.c      **** 	};	
 135:filter.c      **** };
 136:filter.c      **** 
 137:filter.c      **** void gyroInitFilterNotch2(gyroSensor_t *gyroSensor, uint16_t notchHz, uint16_t notchCutoffHz){
 138:filter.c      **** 	gyroSensor->notchFilter2ApplyFn = nullFilterApply;
 139:filter.c      **** 	notchHz = calculateNyquistAdjustNotchHz(notchHz, notchCutoffHz);
 140:filter.c      **** 	
 141:filter.c      **** 	if (notchHz != 0 && notchCutoffHz != 0) {
ARM GAS  /var/folders/_2/qbh2zpt918qcm2b_6mgyydnm0000gn/T//ccIdySvu.s 			page 5


 142:filter.c      **** 		gyroSensor->notchFilter2ApplyFn = (filterApplyPtr) biquadFilterApply;
 143:filter.c      **** 		const float notchQ = filterGetNotchQ(notchHz, notchCutoffHz);
 144:filter.c      **** 		for (int axis = 0; axis < XYZ_AXIS_COUNT; ++axis) {
 145:filter.c      **** 			biquadFilterInit(&gyroSensor->notchFilter2[axis], notchHz, gyro.targetLoopTime, notchQ, FILTER_N
 146:filter.c      **** 		};
 147:filter.c      **** 	};	
 148:filter.c      **** }
 149:filter.c      **** 
 150:filter.c      **** float pt1FilterApply(pt1Filter_t *filter, float input){
  88              		.loc 1 150 55 view -0
  89              		.cfi_startproc
  90              		@ args = 0, pretend = 0, frame = 0
  91              		@ frame_needed = 0, uses_anonymous_args = 0
 151:filter.c      **** 	filter->state = filter->state + filter->k * (input - filter->state);
  92              		.loc 1 151 2 view .LVU1
  93              	@ filter.c:150: float pt1FilterApply(pt1Filter_t *filter, float input){
 150:filter.c      **** 	filter->state = filter->state + filter->k * (input - filter->state);
  94              		.loc 1 150 55 is_stmt 0 view .LVU2
  95 0000 38B5     		push	{r3, r4, r5, lr}	@
  96              	.LCFI0:
  97              		.cfi_def_cfa_offset 16
  98              		.cfi_offset 3, -16
  99              		.cfi_offset 4, -12
 100              		.cfi_offset 5, -8
 101              		.cfi_offset 14, -4
 102              	@ filter.c:150: float pt1FilterApply(pt1Filter_t *filter, float input){
 150:filter.c      **** 	filter->state = filter->state + filter->k * (input - filter->state);
 103              		.loc 1 150 55 view .LVU3
 104 0002 0446     		mov	r4, r0	@ filter, tmp121
 105 0004 0846     		mov	r0, r1	@ tmp122, input
 106              	.LVL1:
 107              	@ filter.c:151: 	filter->state = filter->state + filter->k * (input - filter->state);
 108              		.loc 1 151 24 view .LVU4
 109 0006 2568     		ldr	r5, [r4]	@ float	@ _1, filter_7(D)->state
 110              	@ filter.c:151: 	filter->state = filter->state + filter->k * (input - filter->state);
 111              		.loc 1 151 53 view .LVU5
 112 0008 2946     		mov	r1, r5	@, _1
 113              	.LVL2:
 114              		.loc 1 151 53 view .LVU6
 115 000a FFF7FEFF 		bl	__aeabi_fsub		@
 116              	.LVL3:
 117              	@ filter.c:151: 	filter->state = filter->state + filter->k * (input - filter->state);
 118              		.loc 1 151 44 view .LVU7
 119 000e 6168     		ldr	r1, [r4, #4]	@ float	@, filter_7(D)->k
 120 0010 FFF7FEFF 		bl	__aeabi_fmul		@
 121              	.LVL4:
 122              	@ filter.c:151: 	filter->state = filter->state + filter->k * (input - filter->state);
 123              		.loc 1 151 32 view .LVU8
 124 0014 2946     		mov	r1, r5	@, _1
 125 0016 FFF7FEFF 		bl	__aeabi_fadd		@
 126              	.LVL5:
 127              	@ filter.c:151: 	filter->state = filter->state + filter->k * (input - filter->state);
 128              		.loc 1 151 16 view .LVU9
 129 001a 2060     		str	r0, [r4]	@ float	@ tmp123, filter_7(D)->state
 152:filter.c      **** 	return filter->state;
 130              		.loc 1 152 2 is_stmt 1 view .LVU10
 131              	@ filter.c:153: };
ARM GAS  /var/folders/_2/qbh2zpt918qcm2b_6mgyydnm0000gn/T//ccIdySvu.s 			page 6


 153:filter.c      **** };
 132              		.loc 1 153 1 is_stmt 0 view .LVU11
 133 001c 38BD     		pop	{r3, r4, r5, pc}	@
 134              		.loc 1 153 1 view .LVU12
 135              		.cfi_endproc
 136              	.LFE11:
 137              		.size	pt1FilterApply, .-pt1FilterApply
 138              		.align	1
 139              		.global	biquadFilterApply
 140              		.syntax unified
 141              		.thumb
 142              		.thumb_func
 143              		.fpu softvfp
 144              		.type	biquadFilterApply, %function
 145              	biquadFilterApply:
 146              	.LVL6:
 147              	.LFB12:
 154:filter.c      **** 
 155:filter.c      **** float biquadFilterApply(biquadFilter_t *filter, float input){
 148              		.loc 1 155 61 is_stmt 1 view -0
 149              		.cfi_startproc
 150              		@ args = 0, pretend = 0, frame = 0
 151              		@ frame_needed = 0, uses_anonymous_args = 0
 156:filter.c      **** 	const float result = filter->b0 * input + filter->x1;
 152              		.loc 1 156 2 view .LVU14
 153              	@ filter.c:155: float biquadFilterApply(biquadFilter_t *filter, float input){
 155:filter.c      **** 	const float result = filter->b0 * input + filter->x1;
 154              		.loc 1 155 61 is_stmt 0 view .LVU15
 155 001e F8B5     		push	{r3, r4, r5, r6, r7, lr}	@
 156              	.LCFI1:
 157              		.cfi_def_cfa_offset 24
 158              		.cfi_offset 3, -24
 159              		.cfi_offset 4, -20
 160              		.cfi_offset 5, -16
 161              		.cfi_offset 6, -12
 162              		.cfi_offset 7, -8
 163              		.cfi_offset 14, -4
 164              	@ filter.c:155: float biquadFilterApply(biquadFilter_t *filter, float input){
 155:filter.c      **** 	const float result = filter->b0 * input + filter->x1;
 165              		.loc 1 155 61 view .LVU16
 166 0020 0446     		mov	r4, r0	@ filter, tmp138
 167 0022 0E46     		mov	r6, r1	@ input, tmp139
 168              	@ filter.c:156: 	const float result = filter->b0 * input + filter->x1;
 169              		.loc 1 156 34 view .LVU17
 170 0024 0168     		ldr	r1, [r0]	@ float	@, filter_17(D)->b0
 171              	.LVL7:
 172              		.loc 1 156 34 view .LVU18
 173 0026 3046     		mov	r0, r6	@, input
 174              	.LVL8:
 175              		.loc 1 156 34 view .LVU19
 176 0028 FFF7FEFF 		bl	__aeabi_fmul		@
 177              	.LVL9:
 178              	@ filter.c:156: 	const float result = filter->b0 * input + filter->x1;
 179              		.loc 1 156 14 view .LVU20
 180 002c 6169     		ldr	r1, [r4, #20]	@ float	@, filter_17(D)->x1
 181 002e FFF7FEFF 		bl	__aeabi_fadd		@
 182              	.LVL10:
ARM GAS  /var/folders/_2/qbh2zpt918qcm2b_6mgyydnm0000gn/T//ccIdySvu.s 			page 7


 183              	@ filter.c:157: 	filter->x1 = filter->b1 * input - filter->a1 * result  + filter->x2;
 157:filter.c      **** 	filter->x1 = filter->b1 * input - filter->a1 * result  + filter->x2;
 184              		.loc 1 157 26 view .LVU21
 185 0032 6168     		ldr	r1, [r4, #4]	@ float	@, filter_17(D)->b1
 186              	@ filter.c:156: 	const float result = filter->b0 * input + filter->x1;
 156:filter.c      **** 	const float result = filter->b0 * input + filter->x1;
 187              		.loc 1 156 14 view .LVU22
 188 0034 0546     		mov	r5, r0	@ tmp129, tmp140
 189              	.LVL11:
 190              		.loc 1 157 2 is_stmt 1 view .LVU23
 191              	@ filter.c:157: 	filter->x1 = filter->b1 * input - filter->a1 * result  + filter->x2;
 192              		.loc 1 157 26 is_stmt 0 view .LVU24
 193 0036 3046     		mov	r0, r6	@, input
 194              	.LVL12:
 195              		.loc 1 157 26 view .LVU25
 196 0038 FFF7FEFF 		bl	__aeabi_fmul		@
 197              	.LVL13:
 198              	@ filter.c:157: 	filter->x1 = filter->b1 * input - filter->a1 * result  + filter->x2;
 199              		.loc 1 157 47 view .LVU26
 200 003c E168     		ldr	r1, [r4, #12]	@ float	@, filter_17(D)->a1
 201              	@ filter.c:157: 	filter->x1 = filter->b1 * input - filter->a1 * result  + filter->x2;
 202              		.loc 1 157 26 view .LVU27
 203 003e 0746     		mov	r7, r0	@ tmp130, tmp141
 204              	@ filter.c:157: 	filter->x1 = filter->b1 * input - filter->a1 * result  + filter->x2;
 205              		.loc 1 157 47 view .LVU28
 206 0040 2846     		mov	r0, r5	@, tmp129
 207 0042 FFF7FEFF 		bl	__aeabi_fmul		@
 208              	.LVL14:
 209 0046 0146     		mov	r1, r0	@ tmp142,
 210              	@ filter.c:157: 	filter->x1 = filter->b1 * input - filter->a1 * result  + filter->x2;
 211              		.loc 1 157 34 view .LVU29
 212 0048 3846     		mov	r0, r7	@, tmp130
 213 004a FFF7FEFF 		bl	__aeabi_fsub		@
 214              	.LVL15:
 215              	@ filter.c:157: 	filter->x1 = filter->b1 * input - filter->a1 * result  + filter->x2;
 216              		.loc 1 157 57 view .LVU30
 217 004e A169     		ldr	r1, [r4, #24]	@ float	@, filter_17(D)->x2
 218 0050 FFF7FEFF 		bl	__aeabi_fadd		@
 219              	.LVL16:
 220              	@ filter.c:158: 	filter->x2 = filter->b2 * input - filter->a2 * result;
 158:filter.c      **** 	filter->x2 = filter->b2 * input - filter->a2 * result;
 221              		.loc 1 158 26 view .LVU31
 222 0054 A168     		ldr	r1, [r4, #8]	@ float	@, filter_17(D)->b2
 223              	@ filter.c:157: 	filter->x1 = filter->b1 * input - filter->a1 * result  + filter->x2;
 157:filter.c      **** 	filter->x1 = filter->b1 * input - filter->a1 * result  + filter->x2;
 224              		.loc 1 157 13 view .LVU32
 225 0056 6061     		str	r0, [r4, #20]	@ float	@ tmp143, filter_17(D)->x1
 226              		.loc 1 158 2 is_stmt 1 view .LVU33
 227              	@ filter.c:158: 	filter->x2 = filter->b2 * input - filter->a2 * result;
 228              		.loc 1 158 26 is_stmt 0 view .LVU34
 229 0058 3046     		mov	r0, r6	@, input
 230 005a FFF7FEFF 		bl	__aeabi_fmul		@
 231              	.LVL17:
 232              	@ filter.c:158: 	filter->x2 = filter->b2 * input - filter->a2 * result;
 233              		.loc 1 158 47 view .LVU35
 234 005e 2169     		ldr	r1, [r4, #16]	@ float	@, filter_17(D)->a2
 235              	@ filter.c:158: 	filter->x2 = filter->b2 * input - filter->a2 * result;
ARM GAS  /var/folders/_2/qbh2zpt918qcm2b_6mgyydnm0000gn/T//ccIdySvu.s 			page 8


 236              		.loc 1 158 26 view .LVU36
 237 0060 0646     		mov	r6, r0	@ tmp134, tmp144
 238              	.LVL18:
 239              	@ filter.c:158: 	filter->x2 = filter->b2 * input - filter->a2 * result;
 240              		.loc 1 158 47 view .LVU37
 241 0062 2846     		mov	r0, r5	@, tmp129
 242 0064 FFF7FEFF 		bl	__aeabi_fmul		@
 243              	.LVL19:
 244 0068 0146     		mov	r1, r0	@ tmp145,
 245              	@ filter.c:158: 	filter->x2 = filter->b2 * input - filter->a2 * result;
 246              		.loc 1 158 34 view .LVU38
 247 006a 3046     		mov	r0, r6	@, tmp134
 248 006c FFF7FEFF 		bl	__aeabi_fsub		@
 249              	.LVL20:
 250              	@ filter.c:158: 	filter->x2 = filter->b2 * input - filter->a2 * result;
 251              		.loc 1 158 13 view .LVU39
 252 0070 A061     		str	r0, [r4, #24]	@ float	@ tmp146, filter_17(D)->x2
 159:filter.c      **** 	return result;
 253              		.loc 1 159 2 is_stmt 1 view .LVU40
 254              	@ filter.c:160: };
 160:filter.c      **** };
 255              		.loc 1 160 1 is_stmt 0 view .LVU41
 256 0072 2846     		mov	r0, r5	@, tmp129
 257 0074 F8BD     		pop	{r3, r4, r5, r6, r7, pc}	@
 258              		.loc 1 160 1 view .LVU42
 259              		.cfi_endproc
 260              	.LFE12:
 261              		.size	biquadFilterApply, .-biquadFilterApply
 262              		.align	1
 263              		.global	biquadFilterApplyDyn
 264              		.syntax unified
 265              		.thumb
 266              		.thumb_func
 267              		.fpu softvfp
 268              		.type	biquadFilterApplyDyn, %function
 269              	biquadFilterApplyDyn:
 270              	.LVL21:
 271              	.LFB13:
 161:filter.c      **** 
 162:filter.c      **** float biquadFilterApplyDyn(biquadFilter_t *filter, float input){
 272              		.loc 1 162 64 is_stmt 1 view -0
 273              		.cfi_startproc
 274              		@ args = 0, pretend = 0, frame = 0
 275              		@ frame_needed = 0, uses_anonymous_args = 0
 163:filter.c      **** 	/* compute result */
 164:filter.c      **** 	const float result = filter->b0 * input + filter->b1 * filter->x1 + filter->b2 * filter->x2 - filt
 276              		.loc 1 164 2 view .LVU44
 277              	@ filter.c:162: float biquadFilterApplyDyn(biquadFilter_t *filter, float input){
 162:filter.c      **** 	/* compute result */
 278              		.loc 1 162 64 is_stmt 0 view .LVU45
 279 0076 2DE9F041 		push	{r4, r5, r6, r7, r8, lr}	@
 280              	.LCFI2:
 281              		.cfi_def_cfa_offset 24
 282              		.cfi_offset 4, -24
 283              		.cfi_offset 5, -20
 284              		.cfi_offset 6, -16
 285              		.cfi_offset 7, -12
ARM GAS  /var/folders/_2/qbh2zpt918qcm2b_6mgyydnm0000gn/T//ccIdySvu.s 			page 9


 286              		.cfi_offset 8, -8
 287              		.cfi_offset 14, -4
 288              	@ filter.c:162: float biquadFilterApplyDyn(biquadFilter_t *filter, float input){
 162:filter.c      **** 	/* compute result */
 289              		.loc 1 162 64 view .LVU46
 290 007a 0D46     		mov	r5, r1	@ input, tmp141
 291 007c 0446     		mov	r4, r0	@ filter, tmp140
 292              	@ filter.c:164: 	const float result = filter->b0 * input + filter->b1 * filter->x1 + filter->b2 * f
 293              		.loc 1 164 34 view .LVU47
 294 007e 0168     		ldr	r1, [r0]	@ float	@, filter_19(D)->b0
 295              	.LVL22:
 296              	@ filter.c:164: 	const float result = filter->b0 * input + filter->b1 * filter->x1 + filter->b2 * f
 297              		.loc 1 164 63 view .LVU48
 298 0080 D0F81480 		ldr	r8, [r0, #20]	@ float	@ _4, filter_19(D)->x1
 299              	@ filter.c:164: 	const float result = filter->b0 * input + filter->b1 * filter->x1 + filter->b2 * f
 300              		.loc 1 164 115 view .LVU49
 301 0084 C769     		ldr	r7, [r0, #28]	@ float	@ _12, filter_19(D)->y1
 302              	@ filter.c:164: 	const float result = filter->b0 * input + filter->b1 * filter->x1 + filter->b2 * f
 303              		.loc 1 164 34 view .LVU50
 304 0086 2846     		mov	r0, r5	@, input
 305              	.LVL23:
 306              		.loc 1 164 34 view .LVU51
 307 0088 FFF7FEFF 		bl	__aeabi_fmul		@
 308              	.LVL24:
 309              	@ filter.c:164: 	const float result = filter->b0 * input + filter->b1 * filter->x1 + filter->b2 * f
 310              		.loc 1 164 55 view .LVU52
 311 008c 6168     		ldr	r1, [r4, #4]	@ float	@, filter_19(D)->b1
 312              	@ filter.c:164: 	const float result = filter->b0 * input + filter->b1 * filter->x1 + filter->b2 * f
 313              		.loc 1 164 34 view .LVU53
 314 008e 0646     		mov	r6, r0	@ tmp130, tmp142
 315              	@ filter.c:164: 	const float result = filter->b0 * input + filter->b1 * filter->x1 + filter->b2 * f
 316              		.loc 1 164 55 view .LVU54
 317 0090 4046     		mov	r0, r8	@, _4
 318 0092 FFF7FEFF 		bl	__aeabi_fmul		@
 319              	.LVL25:
 320 0096 0146     		mov	r1, r0	@ tmp143,
 321              	@ filter.c:164: 	const float result = filter->b0 * input + filter->b1 * filter->x1 + filter->b2 * f
 322              		.loc 1 164 42 view .LVU55
 323 0098 3046     		mov	r0, r6	@, tmp130
 324 009a FFF7FEFF 		bl	__aeabi_fadd		@
 325              	.LVL26:
 326              	@ filter.c:164: 	const float result = filter->b0 * input + filter->b1 * filter->x1 + filter->b2 * f
 327              		.loc 1 164 81 view .LVU56
 328 009e A169     		ldr	r1, [r4, #24]	@ float	@, filter_19(D)->x2
 329              	@ filter.c:164: 	const float result = filter->b0 * input + filter->b1 * filter->x1 + filter->b2 * f
 330              		.loc 1 164 42 view .LVU57
 331 00a0 0646     		mov	r6, r0	@ tmp132, tmp144
 332              	@ filter.c:164: 	const float result = filter->b0 * input + filter->b1 * filter->x1 + filter->b2 * f
 333              		.loc 1 164 81 view .LVU58
 334 00a2 A068     		ldr	r0, [r4, #8]	@ float	@, filter_19(D)->b2
 335 00a4 FFF7FEFF 		bl	__aeabi_fmul		@
 336              	.LVL27:
 337 00a8 0146     		mov	r1, r0	@ tmp145,
 338              	@ filter.c:164: 	const float result = filter->b0 * input + filter->b1 * filter->x1 + filter->b2 * f
 339              		.loc 1 164 68 view .LVU59
 340 00aa 3046     		mov	r0, r6	@, tmp132
 341 00ac FFF7FEFF 		bl	__aeabi_fadd		@
ARM GAS  /var/folders/_2/qbh2zpt918qcm2b_6mgyydnm0000gn/T//ccIdySvu.s 			page 10


 342              	.LVL28:
 343              	@ filter.c:164: 	const float result = filter->b0 * input + filter->b1 * filter->x1 + filter->b2 * f
 344              		.loc 1 164 107 view .LVU60
 345 00b0 E168     		ldr	r1, [r4, #12]	@ float	@, filter_19(D)->a1
 346              	@ filter.c:164: 	const float result = filter->b0 * input + filter->b1 * filter->x1 + filter->b2 * f
 347              		.loc 1 164 68 view .LVU61
 348 00b2 0646     		mov	r6, r0	@ tmp134, tmp146
 349              	@ filter.c:164: 	const float result = filter->b0 * input + filter->b1 * filter->x1 + filter->b2 * f
 350              		.loc 1 164 107 view .LVU62
 351 00b4 3846     		mov	r0, r7	@, _12
 352 00b6 FFF7FEFF 		bl	__aeabi_fmul		@
 353              	.LVL29:
 354 00ba 0146     		mov	r1, r0	@ tmp147,
 355              	@ filter.c:164: 	const float result = filter->b0 * input + filter->b1 * filter->x1 + filter->b2 * f
 356              		.loc 1 164 94 view .LVU63
 357 00bc 3046     		mov	r0, r6	@, tmp134
 358 00be FFF7FEFF 		bl	__aeabi_fsub		@
 359              	.LVL30:
 360              	@ filter.c:164: 	const float result = filter->b0 * input + filter->b1 * filter->x1 + filter->b2 * f
 361              		.loc 1 164 133 view .LVU64
 362 00c2 216A     		ldr	r1, [r4, #32]	@ float	@, filter_19(D)->y2
 363              	@ filter.c:164: 	const float result = filter->b0 * input + filter->b1 * filter->x1 + filter->b2 * f
 364              		.loc 1 164 94 view .LVU65
 365 00c4 0646     		mov	r6, r0	@ tmp136, tmp148
 366              	@ filter.c:164: 	const float result = filter->b0 * input + filter->b1 * filter->x1 + filter->b2 * f
 367              		.loc 1 164 133 view .LVU66
 368 00c6 2069     		ldr	r0, [r4, #16]	@ float	@, filter_19(D)->a2
 369 00c8 FFF7FEFF 		bl	__aeabi_fmul		@
 370              	.LVL31:
 371 00cc 0146     		mov	r1, r0	@ tmp149,
 372              	@ filter.c:164: 	const float result = filter->b0 * input + filter->b1 * filter->x1 + filter->b2 * f
 373              		.loc 1 164 14 view .LVU67
 374 00ce 3046     		mov	r0, r6	@, tmp136
 375 00d0 FFF7FEFF 		bl	__aeabi_fsub		@
 376              	.LVL32:
 165:filter.c      **** 
 166:filter.c      **** 	/* shift x1 to x2, input to x1 */
 167:filter.c      **** 	filter->x2 = filter->x1;
 377              		.loc 1 167 2 is_stmt 1 view .LVU68
 378              	@ filter.c:167: 	filter->x2 = filter->x1;
 379              		.loc 1 167 13 is_stmt 0 view .LVU69
 380 00d4 C4F81880 		str	r8, [r4, #24]	@ float	@ _4, filter_19(D)->x2
 168:filter.c      **** 	filter->x1 = input;
 381              		.loc 1 168 2 is_stmt 1 view .LVU70
 382              	@ filter.c:168: 	filter->x1 = input;
 383              		.loc 1 168 13 is_stmt 0 view .LVU71
 384 00d8 6561     		str	r5, [r4, #20]	@ float	@ input, filter_19(D)->x1
 169:filter.c      **** 
 170:filter.c      **** 	/* shift y1 to y2, result to y1 */
 171:filter.c      **** 	filter->y2 = filter->y1;
 385              		.loc 1 171 2 is_stmt 1 view .LVU72
 386              	@ filter.c:171: 	filter->y2 = filter->y1;
 387              		.loc 1 171 13 is_stmt 0 view .LVU73
 388 00da 2762     		str	r7, [r4, #32]	@ float	@ _12, filter_19(D)->y2
 172:filter.c      **** 	filter->y1 = result;
 389              		.loc 1 172 2 is_stmt 1 view .LVU74
 390              	@ filter.c:172: 	filter->y1 = result;
ARM GAS  /var/folders/_2/qbh2zpt918qcm2b_6mgyydnm0000gn/T//ccIdySvu.s 			page 11


 391              		.loc 1 172 13 is_stmt 0 view .LVU75
 392 00dc E061     		str	r0, [r4, #28]	@ float	@ tmp150, filter_19(D)->y1
 173:filter.c      **** 
 174:filter.c      **** 	return result;
 393              		.loc 1 174 2 is_stmt 1 view .LVU76
 394              	@ filter.c:175: };
 175:filter.c      **** };
 395              		.loc 1 175 1 is_stmt 0 view .LVU77
 396 00de BDE8F081 		pop	{r4, r5, r6, r7, r8, pc}	@
 397              		.loc 1 175 1 view .LVU78
 398              		.cfi_endproc
 399              	.LFE13:
 400              		.size	biquadFilterApplyDyn, .-biquadFilterApplyDyn
 401              		.align	1
 402              		.global	nullFilterApply
 403              		.syntax unified
 404              		.thumb
 405              		.thumb_func
 406              		.fpu softvfp
 407              		.type	nullFilterApply, %function
 408              	nullFilterApply:
 409              	.LVL33:
 410              	.LFB14:
 176:filter.c      **** 	
 177:filter.c      **** float nullFilterApply(filter_t* filter, float input){
 411              		.loc 1 177 53 is_stmt 1 view -0
 412              		.cfi_startproc
 413              		@ args = 0, pretend = 0, frame = 0
 414              		@ frame_needed = 0, uses_anonymous_args = 0
 415              		@ link register save eliminated.
 178:filter.c      **** 	(void)(filter);
 416              		.loc 1 178 2 view .LVU80
 179:filter.c      **** 	return input;
 417              		.loc 1 179 2 view .LVU81
 418              	@ filter.c:180: };
 180:filter.c      **** };
 419              		.loc 1 180 1 is_stmt 0 view .LVU82
 420 00e2 0846     		mov	r0, r1	@, tmp114
 421              	.LVL34:
 422              		.loc 1 180 1 view .LVU83
 423 00e4 7047     		bx	lr	@
 424              		.cfi_endproc
 425              	.LFE14:
 426              		.size	nullFilterApply, .-nullFilterApply
 427              		.global	__aeabi_i2d
 428              		.global	__aeabi_dmul
 429              		.global	__aeabi_ddiv
 430              		.global	__aeabi_d2f
 431              		.global	__aeabi_fdiv
 432              		.align	1
 433              		.global	pt1FilterGain
 434              		.syntax unified
 435              		.thumb
 436              		.thumb_func
 437              		.fpu softvfp
 438              		.type	pt1FilterGain, %function
 439              	pt1FilterGain:
ARM GAS  /var/folders/_2/qbh2zpt918qcm2b_6mgyydnm0000gn/T//ccIdySvu.s 			page 12


 440              	.LVL35:
 441              	.LFB15:
 181:filter.c      **** 
 182:filter.c      **** float pt1FilterGain(uint16_t f_cut, float dt){
 442              		.loc 1 182 46 is_stmt 1 view -0
 443              		.cfi_startproc
 444              		@ args = 0, pretend = 0, frame = 0
 445              		@ frame_needed = 0, uses_anonymous_args = 0
 183:filter.c      **** 	float RC = 1.0 / (2.0  * M_PI_FLOAT * f_cut);
 446              		.loc 1 183 2 view .LVU85
 184:filter.c      **** 	return dt / (RC + dt);
 447              		.loc 1 184 2 view .LVU86
 448              	@ filter.c:182: float pt1FilterGain(uint16_t f_cut, float dt){
 182:filter.c      **** 	float RC = 1.0 / (2.0  * M_PI_FLOAT * f_cut);
 449              		.loc 1 182 46 is_stmt 0 view .LVU87
 450 00e6 10B5     		push	{r4, lr}	@
 451              	.LCFI3:
 452              		.cfi_def_cfa_offset 8
 453              		.cfi_offset 4, -8
 454              		.cfi_offset 14, -4
 455              	@ filter.c:182: float pt1FilterGain(uint16_t f_cut, float dt){
 182:filter.c      **** 	float RC = 1.0 / (2.0  * M_PI_FLOAT * f_cut);
 456              		.loc 1 182 46 view .LVU88
 457 00e8 0C46     		mov	r4, r1	@ dt, tmp126
 458              	@ filter.c:183: 	float RC = 1.0 / (2.0  * M_PI_FLOAT * f_cut);
 183:filter.c      **** 	float RC = 1.0 / (2.0  * M_PI_FLOAT * f_cut);
 459              		.loc 1 183 38 view .LVU89
 460 00ea FFF7FEFF 		bl	__aeabi_i2d		@
 461              	.LVL36:
 183:filter.c      **** 	float RC = 1.0 / (2.0  * M_PI_FLOAT * f_cut);
 462              		.loc 1 183 38 view .LVU90
 463 00ee 0AA3     		adr	r3, .L6	@,
 464 00f0 D3E90023 		ldrd	r2, [r3]	@,
 465 00f4 FFF7FEFF 		bl	__aeabi_dmul		@
 466              	.LVL37:
 467 00f8 0246     		mov	r2, r0	@ tmp127,
 468 00fa 0B46     		mov	r3, r1	@,
 469              	@ filter.c:183: 	float RC = 1.0 / (2.0  * M_PI_FLOAT * f_cut);
 183:filter.c      **** 	float RC = 1.0 / (2.0  * M_PI_FLOAT * f_cut);
 470              		.loc 1 183 17 view .LVU91
 471 00fc 0020     		movs	r0, #0	@,
 472 00fe 0849     		ldr	r1, .L6+8	@,
 473 0100 FFF7FEFF 		bl	__aeabi_ddiv		@
 474              	.LVL38:
 475              	@ filter.c:183: 	float RC = 1.0 / (2.0  * M_PI_FLOAT * f_cut);
 183:filter.c      **** 	float RC = 1.0 / (2.0  * M_PI_FLOAT * f_cut);
 476              		.loc 1 183 8 view .LVU92
 477 0104 FFF7FEFF 		bl	__aeabi_d2f		@
 478              	.LVL39:
 479              	@ filter.c:184: 	return dt / (RC + dt);
 480              		.loc 1 184 18 view .LVU93
 481 0108 2146     		mov	r1, r4	@, dt
 482 010a FFF7FEFF 		bl	__aeabi_fadd		@
 483              	.LVL40:
 484 010e 0146     		mov	r1, r0	@ tmp128,
 485              	@ filter.c:184: 	return dt / (RC + dt);
 486              		.loc 1 184 12 view .LVU94
ARM GAS  /var/folders/_2/qbh2zpt918qcm2b_6mgyydnm0000gn/T//ccIdySvu.s 			page 13


 487 0110 2046     		mov	r0, r4	@, dt
 488 0112 FFF7FEFF 		bl	__aeabi_fdiv		@
 489              	.LVL41:
 490              	@ filter.c:185: };
 185:filter.c      **** };
 491              		.loc 1 185 1 view .LVU95
 492 0116 10BD     		pop	{r4, pc}	@
 493              	.LVL42:
 494              	.L7:
 495              		.loc 1 185 1 view .LVU96
 496              		.align	3
 497              	.L6:
 498 0118 00000060 		.word	1610612736
 499 011c FB211940 		.word	1075388923
 500 0120 0000F03F 		.word	1072693248
 501              		.cfi_endproc
 502              	.LFE15:
 503              		.size	pt1FilterGain, .-pt1FilterGain
 504              		.global	__aeabi_ui2f
 505              		.align	1
 506              		.global	initDtermLowpassFilter
 507              		.syntax unified
 508              		.thumb
 509              		.thumb_func
 510              		.fpu softvfp
 511              		.type	initDtermLowpassFilter, %function
 512              	initDtermLowpassFilter:
 513              	.LFB5:
  32:filter.c      **** 
 514              		.loc 1 32 34 is_stmt 1 view -0
 515              		.cfi_startproc
 516              		@ args = 0, pretend = 0, frame = 0
 517              		@ frame_needed = 0, uses_anonymous_args = 0
  34:filter.c      **** 	
 518              		.loc 1 34 2 view .LVU98
 519              	@ filter.c:34: 	dtermLowpassFilter2Apply = nullFilterApply;
  34:filter.c      **** 	
 520              		.loc 1 34 27 is_stmt 0 view .LVU99
 521 0124 0E4B     		ldr	r3, .L13	@ tmp115,
 522 0126 0F4A     		ldr	r2, .L13+4	@ tmp116,
 523              	@ filter.c:32: void initDtermLowpassFilter(void){	
  32:filter.c      **** 
 524              		.loc 1 32 34 view .LVU100
 525 0128 10B5     		push	{r4, lr}	@
 526              	.LCFI4:
 527              		.cfi_def_cfa_offset 8
 528              		.cfi_offset 4, -8
 529              		.cfi_offset 14, -4
 530              	@ filter.c:34: 	dtermLowpassFilter2Apply = nullFilterApply;
  34:filter.c      **** 	
 531              		.loc 1 34 27 view .LVU101
 532 012a 1A60     		str	r2, [r3]	@ tmp116, dtermLowpassFilter2Apply
  37:filter.c      **** 		dtermLowpassFilter2Apply = (filterApplyPtr) pt1FilterApply;
 533              		.loc 1 37 2 is_stmt 1 view .LVU102
 534              	@ filter.c:37: 	if(dtermFilterSettings.dterm_lowpass2_hz){
  37:filter.c      **** 		dtermLowpassFilter2Apply = (filterApplyPtr) pt1FilterApply;
 535              		.loc 1 37 24 is_stmt 0 view .LVU103
ARM GAS  /var/folders/_2/qbh2zpt918qcm2b_6mgyydnm0000gn/T//ccIdySvu.s 			page 14


 536 012c 0E4A     		ldr	r2, .L13+8	@ tmp117,
 537 012e 9488     		ldrh	r4, [r2, #4]	@ _1, dtermFilterSettings.dterm_lowpass2_hz
 538              	@ filter.c:37: 	if(dtermFilterSettings.dterm_lowpass2_hz){
  37:filter.c      **** 		dtermLowpassFilter2Apply = (filterApplyPtr) pt1FilterApply;
 539              		.loc 1 37 4 view .LVU104
 540 0130 A4B1     		cbz	r4, .L8	@ _1,
  38:filter.c      **** 		for(int axis = 0; axis < 3; ++axis){
 541              		.loc 1 38 3 is_stmt 1 view .LVU105
 542              	@ filter.c:38: 		dtermLowpassFilter2Apply = (filterApplyPtr) pt1FilterApply;
  38:filter.c      **** 		for(int axis = 0; axis < 3; ++axis){
 543              		.loc 1 38 28 is_stmt 0 view .LVU106
 544 0132 0E4A     		ldr	r2, .L13+12	@ tmp119,
 545 0134 1A60     		str	r2, [r3]	@ tmp119, dtermLowpassFilter2Apply
  39:filter.c      **** 			pt1FilterInit(&dtermPT1[axis], pt1FilterGain(dtermFilterSettings.dterm_lowpass2_hz, gyro.targetL
 546              		.loc 1 39 3 is_stmt 1 view .LVU107
 547              	.LBB21:
  39:filter.c      **** 			pt1FilterInit(&dtermPT1[axis], pt1FilterGain(dtermFilterSettings.dterm_lowpass2_hz, gyro.targetL
 548              		.loc 1 39 7 view .LVU108
 549              	.LVL43:
  39:filter.c      **** 			pt1FilterInit(&dtermPT1[axis], pt1FilterGain(dtermFilterSettings.dterm_lowpass2_hz, gyro.targetL
 550              		.loc 1 39 21 view .LVU109
 551              	@ filter.c:40: 			pt1FilterInit(&dtermPT1[axis], pt1FilterGain(dtermFilterSettings.dterm_lowpass2_h
  40:filter.c      **** 		};	
 552              		.loc 1 40 92 is_stmt 0 view .LVU110
 553 0136 0E4B     		ldr	r3, .L13+16	@ tmp120,
 554              	@ filter.c:40: 			pt1FilterInit(&dtermPT1[axis], pt1FilterGain(dtermFilterSettings.dterm_lowpass2_h
  40:filter.c      **** 		};	
 555              		.loc 1 40 4 view .LVU111
 556 0138 1868     		ldr	r0, [r3]	@, gyro.targetLoopTime
 557 013a FFF7FEFF 		bl	__aeabi_ui2f		@
 558              	.LVL44:
 559 013e 0D49     		ldr	r1, .L13+20	@,
 560 0140 FFF7FEFF 		bl	__aeabi_fmul		@
 561              	.LVL45:
 562 0144 0146     		mov	r1, r0	@ tmp132,
 563 0146 2046     		mov	r0, r4	@, _1
 564 0148 FFF7FEFF 		bl	pt1FilterGain		@
 565              	.LVL46:
  40:filter.c      **** 		};	
 566              		.loc 1 40 4 is_stmt 1 view .LVU112
 567              	.LBB22:
 568              	.LBI22:
 186:filter.c      **** 
 187:filter.c      **** void pt1FilterInit(pt1Filter_t* filter, float k){
 569              		.loc 1 187 6 view .LVU113
 570              	.LBB23:
 188:filter.c      **** 	filter->state = 0.0f;
 571              		.loc 1 188 2 view .LVU114
 572              	@ filter.c:188: 	filter->state = 0.0f;
 573              		.loc 1 188 16 is_stmt 0 view .LVU115
 574 014c 0A4B     		ldr	r3, .L13+24	@ tmp123,
 575 014e 0022     		movs	r2, #0	@ tmp124,
 576 0150 1A60     		str	r2, [r3]	@ float	@ tmp124, MEM[(struct pt1Filter_t *)&dtermPT1][0].state
 189:filter.c      **** 	filter->k = k;
 577              		.loc 1 189 2 is_stmt 1 view .LVU116
 578              	@ filter.c:189: 	filter->k = k;
 579              		.loc 1 189 12 is_stmt 0 view .LVU117
ARM GAS  /var/folders/_2/qbh2zpt918qcm2b_6mgyydnm0000gn/T//ccIdySvu.s 			page 15


 580 0152 5860     		str	r0, [r3, #4]	@ float	@ _5, MEM[(struct pt1Filter_t *)&dtermPT1][0].k
 581              	.LVL47:
 582              		.loc 1 189 12 view .LVU118
 583              	.LBE23:
 584              	.LBE22:
  39:filter.c      **** 			pt1FilterInit(&dtermPT1[axis], pt1FilterGain(dtermFilterSettings.dterm_lowpass2_hz, gyro.targetL
 585              		.loc 1 39 31 is_stmt 1 view .LVU119
  39:filter.c      **** 			pt1FilterInit(&dtermPT1[axis], pt1FilterGain(dtermFilterSettings.dterm_lowpass2_hz, gyro.targetL
 586              		.loc 1 39 21 view .LVU120
  40:filter.c      **** 		};	
 587              		.loc 1 40 4 view .LVU121
 588              	.LBB26:
 187:filter.c      **** 	filter->state = 0.0f;
 589              		.loc 1 187 6 view .LVU122
 590              	.LBB24:
 188:filter.c      **** 	filter->k = k;
 591              		.loc 1 188 2 view .LVU123
 592              	@ filter.c:188: 	filter->state = 0.0f;
 188:filter.c      **** 	filter->k = k;
 593              		.loc 1 188 16 is_stmt 0 view .LVU124
 594 0154 9A60     		str	r2, [r3, #8]	@ float	@ tmp124, MEM[(struct pt1Filter_t *)&dtermPT1][1].state
 595              		.loc 1 189 2 is_stmt 1 view .LVU125
 596              	@ filter.c:189: 	filter->k = k;
 597              		.loc 1 189 12 is_stmt 0 view .LVU126
 598 0156 D860     		str	r0, [r3, #12]	@ float	@ _5, MEM[(struct pt1Filter_t *)&dtermPT1][1].k
 599              	.LVL48:
 600              		.loc 1 189 12 view .LVU127
 601              	.LBE24:
 602              	.LBE26:
  39:filter.c      **** 			pt1FilterInit(&dtermPT1[axis], pt1FilterGain(dtermFilterSettings.dterm_lowpass2_hz, gyro.targetL
 603              		.loc 1 39 31 is_stmt 1 view .LVU128
  39:filter.c      **** 			pt1FilterInit(&dtermPT1[axis], pt1FilterGain(dtermFilterSettings.dterm_lowpass2_hz, gyro.targetL
 604              		.loc 1 39 21 view .LVU129
  40:filter.c      **** 		};	
 605              		.loc 1 40 4 view .LVU130
 606              	.LBB27:
 187:filter.c      **** 	filter->state = 0.0f;
 607              		.loc 1 187 6 view .LVU131
 608              	.LBB25:
 188:filter.c      **** 	filter->k = k;
 609              		.loc 1 188 2 view .LVU132
 610              	@ filter.c:188: 	filter->state = 0.0f;
 188:filter.c      **** 	filter->k = k;
 611              		.loc 1 188 16 is_stmt 0 view .LVU133
 612 0158 1A61     		str	r2, [r3, #16]	@ float	@ tmp124, MEM[(struct pt1Filter_t *)&dtermPT1][2].state
 613              		.loc 1 189 2 is_stmt 1 view .LVU134
 614              	@ filter.c:189: 	filter->k = k;
 615              		.loc 1 189 12 is_stmt 0 view .LVU135
 616 015a 5861     		str	r0, [r3, #20]	@ float	@ _5, MEM[(struct pt1Filter_t *)&dtermPT1][2].k
 617              	.LVL49:
 618              		.loc 1 189 12 view .LVU136
 619              	.LBE25:
 620              	.LBE27:
  39:filter.c      **** 			pt1FilterInit(&dtermPT1[axis], pt1FilterGain(dtermFilterSettings.dterm_lowpass2_hz, gyro.targetL
 621              		.loc 1 39 31 is_stmt 1 view .LVU137
  39:filter.c      **** 			pt1FilterInit(&dtermPT1[axis], pt1FilterGain(dtermFilterSettings.dterm_lowpass2_hz, gyro.targetL
 622              		.loc 1 39 21 view .LVU138
ARM GAS  /var/folders/_2/qbh2zpt918qcm2b_6mgyydnm0000gn/T//ccIdySvu.s 			page 16


 623              	.LBE21:
  41:filter.c      **** 	};
 624              		.loc 1 41 4 view .LVU139
  42:filter.c      **** };
 625              		.loc 1 42 3 view .LVU140
 626              	.L8:
 627              	@ filter.c:43: };
  43:filter.c      **** 
 628              		.loc 1 43 1 is_stmt 0 view .LVU141
 629 015c 10BD     		pop	{r4, pc}	@
 630              	.L14:
 631 015e 00BF     		.align	2
 632              	.L13:
 633 0160 00000000 		.word	dtermLowpassFilter2Apply
 634 0164 00000000 		.word	nullFilterApply
 635 0168 00000000 		.word	dtermFilterSettings
 636 016c 00000000 		.word	pt1FilterApply
 637 0170 00000000 		.word	gyro
 638 0174 BD378635 		.word	897988541
 639 0178 00000000 		.word	dtermPT1
 640              		.cfi_endproc
 641              	.LFE5:
 642              		.size	initDtermLowpassFilter, .-initDtermLowpassFilter
 643              		.align	1
 644              		.global	pt1FilterInit
 645              		.syntax unified
 646              		.thumb
 647              		.thumb_func
 648              		.fpu softvfp
 649              		.type	pt1FilterInit, %function
 650              	pt1FilterInit:
 651              	.LVL50:
 652              	.LFB16:
 187:filter.c      **** 	filter->state = 0.0f;
 653              		.loc 1 187 49 is_stmt 1 view -0
 654              		.cfi_startproc
 655              		@ args = 0, pretend = 0, frame = 0
 656              		@ frame_needed = 0, uses_anonymous_args = 0
 657              		@ link register save eliminated.
 188:filter.c      **** 	filter->k = k;
 658              		.loc 1 188 2 view .LVU143
 659              	@ filter.c:188: 	filter->state = 0.0f;
 188:filter.c      **** 	filter->k = k;
 660              		.loc 1 188 16 is_stmt 0 view .LVU144
 661 017c 0023     		movs	r3, #0	@ tmp112,
 662 017e 0360     		str	r3, [r0]	@ float	@ tmp112, filter_2(D)->state
 663              		.loc 1 189 2 is_stmt 1 view .LVU145
 664              	@ filter.c:189: 	filter->k = k;
 665              		.loc 1 189 12 is_stmt 0 view .LVU146
 666 0180 4160     		str	r1, [r0, #4]	@ float	@ tmp114, filter_2(D)->k
 667              	@ filter.c:190: };
 190:filter.c      **** };
 668              		.loc 1 190 1 view .LVU147
 669 0182 7047     		bx	lr	@
 670              		.cfi_endproc
 671              	.LFE16:
 672              		.size	pt1FilterInit, .-pt1FilterInit
ARM GAS  /var/folders/_2/qbh2zpt918qcm2b_6mgyydnm0000gn/T//ccIdySvu.s 			page 17


 673              		.align	1
 674              		.global	biquadFilterInit
 675              		.syntax unified
 676              		.thumb
 677              		.thumb_func
 678              		.fpu softvfp
 679              		.type	biquadFilterInit, %function
 680              	biquadFilterInit:
 681              	.LVL51:
 682              	.LFB18:
 191:filter.c      **** 
 192:filter.c      **** void gyroInitFilterDynNotch(gyroSensor_t *gyroSensor){
 193:filter.c      **** 	gyroSensor->notchFilterDynApplyFn = nullFilterApply;	
 194:filter.c      **** 	if (gyroConfig.DynNotchFilterActive){
 195:filter.c      **** 		gyroSensor->notchFilterDynApplyFn = (filterApplyPtr)biquadFilterApplyDyn;
 196:filter.c      **** 		const float notchQ = filterGetNotchQ(400, 390);
 197:filter.c      **** 		for(int axis = 0; axis < XYZ_AXIS_COUNT; axis++){
 198:filter.c      **** 			biquadFilterInit(&gyroSensor->notchFilterDyn[axis], 400, gyro.targetLoopTime, notchQ, FILTER_NOT
 199:filter.c      **** 		};
 200:filter.c      **** 	};
 201:filter.c      **** };
 202:filter.c      **** 
 203:filter.c      **** void biquadFilterInit(biquadFilter_t *filter, float freq, uint32_t refreshrate, float Q, biquadFilt
 683              		.loc 1 203 120 is_stmt 1 view -0
 684              		.cfi_startproc
 685              		@ args = 4, pretend = 0, frame = 8
 686              		@ frame_needed = 0, uses_anonymous_args = 0
 204:filter.c      **** 	//setup the variable
 205:filter.c      **** 	const float omega = 2.0f * M_PI_FLOAT * freq * refreshrate * 1.0e-6f;
 687              		.loc 1 205 2 view .LVU149
 688              	@ filter.c:203: void biquadFilterInit(biquadFilter_t *filter, float freq, uint32_t refreshrate, flo
 203:filter.c      **** 	//setup the variable
 689              		.loc 1 203 120 is_stmt 0 view .LVU150
 690 0184 2DE9F74F 		push	{r0, r1, r2, r4, r5, r6, r7, r8, r9, r10, fp, lr}	@
 691              	.LCFI5:
 692              		.cfi_def_cfa_offset 48
 693              		.cfi_offset 4, -36
 694              		.cfi_offset 5, -32
 695              		.cfi_offset 6, -28
 696              		.cfi_offset 7, -24
 697              		.cfi_offset 8, -20
 698              		.cfi_offset 9, -16
 699              		.cfi_offset 10, -12
 700              		.cfi_offset 11, -8
 701              		.cfi_offset 14, -4
 702              	@ filter.c:203: void biquadFilterInit(biquadFilter_t *filter, float freq, uint32_t refreshrate, flo
 203:filter.c      **** 	//setup the variable
 703              		.loc 1 203 120 view .LVU151
 704 0188 0546     		mov	r5, r0	@ filter, tmp161
 705 018a 0846     		mov	r0, r1	@ tmp162, freq
 706              	.LVL52:
 707              	@ filter.c:205: 	const float omega = 2.0f * M_PI_FLOAT * freq * refreshrate * 1.0e-6f;
 708              		.loc 1 205 40 view .LVU152
 709 018c 5049     		ldr	r1, .L21	@,
 710              	.LVL53:
 711              	@ filter.c:203: void biquadFilterInit(biquadFilter_t *filter, float freq, uint32_t refreshrate, flo
 203:filter.c      **** 	//setup the variable
ARM GAS  /var/folders/_2/qbh2zpt918qcm2b_6mgyydnm0000gn/T//ccIdySvu.s 			page 18


 712              		.loc 1 203 120 view .LVU153
 713 018e 9DF83040 		ldrb	r4, [sp, #48]	@ zero_extendqisi2	@ FilterType, FilterType
 714 0192 1746     		mov	r7, r2	@ refreshrate, tmp163
 715 0194 9846     		mov	r8, r3	@ Q, tmp164
 716              	@ filter.c:205: 	const float omega = 2.0f * M_PI_FLOAT * freq * refreshrate * 1.0e-6f;
 717              		.loc 1 205 40 view .LVU154
 718 0196 FFF7FEFF 		bl	__aeabi_fmul		@
 719              	.LVL54:
 720              		.loc 1 205 40 view .LVU155
 721 019a 0646     		mov	r6, r0	@ tmp134, tmp165
 722              	@ filter.c:205: 	const float omega = 2.0f * M_PI_FLOAT * freq * refreshrate * 1.0e-6f;
 723              		.loc 1 205 47 view .LVU156
 724 019c 3846     		mov	r0, r7	@, refreshrate
 725 019e FFF7FEFF 		bl	__aeabi_ui2f		@
 726              	.LVL55:
 727 01a2 0146     		mov	r1, r0	@ tmp166,
 728 01a4 3046     		mov	r0, r6	@, tmp134
 729 01a6 FFF7FEFF 		bl	__aeabi_fmul		@
 730              	.LVL56:
 731              	@ filter.c:205: 	const float omega = 2.0f * M_PI_FLOAT * freq * refreshrate * 1.0e-6f;
 732              		.loc 1 205 14 view .LVU157
 733 01aa 4A49     		ldr	r1, .L21+4	@,
 734 01ac FFF7FEFF 		bl	__aeabi_fmul		@
 735              	.LVL57:
 736 01b0 0746     		mov	r7, r0	@ tmp137, tmp167
 737              	.LVL58:
 206:filter.c      **** 	const float sn = sin_approx(omega);
 738              		.loc 1 206 2 is_stmt 1 view .LVU158
 739              	@ filter.c:206: 	const float sn = sin_approx(omega);
 740              		.loc 1 206 19 is_stmt 0 view .LVU159
 741 01b2 FFF7FEFF 		bl	sin_approx		@
 742              	.LVL59:
 743              		.loc 1 206 19 view .LVU160
 744 01b6 0646     		mov	r6, r0	@ sn, tmp168
 745              	.LVL60:
 207:filter.c      **** 	const float cs = cos_approx(omega);
 746              		.loc 1 207 2 is_stmt 1 view .LVU161
 747              	@ filter.c:207: 	const float cs = cos_approx(omega);
 748              		.loc 1 207 19 is_stmt 0 view .LVU162
 749 01b8 3846     		mov	r0, r7	@, tmp137
 750              	.LVL61:
 751              		.loc 1 207 19 view .LVU163
 752 01ba FFF7FEFF 		bl	cos_approx		@
 753              	.LVL62:
 754              	@ filter.c:208: 	const float alpha = sn / (2.0f * Q);
 208:filter.c      **** 	const float alpha = sn / (2.0f * Q);
 755              		.loc 1 208 33 view .LVU164
 756 01be 4146     		mov	r1, r8	@, Q
 757              	@ filter.c:207: 	const float cs = cos_approx(omega);
 207:filter.c      **** 	const float cs = cos_approx(omega);
 758              		.loc 1 207 19 view .LVU165
 759 01c0 0746     		mov	r7, r0	@ cs, tmp169
 760              	.LVL63:
 761              		.loc 1 208 2 is_stmt 1 view .LVU166
 762              	@ filter.c:208: 	const float alpha = sn / (2.0f * Q);
 763              		.loc 1 208 33 is_stmt 0 view .LVU167
 764 01c2 4046     		mov	r0, r8	@, tmp1
ARM GAS  /var/folders/_2/qbh2zpt918qcm2b_6mgyydnm0000gn/T//ccIdySvu.s 			page 19


 765              	.LVL64:
 766              		.loc 1 208 33 view .LVU168
 767 01c4 FFF7FEFF 		bl	__aeabi_fadd		@
 768              	.LVL65:
 769 01c8 0146     		mov	r1, r0	@ tmp170,
 770              	@ filter.c:208: 	const float alpha = sn / (2.0f * Q);
 771              		.loc 1 208 14 view .LVU169
 772 01ca 3046     		mov	r0, r6	@, sn
 773 01cc FFF7FEFF 		bl	__aeabi_fdiv		@
 774              	.LVL66:
 775              	@ filter.c:210: 	switch (FilterType){
 209:filter.c      **** 	float b0 = 0.0, b1 = 0.0, b2 = 0.0, a0 = 0.0, a1 = 0.0, a2 = 0.0;
 210:filter.c      **** 	switch (FilterType){
 776              		.loc 1 210 2 view .LVU170
 777 01d0 012C     		cmp	r4, #1	@ FilterType,
 778              	@ filter.c:208: 	const float alpha = sn / (2.0f * Q);
 208:filter.c      **** 	const float alpha = sn / (2.0f * Q);
 779              		.loc 1 208 14 view .LVU171
 780 01d2 8146     		mov	r9, r0	@ tmp139, tmp171
 781              	.LVL67:
 209:filter.c      **** 	float b0 = 0.0, b1 = 0.0, b2 = 0.0, a0 = 0.0, a1 = 0.0, a2 = 0.0;
 782              		.loc 1 209 2 is_stmt 1 view .LVU172
 783              		.loc 1 210 2 view .LVU173
 784 01d4 4FF00006 		mov	r6, #0	@ tmp160,
 785              	.LVL68:
 786              		.loc 1 210 2 is_stmt 0 view .LVU174
 787 01d8 43D0     		beq	.L17		@,
 788 01da 022C     		cmp	r4, #2	@ FilterType,
 789 01dc 58D0     		beq	.L18		@,
 790 01de 002C     		cmp	r4, #0	@ FilterType
 791 01e0 6ED1     		bne	.L20	@
 211:filter.c      **** 		case FILTER_LPF:
 212:filter.c      **** 			b0 = (1.0f - cs) * 0.5f;
 792              		.loc 1 212 4 is_stmt 1 view .LVU175
 793              	@ filter.c:212: 			b0 = (1.0f - cs) * 0.5f;
 794              		.loc 1 212 15 is_stmt 0 view .LVU176
 795 01e2 3946     		mov	r1, r7	@, cs
 796 01e4 4FF07E50 		mov	r0, #1065353216	@,
 797              	.LVL69:
 798              		.loc 1 212 15 view .LVU177
 799 01e8 FFF7FEFF 		bl	__aeabi_fsub		@
 800              	.LVL70:
 801              	@ filter.c:212: 			b0 = (1.0f - cs) * 0.5f;
 802              		.loc 1 212 7 view .LVU178
 803 01ec 4FF07C51 		mov	r1, #1056964608	@,
 804              	@ filter.c:212: 			b0 = (1.0f - cs) * 0.5f;
 805              		.loc 1 212 15 view .LVU179
 806 01f0 8046     		mov	r8, r0	@ b1, tmp172
 807              	.LVL71:
 808              	@ filter.c:212: 			b0 = (1.0f - cs) * 0.5f;
 809              		.loc 1 212 7 view .LVU180
 810 01f2 FFF7FEFF 		bl	__aeabi_fmul		@
 811              	.LVL72:
 812              	@ filter.c:215: 			a0 = 1.0f + alpha;
 213:filter.c      **** 			b1 = 1.0f - cs;
 214:filter.c      **** 			b2 = (1.0f - cs) * 0.5f;
 215:filter.c      **** 			a0 = 1.0f + alpha;
ARM GAS  /var/folders/_2/qbh2zpt918qcm2b_6mgyydnm0000gn/T//ccIdySvu.s 			page 20


 813              		.loc 1 215 7 view .LVU181
 814 01f6 4FF07E51 		mov	r1, #1065353216	@,
 815              	@ filter.c:212: 			b0 = (1.0f - cs) * 0.5f;
 212:filter.c      **** 			b1 = 1.0f - cs;
 816              		.loc 1 212 7 view .LVU182
 817 01fa 8346     		mov	fp, r0	@ b0, tmp173
 818              	.LVL73:
 213:filter.c      **** 			b1 = 1.0f - cs;
 819              		.loc 1 213 4 is_stmt 1 view .LVU183
 214:filter.c      **** 			a0 = 1.0f + alpha;
 820              		.loc 1 214 4 view .LVU184
 821              		.loc 1 215 4 view .LVU185
 822              	@ filter.c:215: 			a0 = 1.0f + alpha;
 823              		.loc 1 215 7 is_stmt 0 view .LVU186
 824 01fc 4846     		mov	r0, r9	@, tmp139
 825              	.LVL74:
 826              		.loc 1 215 7 view .LVU187
 827 01fe FFF7FEFF 		bl	__aeabi_fadd		@
 828              	.LVL75:
 829              	@ filter.c:216: 			a1 = -2.0f * cs;
 216:filter.c      **** 			a1 = -2.0f * cs;
 830              		.loc 1 216 7 view .LVU188
 831 0202 4FF04041 		mov	r1, #-1073741824	@,
 832              	@ filter.c:215: 			a0 = 1.0f + alpha;
 215:filter.c      **** 			a1 = -2.0f * cs;
 833              		.loc 1 215 7 view .LVU189
 834 0206 0446     		mov	r4, r0	@ a0, tmp174
 835              	.LVL76:
 836              		.loc 1 216 4 is_stmt 1 view .LVU190
 837              	@ filter.c:216: 			a1 = -2.0f * cs;
 838              		.loc 1 216 7 is_stmt 0 view .LVU191
 839 0208 3846     		mov	r0, r7	@, cs
 840              	.LVL77:
 841              		.loc 1 216 7 view .LVU192
 842 020a FFF7FEFF 		bl	__aeabi_fmul		@
 843              	.LVL78:
 844              	@ filter.c:217: 			a2 = 1.0f - alpha;
 217:filter.c      **** 			a2 = 1.0f - alpha;
 845              		.loc 1 217 7 view .LVU193
 846 020e 4946     		mov	r1, r9	@, tmp139
 847              	@ filter.c:216: 			a1 = -2.0f * cs;
 216:filter.c      **** 			a1 = -2.0f * cs;
 848              		.loc 1 216 7 view .LVU194
 849 0210 8246     		mov	r10, r0	@ a1, tmp175
 850              	.LVL79:
 851              		.loc 1 217 4 is_stmt 1 view .LVU195
 852              	@ filter.c:217: 			a2 = 1.0f - alpha;
 853              		.loc 1 217 7 is_stmt 0 view .LVU196
 854 0212 4FF07E50 		mov	r0, #1065353216	@,
 855              	.LVL80:
 856              		.loc 1 217 7 view .LVU197
 857 0216 FFF7FEFF 		bl	__aeabi_fsub		@
 858              	.LVL81:
 859              	@ filter.c:214: 			b2 = (1.0f - cs) * 0.5f;
 214:filter.c      **** 			a0 = 1.0f + alpha;
 860              		.loc 1 214 7 view .LVU198
 861 021a 5B46     		mov	r3, fp	@ b2, b0
ARM GAS  /var/folders/_2/qbh2zpt918qcm2b_6mgyydnm0000gn/T//ccIdySvu.s 			page 21


 862              	@ filter.c:217: 			a2 = 1.0f - alpha;
 863              		.loc 1 217 7 view .LVU199
 864 021c 0746     		mov	r7, r0	@ a2, tmp176
 865              	.LVL82:
 218:filter.c      **** 		break;
 866              		.loc 1 218 3 is_stmt 1 view .LVU200
 867              	.L19:
 868              	@ filter.c:238: 	filter->b0 = b0 / a0;
 219:filter.c      **** 		case FILTER_NOTCH:
 220:filter.c      **** 			b0 =  1.0f;
 221:filter.c      **** 			b1 = -2.0f * cs;
 222:filter.c      **** 			b2 =  1.0f;
 223:filter.c      **** 			a0 =  1.0f + alpha;
 224:filter.c      **** 			a1 = -2.0f * cs;
 225:filter.c      **** 			a2 =  1.0f - alpha;
 226:filter.c      **** 		break;
 227:filter.c      **** 		case FILTER_BPF:
 228:filter.c      **** 			b0 = alpha;
 229:filter.c      **** 			b1 = 0.0f;
 230:filter.c      **** 			b2 = -alpha;
 231:filter.c      **** 			a0 = 1.0f + alpha;
 232:filter.c      **** 			a1 = -2.0f * cs;
 233:filter.c      **** 			a2 = 1.0f - alpha;
 234:filter.c      **** 		break;
 235:filter.c      **** 	};
 236:filter.c      **** 
 237:filter.c      **** 	// precompute the coefficients
 238:filter.c      **** 	filter->b0 = b0 / a0;
 869              		.loc 1 238 18 is_stmt 0 view .LVU201
 870 021e 2146     		mov	r1, r4	@, a0
 871 0220 5846     		mov	r0, fp	@, b0
 872 0222 0193     		str	r3, [sp, #4]	@ b2, %sfp
 873              	.LVL83:
 235:filter.c      **** 
 874              		.loc 1 235 3 is_stmt 1 view .LVU202
 875              		.loc 1 238 2 view .LVU203
 876              	@ filter.c:238: 	filter->b0 = b0 / a0;
 877              		.loc 1 238 18 is_stmt 0 view .LVU204
 878 0224 FFF7FEFF 		bl	__aeabi_fdiv		@
 879              	.LVL84:
 880              	@ filter.c:239: 	filter->b1 = b1 / a0;
 239:filter.c      **** 	filter->b1 = b1 / a0;
 881              		.loc 1 239 18 view .LVU205
 882 0228 2146     		mov	r1, r4	@, a0
 883              	@ filter.c:238: 	filter->b0 = b0 / a0;
 238:filter.c      **** 	filter->b1 = b1 / a0;
 884              		.loc 1 238 13 view .LVU206
 885 022a 2860     		str	r0, [r5]	@ float	@ tmp183, filter_39(D)->b0
 886              		.loc 1 239 2 is_stmt 1 view .LVU207
 887              	@ filter.c:239: 	filter->b1 = b1 / a0;
 888              		.loc 1 239 18 is_stmt 0 view .LVU208
 889 022c 4046     		mov	r0, r8	@, b1
 890 022e FFF7FEFF 		bl	__aeabi_fdiv		@
 891              	.LVL85:
 892              	@ filter.c:240: 	filter->b2 = b2 / a0;
 240:filter.c      **** 	filter->b2 = b2 / a0;
 893              		.loc 1 240 18 view .LVU209
ARM GAS  /var/folders/_2/qbh2zpt918qcm2b_6mgyydnm0000gn/T//ccIdySvu.s 			page 22


 894 0232 019B     		ldr	r3, [sp, #4]	@ b2, %sfp
 895              	@ filter.c:239: 	filter->b1 = b1 / a0;
 239:filter.c      **** 	filter->b1 = b1 / a0;
 896              		.loc 1 239 13 view .LVU210
 897 0234 6860     		str	r0, [r5, #4]	@ float	@ tmp184, filter_39(D)->b1
 898              		.loc 1 240 2 is_stmt 1 view .LVU211
 899              	@ filter.c:240: 	filter->b2 = b2 / a0;
 900              		.loc 1 240 18 is_stmt 0 view .LVU212
 901 0236 2146     		mov	r1, r4	@, a0
 902 0238 1846     		mov	r0, r3	@, b2
 903 023a FFF7FEFF 		bl	__aeabi_fdiv		@
 904              	.LVL86:
 905              	@ filter.c:241: 	filter->a1 = a1 / a0;
 241:filter.c      **** 	filter->a1 = a1 / a0;
 906              		.loc 1 241 18 view .LVU213
 907 023e 2146     		mov	r1, r4	@, a0
 908              	@ filter.c:240: 	filter->b2 = b2 / a0;
 240:filter.c      **** 	filter->b2 = b2 / a0;
 909              		.loc 1 240 13 view .LVU214
 910 0240 A860     		str	r0, [r5, #8]	@ float	@ tmp185, filter_39(D)->b2
 911              		.loc 1 241 2 is_stmt 1 view .LVU215
 912              	@ filter.c:241: 	filter->a1 = a1 / a0;
 913              		.loc 1 241 18 is_stmt 0 view .LVU216
 914 0242 5046     		mov	r0, r10	@, a1
 915 0244 FFF7FEFF 		bl	__aeabi_fdiv		@
 916              	.LVL87:
 917              	@ filter.c:242: 	filter->a2 = a2 / a0;
 242:filter.c      **** 	filter->a2 = a2 / a0;
 918              		.loc 1 242 18 view .LVU217
 919 0248 2146     		mov	r1, r4	@, a0
 920              	@ filter.c:241: 	filter->a1 = a1 / a0;
 241:filter.c      **** 	filter->a1 = a1 / a0;
 921              		.loc 1 241 13 view .LVU218
 922 024a E860     		str	r0, [r5, #12]	@ float	@ tmp186, filter_39(D)->a1
 923              		.loc 1 242 2 is_stmt 1 view .LVU219
 924              	@ filter.c:242: 	filter->a2 = a2 / a0;
 925              		.loc 1 242 18 is_stmt 0 view .LVU220
 926 024c 3846     		mov	r0, r7	@, a2
 927 024e FFF7FEFF 		bl	__aeabi_fdiv		@
 928              	.LVL88:
 929              	@ filter.c:245: 	filter->x1 = filter->x2 = 0;
 243:filter.c      **** 
 244:filter.c      **** 	// zero initial samples
 245:filter.c      **** 	filter->x1 = filter->x2 = 0;
 930              		.loc 1 245 26 view .LVU221
 931 0252 AE61     		str	r6, [r5, #24]	@ float	@ tmp160, filter_39(D)->x2
 932              	@ filter.c:242: 	filter->a2 = a2 / a0;
 242:filter.c      **** 	filter->a2 = a2 / a0;
 933              		.loc 1 242 13 view .LVU222
 934 0254 2861     		str	r0, [r5, #16]	@ float	@ tmp187, filter_39(D)->a2
 935              		.loc 1 245 2 is_stmt 1 view .LVU223
 936              	@ filter.c:245: 	filter->x1 = filter->x2 = 0;
 937              		.loc 1 245 13 is_stmt 0 view .LVU224
 938 0256 6E61     		str	r6, [r5, #20]	@ float	@ tmp160, filter_39(D)->x1
 246:filter.c      **** 	filter->y1 = filter->y2 = 0;
 939              		.loc 1 246 2 is_stmt 1 view .LVU225
 940              	@ filter.c:246: 	filter->y1 = filter->y2 = 0;
ARM GAS  /var/folders/_2/qbh2zpt918qcm2b_6mgyydnm0000gn/T//ccIdySvu.s 			page 23


 941              		.loc 1 246 26 is_stmt 0 view .LVU226
 942 0258 2E62     		str	r6, [r5, #32]	@ float	@ tmp160, filter_39(D)->y2
 943              	@ filter.c:246: 	filter->y1 = filter->y2 = 0;
 944              		.loc 1 246 13 view .LVU227
 945 025a EE61     		str	r6, [r5, #28]	@ float	@ tmp160, filter_39(D)->y1
 946              	@ filter.c:248: };
 247:filter.c      **** 
 248:filter.c      **** };
 947              		.loc 1 248 1 view .LVU228
 948 025c 03B0     		add	sp, sp, #12	@,,
 949              	.LCFI6:
 950              		.cfi_remember_state
 951              		.cfi_def_cfa_offset 36
 952              		@ sp needed	@
 953 025e BDE8F08F 		pop	{r4, r5, r6, r7, r8, r9, r10, fp, pc}	@
 954              	.LVL89:
 955              	.L17:
 956              	.LCFI7:
 957              		.cfi_restore_state
 220:filter.c      **** 			b1 = -2.0f * cs;
 958              		.loc 1 220 4 is_stmt 1 view .LVU229
 221:filter.c      **** 			b2 =  1.0f;
 959              		.loc 1 221 4 view .LVU230
 960              	@ filter.c:221: 			b1 = -2.0f * cs;
 221:filter.c      **** 			b2 =  1.0f;
 961              		.loc 1 221 7 is_stmt 0 view .LVU231
 962 0262 4FF04041 		mov	r1, #-1073741824	@,
 963 0266 3846     		mov	r0, r7	@, cs
 964              	.LVL90:
 221:filter.c      **** 			b2 =  1.0f;
 965              		.loc 1 221 7 view .LVU232
 966 0268 FFF7FEFF 		bl	__aeabi_fmul		@
 967              	.LVL91:
 968              	@ filter.c:223: 			a0 =  1.0f + alpha;
 223:filter.c      **** 			a1 = -2.0f * cs;
 969              		.loc 1 223 7 view .LVU233
 970 026c 4FF07E51 		mov	r1, #1065353216	@,
 971              	@ filter.c:221: 			b1 = -2.0f * cs;
 221:filter.c      **** 			b2 =  1.0f;
 972              		.loc 1 221 7 view .LVU234
 973 0270 8046     		mov	r8, r0	@ b1, tmp177
 974              	.LVL92:
 222:filter.c      **** 			a0 =  1.0f + alpha;
 975              		.loc 1 222 4 is_stmt 1 view .LVU235
 223:filter.c      **** 			a1 = -2.0f * cs;
 976              		.loc 1 223 4 view .LVU236
 977              	@ filter.c:223: 			a0 =  1.0f + alpha;
 223:filter.c      **** 			a1 = -2.0f * cs;
 978              		.loc 1 223 7 is_stmt 0 view .LVU237
 979 0272 4846     		mov	r0, r9	@, tmp139
 980              	.LVL93:
 223:filter.c      **** 			a1 = -2.0f * cs;
 981              		.loc 1 223 7 view .LVU238
 982 0274 FFF7FEFF 		bl	__aeabi_fadd		@
 983              	.LVL94:
 984              	@ filter.c:225: 			a2 =  1.0f - alpha;
 225:filter.c      **** 		break;
ARM GAS  /var/folders/_2/qbh2zpt918qcm2b_6mgyydnm0000gn/T//ccIdySvu.s 			page 24


 985              		.loc 1 225 7 view .LVU239
 986 0278 4946     		mov	r1, r9	@, tmp139
 987              	@ filter.c:223: 			a0 =  1.0f + alpha;
 223:filter.c      **** 			a1 = -2.0f * cs;
 988              		.loc 1 223 7 view .LVU240
 989 027a 0446     		mov	r4, r0	@ a0, tmp178
 990              	.LVL95:
 224:filter.c      **** 			a2 =  1.0f - alpha;
 991              		.loc 1 224 4 is_stmt 1 view .LVU241
 225:filter.c      **** 		break;
 992              		.loc 1 225 4 view .LVU242
 993              	@ filter.c:225: 			a2 =  1.0f - alpha;
 225:filter.c      **** 		break;
 994              		.loc 1 225 7 is_stmt 0 view .LVU243
 995 027c 4FF07E50 		mov	r0, #1065353216	@,
 996              	.LVL96:
 225:filter.c      **** 		break;
 997              		.loc 1 225 7 view .LVU244
 998 0280 FFF7FEFF 		bl	__aeabi_fsub		@
 999              	.LVL97:
 1000              	@ filter.c:222: 			b2 =  1.0f;
 222:filter.c      **** 			a0 =  1.0f + alpha;
 1001              		.loc 1 222 7 view .LVU245
 1002 0284 4FF07E53 		mov	r3, #1065353216	@ b2,
 1003              	@ filter.c:225: 			a2 =  1.0f - alpha;
 225:filter.c      **** 		break;
 1004              		.loc 1 225 7 view .LVU246
 1005 0288 0746     		mov	r7, r0	@ a2, tmp179
 1006              	.LVL98:
 226:filter.c      **** 		case FILTER_BPF:
 1007              		.loc 1 226 3 is_stmt 1 view .LVU247
 1008              	@ filter.c:224: 			a1 = -2.0f * cs;
 224:filter.c      **** 			a2 =  1.0f - alpha;
 1009              		.loc 1 224 7 is_stmt 0 view .LVU248
 1010 028a C246     		mov	r10, r8	@ a1, b1
 1011              	@ filter.c:220: 			b0 =  1.0f;
 220:filter.c      **** 			b1 = -2.0f * cs;
 1012              		.loc 1 220 7 view .LVU249
 1013 028c 9B46     		mov	fp, r3	@ b0, b2
 1014              	@ filter.c:226: 		break;
 226:filter.c      **** 		case FILTER_BPF:
 1015              		.loc 1 226 3 view .LVU250
 1016 028e C6E7     		b	.L19		@
 1017              	.LVL99:
 1018              	.L18:
 228:filter.c      **** 			b1 = 0.0f;
 1019              		.loc 1 228 4 is_stmt 1 view .LVU251
 229:filter.c      **** 			b2 = -alpha;
 1020              		.loc 1 229 4 view .LVU252
 230:filter.c      **** 			a0 = 1.0f + alpha;
 1021              		.loc 1 230 4 view .LVU253
 1022              	@ filter.c:230: 			b2 = -alpha;
 230:filter.c      **** 			a0 = 1.0f + alpha;
 1023              		.loc 1 230 7 is_stmt 0 view .LVU254
 1024 0290 00F10043 		add	r3, r0, #-2147483648	@ b2, tmp139,
 1025              	@ filter.c:231: 			a0 = 1.0f + alpha;
 231:filter.c      **** 			a1 = -2.0f * cs;
ARM GAS  /var/folders/_2/qbh2zpt918qcm2b_6mgyydnm0000gn/T//ccIdySvu.s 			page 25


 1026              		.loc 1 231 7 view .LVU255
 1027 0294 4FF07E51 		mov	r1, #1065353216	@,
 1028              	@ filter.c:230: 			b2 = -alpha;
 230:filter.c      **** 			a0 = 1.0f + alpha;
 1029              		.loc 1 230 7 view .LVU256
 1030 0298 0193     		str	r3, [sp, #4]	@ b2, %sfp
 1031              	.LVL100:
 231:filter.c      **** 			a1 = -2.0f * cs;
 1032              		.loc 1 231 4 is_stmt 1 view .LVU257
 1033              	@ filter.c:231: 			a0 = 1.0f + alpha;
 231:filter.c      **** 			a1 = -2.0f * cs;
 1034              		.loc 1 231 7 is_stmt 0 view .LVU258
 1035 029a FFF7FEFF 		bl	__aeabi_fadd		@
 1036              	.LVL101:
 1037              	@ filter.c:232: 			a1 = -2.0f * cs;
 232:filter.c      **** 			a2 = 1.0f - alpha;
 1038              		.loc 1 232 7 view .LVU259
 1039 029e 4FF04041 		mov	r1, #-1073741824	@,
 1040              	@ filter.c:231: 			a0 = 1.0f + alpha;
 231:filter.c      **** 			a1 = -2.0f * cs;
 1041              		.loc 1 231 7 view .LVU260
 1042 02a2 0446     		mov	r4, r0	@ a0, tmp180
 1043              	.LVL102:
 232:filter.c      **** 			a2 = 1.0f - alpha;
 1044              		.loc 1 232 4 is_stmt 1 view .LVU261
 1045              	@ filter.c:232: 			a1 = -2.0f * cs;
 232:filter.c      **** 			a2 = 1.0f - alpha;
 1046              		.loc 1 232 7 is_stmt 0 view .LVU262
 1047 02a4 3846     		mov	r0, r7	@, cs
 1048              	.LVL103:
 232:filter.c      **** 			a2 = 1.0f - alpha;
 1049              		.loc 1 232 7 view .LVU263
 1050 02a6 FFF7FEFF 		bl	__aeabi_fmul		@
 1051              	.LVL104:
 1052              	@ filter.c:233: 			a2 = 1.0f - alpha;
 233:filter.c      **** 		break;
 1053              		.loc 1 233 7 view .LVU264
 1054 02aa 4946     		mov	r1, r9	@, tmp139
 1055              	@ filter.c:232: 			a1 = -2.0f * cs;
 232:filter.c      **** 			a2 = 1.0f - alpha;
 1056              		.loc 1 232 7 view .LVU265
 1057 02ac 8246     		mov	r10, r0	@ a1, tmp181
 1058              	.LVL105:
 233:filter.c      **** 		break;
 1059              		.loc 1 233 4 is_stmt 1 view .LVU266
 1060              	@ filter.c:233: 			a2 = 1.0f - alpha;
 233:filter.c      **** 		break;
 1061              		.loc 1 233 7 is_stmt 0 view .LVU267
 1062 02ae 4FF07E50 		mov	r0, #1065353216	@,
 1063              	.LVL106:
 233:filter.c      **** 		break;
 1064              		.loc 1 233 7 view .LVU268
 1065 02b2 FFF7FEFF 		bl	__aeabi_fsub		@
 1066              	.LVL107:
 1067              	@ filter.c:228: 			b0 = alpha;
 228:filter.c      **** 			b1 = 0.0f;
 1068              		.loc 1 228 7 view .LVU269
ARM GAS  /var/folders/_2/qbh2zpt918qcm2b_6mgyydnm0000gn/T//ccIdySvu.s 			page 26


 1069 02b6 CB46     		mov	fp, r9	@ b0, tmp139
 1070              	@ filter.c:234: 		break;
 234:filter.c      **** 	};
 1071              		.loc 1 234 3 view .LVU270
 1072 02b8 019B     		ldr	r3, [sp, #4]	@ b2, %sfp
 1073              	@ filter.c:233: 			a2 = 1.0f - alpha;
 233:filter.c      **** 		break;
 1074              		.loc 1 233 7 view .LVU271
 1075 02ba 0746     		mov	r7, r0	@ a2, tmp182
 1076              	.LVL108:
 234:filter.c      **** 	};
 1077              		.loc 1 234 3 is_stmt 1 view .LVU272
 1078              	@ filter.c:229: 			b1 = 0.0f;
 229:filter.c      **** 			b2 = -alpha;
 1079              		.loc 1 229 7 is_stmt 0 view .LVU273
 1080 02bc B046     		mov	r8, r6	@ b1, tmp160
 1081              	.LVL109:
 1082              	@ filter.c:234: 		break;
 234:filter.c      **** 	};
 1083              		.loc 1 234 3 view .LVU274
 1084 02be AEE7     		b	.L19		@
 1085              	.LVL110:
 1086              	.L20:
 1087              	@ filter.c:210: 	switch (FilterType){
 210:filter.c      **** 		case FILTER_LPF:
 1088              		.loc 1 210 2 view .LVU275
 1089 02c0 3746     		mov	r7, r6	@ a2, tmp160
 1090              	.LVL111:
 210:filter.c      **** 		case FILTER_LPF:
 1091              		.loc 1 210 2 view .LVU276
 1092 02c2 B246     		mov	r10, r6	@ a1, tmp160
 1093 02c4 3446     		mov	r4, r6	@ a0, tmp160
 1094 02c6 3346     		mov	r3, r6	@ b2, tmp160
 1095 02c8 B046     		mov	r8, r6	@ b1, tmp160
 1096              	.LVL112:
 210:filter.c      **** 		case FILTER_LPF:
 1097              		.loc 1 210 2 view .LVU277
 1098 02ca B346     		mov	fp, r6	@ b0, tmp160
 1099 02cc A7E7     		b	.L19		@
 1100              	.L22:
 1101 02ce 00BF     		.align	2
 1102              	.L21:
 1103 02d0 DB0FC940 		.word	1086918619
 1104 02d4 BD378635 		.word	897988541
 1105              		.cfi_endproc
 1106              	.LFE18:
 1107              		.size	biquadFilterInit, .-biquadFilterInit
 1108              		.align	1
 1109              		.global	initDtermLpfFilter
 1110              		.syntax unified
 1111              		.thumb
 1112              		.thumb_func
 1113              		.fpu softvfp
 1114              		.type	initDtermLpfFilter, %function
 1115              	initDtermLpfFilter:
 1116              	.LVL113:
 1117              	.LFB6:
ARM GAS  /var/folders/_2/qbh2zpt918qcm2b_6mgyydnm0000gn/T//ccIdySvu.s 			page 27


  45:filter.c      **** 	
 1118              		.loc 1 45 42 is_stmt 1 view -0
 1119              		.cfi_startproc
 1120              		@ args = 0, pretend = 0, frame = 0
 1121              		@ frame_needed = 0, uses_anonymous_args = 0
  47:filter.c      **** 
 1122              		.loc 1 47 2 view .LVU279
 1123              	@ filter.c:47: 	dtermLowpassFilterApply = nullFilterApply;
  47:filter.c      **** 
 1124              		.loc 1 47 26 is_stmt 0 view .LVU280
 1125 02d8 1E4B     		ldr	r3, .L33	@ tmp123,
 1126              	@ filter.c:45: void initDtermLpfFilter(uint8_t lpf_type){
  45:filter.c      **** 	
 1127              		.loc 1 45 42 view .LVU281
 1128 02da 2DE9F743 		push	{r0, r1, r2, r4, r5, r6, r7, r8, r9, lr}	@
 1129              	.LCFI8:
 1130              		.cfi_def_cfa_offset 40
 1131              		.cfi_offset 4, -28
 1132              		.cfi_offset 5, -24
 1133              		.cfi_offset 6, -20
 1134              		.cfi_offset 7, -16
 1135              		.cfi_offset 8, -12
 1136              		.cfi_offset 9, -8
 1137              		.cfi_offset 14, -4
 1138              	@ filter.c:47: 	dtermLowpassFilterApply = nullFilterApply;
  47:filter.c      **** 
 1139              		.loc 1 47 26 view .LVU282
 1140 02de 1E4A     		ldr	r2, .L33+4	@ tmp124,
 1141 02e0 1A60     		str	r2, [r3]	@ tmp124, dtermLowpassFilterApply
  50:filter.c      **** 		switch(dtermFilterSettings.dterm_lowpass_type){
 1142              		.loc 1 50 2 is_stmt 1 view .LVU283
 1143              	@ filter.c:50: 	if(lpf_type){
  50:filter.c      **** 		switch(dtermFilterSettings.dterm_lowpass_type){
 1144              		.loc 1 50 4 is_stmt 0 view .LVU284
 1145 02e2 28B1     		cbz	r0, .L23	@ tmp152,
  51:filter.c      **** 			case FILTER_PT1:
 1146              		.loc 1 51 3 is_stmt 1 view .LVU285
 1147              	@ filter.c:51: 		switch(dtermFilterSettings.dterm_lowpass_type){
  51:filter.c      **** 			case FILTER_PT1:
 1148              		.loc 1 51 29 is_stmt 0 view .LVU286
 1149 02e4 1D4C     		ldr	r4, .L33+8	@ tmp125,
 1150 02e6 A279     		ldrb	r2, [r4, #6]	@ zero_extendqisi2	@ _1, dtermFilterSettings.dterm_lowpass_type
 1151 02e8 2746     		mov	r7, r4	@ tmp150, tmp125
 1152              	@ filter.c:51: 		switch(dtermFilterSettings.dterm_lowpass_type){
  51:filter.c      **** 			case FILTER_PT1:
 1153              		.loc 1 51 3 view .LVU287
 1154 02ea 22B1     		cbz	r2, .L25	@ _1,
 1155 02ec 012A     		cmp	r2, #1	@ _1,
 1156 02ee 18D0     		beq	.L26		@,
 1157              	.LVL114:
 1158              	.L23:
 1159              	@ filter.c:68: };
  68:filter.c      **** 
 1160              		.loc 1 68 1 view .LVU288
 1161 02f0 03B0     		add	sp, sp, #12	@,,
 1162              	.LCFI9:
 1163              		.cfi_remember_state
ARM GAS  /var/folders/_2/qbh2zpt918qcm2b_6mgyydnm0000gn/T//ccIdySvu.s 			page 28


 1164              		.cfi_def_cfa_offset 28
 1165              		@ sp needed	@
 1166 02f2 BDE8F083 		pop	{r4, r5, r6, r7, r8, r9, pc}	@
 1167              	.LVL115:
 1168              	.L25:
 1169              	.LCFI10:
 1170              		.cfi_restore_state
  53:filter.c      **** 				for(int axis = 0; axis < 3; ++axis){
 1171              		.loc 1 53 5 is_stmt 1 view .LVU289
 1172              	@ filter.c:53: 				dtermLowpassFilterApply = (filterApplyPtr) pt1FilterApply;
  53:filter.c      **** 				for(int axis = 0; axis < 3; ++axis){
 1173              		.loc 1 53 29 is_stmt 0 view .LVU290
 1174 02f6 1A4A     		ldr	r2, .L33+12	@ tmp127,
 1175 02f8 1A60     		str	r2, [r3]	@ tmp127, dtermLowpassFilterApply
  54:filter.c      **** 					pt1FilterInit(&dtermLowpass[axis].pt1Filter, pt1FilterGain(dtermFilterSettings.dterm_lowpass_h
 1176              		.loc 1 54 5 is_stmt 1 view .LVU291
 1177              	.LBB28:
  54:filter.c      **** 					pt1FilterInit(&dtermLowpass[axis].pt1Filter, pt1FilterGain(dtermFilterSettings.dterm_lowpass_h
 1178              		.loc 1 54 9 view .LVU292
 1179              	.LVL116:
  54:filter.c      **** 					pt1FilterInit(&dtermLowpass[axis].pt1Filter, pt1FilterGain(dtermFilterSettings.dterm_lowpass_h
 1180              		.loc 1 54 23 view .LVU293
 1181              	@ filter.c:55: 					pt1FilterInit(&dtermLowpass[axis].pt1Filter, pt1FilterGain(dtermFilterSettings.
  55:filter.c      **** 				};
 1182              		.loc 1 55 107 is_stmt 0 view .LVU294
 1183 02fa 1A4B     		ldr	r3, .L33+16	@ tmp128,
 1184              	@ filter.c:55: 					pt1FilterInit(&dtermLowpass[axis].pt1Filter, pt1FilterGain(dtermFilterSettings.
  55:filter.c      **** 				};
 1185              		.loc 1 55 6 view .LVU295
 1186 02fc 1868     		ldr	r0, [r3]	@, gyro.targetLoopTime
 1187              	.LVL117:
  55:filter.c      **** 				};
 1188              		.loc 1 55 6 view .LVU296
 1189 02fe FFF7FEFF 		bl	__aeabi_ui2f		@
 1190              	.LVL118:
 1191 0302 1949     		ldr	r1, .L33+20	@,
 1192 0304 FFF7FEFF 		bl	__aeabi_fmul		@
 1193              	.LVL119:
 1194 0308 0146     		mov	r1, r0	@ tmp153,
 1195 030a 2089     		ldrh	r0, [r4, #8]	@, dtermFilterSettings.dterm_lowpass_hz
 1196 030c FFF7FEFF 		bl	pt1FilterGain		@
 1197              	.LVL120:
  55:filter.c      **** 				};
 1198              		.loc 1 55 6 is_stmt 1 view .LVU297
 1199              	.LBB29:
 1200              	.LBI29:
 187:filter.c      **** 	filter->state = 0.0f;
 1201              		.loc 1 187 6 view .LVU298
 1202              	.LBB30:
 188:filter.c      **** 	filter->k = k;
 1203              		.loc 1 188 2 view .LVU299
 1204              	@ filter.c:188: 	filter->state = 0.0f;
 188:filter.c      **** 	filter->k = k;
 1205              		.loc 1 188 16 is_stmt 0 view .LVU300
 1206 0310 164B     		ldr	r3, .L33+24	@ tmp133,
 1207 0312 0022     		movs	r2, #0	@ tmp134,
 1208 0314 1A60     		str	r2, [r3]	@ float	@ tmp134, MEM[(struct pt1Filter_t *)&dtermLowpass][0].pt1Filter.state
ARM GAS  /var/folders/_2/qbh2zpt918qcm2b_6mgyydnm0000gn/T//ccIdySvu.s 			page 29


 189:filter.c      **** };
 1209              		.loc 1 189 2 is_stmt 1 view .LVU301
 1210              	@ filter.c:189: 	filter->k = k;
 189:filter.c      **** };
 1211              		.loc 1 189 12 is_stmt 0 view .LVU302
 1212 0316 5860     		str	r0, [r3, #4]	@ float	@ _6, MEM[(struct pt1Filter_t *)&dtermLowpass][0].pt1Filter.k
 1213              	.LVL121:
 189:filter.c      **** };
 1214              		.loc 1 189 12 view .LVU303
 1215              	.LBE30:
 1216              	.LBE29:
  54:filter.c      **** 					pt1FilterInit(&dtermLowpass[axis].pt1Filter, pt1FilterGain(dtermFilterSettings.dterm_lowpass_h
 1217              		.loc 1 54 33 is_stmt 1 view .LVU304
  54:filter.c      **** 					pt1FilterInit(&dtermLowpass[axis].pt1Filter, pt1FilterGain(dtermFilterSettings.dterm_lowpass_h
 1218              		.loc 1 54 23 view .LVU305
  55:filter.c      **** 				};
 1219              		.loc 1 55 6 view .LVU306
 1220              	.LBB33:
 187:filter.c      **** 	filter->state = 0.0f;
 1221              		.loc 1 187 6 view .LVU307
 1222              	.LBB31:
 188:filter.c      **** 	filter->k = k;
 1223              		.loc 1 188 2 view .LVU308
 1224              	@ filter.c:188: 	filter->state = 0.0f;
 188:filter.c      **** 	filter->k = k;
 1225              		.loc 1 188 16 is_stmt 0 view .LVU309
 1226 0318 5A62     		str	r2, [r3, #36]	@ float	@ tmp134, MEM[(struct pt1Filter_t *)&dtermLowpass][1].pt1Filter.state
 189:filter.c      **** };
 1227              		.loc 1 189 2 is_stmt 1 view .LVU310
 1228              	@ filter.c:189: 	filter->k = k;
 189:filter.c      **** };
 1229              		.loc 1 189 12 is_stmt 0 view .LVU311
 1230 031a 9862     		str	r0, [r3, #40]	@ float	@ _6, MEM[(struct pt1Filter_t *)&dtermLowpass][1].pt1Filter.k
 1231              	.LVL122:
 189:filter.c      **** };
 1232              		.loc 1 189 12 view .LVU312
 1233              	.LBE31:
 1234              	.LBE33:
  54:filter.c      **** 					pt1FilterInit(&dtermLowpass[axis].pt1Filter, pt1FilterGain(dtermFilterSettings.dterm_lowpass_h
 1235              		.loc 1 54 33 is_stmt 1 view .LVU313
  54:filter.c      **** 					pt1FilterInit(&dtermLowpass[axis].pt1Filter, pt1FilterGain(dtermFilterSettings.dterm_lowpass_h
 1236              		.loc 1 54 23 view .LVU314
  55:filter.c      **** 				};
 1237              		.loc 1 55 6 view .LVU315
 1238              	.LBB34:
 187:filter.c      **** 	filter->state = 0.0f;
 1239              		.loc 1 187 6 view .LVU316
 1240              	.LBB32:
 188:filter.c      **** 	filter->k = k;
 1241              		.loc 1 188 2 view .LVU317
 1242              	@ filter.c:188: 	filter->state = 0.0f;
 188:filter.c      **** 	filter->k = k;
 1243              		.loc 1 188 16 is_stmt 0 view .LVU318
 1244 031c 9A64     		str	r2, [r3, #72]	@ float	@ tmp134, MEM[(struct pt1Filter_t *)&dtermLowpass][2].pt1Filter.state
 189:filter.c      **** };
 1245              		.loc 1 189 2 is_stmt 1 view .LVU319
 1246              	@ filter.c:189: 	filter->k = k;
ARM GAS  /var/folders/_2/qbh2zpt918qcm2b_6mgyydnm0000gn/T//ccIdySvu.s 			page 30


 189:filter.c      **** };
 1247              		.loc 1 189 12 is_stmt 0 view .LVU320
 1248 031e D864     		str	r0, [r3, #76]	@ float	@ _6, MEM[(struct pt1Filter_t *)&dtermLowpass][2].pt1Filter.k
 1249              	.LVL123:
 189:filter.c      **** };
 1250              		.loc 1 189 12 view .LVU321
 1251              	.LBE32:
 1252              	.LBE34:
  54:filter.c      **** 					pt1FilterInit(&dtermLowpass[axis].pt1Filter, pt1FilterGain(dtermFilterSettings.dterm_lowpass_h
 1253              		.loc 1 54 33 is_stmt 1 view .LVU322
  54:filter.c      **** 					pt1FilterInit(&dtermLowpass[axis].pt1Filter, pt1FilterGain(dtermFilterSettings.dterm_lowpass_h
 1254              		.loc 1 54 23 view .LVU323
 1255 0320 E6E7     		b	.L23		@
 1256              	.LVL124:
 1257              	.L26:
  54:filter.c      **** 					pt1FilterInit(&dtermLowpass[axis].pt1Filter, pt1FilterGain(dtermFilterSettings.dterm_lowpass_h
 1258              		.loc 1 54 23 is_stmt 0 view .LVU324
 1259              	.LBE28:
  59:filter.c      **** 				for(int axis = 0; axis < 3; ++axis){
 1260              		.loc 1 59 5 is_stmt 1 view .LVU325
 1261              	@ filter.c:59: 				dtermLowpassFilterApply = (filterApplyPtr) biquadFilterApply;
  59:filter.c      **** 				for(int axis = 0; axis < 3; ++axis){
 1262              		.loc 1 59 29 is_stmt 0 view .LVU326
 1263 0322 134A     		ldr	r2, .L33+28	@ tmp143,
 1264 0324 114D     		ldr	r5, .L33+24	@ ivtmp.44,
 1265              	.LBB35:
 1266              	@ filter.c:61: 					biquadFilterInit(&dtermLowpass[axis].biquadFilter, dtermFilterSettings.dterm_lo
  61:filter.c      **** 				};
 1267              		.loc 1 61 6 view .LVU327
 1268 0326 0F4E     		ldr	r6, .L33+16	@ tmp145,
 1269 0328 DFF84880 		ldr	r8, .L33+32	@ tmp151,
 1270              	.LBE35:
 1271              	@ filter.c:59: 				dtermLowpassFilterApply = (filterApplyPtr) biquadFilterApply;
  59:filter.c      **** 				for(int axis = 0; axis < 3; ++axis){
 1272              		.loc 1 59 29 view .LVU328
 1273 032c 1A60     		str	r2, [r3]	@ tmp143, dtermLowpassFilterApply
  60:filter.c      **** 					biquadFilterInit(&dtermLowpass[axis].biquadFilter, dtermFilterSettings.dterm_lowpass_hz, gyro.
 1274              		.loc 1 60 5 is_stmt 1 view .LVU329
 1275              	.LBB36:
  60:filter.c      **** 					biquadFilterInit(&dtermLowpass[axis].biquadFilter, dtermFilterSettings.dterm_lowpass_hz, gyro.
 1276              		.loc 1 60 9 view .LVU330
 1277              	.LVL125:
  60:filter.c      **** 					biquadFilterInit(&dtermLowpass[axis].biquadFilter, dtermFilterSettings.dterm_lowpass_hz, gyro.
 1278              		.loc 1 60 23 view .LVU331
 1279              	@ filter.c:60: 				for(int axis = 0; axis < 3; ++axis){
  60:filter.c      **** 					biquadFilterInit(&dtermLowpass[axis].biquadFilter, dtermFilterSettings.dterm_lowpass_hz, gyro.
 1280              		.loc 1 60 13 is_stmt 0 view .LVU332
 1281 032e 0024     		movs	r4, #0	@ axis,
 1282              	@ filter.c:61: 					biquadFilterInit(&dtermLowpass[axis].biquadFilter, dtermFilterSettings.dterm_lo
  61:filter.c      **** 				};
 1283              		.loc 1 61 6 view .LVU333
 1284 0330 A146     		mov	r9, r4	@ tmp149, axis
 1285              	.LVL126:
 1286              	.L28:
  61:filter.c      **** 				};
 1287              		.loc 1 61 6 is_stmt 1 discriminator 3 view .LVU334
 1288 0332 3889     		ldrh	r0, [r7, #8]	@, dtermFilterSettings.dterm_lowpass_hz
ARM GAS  /var/folders/_2/qbh2zpt918qcm2b_6mgyydnm0000gn/T//ccIdySvu.s 			page 31


 1289 0334 FFF7FEFF 		bl	__aeabi_ui2f		@
 1290              	.LVL127:
 1291              	@ filter.c:60: 				for(int axis = 0; axis < 3; ++axis){
  60:filter.c      **** 					biquadFilterInit(&dtermLowpass[axis].biquadFilter, dtermFilterSettings.dterm_lowpass_hz, gyro.
 1292              		.loc 1 60 33 is_stmt 0 discriminator 3 view .LVU335
 1293 0338 0134     		adds	r4, r4, #1	@ axis, axis,
 1294              	.LVL128:
 1295              	@ filter.c:61: 					biquadFilterInit(&dtermLowpass[axis].biquadFilter, dtermFilterSettings.dterm_lo
  61:filter.c      **** 				};
 1296              		.loc 1 61 6 discriminator 3 view .LVU336
 1297 033a 0146     		mov	r1, r0	@ tmp155,
 1298 033c 3268     		ldr	r2, [r6]	@, gyro.targetLoopTime
 1299 033e CDF80090 		str	r9, [sp]	@ tmp149,
 1300 0342 2846     		mov	r0, r5	@, ivtmp.44
 1301 0344 4346     		mov	r3, r8	@, tmp151
 1302 0346 FFF7FEFF 		bl	biquadFilterInit		@
 1303              	.LVL129:
  60:filter.c      **** 					biquadFilterInit(&dtermLowpass[axis].biquadFilter, dtermFilterSettings.dterm_lowpass_hz, gyro.
 1304              		.loc 1 60 33 is_stmt 1 discriminator 3 view .LVU337
  60:filter.c      **** 					biquadFilterInit(&dtermLowpass[axis].biquadFilter, dtermFilterSettings.dterm_lowpass_hz, gyro.
 1305              		.loc 1 60 23 discriminator 3 view .LVU338
 1306              	@ filter.c:60: 				for(int axis = 0; axis < 3; ++axis){
  60:filter.c      **** 					biquadFilterInit(&dtermLowpass[axis].biquadFilter, dtermFilterSettings.dterm_lowpass_hz, gyro.
 1307              		.loc 1 60 5 is_stmt 0 discriminator 3 view .LVU339
 1308 034a 032C     		cmp	r4, #3	@ axis,
 1309 034c 05F12405 		add	r5, r5, #36	@ ivtmp.44, ivtmp.44,
 1310 0350 EFD1     		bne	.L28		@,
 1311 0352 CDE7     		b	.L23		@
 1312              	.L34:
 1313              		.align	2
 1314              	.L33:
 1315 0354 00000000 		.word	dtermLowpassFilterApply
 1316 0358 00000000 		.word	nullFilterApply
 1317 035c 00000000 		.word	dtermFilterSettings
 1318 0360 00000000 		.word	pt1FilterApply
 1319 0364 00000000 		.word	gyro
 1320 0368 BD378635 		.word	897988541
 1321 036c 00000000 		.word	dtermLowpass
 1322 0370 00000000 		.word	biquadFilterApply
 1323 0374 F304353F 		.word	1060439283
 1324              	.LBE36:
 1325              		.cfi_endproc
 1326              	.LFE6:
 1327              		.size	initDtermLpfFilter, .-initDtermLpfFilter
 1328              		.align	1
 1329              		.global	accelInitLowPassFilter
 1330              		.syntax unified
 1331              		.thumb
 1332              		.thumb_func
 1333              		.fpu softvfp
 1334              		.type	accelInitLowPassFilter, %function
 1335              	accelInitLowPassFilter:
 1336              	.LVL130:
 1337              	.LFB7:
  71:filter.c      **** 	for(int axis =0; axis < 3; ++axis){
 1338              		.loc 1 71 124 is_stmt 1 view -0
 1339              		.cfi_startproc
ARM GAS  /var/folders/_2/qbh2zpt918qcm2b_6mgyydnm0000gn/T//ccIdySvu.s 			page 32


 1340              		@ args = 4, pretend = 0, frame = 0
 1341              		@ frame_needed = 0, uses_anonymous_args = 0
  72:filter.c      **** 		 biquadFilterInit(&filter[axis], accLpfHz, refreshrate, Q, type);
 1342              		.loc 1 72 2 view .LVU341
 1343              	.LBB37:
  72:filter.c      **** 		 biquadFilterInit(&filter[axis], accLpfHz, refreshrate, Q, type);
 1344              		.loc 1 72 6 view .LVU342
  72:filter.c      **** 		 biquadFilterInit(&filter[axis], accLpfHz, refreshrate, Q, type);
 1345              		.loc 1 72 19 view .LVU343
 1346              	.LBE37:
 1347              	@ filter.c:71: void accelInitLowPassFilter(biquadFilter_t *filter, float accLpfHz, uint16_t refresh
  71:filter.c      **** 	for(int axis =0; axis < 3; ++axis){
 1348              		.loc 1 71 124 is_stmt 0 view .LVU344
 1349 0378 2DE9F743 		push	{r0, r1, r2, r4, r5, r6, r7, r8, r9, lr}	@
 1350              	.LCFI11:
 1351              		.cfi_def_cfa_offset 40
 1352              		.cfi_offset 4, -28
 1353              		.cfi_offset 5, -24
 1354              		.cfi_offset 6, -20
 1355              		.cfi_offset 7, -16
 1356              		.cfi_offset 8, -12
 1357              		.cfi_offset 9, -8
 1358              		.cfi_offset 14, -4
 1359              	@ filter.c:71: void accelInitLowPassFilter(biquadFilter_t *filter, float accLpfHz, uint16_t refresh
  71:filter.c      **** 	for(int axis =0; axis < 3; ++axis){
 1360              		.loc 1 71 124 view .LVU345
 1361 037c 9DF82890 		ldrb	r9, [sp, #40]	@ zero_extendqisi2	@ type, type
 1362 0380 0D46     		mov	r5, r1	@ accLpfHz, tmp120
 1363 0382 1646     		mov	r6, r2	@ refreshrate, tmp121
 1364 0384 1F46     		mov	r7, r3	@ Q, tmp122
 1365 0386 0446     		mov	r4, r0	@ ivtmp.53, tmp119
 1366 0388 00F16C08 		add	r8, r0, #108	@ _21, ivtmp.53,
 1367              	.LVL131:
 1368              	.L36:
 1369              	.LBB38:
  73:filter.c      **** 	}
 1370              		.loc 1 73 4 is_stmt 1 discriminator 3 view .LVU346
 1371 038c 2046     		mov	r0, r4	@, ivtmp.53
 1372 038e CDF80090 		str	r9, [sp]	@ type,
 1373 0392 3B46     		mov	r3, r7	@, Q
 1374 0394 3246     		mov	r2, r6	@, refreshrate
 1375 0396 2946     		mov	r1, r5	@, accLpfHz
 1376 0398 2434     		adds	r4, r4, #36	@ ivtmp.53, ivtmp.53,
 1377 039a FFF7FEFF 		bl	biquadFilterInit		@
 1378              	.LVL132:
  72:filter.c      **** 		 biquadFilterInit(&filter[axis], accLpfHz, refreshrate, Q, type);
 1379              		.loc 1 72 29 discriminator 3 view .LVU347
  72:filter.c      **** 		 biquadFilterInit(&filter[axis], accLpfHz, refreshrate, Q, type);
 1380              		.loc 1 72 19 discriminator 3 view .LVU348
 1381              	@ filter.c:72: 	for(int axis =0; axis < 3; ++axis){
  72:filter.c      **** 		 biquadFilterInit(&filter[axis], accLpfHz, refreshrate, Q, type);
 1382              		.loc 1 72 2 is_stmt 0 discriminator 3 view .LVU349
 1383 039e 4445     		cmp	r4, r8	@ ivtmp.53, _21
 1384 03a0 F4D1     		bne	.L36		@,
 1385              	.LBE38:
 1386              	@ filter.c:75: };
  75:filter.c      **** 
ARM GAS  /var/folders/_2/qbh2zpt918qcm2b_6mgyydnm0000gn/T//ccIdySvu.s 			page 33


 1387              		.loc 1 75 1 view .LVU350
 1388 03a2 03B0     		add	sp, sp, #12	@,,
 1389              	.LCFI12:
 1390              		.cfi_def_cfa_offset 28
 1391              		@ sp needed	@
 1392 03a4 BDE8F083 		pop	{r4, r5, r6, r7, r8, r9, pc}	@
  75:filter.c      **** 
 1393              		.loc 1 75 1 view .LVU351
 1394              		.cfi_endproc
 1395              	.LFE7:
 1396              		.size	accelInitLowPassFilter, .-accelInitLowPassFilter
 1397              		.global	__aeabi_ui2d
 1398              		.global	__aeabi_d2uiz
 1399              		.align	1
 1400              		.global	gyroInitLowPassFilter
 1401              		.syntax unified
 1402              		.thumb
 1403              		.thumb_func
 1404              		.fpu softvfp
 1405              		.type	gyroInitLowPassFilter, %function
 1406              	gyroInitLowPassFilter:
 1407              	.LVL133:
 1408              	.LFB8:
  78:filter.c      **** 	filterApplyPtr* lowpassFilterApplyFn; //filterApplyPTr** because we point to a Pointer that points
 1409              		.loc 1 78 89 is_stmt 1 view -0
 1410              		.cfi_startproc
 1411              		@ args = 0, pretend = 0, frame = 0
 1412              		@ frame_needed = 0, uses_anonymous_args = 0
  79:filter.c      **** 	gyroLowpassFilter_t* lowpassFilter = NULL;
 1413              		.loc 1 79 2 view .LVU353
  80:filter.c      **** 
 1414              		.loc 1 80 2 view .LVU354
  83:filter.c      **** 		case FILTER_LOWPASS: // PT1 Filter
 1415              		.loc 1 83 2 view .LVU355
 1416              	@ filter.c:78: void gyroInitLowPassFilter(gyroSensor_t *gyroSensor, int slot, int type, uint16_t lp
  78:filter.c      **** 	filterApplyPtr* lowpassFilterApplyFn; //filterApplyPTr** because we point to a Pointer that points
 1417              		.loc 1 78 89 is_stmt 0 view .LVU356
 1418 03a8 2DE9F743 		push	{r0, r1, r2, r4, r5, r6, r7, r8, r9, lr}	@
 1419              	.LCFI13:
 1420              		.cfi_def_cfa_offset 40
 1421              		.cfi_offset 4, -28
 1422              		.cfi_offset 5, -24
 1423              		.cfi_offset 6, -20
 1424              		.cfi_offset 7, -16
 1425              		.cfi_offset 8, -12
 1426              		.cfi_offset 9, -8
 1427              		.cfi_offset 14, -4
 1428              	@ filter.c:78: void gyroInitLowPassFilter(gyroSensor_t *gyroSensor, int slot, int type, uint16_t lp
  78:filter.c      **** 	filterApplyPtr* lowpassFilterApplyFn; //filterApplyPTr** because we point to a Pointer that points
 1429              		.loc 1 78 89 view .LVU357
 1430 03ac 1746     		mov	r7, r2	@ type, tmp149
 1431 03ae 1D46     		mov	r5, r3	@ lpfHz, tmp150
 1432              	@ filter.c:83: 	switch(slot){
  83:filter.c      **** 		case FILTER_LOWPASS: // PT1 Filter
 1433              		.loc 1 83 2 view .LVU358
 1434 03b0 21B1     		cbz	r1, .L39	@ slot,
 1435 03b2 0129     		cmp	r1, #1	@ slot,
ARM GAS  /var/folders/_2/qbh2zpt918qcm2b_6mgyydnm0000gn/T//ccIdySvu.s 			page 34


 1436 03b4 36D0     		beq	.L40		@,
 1437              	.LVL134:
 1438              	.L38:
 1439              	@ filter.c:121: };
 121:filter.c      **** 
 1440              		.loc 1 121 1 view .LVU359
 1441 03b6 03B0     		add	sp, sp, #12	@,,
 1442              	.LCFI14:
 1443              		.cfi_remember_state
 1444              		.cfi_def_cfa_offset 28
 1445              		@ sp needed	@
 1446 03b8 BDE8F083 		pop	{r4, r5, r6, r7, r8, r9, pc}	@
 1447              	.LVL135:
 1448              	.L39:
 1449              	.LCFI15:
 1450              		.cfi_restore_state
  85:filter.c      **** 			lowpassFilter = &gyroSensor->lowpassFilter[0]; //one possible way
 1451              		.loc 1 85 4 is_stmt 1 view .LVU360
 1452              	@ filter.c:85: 			lowpassFilterApplyFn = &gyroSensor->lowpassFilterApplyFn;
  85:filter.c      **** 			lowpassFilter = &gyroSensor->lowpassFilter[0]; //one possible way
 1453              		.loc 1 85 25 is_stmt 0 view .LVU361
 1454 03bc 00F14406 		add	r6, r0, #68	@ lowpassFilterApplyFn, gyroSensor,
 1455              	.LVL136:
  86:filter.c      **** 		break;
 1456              		.loc 1 86 4 is_stmt 1 view .LVU362
 1457              	@ filter.c:86: 			lowpassFilter = &gyroSensor->lowpassFilter[0]; //one possible way
  86:filter.c      **** 		break;
 1458              		.loc 1 86 18 is_stmt 0 view .LVU363
 1459 03c0 00F14804 		add	r4, r0, #72	@ lowpassFilter, gyroSensor,
 1460              	.LVL137:
  87:filter.c      **** 		case FILTER_LOWPASS2: 
 1461              		.loc 1 87 3 is_stmt 1 view .LVU364
 1462              	.L42:
  94:filter.c      **** 	
 1463              		.loc 1 94 3 view .LVU365
  97:filter.c      **** 	const float gyroDt = gyro.targetLoopTime * 1.0e-6f;
 1464              		.loc 1 97 2 view .LVU366
 1465              	@ filter.c:97: 	const uint32_t gyroFrequencyNyquist = (1e6/2/gyro.targetLoopTime);
  97:filter.c      **** 	const float gyroDt = gyro.targetLoopTime * 1.0e-6f;
 1466              		.loc 1 97 51 is_stmt 0 view .LVU367
 1467 03c4 264B     		ldr	r3, .L50+8	@ tmp129,
 1468              	.LVL138:
 1469              	@ filter.c:104: 	*lowpassFilterApplyFn = nullFilterApply; //dereferenzing because lowpassFilterAppl
 104:filter.c      **** 	if(lpfHz && lpfHz <= gyroFrequencyNyquist){
 1470              		.loc 1 104 24 view .LVU368
 1471 03c6 274A     		ldr	r2, .L50+12	@ tmp130,
 1472              	.LVL139:
 1473              	@ filter.c:97: 	const uint32_t gyroFrequencyNyquist = (1e6/2/gyro.targetLoopTime);
  97:filter.c      **** 	const float gyroDt = gyro.targetLoopTime * 1.0e-6f;
 1474              		.loc 1 97 51 view .LVU369
 1475 03c8 D3F80080 		ldr	r8, [r3]	@ _1, gyro.targetLoopTime
 1476              	.LVL140:
  98:filter.c      **** 	const float gain = pt1FilterGain(lpfHz, gyroDt);
 1477              		.loc 1 98 2 is_stmt 1 view .LVU370
  99:filter.c      **** 	
 1478              		.loc 1 99 2 view .LVU371
 104:filter.c      **** 	if(lpfHz && lpfHz <= gyroFrequencyNyquist){
ARM GAS  /var/folders/_2/qbh2zpt918qcm2b_6mgyydnm0000gn/T//ccIdySvu.s 			page 35


 1479              		.loc 1 104 2 view .LVU372
 1480              	@ filter.c:104: 	*lowpassFilterApplyFn = nullFilterApply; //dereferenzing because lowpassFilterAppl
 104:filter.c      **** 	if(lpfHz && lpfHz <= gyroFrequencyNyquist){
 1481              		.loc 1 104 24 is_stmt 0 view .LVU373
 1482 03cc 3260     		str	r2, [r6]	@ tmp130, *lowpassFilterApplyFn_15
 105:filter.c      **** 		switch (type){
 1483              		.loc 1 105 2 is_stmt 1 view .LVU374
 1484 03ce 9946     		mov	r9, r3	@ tmp145, tmp129
 1485              	@ filter.c:105: 	if(lpfHz && lpfHz <= gyroFrequencyNyquist){
 105:filter.c      **** 		switch (type){
 1486              		.loc 1 105 4 is_stmt 0 view .LVU375
 1487 03d0 002D     		cmp	r5, #0	@ lpfHz
 1488 03d2 F0D0     		beq	.L38	@
 1489              	@ filter.c:97: 	const uint32_t gyroFrequencyNyquist = (1e6/2/gyro.targetLoopTime);
  97:filter.c      **** 	const float gyroDt = gyro.targetLoopTime * 1.0e-6f;
 1490              		.loc 1 97 46 discriminator 1 view .LVU376
 1491 03d4 4046     		mov	r0, r8	@, _1
 1492              	.LVL141:
  97:filter.c      **** 	const float gyroDt = gyro.targetLoopTime * 1.0e-6f;
 1493              		.loc 1 97 46 discriminator 1 view .LVU377
 1494 03d6 FFF7FEFF 		bl	__aeabi_ui2d		@
 1495              	.LVL142:
  97:filter.c      **** 	const float gyroDt = gyro.targetLoopTime * 1.0e-6f;
 1496              		.loc 1 97 46 discriminator 1 view .LVU378
 1497 03da 0246     		mov	r2, r0	@ tmp151,
 1498 03dc 0B46     		mov	r3, r1	@,
 1499 03de 1EA1     		adr	r1, .L50	@,
 1500 03e0 D1E90001 		ldrd	r0, [r1]	@,
 1501 03e4 FFF7FEFF 		bl	__aeabi_ddiv		@
 1502              	.LVL143:
 1503              	@ filter.c:97: 	const uint32_t gyroFrequencyNyquist = (1e6/2/gyro.targetLoopTime);
  97:filter.c      **** 	const float gyroDt = gyro.targetLoopTime * 1.0e-6f;
 1504              		.loc 1 97 17 discriminator 1 view .LVU379
 1505 03e8 FFF7FEFF 		bl	__aeabi_d2uiz		@
 1506              	.LVL144:
 1507              	@ filter.c:105: 	if(lpfHz && lpfHz <= gyroFrequencyNyquist){
 105:filter.c      **** 		switch (type){
 1508              		.loc 1 105 11 discriminator 1 view .LVU380
 1509 03ec 8542     		cmp	r5, r0	@ lpfHz, tmp152
 1510 03ee E2D8     		bhi	.L38		@,
 106:filter.c      **** 		case FILTER_PT1:
 1511              		.loc 1 106 3 is_stmt 1 view .LVU381
 1512 03f0 EFB1     		cbz	r7, .L46	@ type,
 1513 03f2 012F     		cmp	r7, #1	@ type,
 1514 03f4 DFD1     		bne	.L38		@,
 114:filter.c      **** 			for (int axis = 0; axis < XYZ_AXIS_COUNT; ++axis){
 1515              		.loc 1 114 4 view .LVU382
 1516              	@ filter.c:114: 			*lowpassFilterApplyFn = (filterApplyPtr) biquadFilterApply;
 114:filter.c      **** 			for (int axis = 0; axis < XYZ_AXIS_COUNT; ++axis){
 1517              		.loc 1 114 26 is_stmt 0 view .LVU383
 1518 03f6 1C4B     		ldr	r3, .L50+16	@ tmp140,
 1519              	.LBB39:
 1520              	@ filter.c:116: 				biquadFilterInit(&lowpassFilter[axis].biquadFilterState, lpfHz, gyro.targetLoop
 116:filter.c      **** 			};
 1521              		.loc 1 116 5 view .LVU384
 1522 03f8 1C4F     		ldr	r7, .L50+20	@ tmp146,
 1523              	.LVL145:
ARM GAS  /var/folders/_2/qbh2zpt918qcm2b_6mgyydnm0000gn/T//ccIdySvu.s 			page 36


 116:filter.c      **** 			};
 1524              		.loc 1 116 5 view .LVU385
 1525              	.LBE39:
 1526              	@ filter.c:114: 			*lowpassFilterApplyFn = (filterApplyPtr) biquadFilterApply;
 114:filter.c      **** 			for (int axis = 0; axis < XYZ_AXIS_COUNT; ++axis){
 1527              		.loc 1 114 26 view .LVU386
 1528 03fa 3360     		str	r3, [r6]	@ tmp140, *lowpassFilterApplyFn_15
 115:filter.c      **** 				biquadFilterInit(&lowpassFilter[axis].biquadFilterState, lpfHz, gyro.targetLoopTime, BIQUAD_Q, 
 1529              		.loc 1 115 4 is_stmt 1 view .LVU387
 1530              	.LBB40:
 115:filter.c      **** 				biquadFilterInit(&lowpassFilter[axis].biquadFilterState, lpfHz, gyro.targetLoopTime, BIQUAD_Q, 
 1531              		.loc 1 115 9 view .LVU388
 1532              	.LVL146:
 115:filter.c      **** 				biquadFilterInit(&lowpassFilter[axis].biquadFilterState, lpfHz, gyro.targetLoopTime, BIQUAD_Q, 
 1533              		.loc 1 115 23 view .LVU389
 1534              	@ filter.c:116: 				biquadFilterInit(&lowpassFilter[axis].biquadFilterState, lpfHz, gyro.targetLoop
 116:filter.c      **** 			};
 1535              		.loc 1 116 5 is_stmt 0 view .LVU390
 1536 03fc 4FF00008 		mov	r8, #0	@ tmp144,
 1537              	.LVL147:
 116:filter.c      **** 			};
 1538              		.loc 1 116 5 view .LVU391
 1539 0400 04F16C06 		add	r6, r4, #108	@ _52, ivtmp.61,
 1540              	.LVL148:
 1541              	.L48:
 116:filter.c      **** 			};
 1542              		.loc 1 116 5 is_stmt 1 discriminator 3 view .LVU392
 1543 0404 2846     		mov	r0, r5	@, lpfHz
 1544 0406 FFF7FEFF 		bl	__aeabi_ui2f		@
 1545              	.LVL149:
 1546 040a CDF80080 		str	r8, [sp]	@ tmp144,
 1547 040e 0146     		mov	r1, r0	@ tmp155,
 1548 0410 D9F80020 		ldr	r2, [r9]	@, gyro.targetLoopTime
 1549 0414 2046     		mov	r0, r4	@, ivtmp.61
 1550 0416 3B46     		mov	r3, r7	@, tmp146
 1551 0418 2434     		adds	r4, r4, #36	@ ivtmp.61, ivtmp.61,
 1552 041a FFF7FEFF 		bl	biquadFilterInit		@
 1553              	.LVL150:
 115:filter.c      **** 				biquadFilterInit(&lowpassFilter[axis].biquadFilterState, lpfHz, gyro.targetLoopTime, BIQUAD_Q, 
 1554              		.loc 1 115 46 discriminator 3 view .LVU393
 115:filter.c      **** 				biquadFilterInit(&lowpassFilter[axis].biquadFilterState, lpfHz, gyro.targetLoopTime, BIQUAD_Q, 
 1555              		.loc 1 115 23 discriminator 3 view .LVU394
 1556              	@ filter.c:115: 			for (int axis = 0; axis < XYZ_AXIS_COUNT; ++axis){
 115:filter.c      **** 				biquadFilterInit(&lowpassFilter[axis].biquadFilterState, lpfHz, gyro.targetLoopTime, BIQUAD_Q, 
 1557              		.loc 1 115 4 is_stmt 0 discriminator 3 view .LVU395
 1558 041e B442     		cmp	r4, r6	@ ivtmp.61, _52
 1559 0420 F0D1     		bne	.L48		@,
 1560 0422 C8E7     		b	.L38		@
 1561              	.LVL151:
 1562              	.L40:
 115:filter.c      **** 				biquadFilterInit(&lowpassFilter[axis].biquadFilterState, lpfHz, gyro.targetLoopTime, BIQUAD_Q, 
 1563              		.loc 1 115 4 discriminator 3 view .LVU396
 1564              	.LBE40:
  89:filter.c      **** 			lowpassFilter = gyroSensor->lowpass2Filter; //second possbile way
 1565              		.loc 1 89 4 is_stmt 1 view .LVU397
 1566              	@ filter.c:89: 			lowpassFilterApplyFn = &gyroSensor->lowpass2FilterApplyFn;
  89:filter.c      **** 			lowpassFilter = gyroSensor->lowpass2Filter; //second possbile way
ARM GAS  /var/folders/_2/qbh2zpt918qcm2b_6mgyydnm0000gn/T//ccIdySvu.s 			page 37


 1567              		.loc 1 89 25 is_stmt 0 view .LVU398
 1568 0424 00F1B406 		add	r6, r0, #180	@ lowpassFilterApplyFn, gyroSensor,
 1569              	.LVL152:
  90:filter.c      **** 		break;
 1570              		.loc 1 90 4 is_stmt 1 view .LVU399
 1571              	@ filter.c:90: 			lowpassFilter = gyroSensor->lowpass2Filter; //second possbile way
  90:filter.c      **** 		break;
 1572              		.loc 1 90 18 is_stmt 0 view .LVU400
 1573 0428 00F1B804 		add	r4, r0, #184	@ lowpassFilter, gyroSensor,
 1574              	.LVL153:
  91:filter.c      **** 		default:
 1575              		.loc 1 91 3 is_stmt 1 view .LVU401
 1576 042c CAE7     		b	.L42		@
 1577              	.LVL154:
 1578              	.L46:
 1579              	@ filter.c:98: 	const float gyroDt = gyro.targetLoopTime * 1.0e-6f;
  98:filter.c      **** 	const float gain = pt1FilterGain(lpfHz, gyroDt);
 1580              		.loc 1 98 43 is_stmt 0 view .LVU402
 1581 042e 4046     		mov	r0, r8	@, _1
 1582 0430 FFF7FEFF 		bl	__aeabi_ui2f		@
 1583              	.LVL155:
 1584              	@ filter.c:98: 	const float gyroDt = gyro.targetLoopTime * 1.0e-6f;
  98:filter.c      **** 	const float gain = pt1FilterGain(lpfHz, gyroDt);
 1585              		.loc 1 98 14 view .LVU403
 1586 0434 0E49     		ldr	r1, .L50+24	@,
 1587 0436 FFF7FEFF 		bl	__aeabi_fmul		@
 1588              	.LVL156:
 1589 043a 0146     		mov	r1, r0	@ tmp153,
 1590              	@ filter.c:99: 	const float gain = pt1FilterGain(lpfHz, gyroDt);
  99:filter.c      **** 	
 1591              		.loc 1 99 21 view .LVU404
 1592 043c 2846     		mov	r0, r5	@, lpfHz
 1593 043e FFF7FEFF 		bl	pt1FilterGain		@
 1594              	.LVL157:
 108:filter.c      **** 			for (int axis = 0; axis < XYZ_AXIS_COUNT; ++axis){
 1595              		.loc 1 108 4 is_stmt 1 view .LVU405
 1596              	@ filter.c:108: 			*lowpassFilterApplyFn = (filterApplyPtr) pt1FilterApply;
 108:filter.c      **** 			for (int axis = 0; axis < XYZ_AXIS_COUNT; ++axis){
 1597              		.loc 1 108 26 is_stmt 0 view .LVU406
 1598 0442 0C4B     		ldr	r3, .L50+28	@ tmp136,
 1599 0444 3360     		str	r3, [r6]	@ tmp136, *lowpassFilterApplyFn_15
 109:filter.c      **** 				pt1FilterInit(&lowpassFilter[axis].pt1FilterState, gain);
 1600              		.loc 1 109 4 is_stmt 1 view .LVU407
 1601              	.LBB41:
 109:filter.c      **** 				pt1FilterInit(&lowpassFilter[axis].pt1FilterState, gain);
 1602              		.loc 1 109 9 view .LVU408
 1603              	.LVL158:
 109:filter.c      **** 				pt1FilterInit(&lowpassFilter[axis].pt1FilterState, gain);
 1604              		.loc 1 109 23 view .LVU409
 110:filter.c      **** 			};
 1605              		.loc 1 110 5 view .LVU410
 1606              	.LBB42:
 1607              	.LBI42:
 187:filter.c      **** 	filter->state = 0.0f;
 1608              		.loc 1 187 6 view .LVU411
 1609              	.LBB43:
 188:filter.c      **** 	filter->k = k;
ARM GAS  /var/folders/_2/qbh2zpt918qcm2b_6mgyydnm0000gn/T//ccIdySvu.s 			page 38


 1610              		.loc 1 188 2 view .LVU412
 1611              	@ filter.c:188: 	filter->state = 0.0f;
 188:filter.c      **** 	filter->k = k;
 1612              		.loc 1 188 16 is_stmt 0 view .LVU413
 1613 0446 0023     		movs	r3, #0	@ tmp137,
 1614 0448 2360     		str	r3, [r4]	@ float	@ tmp137, MEM[(struct pt1Filter_t *)lowpassFilter_16].state
 189:filter.c      **** };
 1615              		.loc 1 189 2 is_stmt 1 view .LVU414
 1616              	@ filter.c:189: 	filter->k = k;
 189:filter.c      **** };
 1617              		.loc 1 189 12 is_stmt 0 view .LVU415
 1618 044a 6060     		str	r0, [r4, #4]	@ float	@ gain, MEM[(struct pt1Filter_t *)lowpassFilter_16].k
 1619              	.LVL159:
 189:filter.c      **** };
 1620              		.loc 1 189 12 view .LVU416
 1621              	.LBE43:
 1622              	.LBE42:
 109:filter.c      **** 				pt1FilterInit(&lowpassFilter[axis].pt1FilterState, gain);
 1623              		.loc 1 109 46 is_stmt 1 view .LVU417
 109:filter.c      **** 				pt1FilterInit(&lowpassFilter[axis].pt1FilterState, gain);
 1624              		.loc 1 109 23 view .LVU418
 110:filter.c      **** 			};
 1625              		.loc 1 110 5 view .LVU419
 1626              	.LBB46:
 187:filter.c      **** 	filter->state = 0.0f;
 1627              		.loc 1 187 6 view .LVU420
 1628              	.LBB44:
 188:filter.c      **** 	filter->k = k;
 1629              		.loc 1 188 2 view .LVU421
 1630              	@ filter.c:188: 	filter->state = 0.0f;
 188:filter.c      **** 	filter->k = k;
 1631              		.loc 1 188 16 is_stmt 0 view .LVU422
 1632 044c 6362     		str	r3, [r4, #36]	@ float	@ tmp137, MEM[(struct pt1Filter_t *)lowpassFilter_16 + 36B].state
 189:filter.c      **** };
 1633              		.loc 1 189 2 is_stmt 1 view .LVU423
 1634              	@ filter.c:189: 	filter->k = k;
 189:filter.c      **** };
 1635              		.loc 1 189 12 is_stmt 0 view .LVU424
 1636 044e A062     		str	r0, [r4, #40]	@ float	@ gain, MEM[(struct pt1Filter_t *)lowpassFilter_16 + 36B].k
 1637              	.LVL160:
 189:filter.c      **** };
 1638              		.loc 1 189 12 view .LVU425
 1639              	.LBE44:
 1640              	.LBE46:
 109:filter.c      **** 				pt1FilterInit(&lowpassFilter[axis].pt1FilterState, gain);
 1641              		.loc 1 109 46 is_stmt 1 view .LVU426
 109:filter.c      **** 				pt1FilterInit(&lowpassFilter[axis].pt1FilterState, gain);
 1642              		.loc 1 109 23 view .LVU427
 110:filter.c      **** 			};
 1643              		.loc 1 110 5 view .LVU428
 1644              	.LBB47:
 187:filter.c      **** 	filter->state = 0.0f;
 1645              		.loc 1 187 6 view .LVU429
 1646              	.LBB45:
 188:filter.c      **** 	filter->k = k;
 1647              		.loc 1 188 2 view .LVU430
 1648              	@ filter.c:188: 	filter->state = 0.0f;
ARM GAS  /var/folders/_2/qbh2zpt918qcm2b_6mgyydnm0000gn/T//ccIdySvu.s 			page 39


 188:filter.c      **** 	filter->k = k;
 1649              		.loc 1 188 16 is_stmt 0 view .LVU431
 1650 0450 A364     		str	r3, [r4, #72]	@ float	@ tmp137, MEM[(struct pt1Filter_t *)lowpassFilter_16 + 72B].state
 189:filter.c      **** };
 1651              		.loc 1 189 2 is_stmt 1 view .LVU432
 1652              	@ filter.c:189: 	filter->k = k;
 189:filter.c      **** };
 1653              		.loc 1 189 12 is_stmt 0 view .LVU433
 1654 0452 E064     		str	r0, [r4, #76]	@ float	@ gain, MEM[(struct pt1Filter_t *)lowpassFilter_16 + 72B].k
 1655              	.LVL161:
 189:filter.c      **** };
 1656              		.loc 1 189 12 view .LVU434
 1657              	.LBE45:
 1658              	.LBE47:
 109:filter.c      **** 				pt1FilterInit(&lowpassFilter[axis].pt1FilterState, gain);
 1659              		.loc 1 109 46 is_stmt 1 view .LVU435
 109:filter.c      **** 				pt1FilterInit(&lowpassFilter[axis].pt1FilterState, gain);
 1660              		.loc 1 109 23 view .LVU436
 1661 0454 AFE7     		b	.L38		@
 1662              	.L51:
 1663 0456 00BF     		.align	3
 1664              	.L50:
 1665 0458 00000000 		.word	0
 1666 045c 80841E41 		.word	1092519040
 1667 0460 00000000 		.word	gyro
 1668 0464 00000000 		.word	nullFilterApply
 1669 0468 00000000 		.word	biquadFilterApply
 1670 046c F304353F 		.word	1060439283
 1671 0470 BD378635 		.word	897988541
 1672 0474 00000000 		.word	pt1FilterApply
 1673              	.LBE41:
 1674              		.cfi_endproc
 1675              	.LFE8:
 1676              		.size	gyroInitLowPassFilter, .-gyroInitLowPassFilter
 1677              		.align	1
 1678              		.global	gyroInitFilterDynNotch
 1679              		.syntax unified
 1680              		.thumb
 1681              		.thumb_func
 1682              		.fpu softvfp
 1683              		.type	gyroInitFilterDynNotch, %function
 1684              	gyroInitFilterDynNotch:
 1685              	.LVL162:
 1686              	.LFB17:
 192:filter.c      **** 	gyroSensor->notchFilterDynApplyFn = nullFilterApply;	
 1687              		.loc 1 192 54 view -0
 1688              		.cfi_startproc
 1689              		@ args = 0, pretend = 0, frame = 0
 1690              		@ frame_needed = 0, uses_anonymous_args = 0
 193:filter.c      **** 	if (gyroConfig.DynNotchFilterActive){
 1691              		.loc 1 193 2 view .LVU438
 1692              	@ filter.c:192: void gyroInitFilterDynNotch(gyroSensor_t *gyroSensor){
 192:filter.c      **** 	gyroSensor->notchFilterDynApplyFn = nullFilterApply;	
 1693              		.loc 1 192 54 is_stmt 0 view .LVU439
 1694 0478 2DE9F341 		push	{r0, r1, r4, r5, r6, r7, r8, lr}	@
 1695              	.LCFI16:
 1696              		.cfi_def_cfa_offset 32
ARM GAS  /var/folders/_2/qbh2zpt918qcm2b_6mgyydnm0000gn/T//ccIdySvu.s 			page 40


 1697              		.cfi_offset 4, -24
 1698              		.cfi_offset 5, -20
 1699              		.cfi_offset 6, -16
 1700              		.cfi_offset 7, -12
 1701              		.cfi_offset 8, -8
 1702              		.cfi_offset 14, -4
 1703              	@ filter.c:193: 	gyroSensor->notchFilterDynApplyFn = nullFilterApply;	
 193:filter.c      **** 	if (gyroConfig.DynNotchFilterActive){
 1704              		.loc 1 193 36 view .LVU440
 1705 047c 0F4A     		ldr	r2, .L59	@ tmp118,
 1706 047e C0F80422 		str	r2, [r0, #516]	@ tmp118, gyroSensor_3(D)->notchFilterDynApplyFn
 194:filter.c      **** 		gyroSensor->notchFilterDynApplyFn = (filterApplyPtr)biquadFilterApplyDyn;
 1707              		.loc 1 194 2 is_stmt 1 view .LVU441
 1708              	@ filter.c:194: 	if (gyroConfig.DynNotchFilterActive){
 194:filter.c      **** 		gyroSensor->notchFilterDynApplyFn = (filterApplyPtr)biquadFilterApplyDyn;
 1709              		.loc 1 194 16 is_stmt 0 view .LVU442
 1710 0482 0F4A     		ldr	r2, .L59+4	@ tmp119,
 1711              	@ filter.c:194: 	if (gyroConfig.DynNotchFilterActive){
 194:filter.c      **** 		gyroSensor->notchFilterDynApplyFn = (filterApplyPtr)biquadFilterApplyDyn;
 1712              		.loc 1 194 5 view .LVU443
 1713 0484 127B     		ldrb	r2, [r2, #12]	@ zero_extendqisi2	@ gyroConfig.DynNotchFilterActive, gyroConfig.DynNotchFilter
 1714 0486 AAB1     		cbz	r2, .L52	@ gyroConfig.DynNotchFilterActive,
 1715              	.LBB56:
 195:filter.c      **** 		const float notchQ = filterGetNotchQ(400, 390);
 1716              		.loc 1 195 3 is_stmt 1 view .LVU444
 1717              	@ filter.c:195: 		gyroSensor->notchFilterDynApplyFn = (filterApplyPtr)biquadFilterApplyDyn;
 195:filter.c      **** 		const float notchQ = filterGetNotchQ(400, 390);
 1718              		.loc 1 195 37 is_stmt 0 view .LVU445
 1719 0488 0E4A     		ldr	r2, .L59+8	@ tmp121,
 1720              	.LBE56:
 1721              	.LBB58:
 1722              	.LBB59:
 1723              	.LBB60:
 1724              	@ filter.c:198: 			biquadFilterInit(&gyroSensor->notchFilterDyn[axis], 400, gyro.targetLoopTime, no
 198:filter.c      **** 		};
 1725              		.loc 1 198 4 view .LVU446
 1726 048a 0F4F     		ldr	r7, .L59+12	@ tmp123,
 1727 048c DFF84080 		ldr	r8, .L59+20	@ tmp126,
 1728 0490 0E4E     		ldr	r6, .L59+16	@ tmp127,
 1729              	.LBE60:
 1730              	.LBE59:
 1731              	.LBE58:
 1732              	.LBB63:
 1733              	@ filter.c:195: 		gyroSensor->notchFilterDynApplyFn = (filterApplyPtr)biquadFilterApplyDyn;
 195:filter.c      **** 		const float notchQ = filterGetNotchQ(400, 390);
 1734              		.loc 1 195 37 view .LVU447
 1735 0492 C0F80422 		str	r2, [r0, #516]	@ tmp121, gyroSensor_3(D)->notchFilterDynApplyFn
 196:filter.c      **** 		for(int axis = 0; axis < XYZ_AXIS_COUNT; axis++){
 1736              		.loc 1 196 3 is_stmt 1 view .LVU448
 1737              	.LVL163:
 196:filter.c      **** 		for(int axis = 0; axis < XYZ_AXIS_COUNT; axis++){
 1738              		.loc 1 196 3 is_stmt 0 view .LVU449
 1739              	.LBE63:
 249:filter.c      **** 
 250:filter.c      **** 
 251:filter.c      **** uint16_t calculateNyquistAdjustNotchHz(uint16_t notchHz, uint16_t notchCutoffHz){
 252:filter.c      **** 	const uint32_t gyroFrequencyNyquist = 1e6 / 2 / gyro.targetLoopTime; //666 Hz in Version 12.7.2
ARM GAS  /var/folders/_2/qbh2zpt918qcm2b_6mgyydnm0000gn/T//ccIdySvu.s 			page 41


 253:filter.c      **** 	if (notchHz > gyroFrequencyNyquist){
 254:filter.c      **** 		if(notchCutoffHz < gyroFrequencyNyquist){
 255:filter.c      **** 			notchHz = gyroFrequencyNyquist;	
 256:filter.c      **** 		} else {
 257:filter.c      **** 			notchHz = 0;
 258:filter.c      **** 		};
 259:filter.c      **** 	};
 260:filter.c      **** 	return notchHz;
 261:filter.c      **** };
 262:filter.c      **** 
 263:filter.c      **** // get notch filter Q given center frequency (f0) and lower cutoff frequency (f1)
 264:filter.c      **** // Q = f0 / (f2 - f1) ; f2 = f0^2 / f1
 265:filter.c      **** float filterGetNotchQ(float centerFreq, float cutoffFreq) {
 266:filter.c      ****     return centerFreq * cutoffFreq / (centerFreq * centerFreq - cutoffFreq * cutoffFreq);
 1740              		.loc 1 266 5 is_stmt 1 view .LVU450
 1741              	.LBB64:
 197:filter.c      **** 			biquadFilterInit(&gyroSensor->notchFilterDyn[axis], 400, gyro.targetLoopTime, notchQ, FILTER_NOT
 1742              		.loc 1 197 3 view .LVU451
 1743              	.LBB57:
 197:filter.c      **** 			biquadFilterInit(&gyroSensor->notchFilterDyn[axis], 400, gyro.targetLoopTime, notchQ, FILTER_NOT
 1744              		.loc 1 197 7 view .LVU452
 197:filter.c      **** 			biquadFilterInit(&gyroSensor->notchFilterDyn[axis], 400, gyro.targetLoopTime, notchQ, FILTER_NOT
 1745              		.loc 1 197 7 is_stmt 0 view .LVU453
 1746              	.LBE57:
 1747              	.LBE64:
 1748              	.LBB65:
 1749              	.LBI58:
 192:filter.c      **** 	gyroSensor->notchFilterDynApplyFn = nullFilterApply;	
 1750              		.loc 1 192 6 is_stmt 1 view .LVU454
 1751              	.LBB62:
 1752              	.LBB61:
 197:filter.c      **** 			biquadFilterInit(&gyroSensor->notchFilterDyn[axis], 400, gyro.targetLoopTime, notchQ, FILTER_NOT
 1753              		.loc 1 197 21 view .LVU455
 1754 0496 00F50275 		add	r5, r0, #520	@ ivtmp.69, gyroSensor,
 1755 049a 00F51D74 		add	r4, r0, #628	@ _23, gyroSensor,
 1756              	.LVL164:
 1757              	.L54:
 198:filter.c      **** 		};
 1758              		.loc 1 198 4 view .LVU456
 1759 049e 0123     		movs	r3, #1	@ tmp125,
 1760 04a0 0093     		str	r3, [sp]	@ tmp125,
 1761 04a2 2846     		mov	r0, r5	@, ivtmp.69
 1762 04a4 3A68     		ldr	r2, [r7]	@, gyro.targetLoopTime
 1763 04a6 4346     		mov	r3, r8	@, tmp126
 1764 04a8 3146     		mov	r1, r6	@, tmp127
 1765 04aa 2435     		adds	r5, r5, #36	@ ivtmp.69, ivtmp.69,
 1766 04ac FFF7FEFF 		bl	biquadFilterInit		@
 1767              	.LVL165:
 197:filter.c      **** 			biquadFilterInit(&gyroSensor->notchFilterDyn[axis], 400, gyro.targetLoopTime, notchQ, FILTER_NOT
 1768              		.loc 1 197 44 view .LVU457
 197:filter.c      **** 			biquadFilterInit(&gyroSensor->notchFilterDyn[axis], 400, gyro.targetLoopTime, notchQ, FILTER_NOT
 1769              		.loc 1 197 21 view .LVU458
 1770              	@ filter.c:197: 		for(int axis = 0; axis < XYZ_AXIS_COUNT; axis++){
 197:filter.c      **** 			biquadFilterInit(&gyroSensor->notchFilterDyn[axis], 400, gyro.targetLoopTime, notchQ, FILTER_NOT
 1771              		.loc 1 197 3 is_stmt 0 view .LVU459
 1772 04b0 A542     		cmp	r5, r4	@ ivtmp.69, _23
 1773 04b2 F4D1     		bne	.L54		@,
ARM GAS  /var/folders/_2/qbh2zpt918qcm2b_6mgyydnm0000gn/T//ccIdySvu.s 			page 42


 1774              	.LVL166:
 1775              	.L52:
 197:filter.c      **** 			biquadFilterInit(&gyroSensor->notchFilterDyn[axis], 400, gyro.targetLoopTime, notchQ, FILTER_NOT
 1776              		.loc 1 197 3 view .LVU460
 1777              	.LBE61:
 1778              	.LBE62:
 1779              	.LBE65:
 1780              	@ filter.c:201: };
 201:filter.c      **** 
 1781              		.loc 1 201 1 view .LVU461
 1782 04b4 02B0     		add	sp, sp, #8	@,,
 1783              	.LCFI17:
 1784              		.cfi_def_cfa_offset 24
 1785              		@ sp needed	@
 1786 04b6 BDE8F081 		pop	{r4, r5, r6, r7, r8, pc}	@
 1787              	.L60:
 1788 04ba 00BF     		.align	2
 1789              	.L59:
 1790 04bc 00000000 		.word	nullFilterApply
 1791 04c0 00000000 		.word	gyroConfig
 1792 04c4 00000000 		.word	biquadFilterApplyDyn
 1793 04c8 00000000 		.word	gyro
 1794 04cc 0000C843 		.word	1137180672
 1795 04d0 85F99D41 		.word	1100872069
 1796              		.cfi_endproc
 1797              	.LFE17:
 1798              		.size	gyroInitFilterDynNotch, .-gyroInitFilterDynNotch
 1799              		.align	1
 1800              		.global	calculateNyquistAdjustNotchHz
 1801              		.syntax unified
 1802              		.thumb
 1803              		.thumb_func
 1804              		.fpu softvfp
 1805              		.type	calculateNyquistAdjustNotchHz, %function
 1806              	calculateNyquistAdjustNotchHz:
 1807              	.LVL167:
 1808              	.LFB19:
 251:filter.c      **** 	const uint32_t gyroFrequencyNyquist = 1e6 / 2 / gyro.targetLoopTime; //666 Hz in Version 12.7.2
 1809              		.loc 1 251 81 is_stmt 1 view -0
 1810              		.cfi_startproc
 1811              		@ args = 0, pretend = 0, frame = 0
 1812              		@ frame_needed = 0, uses_anonymous_args = 0
 252:filter.c      **** 	if (notchHz > gyroFrequencyNyquist){
 1813              		.loc 1 252 2 view .LVU463
 1814              	@ filter.c:251: uint16_t calculateNyquistAdjustNotchHz(uint16_t notchHz, uint16_t notchCutoffHz){
 251:filter.c      **** 	const uint32_t gyroFrequencyNyquist = 1e6 / 2 / gyro.targetLoopTime; //666 Hz in Version 12.7.2
 1815              		.loc 1 251 81 is_stmt 0 view .LVU464
 1816 04d4 38B5     		push	{r3, r4, r5, lr}	@
 1817              	.LCFI18:
 1818              		.cfi_def_cfa_offset 16
 1819              		.cfi_offset 3, -16
 1820              		.cfi_offset 4, -12
 1821              		.cfi_offset 5, -8
 1822              		.cfi_offset 14, -4
 1823              	@ filter.c:252: 	const uint32_t gyroFrequencyNyquist = 1e6 / 2 / gyro.targetLoopTime; //666 Hz in V
 252:filter.c      **** 	if (notchHz > gyroFrequencyNyquist){
 1824              		.loc 1 252 54 view .LVU465
ARM GAS  /var/folders/_2/qbh2zpt918qcm2b_6mgyydnm0000gn/T//ccIdySvu.s 			page 43


 1825 04d6 0E4B     		ldr	r3, .L64+8	@ tmp119,
 1826              	@ filter.c:251: uint16_t calculateNyquistAdjustNotchHz(uint16_t notchHz, uint16_t notchCutoffHz){
 251:filter.c      **** 	const uint32_t gyroFrequencyNyquist = 1e6 / 2 / gyro.targetLoopTime; //666 Hz in Version 12.7.2
 1827              		.loc 1 251 81 view .LVU466
 1828 04d8 0446     		mov	r4, r0	@ notchHz, tmp124
 1829              	@ filter.c:252: 	const uint32_t gyroFrequencyNyquist = 1e6 / 2 / gyro.targetLoopTime; //666 Hz in V
 252:filter.c      **** 	if (notchHz > gyroFrequencyNyquist){
 1830              		.loc 1 252 48 view .LVU467
 1831 04da 1868     		ldr	r0, [r3]	@, gyro.targetLoopTime
 1832              	.LVL168:
 1833              	@ filter.c:251: uint16_t calculateNyquistAdjustNotchHz(uint16_t notchHz, uint16_t notchCutoffHz){
 251:filter.c      **** 	const uint32_t gyroFrequencyNyquist = 1e6 / 2 / gyro.targetLoopTime; //666 Hz in Version 12.7.2
 1834              		.loc 1 251 81 view .LVU468
 1835 04dc 0D46     		mov	r5, r1	@ notchCutoffHz, tmp125
 1836              	@ filter.c:252: 	const uint32_t gyroFrequencyNyquist = 1e6 / 2 / gyro.targetLoopTime; //666 Hz in V
 252:filter.c      **** 	if (notchHz > gyroFrequencyNyquist){
 1837              		.loc 1 252 48 view .LVU469
 1838 04de FFF7FEFF 		bl	__aeabi_ui2d		@
 1839              	.LVL169:
 252:filter.c      **** 	if (notchHz > gyroFrequencyNyquist){
 1840              		.loc 1 252 48 view .LVU470
 1841 04e2 0246     		mov	r2, r0	@ tmp126,
 1842 04e4 0B46     		mov	r3, r1	@,
 1843 04e6 08A1     		adr	r1, .L64	@,
 1844 04e8 D1E90001 		ldrd	r0, [r1]	@,
 1845 04ec FFF7FEFF 		bl	__aeabi_ddiv		@
 1846              	.LVL170:
 1847              	@ filter.c:252: 	const uint32_t gyroFrequencyNyquist = 1e6 / 2 / gyro.targetLoopTime; //666 Hz in V
 252:filter.c      **** 	if (notchHz > gyroFrequencyNyquist){
 1848              		.loc 1 252 17 view .LVU471
 1849 04f0 FFF7FEFF 		bl	__aeabi_d2uiz		@
 1850              	.LVL171:
 253:filter.c      **** 		if(notchCutoffHz < gyroFrequencyNyquist){
 1851              		.loc 1 253 2 is_stmt 1 view .LVU472
 1852              	@ filter.c:253: 	if (notchHz > gyroFrequencyNyquist){
 253:filter.c      **** 		if(notchCutoffHz < gyroFrequencyNyquist){
 1853              		.loc 1 253 5 is_stmt 0 view .LVU473
 1854 04f4 8442     		cmp	r4, r0	@ notchHz, tmp122
 1855 04f6 03D9     		bls	.L62		@,
 254:filter.c      **** 			notchHz = gyroFrequencyNyquist;	
 1856              		.loc 1 254 3 is_stmt 1 view .LVU474
 1857              	@ filter.c:254: 		if(notchCutoffHz < gyroFrequencyNyquist){
 254:filter.c      **** 			notchHz = gyroFrequencyNyquist;	
 1858              		.loc 1 254 5 is_stmt 0 view .LVU475
 1859 04f8 8542     		cmp	r5, r0	@ notchCutoffHz, tmp122
 255:filter.c      **** 		} else {
 1860              		.loc 1 255 4 is_stmt 1 view .LVU476
 1861              	@ filter.c:255: 			notchHz = gyroFrequencyNyquist;	
 255:filter.c      **** 		} else {
 1862              		.loc 1 255 12 is_stmt 0 view .LVU477
 1863 04fa 34BF     		ite	cc
 1864 04fc 84B2     		uxthcc	r4, r0	@ notchHz, tmp122
 1865              	.LVL172:
 1866              	@ filter.c:257: 			notchHz = 0;
 257:filter.c      **** 		};
 1867              		.loc 1 257 12 view .LVU478
 1868 04fe 0024     		movcs	r4, #0	@ notchHz,
ARM GAS  /var/folders/_2/qbh2zpt918qcm2b_6mgyydnm0000gn/T//ccIdySvu.s 			page 44


 1869              	.LVL173:
 1870              	.L62:
 258:filter.c      **** 	};
 1871              		.loc 1 258 4 is_stmt 1 view .LVU479
 259:filter.c      **** 	return notchHz;
 1872              		.loc 1 259 3 view .LVU480
 260:filter.c      **** };
 1873              		.loc 1 260 2 view .LVU481
 1874              	@ filter.c:261: };
 261:filter.c      **** 
 1875              		.loc 1 261 1 is_stmt 0 view .LVU482
 1876 0500 2046     		mov	r0, r4	@, notchHz
 1877              	.LVL174:
 261:filter.c      **** 
 1878              		.loc 1 261 1 view .LVU483
 1879 0502 38BD     		pop	{r3, r4, r5, pc}	@
 1880              	.LVL175:
 1881              	.L65:
 261:filter.c      **** 
 1882              		.loc 1 261 1 view .LVU484
 1883 0504 AFF30080 		.align	3
 1884              	.L64:
 1885 0508 00000000 		.word	0
 1886 050c 80841E41 		.word	1092519040
 1887 0510 00000000 		.word	gyro
 1888              		.cfi_endproc
 1889              	.LFE19:
 1890              		.size	calculateNyquistAdjustNotchHz, .-calculateNyquistAdjustNotchHz
 1891              		.align	1
 1892              		.global	filterGetNotchQ
 1893              		.syntax unified
 1894              		.thumb
 1895              		.thumb_func
 1896              		.fpu softvfp
 1897              		.type	filterGetNotchQ, %function
 1898              	filterGetNotchQ:
 1899              	.LVL176:
 1900              	.LFB20:
 265:filter.c      ****     return centerFreq * cutoffFreq / (centerFreq * centerFreq - cutoffFreq * cutoffFreq);
 1901              		.loc 1 265 59 is_stmt 1 view -0
 1902              		.cfi_startproc
 1903              		@ args = 0, pretend = 0, frame = 0
 1904              		@ frame_needed = 0, uses_anonymous_args = 0
 1905              		.loc 1 266 5 view .LVU486
 1906              	@ filter.c:265: float filterGetNotchQ(float centerFreq, float cutoffFreq) {
 265:filter.c      ****     return centerFreq * cutoffFreq / (centerFreq * centerFreq - cutoffFreq * cutoffFreq);
 1907              		.loc 1 265 59 is_stmt 0 view .LVU487
 1908 0514 70B5     		push	{r4, r5, r6, lr}	@
 1909              	.LCFI19:
 1910              		.cfi_def_cfa_offset 16
 1911              		.cfi_offset 4, -16
 1912              		.cfi_offset 5, -12
 1913              		.cfi_offset 6, -8
 1914              		.cfi_offset 14, -4
 1915              	@ filter.c:265: float filterGetNotchQ(float centerFreq, float cutoffFreq) {
 265:filter.c      ****     return centerFreq * cutoffFreq / (centerFreq * centerFreq - cutoffFreq * cutoffFreq);
 1916              		.loc 1 265 59 view .LVU488
ARM GAS  /var/folders/_2/qbh2zpt918qcm2b_6mgyydnm0000gn/T//ccIdySvu.s 			page 45


 1917 0516 0E46     		mov	r6, r1	@ cutoffFreq, tmp124
 1918 0518 0546     		mov	r5, r0	@ centerFreq, tmp123
 1919              	@ filter.c:266:     return centerFreq * cutoffFreq / (centerFreq * centerFreq - cutoffFreq * cutoff
 1920              		.loc 1 266 23 view .LVU489
 1921 051a FFF7FEFF 		bl	__aeabi_fmul		@
 1922              	.LVL177:
 1923              	@ filter.c:266:     return centerFreq * cutoffFreq / (centerFreq * centerFreq - cutoffFreq * cutoff
 1924              		.loc 1 266 50 view .LVU490
 1925 051e 2946     		mov	r1, r5	@, centerFreq
 1926              	@ filter.c:266:     return centerFreq * cutoffFreq / (centerFreq * centerFreq - cutoffFreq * cutoff
 1927              		.loc 1 266 23 view .LVU491
 1928 0520 0446     		mov	r4, r0	@ tmp118, tmp125
 1929              	@ filter.c:266:     return centerFreq * cutoffFreq / (centerFreq * centerFreq - cutoffFreq * cutoff
 1930              		.loc 1 266 50 view .LVU492
 1931 0522 2846     		mov	r0, r5	@, tmp1
 1932 0524 FFF7FEFF 		bl	__aeabi_fmul		@
 1933              	.LVL178:
 1934              	@ filter.c:266:     return centerFreq * cutoffFreq / (centerFreq * centerFreq - cutoffFreq * cutoff
 1935              		.loc 1 266 76 view .LVU493
 1936 0528 3146     		mov	r1, r6	@, cutoffFreq
 1937              	@ filter.c:266:     return centerFreq * cutoffFreq / (centerFreq * centerFreq - cutoffFreq * cutoff
 1938              		.loc 1 266 50 view .LVU494
 1939 052a 0546     		mov	r5, r0	@ tmp119, tmp126
 1940              	.LVL179:
 1941              	@ filter.c:266:     return centerFreq * cutoffFreq / (centerFreq * centerFreq - cutoffFreq * cutoff
 1942              		.loc 1 266 76 view .LVU495
 1943 052c 3046     		mov	r0, r6	@, tmp1
 1944 052e FFF7FEFF 		bl	__aeabi_fmul		@
 1945              	.LVL180:
 1946 0532 0146     		mov	r1, r0	@ tmp127,
 1947              	@ filter.c:266:     return centerFreq * cutoffFreq / (centerFreq * centerFreq - cutoffFreq * cutoff
 1948              		.loc 1 266 63 view .LVU496
 1949 0534 2846     		mov	r0, r5	@, tmp119
 1950 0536 FFF7FEFF 		bl	__aeabi_fsub		@
 1951              	.LVL181:
 1952 053a 0146     		mov	r1, r0	@ tmp128,
 1953              	@ filter.c:266:     return centerFreq * cutoffFreq / (centerFreq * centerFreq - cutoffFreq * cutoff
 1954              		.loc 1 266 36 view .LVU497
 1955 053c 2046     		mov	r0, r4	@, tmp118
 1956 053e FFF7FEFF 		bl	__aeabi_fdiv		@
 1957              	.LVL182:
 1958              	@ filter.c:267: };
 267:filter.c      **** };
 1959              		.loc 1 267 1 view .LVU498
 1960 0542 70BD     		pop	{r4, r5, r6, pc}	@
 1961              		.loc 1 267 1 view .LVU499
 1962              		.cfi_endproc
 1963              	.LFE20:
 1964              		.size	filterGetNotchQ, .-filterGetNotchQ
 1965              		.align	1
 1966              		.global	initDtermNotchFilter
 1967              		.syntax unified
 1968              		.thumb
 1969              		.thumb_func
 1970              		.fpu softvfp
 1971              		.type	initDtermNotchFilter, %function
 1972              	initDtermNotchFilter:
ARM GAS  /var/folders/_2/qbh2zpt918qcm2b_6mgyydnm0000gn/T//ccIdySvu.s 			page 46


 1973              	.LFB4:
  16:filter.c      **** 	
 1974              		.loc 1 16 28 is_stmt 1 view -0
 1975              		.cfi_startproc
 1976              		@ args = 0, pretend = 0, frame = 0
 1977              		@ frame_needed = 0, uses_anonymous_args = 0
  18:filter.c      **** 	uint16_t notchHz;
 1978              		.loc 1 18 2 view .LVU501
 1979              	@ filter.c:16: void initDtermNotchFilter(){	
  16:filter.c      **** 	
 1980              		.loc 1 16 28 is_stmt 0 view .LVU502
 1981 0544 F7B5     		push	{r0, r1, r2, r4, r5, r6, r7, lr}	@
 1982              	.LCFI20:
 1983              		.cfi_def_cfa_offset 32
 1984              		.cfi_offset 4, -20
 1985              		.cfi_offset 5, -16
 1986              		.cfi_offset 6, -12
 1987              		.cfi_offset 7, -8
 1988              		.cfi_offset 14, -4
 1989              	@ filter.c:18: 	dtermNotchFilterApply = nullFilterApply;
  18:filter.c      **** 	uint16_t notchHz;
 1990              		.loc 1 18 24 view .LVU503
 1991 0546 184C     		ldr	r4, .L75	@ tmp119,
 1992 0548 184B     		ldr	r3, .L75+4	@ tmp120,
 1993 054a 2360     		str	r3, [r4]	@ tmp120, dtermNotchFilterApply
  19:filter.c      **** 	
 1994              		.loc 1 19 2 is_stmt 1 view .LVU504
  22:filter.c      **** 		notchHz = calculateNyquistAdjustNotchHz(dtermFilterSettings.dterm_notch_hz, dtermFilterSettings.d
 1995              		.loc 1 22 2 view .LVU505
 1996              	@ filter.c:22: 	if(dtermFilterSettings.dterm_notch_hz && dtermFilterSettings.dterm_notch_cutoff_hz)
  22:filter.c      **** 		notchHz = calculateNyquistAdjustNotchHz(dtermFilterSettings.dterm_notch_hz, dtermFilterSettings.d
 1997              		.loc 1 22 24 is_stmt 0 view .LVU506
 1998 054c 184B     		ldr	r3, .L75+8	@ tmp121,
 1999 054e 1888     		ldrh	r0, [r3]	@ _1, dtermFilterSettings.dterm_notch_hz
 2000              	@ filter.c:22: 	if(dtermFilterSettings.dterm_notch_hz && dtermFilterSettings.dterm_notch_cutoff_hz)
  22:filter.c      **** 		notchHz = calculateNyquistAdjustNotchHz(dtermFilterSettings.dterm_notch_hz, dtermFilterSettings.d
 2001              		.loc 1 22 4 view .LVU507
 2002 0550 40B3     		cbz	r0, .L67	@ _1,
 2003              	@ filter.c:22: 	if(dtermFilterSettings.dterm_notch_hz && dtermFilterSettings.dterm_notch_cutoff_hz)
  22:filter.c      **** 		notchHz = calculateNyquistAdjustNotchHz(dtermFilterSettings.dterm_notch_hz, dtermFilterSettings.d
 2004              		.loc 1 22 62 discriminator 1 view .LVU508
 2005 0552 5D88     		ldrh	r5, [r3, #2]	@ _2, dtermFilterSettings.dterm_notch_cutoff_hz
 2006              	@ filter.c:22: 	if(dtermFilterSettings.dterm_notch_hz && dtermFilterSettings.dterm_notch_cutoff_hz)
  22:filter.c      **** 		notchHz = calculateNyquistAdjustNotchHz(dtermFilterSettings.dterm_notch_hz, dtermFilterSettings.d
 2007              		.loc 1 22 40 discriminator 1 view .LVU509
 2008 0554 35B3     		cbz	r5, .L67	@ _2,
 2009              	.LBB66:
  23:filter.c      **** 		dtermNotchFilterApply = (filterApplyPtr) biquadFilterApply;
 2010              		.loc 1 23 3 is_stmt 1 view .LVU510
 2011              	@ filter.c:23: 		notchHz = calculateNyquistAdjustNotchHz(dtermFilterSettings.dterm_notch_hz, dtermF
  23:filter.c      **** 		dtermNotchFilterApply = (filterApplyPtr) biquadFilterApply;
 2012              		.loc 1 23 13 is_stmt 0 view .LVU511
 2013 0556 2946     		mov	r1, r5	@, _2
 2014 0558 FFF7FEFF 		bl	calculateNyquistAdjustNotchHz		@
 2015              	.LVL183:
  24:filter.c      **** 		const float notchQ = filterGetNotchQ(notchHz, dtermFilterSettings.dterm_notch_cutoff_hz);
 2016              		.loc 1 24 3 is_stmt 1 view .LVU512
ARM GAS  /var/folders/_2/qbh2zpt918qcm2b_6mgyydnm0000gn/T//ccIdySvu.s 			page 47


 2017              	@ filter.c:24: 		dtermNotchFilterApply = (filterApplyPtr) biquadFilterApply;
  24:filter.c      **** 		const float notchQ = filterGetNotchQ(notchHz, dtermFilterSettings.dterm_notch_cutoff_hz);
 2018              		.loc 1 24 25 is_stmt 0 view .LVU513
 2019 055c 154B     		ldr	r3, .L75+12	@ tmp125,
 2020 055e 2360     		str	r3, [r4]	@ tmp125, dtermNotchFilterApply
  25:filter.c      **** 		for(int axis = 0; axis < 3; ++axis){
 2021              		.loc 1 25 3 is_stmt 1 view .LVU514
 2022              	@ filter.c:25: 		const float notchQ = filterGetNotchQ(notchHz, dtermFilterSettings.dterm_notch_cuto
  25:filter.c      **** 		for(int axis = 0; axis < 3; ++axis){
 2023              		.loc 1 25 24 is_stmt 0 view .LVU515
 2024 0560 FFF7FEFF 		bl	__aeabi_ui2f		@
 2025              	.LVL184:
  25:filter.c      **** 		for(int axis = 0; axis < 3; ++axis){
 2026              		.loc 1 25 24 view .LVU516
 2027 0564 0446     		mov	r4, r0	@ _3, tmp136
 2028 0566 2846     		mov	r0, r5	@, _2
 2029 0568 FFF7FEFF 		bl	__aeabi_ui2f		@
 2030              	.LVL185:
 2031 056c 0146     		mov	r1, r0	@ tmp137,
 2032 056e 2046     		mov	r0, r4	@, _3
 2033 0570 FFF7FEFF 		bl	filterGetNotchQ		@
 2034              	.LVL186:
 2035              	.LBB67:
 2036              	@ filter.c:27: 			biquadFilterInit(&dtermNotch[axis], notchHz, gyro.targetLoopTime, notchQ, FILTER_
  27:filter.c      **** 		};
 2037              		.loc 1 27 4 view .LVU517
 2038 0574 104E     		ldr	r6, .L75+16	@ tmp127,
 2039 0576 0127     		movs	r7, #1	@ tmp129,
 2040              	.LBE67:
 2041              	@ filter.c:25: 		const float notchQ = filterGetNotchQ(notchHz, dtermFilterSettings.dterm_notch_cuto
  25:filter.c      **** 		for(int axis = 0; axis < 3; ++axis){
 2042              		.loc 1 25 24 view .LVU518
 2043 0578 0546     		mov	r5, r0	@ notchQ, tmp138
 2044              	.LVL187:
  26:filter.c      **** 			biquadFilterInit(&dtermNotch[axis], notchHz, gyro.targetLoopTime, notchQ, FILTER_NOTCH);
 2045              		.loc 1 26 3 is_stmt 1 view .LVU519
 2046              	.LBB68:
  26:filter.c      **** 			biquadFilterInit(&dtermNotch[axis], notchHz, gyro.targetLoopTime, notchQ, FILTER_NOTCH);
 2047              		.loc 1 26 7 view .LVU520
  26:filter.c      **** 			biquadFilterInit(&dtermNotch[axis], notchHz, gyro.targetLoopTime, notchQ, FILTER_NOTCH);
 2048              		.loc 1 26 21 view .LVU521
  27:filter.c      **** 		};
 2049              		.loc 1 27 4 view .LVU522
 2050 057a 0346     		mov	r3, r0	@, notchQ
 2051 057c 3268     		ldr	r2, [r6]	@, gyro.targetLoopTime
 2052 057e 0F48     		ldr	r0, .L75+20	@,
 2053              	.LVL188:
  27:filter.c      **** 		};
 2054              		.loc 1 27 4 is_stmt 0 view .LVU523
 2055 0580 0097     		str	r7, [sp]	@ tmp129,
 2056 0582 2146     		mov	r1, r4	@, _3
 2057 0584 FFF7FEFF 		bl	biquadFilterInit		@
 2058              	.LVL189:
  26:filter.c      **** 			biquadFilterInit(&dtermNotch[axis], notchHz, gyro.targetLoopTime, notchQ, FILTER_NOTCH);
 2059              		.loc 1 26 31 is_stmt 1 view .LVU524
  26:filter.c      **** 			biquadFilterInit(&dtermNotch[axis], notchHz, gyro.targetLoopTime, notchQ, FILTER_NOTCH);
 2060              		.loc 1 26 21 view .LVU525
ARM GAS  /var/folders/_2/qbh2zpt918qcm2b_6mgyydnm0000gn/T//ccIdySvu.s 			page 48


  27:filter.c      **** 		};
 2061              		.loc 1 27 4 view .LVU526
 2062 0588 3268     		ldr	r2, [r6]	@, gyro.targetLoopTime
 2063 058a 0D48     		ldr	r0, .L75+24	@,
 2064 058c 0097     		str	r7, [sp]	@ tmp129,
 2065 058e 2B46     		mov	r3, r5	@, notchQ
 2066 0590 2146     		mov	r1, r4	@, _3
 2067 0592 FFF7FEFF 		bl	biquadFilterInit		@
 2068              	.LVL190:
  26:filter.c      **** 			biquadFilterInit(&dtermNotch[axis], notchHz, gyro.targetLoopTime, notchQ, FILTER_NOTCH);
 2069              		.loc 1 26 31 view .LVU527
  26:filter.c      **** 			biquadFilterInit(&dtermNotch[axis], notchHz, gyro.targetLoopTime, notchQ, FILTER_NOTCH);
 2070              		.loc 1 26 21 view .LVU528
  27:filter.c      **** 		};
 2071              		.loc 1 27 4 view .LVU529
 2072 0596 3268     		ldr	r2, [r6]	@, gyro.targetLoopTime
 2073 0598 0A48     		ldr	r0, .L75+28	@,
 2074 059a 0097     		str	r7, [sp]	@ tmp129,
 2075 059c 2B46     		mov	r3, r5	@, notchQ
 2076 059e 2146     		mov	r1, r4	@, _3
 2077 05a0 FFF7FEFF 		bl	biquadFilterInit		@
 2078              	.LVL191:
  26:filter.c      **** 			biquadFilterInit(&dtermNotch[axis], notchHz, gyro.targetLoopTime, notchQ, FILTER_NOTCH);
 2079              		.loc 1 26 31 view .LVU530
  26:filter.c      **** 			biquadFilterInit(&dtermNotch[axis], notchHz, gyro.targetLoopTime, notchQ, FILTER_NOTCH);
 2080              		.loc 1 26 21 view .LVU531
 2081              	.LBE68:
  28:filter.c      **** 	};
 2082              		.loc 1 28 4 view .LVU532
 2083              	.LBE66:
  29:filter.c      **** };
 2084              		.loc 1 29 3 view .LVU533
 2085              	.L67:
 2086              	@ filter.c:30: };
  30:filter.c      **** 
 2087              		.loc 1 30 1 is_stmt 0 view .LVU534
 2088 05a4 03B0     		add	sp, sp, #12	@,,
 2089              	.LCFI21:
 2090              		.cfi_def_cfa_offset 20
 2091              		@ sp needed	@
 2092 05a6 F0BD     		pop	{r4, r5, r6, r7, pc}	@
 2093              	.L76:
 2094              		.align	2
 2095              	.L75:
 2096 05a8 00000000 		.word	dtermNotchFilterApply
 2097 05ac 00000000 		.word	nullFilterApply
 2098 05b0 00000000 		.word	dtermFilterSettings
 2099 05b4 00000000 		.word	biquadFilterApply
 2100 05b8 00000000 		.word	gyro
 2101 05bc 00000000 		.word	dtermNotch
 2102 05c0 24000000 		.word	dtermNotch+36
 2103 05c4 48000000 		.word	dtermNotch+72
 2104              		.cfi_endproc
 2105              	.LFE4:
 2106              		.size	initDtermNotchFilter, .-initDtermNotchFilter
 2107              		.align	1
 2108              		.global	gyroInitFilterNotch1
ARM GAS  /var/folders/_2/qbh2zpt918qcm2b_6mgyydnm0000gn/T//ccIdySvu.s 			page 49


 2109              		.syntax unified
 2110              		.thumb
 2111              		.thumb_func
 2112              		.fpu softvfp
 2113              		.type	gyroInitFilterNotch1, %function
 2114              	gyroInitFilterNotch1:
 2115              	.LVL192:
 2116              	.LFB9:
 124:filter.c      **** 	gyroSensor->notchFilter1ApplyFn = nullFilterApply;
 2117              		.loc 1 124 94 is_stmt 1 view -0
 2118              		.cfi_startproc
 2119              		@ args = 0, pretend = 0, frame = 0
 2120              		@ frame_needed = 0, uses_anonymous_args = 0
 125:filter.c      **** 	notchHz = calculateNyquistAdjustNotchHz(notchHz, notchCutoffHz);
 2121              		.loc 1 125 2 view .LVU536
 2122              	@ filter.c:124: void gyroInitFilterNotch1(gyroSensor_t *gyroSensor, uint16_t notchHz, uint16_t notc
 124:filter.c      **** 	gyroSensor->notchFilter1ApplyFn = nullFilterApply;
 2123              		.loc 1 124 94 is_stmt 0 view .LVU537
 2124 05c8 2DE9F743 		push	{r0, r1, r2, r4, r5, r6, r7, r8, r9, lr}	@
 2125              	.LCFI22:
 2126              		.cfi_def_cfa_offset 40
 2127              		.cfi_offset 4, -28
 2128              		.cfi_offset 5, -24
 2129              		.cfi_offset 6, -20
 2130              		.cfi_offset 7, -16
 2131              		.cfi_offset 8, -12
 2132              		.cfi_offset 9, -8
 2133              		.cfi_offset 14, -4
 2134              	@ filter.c:124: void gyroInitFilterNotch1(gyroSensor_t *gyroSensor, uint16_t notchHz, uint16_t notc
 124:filter.c      **** 	gyroSensor->notchFilter1ApplyFn = nullFilterApply;
 2135              		.loc 1 124 94 view .LVU538
 2136 05cc 0446     		mov	r4, r0	@ gyroSensor, tmp129
 2137              	@ filter.c:125: 	gyroSensor->notchFilter1ApplyFn = nullFilterApply;
 125:filter.c      **** 	notchHz = calculateNyquistAdjustNotchHz(notchHz, notchCutoffHz);
 2138              		.loc 1 125 34 view .LVU539
 2139 05ce 174B     		ldr	r3, .L87	@ tmp123,
 2140 05d0 C4F82431 		str	r3, [r4, #292]	@ tmp123, gyroSensor_9(D)->notchFilter1ApplyFn
 126:filter.c      **** 	
 2141              		.loc 1 126 2 is_stmt 1 view .LVU540
 2142              	@ filter.c:124: void gyroInitFilterNotch1(gyroSensor_t *gyroSensor, uint16_t notchHz, uint16_t notc
 124:filter.c      **** 	gyroSensor->notchFilter1ApplyFn = nullFilterApply;
 2143              		.loc 1 124 94 is_stmt 0 view .LVU541
 2144 05d4 0846     		mov	r0, r1	@ tmp130, notchHz
 2145              	.LVL193:
 2146              	@ filter.c:126: 	notchHz = calculateNyquistAdjustNotchHz(notchHz, notchCutoffHz);
 126:filter.c      **** 	
 2147              		.loc 1 126 12 view .LVU542
 2148 05d6 1146     		mov	r1, r2	@, notchCutoffHz
 2149              	.LVL194:
 2150              	@ filter.c:124: void gyroInitFilterNotch1(gyroSensor_t *gyroSensor, uint16_t notchHz, uint16_t notc
 124:filter.c      **** 	gyroSensor->notchFilter1ApplyFn = nullFilterApply;
 2151              		.loc 1 124 94 view .LVU543
 2152 05d8 1546     		mov	r5, r2	@ notchCutoffHz, tmp131
 2153              	@ filter.c:126: 	notchHz = calculateNyquistAdjustNotchHz(notchHz, notchCutoffHz);
 126:filter.c      **** 	
 2154              		.loc 1 126 12 view .LVU544
 2155 05da FFF7FEFF 		bl	calculateNyquistAdjustNotchHz		@
ARM GAS  /var/folders/_2/qbh2zpt918qcm2b_6mgyydnm0000gn/T//ccIdySvu.s 			page 50


 2156              	.LVL195:
 128:filter.c      **** 		gyroSensor->notchFilter1ApplyFn = (filterApplyPtr) biquadFilterApply;
 2157              		.loc 1 128 2 is_stmt 1 view .LVU545
 2158              	@ filter.c:128: 	if (notchHz != 0 && notchCutoffHz != 0) {
 128:filter.c      **** 		gyroSensor->notchFilter1ApplyFn = (filterApplyPtr) biquadFilterApply;
 2159              		.loc 1 128 5 is_stmt 0 view .LVU546
 2160 05de 10B3     		cbz	r0, .L77	@ tmp132,
 2161              	@ filter.c:128: 	if (notchHz != 0 && notchCutoffHz != 0) {
 128:filter.c      **** 		gyroSensor->notchFilter1ApplyFn = (filterApplyPtr) biquadFilterApply;
 2162              		.loc 1 128 19 discriminator 1 view .LVU547
 2163 05e0 0DB3     		cbz	r5, .L77	@ notchCutoffHz,
 2164              	.LBB69:
 129:filter.c      **** 		const float notchQ = filterGetNotchQ(notchHz, notchCutoffHz);
 2165              		.loc 1 129 3 is_stmt 1 view .LVU548
 2166              	@ filter.c:129: 		gyroSensor->notchFilter1ApplyFn = (filterApplyPtr) biquadFilterApply;
 129:filter.c      **** 		const float notchQ = filterGetNotchQ(notchHz, notchCutoffHz);
 2167              		.loc 1 129 35 is_stmt 0 view .LVU549
 2168 05e2 134B     		ldr	r3, .L87+4	@ tmp125,
 2169 05e4 C4F82431 		str	r3, [r4, #292]	@ tmp125, gyroSensor_9(D)->notchFilter1ApplyFn
 130:filter.c      **** 		for (int axis = 0; axis < XYZ_AXIS_COUNT; ++axis) {
 2170              		.loc 1 130 3 is_stmt 1 view .LVU550
 2171              	@ filter.c:130: 		const float notchQ = filterGetNotchQ(notchHz, notchCutoffHz);
 130:filter.c      **** 		for (int axis = 0; axis < XYZ_AXIS_COUNT; ++axis) {
 2172              		.loc 1 130 24 is_stmt 0 view .LVU551
 2173 05e8 FFF7FEFF 		bl	__aeabi_ui2f		@
 2174              	.LVL196:
 130:filter.c      **** 		for (int axis = 0; axis < XYZ_AXIS_COUNT; ++axis) {
 2175              		.loc 1 130 24 view .LVU552
 2176 05ec 0646     		mov	r6, r0	@ _1, tmp133
 2177 05ee 2846     		mov	r0, r5	@, notchCutoffHz
 2178 05f0 FFF7FEFF 		bl	__aeabi_ui2f		@
 2179              	.LVL197:
 2180 05f4 0146     		mov	r1, r0	@ tmp134,
 2181 05f6 3046     		mov	r0, r6	@, _1
 2182 05f8 FFF7FEFF 		bl	filterGetNotchQ		@
 2183              	.LVL198:
 2184              	.LBB70:
 2185              	@ filter.c:132: 			biquadFilterInit(&gyroSensor->notchFilter1[axis], notchHz, gyro.targetLoopTime, 
 132:filter.c      **** 		};
 2186              		.loc 1 132 4 view .LVU553
 2187 05fc DFF83480 		ldr	r8, .L87+8	@ tmp127,
 2188 0600 04F59475 		add	r5, r4, #296	@ ivtmp.85, gyroSensor,
 2189              	.LBE70:
 2190              	@ filter.c:130: 		const float notchQ = filterGetNotchQ(notchHz, notchCutoffHz);
 130:filter.c      **** 		for (int axis = 0; axis < XYZ_AXIS_COUNT; ++axis) {
 2191              		.loc 1 130 24 view .LVU554
 2192 0604 0746     		mov	r7, r0	@ notchQ, tmp135
 2193              	.LVL199:
 131:filter.c      **** 			biquadFilterInit(&gyroSensor->notchFilter1[axis], notchHz, gyro.targetLoopTime, notchQ, FILTER_N
 2194              		.loc 1 131 3 is_stmt 1 view .LVU555
 2195              	.LBB71:
 131:filter.c      **** 			biquadFilterInit(&gyroSensor->notchFilter1[axis], notchHz, gyro.targetLoopTime, notchQ, FILTER_N
 2196              		.loc 1 131 8 view .LVU556
 131:filter.c      **** 			biquadFilterInit(&gyroSensor->notchFilter1[axis], notchHz, gyro.targetLoopTime, notchQ, FILTER_N
 2197              		.loc 1 131 22 view .LVU557
 2198 0606 04F5CA74 		add	r4, r4, #404	@ _28, gyroSensor,
 2199              	.LVL200:
ARM GAS  /var/folders/_2/qbh2zpt918qcm2b_6mgyydnm0000gn/T//ccIdySvu.s 			page 51


 2200              	@ filter.c:132: 			biquadFilterInit(&gyroSensor->notchFilter1[axis], notchHz, gyro.targetLoopTime, 
 132:filter.c      **** 		};
 2201              		.loc 1 132 4 is_stmt 0 view .LVU558
 2202 060a 4FF00109 		mov	r9, #1	@ tmp128,
 2203              	.LVL201:
 2204              	.L79:
 132:filter.c      **** 		};
 2205              		.loc 1 132 4 is_stmt 1 discriminator 3 view .LVU559
 2206 060e 2846     		mov	r0, r5	@, ivtmp.85
 2207 0610 D8F80020 		ldr	r2, [r8]	@, gyro.targetLoopTime
 2208 0614 CDF80090 		str	r9, [sp]	@ tmp128,
 2209 0618 3B46     		mov	r3, r7	@, notchQ
 2210 061a 3146     		mov	r1, r6	@, _1
 2211 061c 2435     		adds	r5, r5, #36	@ ivtmp.85, ivtmp.85,
 2212 061e FFF7FEFF 		bl	biquadFilterInit		@
 2213              	.LVL202:
 131:filter.c      **** 			biquadFilterInit(&gyroSensor->notchFilter1[axis], notchHz, gyro.targetLoopTime, notchQ, FILTER_N
 2214              		.loc 1 131 45 discriminator 3 view .LVU560
 131:filter.c      **** 			biquadFilterInit(&gyroSensor->notchFilter1[axis], notchHz, gyro.targetLoopTime, notchQ, FILTER_N
 2215              		.loc 1 131 22 discriminator 3 view .LVU561
 2216              	@ filter.c:131: 		for (int axis = 0; axis < XYZ_AXIS_COUNT; ++axis) {
 131:filter.c      **** 			biquadFilterInit(&gyroSensor->notchFilter1[axis], notchHz, gyro.targetLoopTime, notchQ, FILTER_N
 2217              		.loc 1 131 3 is_stmt 0 discriminator 3 view .LVU562
 2218 0622 A542     		cmp	r5, r4	@ ivtmp.85, _28
 2219 0624 F3D1     		bne	.L79		@,
 2220              	.LVL203:
 2221              	.L77:
 131:filter.c      **** 			biquadFilterInit(&gyroSensor->notchFilter1[axis], notchHz, gyro.targetLoopTime, notchQ, FILTER_N
 2222              		.loc 1 131 3 discriminator 3 view .LVU563
 2223              	.LBE71:
 2224              	.LBE69:
 2225              	@ filter.c:135: };
 135:filter.c      **** 
 2226              		.loc 1 135 1 view .LVU564
 2227 0626 03B0     		add	sp, sp, #12	@,,
 2228              	.LCFI23:
 2229              		.cfi_def_cfa_offset 28
 2230              		@ sp needed	@
 2231 0628 BDE8F083 		pop	{r4, r5, r6, r7, r8, r9, pc}	@
 2232              	.L88:
 2233              		.align	2
 2234              	.L87:
 2235 062c 00000000 		.word	nullFilterApply
 2236 0630 00000000 		.word	biquadFilterApply
 2237 0634 00000000 		.word	gyro
 2238              		.cfi_endproc
 2239              	.LFE9:
 2240              		.size	gyroInitFilterNotch1, .-gyroInitFilterNotch1
 2241              		.align	1
 2242              		.global	gyroInitFilterNotch2
 2243              		.syntax unified
 2244              		.thumb
 2245              		.thumb_func
 2246              		.fpu softvfp
 2247              		.type	gyroInitFilterNotch2, %function
 2248              	gyroInitFilterNotch2:
 2249              	.LVL204:
ARM GAS  /var/folders/_2/qbh2zpt918qcm2b_6mgyydnm0000gn/T//ccIdySvu.s 			page 52


 2250              	.LFB10:
 137:filter.c      **** 	gyroSensor->notchFilter2ApplyFn = nullFilterApply;
 2251              		.loc 1 137 94 is_stmt 1 view -0
 2252              		.cfi_startproc
 2253              		@ args = 0, pretend = 0, frame = 0
 2254              		@ frame_needed = 0, uses_anonymous_args = 0
 138:filter.c      **** 	notchHz = calculateNyquistAdjustNotchHz(notchHz, notchCutoffHz);
 2255              		.loc 1 138 2 view .LVU566
 2256              	@ filter.c:137: void gyroInitFilterNotch2(gyroSensor_t *gyroSensor, uint16_t notchHz, uint16_t notc
 137:filter.c      **** 	gyroSensor->notchFilter2ApplyFn = nullFilterApply;
 2257              		.loc 1 137 94 is_stmt 0 view .LVU567
 2258 0638 2DE9F743 		push	{r0, r1, r2, r4, r5, r6, r7, r8, r9, lr}	@
 2259              	.LCFI24:
 2260              		.cfi_def_cfa_offset 40
 2261              		.cfi_offset 4, -28
 2262              		.cfi_offset 5, -24
 2263              		.cfi_offset 6, -20
 2264              		.cfi_offset 7, -16
 2265              		.cfi_offset 8, -12
 2266              		.cfi_offset 9, -8
 2267              		.cfi_offset 14, -4
 2268              	@ filter.c:137: void gyroInitFilterNotch2(gyroSensor_t *gyroSensor, uint16_t notchHz, uint16_t notc
 137:filter.c      **** 	gyroSensor->notchFilter2ApplyFn = nullFilterApply;
 2269              		.loc 1 137 94 view .LVU568
 2270 063c 0446     		mov	r4, r0	@ gyroSensor, tmp129
 2271              	@ filter.c:138: 	gyroSensor->notchFilter2ApplyFn = nullFilterApply;
 138:filter.c      **** 	notchHz = calculateNyquistAdjustNotchHz(notchHz, notchCutoffHz);
 2272              		.loc 1 138 34 view .LVU569
 2273 063e 174B     		ldr	r3, .L99	@ tmp123,
 2274 0640 C4F89431 		str	r3, [r4, #404]	@ tmp123, gyroSensor_9(D)->notchFilter2ApplyFn
 139:filter.c      **** 	
 2275              		.loc 1 139 2 is_stmt 1 view .LVU570
 2276              	@ filter.c:137: void gyroInitFilterNotch2(gyroSensor_t *gyroSensor, uint16_t notchHz, uint16_t notc
 137:filter.c      **** 	gyroSensor->notchFilter2ApplyFn = nullFilterApply;
 2277              		.loc 1 137 94 is_stmt 0 view .LVU571
 2278 0644 0846     		mov	r0, r1	@ tmp130, notchHz
 2279              	.LVL205:
 2280              	@ filter.c:139: 	notchHz = calculateNyquistAdjustNotchHz(notchHz, notchCutoffHz);
 139:filter.c      **** 	
 2281              		.loc 1 139 12 view .LVU572
 2282 0646 1146     		mov	r1, r2	@, notchCutoffHz
 2283              	.LVL206:
 2284              	@ filter.c:137: void gyroInitFilterNotch2(gyroSensor_t *gyroSensor, uint16_t notchHz, uint16_t notc
 137:filter.c      **** 	gyroSensor->notchFilter2ApplyFn = nullFilterApply;
 2285              		.loc 1 137 94 view .LVU573
 2286 0648 1546     		mov	r5, r2	@ notchCutoffHz, tmp131
 2287              	@ filter.c:139: 	notchHz = calculateNyquistAdjustNotchHz(notchHz, notchCutoffHz);
 139:filter.c      **** 	
 2288              		.loc 1 139 12 view .LVU574
 2289 064a FFF7FEFF 		bl	calculateNyquistAdjustNotchHz		@
 2290              	.LVL207:
 141:filter.c      **** 		gyroSensor->notchFilter2ApplyFn = (filterApplyPtr) biquadFilterApply;
 2291              		.loc 1 141 2 is_stmt 1 view .LVU575
 2292              	@ filter.c:141: 	if (notchHz != 0 && notchCutoffHz != 0) {
 141:filter.c      **** 		gyroSensor->notchFilter2ApplyFn = (filterApplyPtr) biquadFilterApply;
 2293              		.loc 1 141 5 is_stmt 0 view .LVU576
 2294 064e 10B3     		cbz	r0, .L89	@ tmp132,
ARM GAS  /var/folders/_2/qbh2zpt918qcm2b_6mgyydnm0000gn/T//ccIdySvu.s 			page 53


 2295              	@ filter.c:141: 	if (notchHz != 0 && notchCutoffHz != 0) {
 141:filter.c      **** 		gyroSensor->notchFilter2ApplyFn = (filterApplyPtr) biquadFilterApply;
 2296              		.loc 1 141 19 discriminator 1 view .LVU577
 2297 0650 0DB3     		cbz	r5, .L89	@ notchCutoffHz,
 2298              	.LBB72:
 142:filter.c      **** 		const float notchQ = filterGetNotchQ(notchHz, notchCutoffHz);
 2299              		.loc 1 142 3 is_stmt 1 view .LVU578
 2300              	@ filter.c:142: 		gyroSensor->notchFilter2ApplyFn = (filterApplyPtr) biquadFilterApply;
 142:filter.c      **** 		const float notchQ = filterGetNotchQ(notchHz, notchCutoffHz);
 2301              		.loc 1 142 35 is_stmt 0 view .LVU579
 2302 0652 134B     		ldr	r3, .L99+4	@ tmp125,
 2303 0654 C4F89431 		str	r3, [r4, #404]	@ tmp125, gyroSensor_9(D)->notchFilter2ApplyFn
 143:filter.c      **** 		for (int axis = 0; axis < XYZ_AXIS_COUNT; ++axis) {
 2304              		.loc 1 143 3 is_stmt 1 view .LVU580
 2305              	@ filter.c:143: 		const float notchQ = filterGetNotchQ(notchHz, notchCutoffHz);
 143:filter.c      **** 		for (int axis = 0; axis < XYZ_AXIS_COUNT; ++axis) {
 2306              		.loc 1 143 24 is_stmt 0 view .LVU581
 2307 0658 FFF7FEFF 		bl	__aeabi_ui2f		@
 2308              	.LVL208:
 143:filter.c      **** 		for (int axis = 0; axis < XYZ_AXIS_COUNT; ++axis) {
 2309              		.loc 1 143 24 view .LVU582
 2310 065c 0646     		mov	r6, r0	@ _1, tmp133
 2311 065e 2846     		mov	r0, r5	@, notchCutoffHz
 2312 0660 FFF7FEFF 		bl	__aeabi_ui2f		@
 2313              	.LVL209:
 2314 0664 0146     		mov	r1, r0	@ tmp134,
 2315 0666 3046     		mov	r0, r6	@, _1
 2316 0668 FFF7FEFF 		bl	filterGetNotchQ		@
 2317              	.LVL210:
 2318              	.LBB73:
 2319              	@ filter.c:145: 			biquadFilterInit(&gyroSensor->notchFilter2[axis], notchHz, gyro.targetLoopTime, 
 145:filter.c      **** 		};
 2320              		.loc 1 145 4 view .LVU583
 2321 066c DFF83480 		ldr	r8, .L99+8	@ tmp127,
 2322 0670 04F5CC75 		add	r5, r4, #408	@ ivtmp.95, gyroSensor,
 2323              	.LBE73:
 2324              	@ filter.c:143: 		const float notchQ = filterGetNotchQ(notchHz, notchCutoffHz);
 143:filter.c      **** 		for (int axis = 0; axis < XYZ_AXIS_COUNT; ++axis) {
 2325              		.loc 1 143 24 view .LVU584
 2326 0674 0746     		mov	r7, r0	@ notchQ, tmp135
 2327              	.LVL211:
 144:filter.c      **** 			biquadFilterInit(&gyroSensor->notchFilter2[axis], notchHz, gyro.targetLoopTime, notchQ, FILTER_N
 2328              		.loc 1 144 3 is_stmt 1 view .LVU585
 2329              	.LBB74:
 144:filter.c      **** 			biquadFilterInit(&gyroSensor->notchFilter2[axis], notchHz, gyro.targetLoopTime, notchQ, FILTER_N
 2330              		.loc 1 144 8 view .LVU586
 144:filter.c      **** 			biquadFilterInit(&gyroSensor->notchFilter2[axis], notchHz, gyro.targetLoopTime, notchQ, FILTER_N
 2331              		.loc 1 144 22 view .LVU587
 2332 0676 04F50174 		add	r4, r4, #516	@ _28, gyroSensor,
 2333              	.LVL212:
 2334              	@ filter.c:145: 			biquadFilterInit(&gyroSensor->notchFilter2[axis], notchHz, gyro.targetLoopTime, 
 145:filter.c      **** 		};
 2335              		.loc 1 145 4 is_stmt 0 view .LVU588
 2336 067a 4FF00109 		mov	r9, #1	@ tmp128,
 2337              	.LVL213:
 2338              	.L91:
 145:filter.c      **** 		};
ARM GAS  /var/folders/_2/qbh2zpt918qcm2b_6mgyydnm0000gn/T//ccIdySvu.s 			page 54


 2339              		.loc 1 145 4 is_stmt 1 discriminator 3 view .LVU589
 2340 067e 2846     		mov	r0, r5	@, ivtmp.95
 2341 0680 D8F80020 		ldr	r2, [r8]	@, gyro.targetLoopTime
 2342 0684 CDF80090 		str	r9, [sp]	@ tmp128,
 2343 0688 3B46     		mov	r3, r7	@, notchQ
 2344 068a 3146     		mov	r1, r6	@, _1
 2345 068c 2435     		adds	r5, r5, #36	@ ivtmp.95, ivtmp.95,
 2346 068e FFF7FEFF 		bl	biquadFilterInit		@
 2347              	.LVL214:
 144:filter.c      **** 			biquadFilterInit(&gyroSensor->notchFilter2[axis], notchHz, gyro.targetLoopTime, notchQ, FILTER_N
 2348              		.loc 1 144 45 discriminator 3 view .LVU590
 144:filter.c      **** 			biquadFilterInit(&gyroSensor->notchFilter2[axis], notchHz, gyro.targetLoopTime, notchQ, FILTER_N
 2349              		.loc 1 144 22 discriminator 3 view .LVU591
 2350              	@ filter.c:144: 		for (int axis = 0; axis < XYZ_AXIS_COUNT; ++axis) {
 144:filter.c      **** 			biquadFilterInit(&gyroSensor->notchFilter2[axis], notchHz, gyro.targetLoopTime, notchQ, FILTER_N
 2351              		.loc 1 144 3 is_stmt 0 discriminator 3 view .LVU592
 2352 0692 A542     		cmp	r5, r4	@ ivtmp.95, _28
 2353 0694 F3D1     		bne	.L91		@,
 2354              	.LVL215:
 2355              	.L89:
 144:filter.c      **** 			biquadFilterInit(&gyroSensor->notchFilter2[axis], notchHz, gyro.targetLoopTime, notchQ, FILTER_N
 2356              		.loc 1 144 3 discriminator 3 view .LVU593
 2357              	.LBE74:
 2358              	.LBE72:
 2359              	@ filter.c:148: }
 148:filter.c      **** 
 2360              		.loc 1 148 1 view .LVU594
 2361 0696 03B0     		add	sp, sp, #12	@,,
 2362              	.LCFI25:
 2363              		.cfi_def_cfa_offset 28
 2364              		@ sp needed	@
 2365 0698 BDE8F083 		pop	{r4, r5, r6, r7, r8, r9, pc}	@
 2366              	.L100:
 2367              		.align	2
 2368              	.L99:
 2369 069c 00000000 		.word	nullFilterApply
 2370 06a0 00000000 		.word	biquadFilterApply
 2371 06a4 00000000 		.word	gyro
 2372              		.cfi_endproc
 2373              	.LFE10:
 2374              		.size	gyroInitFilterNotch2, .-gyroInitFilterNotch2
 2375              		.align	1
 2376              		.global	gyroInitFilters
 2377              		.syntax unified
 2378              		.thumb
 2379              		.thumb_func
 2380              		.fpu softvfp
 2381              		.type	gyroInitFilters, %function
 2382              	gyroInitFilters:
 2383              	.LVL216:
 2384              	.LFB3:
   7:filter.c      **** 	gyroInitLowPassFilter(gyroSensor, FILTER_LOWPASS, gyroConfig.gyro_lowpass_type, gyroConfig.gyro_lo
 2385              		.loc 1 7 48 is_stmt 1 view -0
 2386              		.cfi_startproc
 2387              		@ args = 0, pretend = 0, frame = 0
 2388              		@ frame_needed = 0, uses_anonymous_args = 0
   8:filter.c      **** 	gyroInitLowPassFilter(gyroSensor, FILTER_LOWPASS2, gyroConfig.gyro_lowpass2_type, gyroConfig.gyro_
ARM GAS  /var/folders/_2/qbh2zpt918qcm2b_6mgyydnm0000gn/T//ccIdySvu.s 			page 55


 2389              		.loc 1 8 2 view .LVU596
 2390              	@ filter.c:7: void gyroInitFilters (gyroSensor_t *gyroSensor){
   7:filter.c      **** 	gyroInitLowPassFilter(gyroSensor, FILTER_LOWPASS, gyroConfig.gyro_lowpass_type, gyroConfig.gyro_lo
 2391              		.loc 1 7 48 is_stmt 0 view .LVU597
 2392 06a8 38B5     		push	{r3, r4, r5, lr}	@
 2393              	.LCFI26:
 2394              		.cfi_def_cfa_offset 16
 2395              		.cfi_offset 3, -16
 2396              		.cfi_offset 4, -12
 2397              		.cfi_offset 5, -8
 2398              		.cfi_offset 14, -4
 2399              	@ filter.c:8: 	gyroInitLowPassFilter(gyroSensor, FILTER_LOWPASS, gyroConfig.gyro_lowpass_type, gyro
   8:filter.c      **** 	gyroInitLowPassFilter(gyroSensor, FILTER_LOWPASS2, gyroConfig.gyro_lowpass2_type, gyroConfig.gyro_
 2400              		.loc 1 8 2 view .LVU598
 2401 06aa 0E4C     		ldr	r4, .L102	@ tmp121,
 2402              	@ filter.c:7: void gyroInitFilters (gyroSensor_t *gyroSensor){
   7:filter.c      **** 	gyroInitLowPassFilter(gyroSensor, FILTER_LOWPASS, gyroConfig.gyro_lowpass_type, gyroConfig.gyro_lo
 2403              		.loc 1 7 48 view .LVU599
 2404 06ac 0546     		mov	r5, r0	@ gyroSensor, tmp137
 2405              	@ filter.c:8: 	gyroInitLowPassFilter(gyroSensor, FILTER_LOWPASS, gyroConfig.gyro_lowpass_type, gyro
   8:filter.c      **** 	gyroInitLowPassFilter(gyroSensor, FILTER_LOWPASS2, gyroConfig.gyro_lowpass2_type, gyroConfig.gyro_
 2406              		.loc 1 8 2 view .LVU600
 2407 06ae 2388     		ldrh	r3, [r4]	@, gyroConfig.gyro_lowpass_Hz
 2408 06b0 627B     		ldrb	r2, [r4, #13]	@ zero_extendqisi2	@, gyroConfig.gyro_lowpass_type
 2409 06b2 0021     		movs	r1, #0	@,
 2410 06b4 FFF7FEFF 		bl	gyroInitLowPassFilter		@
 2411              	.LVL217:
   9:filter.c      **** 	gyroInitFilterNotch1(gyroSensor, gyroConfig.gyro_soft_notch_hz_1, gyroConfig.gyro_soft_notch_cutof
 2412              		.loc 1 9 2 is_stmt 1 view .LVU601
 2413 06b8 6388     		ldrh	r3, [r4, #2]	@, gyroConfig.gyro_lowpass2_Hz
 2414 06ba A27B     		ldrb	r2, [r4, #14]	@ zero_extendqisi2	@, gyroConfig.gyro_lowpass2_type
 2415 06bc 2846     		mov	r0, r5	@, gyroSensor
 2416 06be 0121     		movs	r1, #1	@,
 2417 06c0 FFF7FEFF 		bl	gyroInitLowPassFilter		@
 2418              	.LVL218:
  10:filter.c      **** 	gyroInitFilterNotch2(gyroSensor, gyroConfig.gyro_soft_notch_hz_2, gyroConfig.gyro_soft_notch_cutof
 2419              		.loc 1 10 2 view .LVU602
 2420 06c4 E288     		ldrh	r2, [r4, #6]	@, gyroConfig.gyro_soft_notch_cutoff_1
 2421 06c6 A188     		ldrh	r1, [r4, #4]	@, gyroConfig.gyro_soft_notch_hz_1
 2422 06c8 2846     		mov	r0, r5	@, gyroSensor
 2423 06ca FFF7FEFF 		bl	gyroInitFilterNotch1		@
 2424              	.LVL219:
  11:filter.c      **** 	gyroInitFilterDynNotch(gyroSensor);
 2425              		.loc 1 11 2 view .LVU603
 2426 06ce 2846     		mov	r0, r5	@, gyroSensor
 2427 06d0 6289     		ldrh	r2, [r4, #10]	@, gyroConfig.gyro_soft_notch_cutoff_2
 2428 06d2 2189     		ldrh	r1, [r4, #8]	@, gyroConfig.gyro_soft_notch_hz_2
 2429 06d4 FFF7FEFF 		bl	gyroInitFilterNotch2		@
 2430              	.LVL220:
  12:filter.c      **** 	
 2431              		.loc 1 12 2 view .LVU604
 2432 06d8 2846     		mov	r0, r5	@, gyroSensor
 2433              	@ filter.c:14: };
  14:filter.c      **** 
 2434              		.loc 1 14 1 is_stmt 0 view .LVU605
 2435 06da BDE83840 		pop	{r3, r4, r5, lr}	@
 2436              	.LCFI27:
ARM GAS  /var/folders/_2/qbh2zpt918qcm2b_6mgyydnm0000gn/T//ccIdySvu.s 			page 56


 2437              		.cfi_restore 14
 2438              		.cfi_restore 5
 2439              		.cfi_restore 4
 2440              		.cfi_restore 3
 2441              		.cfi_def_cfa_offset 0
 2442              	.LVL221:
 2443              	@ filter.c:12: 	gyroInitFilterDynNotch(gyroSensor);
  12:filter.c      **** 	
 2444              		.loc 1 12 2 view .LVU606
 2445 06de FFF7FEBF 		b	gyroInitFilterDynNotch		@
 2446              	.LVL222:
 2447              	.L103:
  12:filter.c      **** 	
 2448              		.loc 1 12 2 view .LVU607
 2449 06e2 00BF     		.align	2
 2450              	.L102:
 2451 06e4 00000000 		.word	gyroConfig
 2452              		.cfi_endproc
 2453              	.LFE3:
 2454              		.size	gyroInitFilters, .-gyroInitFilters
 2455              		.comm	gyroSensor,628,4
 2456              		.comm	dtermPT1,24,4
 2457              		.comm	dtermLowpassFilter2Apply,4,4
 2458              		.comm	dtermLowpass,108,4
 2459              		.comm	dtermLowpassFilterApply,4,4
 2460              		.comm	dtermNotch,108,4
 2461              		.comm	dtermNotchFilterApply,4,4
 2462              		.comm	accelFilter,108,4
 2463              	.Letext0:
 2464              		.file 2 "/usr/local/Cellar/arm-none-eabi-gcc/9-2019-q4-major/gcc/arm-none-eabi/include/machine/_de
 2465              		.file 3 "/usr/local/Cellar/arm-none-eabi-gcc/9-2019-q4-major/gcc/arm-none-eabi/include/sys/lock.h"
 2466              		.file 4 "/usr/local/Cellar/arm-none-eabi-gcc/9-2019-q4-major/gcc/arm-none-eabi/include/sys/_types.
 2467              		.file 5 "/usr/local/Cellar/arm-none-eabi-gcc/9-2019-q4-major/gcc/lib/gcc/arm-none-eabi/9.2.1/inclu
 2468              		.file 6 "/usr/local/Cellar/arm-none-eabi-gcc/9-2019-q4-major/gcc/arm-none-eabi/include/sys/reent.h
 2469              		.file 7 "/usr/local/Cellar/arm-none-eabi-gcc/9-2019-q4-major/gcc/arm-none-eabi/include/stdlib.h"
 2470              		.file 8 "/usr/local/Cellar/arm-none-eabi-gcc/9-2019-q4-major/gcc/arm-none-eabi/include/sys/_stdint
 2471              		.file 9 "filter.h"
 2472              		.file 10 "/usr/local/Cellar/arm-none-eabi-gcc/9-2019-q4-major/gcc/arm-none-eabi/include/math.h"
 2473              		.file 11 "maths.h"