ARM GAS  /var/folders/_2/qbh2zpt918qcm2b_6mgyydnm0000gn/T//ccjkKXtC.s 			page 1


   1              		.cpu cortex-m4
   2              		.eabi_attribute 20, 1	@ Tag_ABI_FP_denormal
   3              		.eabi_attribute 21, 1	@ Tag_ABI_FP_exceptions
   4              		.eabi_attribute 23, 3	@ Tag_ABI_FP_number_model
   5              		.eabi_attribute 24, 1	@ Tag_ABI_align8_needed
   6              		.eabi_attribute 25, 1	@ Tag_ABI_align8_preserved
   7              		.eabi_attribute 26, 1	@ Tag_ABI_enum_size
   8              		.eabi_attribute 30, 4	@ Tag_ABI_optimization_goals
   9              		.eabi_attribute 34, 1	@ Tag_CPU_unaligned_access
  10              		.eabi_attribute 18, 4	@ Tag_ABI_PCS_wchar_t
  11              		.file	"i2c.c"
  12              	@ GNU C17 (GNU Tools for Arm Embedded Processors 9-2019-q4-major) version 9.2.1 20191025 (release) 
  13              	@	compiled by GNU C version 4.2.1 Compatible Apple LLVM 9.0.0 (clang-900.0.39.2), GMP version 6.1.0
  14              	
  15              	@ GGC heuristics: --param ggc-min-expand=100 --param ggc-min-heapsize=131072
  16              	@ options passed:  -I .
  17              	@ -I /Users/rdaneel/Binary/Roaming/C-Code/StmProjects/stm32f3x/lib/STM32F30x_DSP_StdPeriph_Lib_V1.2
  18              	@ -I /Users/rdaneel/Binary/Roaming/C-Code/StmProjects/stm32f3x/lib/STM32F30x_DSP_StdPeriph_Lib_V1.2
  19              	@ -I /Users/rdaneel/Binary/Roaming/C-Code/StmProjects/stm32f3x/lib/STM32F30x_DSP_StdPeriph_Lib_V1.2
  20              	@ -imultilib thumb/v7e-m/nofp
  21              	@ -iprefix /usr/local/Cellar/arm-none-eabi-gcc/9-2019-q4-major/gcc/bin/../lib/gcc/arm-none-eabi/9.2
  22              	@ -isysroot /usr/local/Cellar/arm-none-eabi-gcc/9-2019-q4-major/gcc/bin/../arm-none-eabi
  23              	@ -D__USES_INITFINI__ -D STM32F30X_MD -D USE_STDPERIPH_DRIVER
  24              	@ -D HSE_VALUE=8000000 -D RUN_FROM_FLASH=1 i2c.c -mcpu=cortex-m4 -mthumb
  25              	@ -mfloat-abi=soft -march=armv7e-m -auxbase-strip i2c.o -g -gdwarf-2 -Os
  26              	@ -Wall -fomit-frame-pointer -fverbose-asm
  27              	@ options enabled:  -faggressive-loop-optimizations -fassume-phsa
  28              	@ -fauto-inc-dec -fbranch-count-reg -fcaller-saves -fcode-hoisting
  29              	@ -fcombine-stack-adjustments -fcommon -fcompare-elim -fcprop-registers
  30              	@ -fcrossjumping -fcse-follow-jumps -fdefer-pop
  31              	@ -fdelete-null-pointer-checks -fdevirtualize -fdevirtualize-speculatively
  32              	@ -fdwarf2-cfi-asm -fearly-inlining -feliminate-unused-debug-types
  33              	@ -fexpensive-optimizations -fforward-propagate -ffp-int-builtin-inexact
  34              	@ -ffunction-cse -fgcse -fgcse-lm -fgnu-runtime -fgnu-unique
  35              	@ -fguess-branch-probability -fhoist-adjacent-loads -fident -fif-conversion
  36              	@ -fif-conversion2 -findirect-inlining -finline -finline-atomics
  37              	@ -finline-functions -finline-functions-called-once
  38              	@ -finline-small-functions -fipa-bit-cp -fipa-cp -fipa-icf
  39              	@ -fipa-icf-functions -fipa-icf-variables -fipa-profile -fipa-pure-const
  40              	@ -fipa-ra -fipa-reference -fipa-reference-addressable -fipa-sra
  41              	@ -fipa-stack-alignment -fipa-vrp -fira-hoist-pressure
  42              	@ -fira-share-save-slots -fira-share-spill-slots
  43              	@ -fisolate-erroneous-paths-dereference -fivopts -fkeep-static-consts
  44              	@ -fleading-underscore -flifetime-dse -flra-remat -flto-odr-type-merging
  45              	@ -fmath-errno -fmerge-constants -fmerge-debug-strings
  46              	@ -fmove-loop-invariants -fomit-frame-pointer -foptimize-sibling-calls
  47              	@ -fpartial-inlining -fpeephole -fpeephole2 -fplt -fprefetch-loop-arrays
  48              	@ -freg-struct-return -freorder-blocks -freorder-functions
  49              	@ -frerun-cse-after-loop -fsched-critical-path-heuristic
  50              	@ -fsched-dep-count-heuristic -fsched-group-heuristic -fsched-interblock
  51              	@ -fsched-last-insn-heuristic -fsched-pressure -fsched-rank-heuristic
  52              	@ -fsched-spec -fsched-spec-insn-heuristic -fsched-stalled-insns-dep
  53              	@ -fschedule-insns2 -fsection-anchors -fsemantic-interposition
  54              	@ -fshow-column -fshrink-wrap-separate -fsigned-zeros
  55              	@ -fsplit-ivs-in-unroller -fsplit-wide-types -fssa-backprop -fssa-phiopt
  56              	@ -fstdarg-opt -fstore-merging -fstrict-aliasing
  57              	@ -fstrict-volatile-bitfields -fsync-libcalls -fthread-jumps
ARM GAS  /var/folders/_2/qbh2zpt918qcm2b_6mgyydnm0000gn/T//ccjkKXtC.s 			page 2


  58              	@ -ftoplevel-reorder -ftrapping-math -ftree-bit-ccp -ftree-builtin-call-dce
  59              	@ -ftree-ccp -ftree-ch -ftree-coalesce-vars -ftree-copy-prop -ftree-cselim
  60              	@ -ftree-dce -ftree-dominator-opts -ftree-dse -ftree-forwprop -ftree-fre
  61              	@ -ftree-loop-if-convert -ftree-loop-im -ftree-loop-ivcanon
  62              	@ -ftree-loop-optimize -ftree-parallelize-loops= -ftree-phiprop -ftree-pre
  63              	@ -ftree-pta -ftree-reassoc -ftree-scev-cprop -ftree-sink -ftree-slsr
  64              	@ -ftree-sra -ftree-switch-conversion -ftree-tail-merge -ftree-ter
  65              	@ -ftree-vrp -funit-at-a-time -fvar-tracking -fvar-tracking-assignments
  66              	@ -fverbose-asm -fzero-initialized-in-bss -masm-syntax-unified -mbe32
  67              	@ -mlittle-endian -mpic-data-is-text-relative -msched-prolog -mthumb
  68              	@ -munaligned-access -mvectorize-with-neon-quad
  69              	
  70              		.text
  71              	.Ltext0:
  72              		.cfi_sections	.debug_frame
  73              		.align	1
  74              		.global	init_i2c1
  75              		.arch armv7e-m
  76              		.syntax unified
  77              		.thumb
  78              		.thumb_func
  79              		.fpu softvfp
  80              		.type	init_i2c1, %function
  81              	init_i2c1:
  82              	.LFB126:
  83              		.file 1 "i2c.c"
   1:i2c.c         **** #include "i2c.h"
   2:i2c.c         **** 
   3:i2c.c         **** void init_i2c1(void){
  84              		.loc 1 3 21 view -0
  85              		.cfi_startproc
  86              		@ args = 0, pretend = 0, frame = 40
  87              		@ frame_needed = 0, uses_anonymous_args = 0
   4:i2c.c         **** 
   5:i2c.c         **** 	RCC_I2CCLKConfig(RCC_I2C1CLK_SYSCLK);
  88              		.loc 1 5 2 view .LVU1
  89              	@ i2c.c:3: void init_i2c1(void){
   3:i2c.c         **** 
  90              		.loc 1 3 21 is_stmt 0 view .LVU2
  91 0000 10B5     		push	{r4, lr}	@
  92              	.LCFI0:
  93              		.cfi_def_cfa_offset 8
  94              		.cfi_offset 4, -8
  95              		.cfi_offset 14, -4
  96              	@ i2c.c:5: 	RCC_I2CCLKConfig(RCC_I2C1CLK_SYSCLK);
  97              		.loc 1 5 2 view .LVU3
  98 0002 1020     		movs	r0, #16	@,
  99              	@ i2c.c:3: void init_i2c1(void){
   3:i2c.c         **** 
 100              		.loc 1 3 21 view .LVU4
 101 0004 8AB0     		sub	sp, sp, #40	@,,
 102              	.LCFI1:
 103              		.cfi_def_cfa_offset 48
 104              	@ i2c.c:9: 	GPIO_PinAFConfig(GPIOB, GPIO_PinSource6, GPIO_AF_4);
   6:i2c.c         **** 	RCC_APB1PeriphClockCmd(RCC_APB1Periph_I2C1, ENABLE);
   7:i2c.c         **** 	
   8:i2c.c         **** 	//Setting the alternate function to the corresponding i2c pins
ARM GAS  /var/folders/_2/qbh2zpt918qcm2b_6mgyydnm0000gn/T//ccjkKXtC.s 			page 3


   9:i2c.c         **** 	GPIO_PinAFConfig(GPIOB, GPIO_PinSource6, GPIO_AF_4);
 105              		.loc 1 9 2 view .LVU5
 106 0006 1B4C     		ldr	r4, .L2	@ tmp110,
 107              	@ i2c.c:5: 	RCC_I2CCLKConfig(RCC_I2C1CLK_SYSCLK);
   5:i2c.c         **** 	RCC_APB1PeriphClockCmd(RCC_APB1Periph_I2C1, ENABLE);
 108              		.loc 1 5 2 view .LVU6
 109 0008 FFF7FEFF 		bl	RCC_I2CCLKConfig		@
 110              	.LVL0:
   6:i2c.c         **** 	RCC_APB1PeriphClockCmd(RCC_APB1Periph_I2C1, ENABLE);
 111              		.loc 1 6 2 is_stmt 1 view .LVU7
 112 000c 0121     		movs	r1, #1	@,
 113 000e 4FF40010 		mov	r0, #2097152	@,
 114 0012 FFF7FEFF 		bl	RCC_APB1PeriphClockCmd		@
 115              	.LVL1:
 116              		.loc 1 9 2 view .LVU8
 117 0016 2046     		mov	r0, r4	@, tmp110
 118 0018 0422     		movs	r2, #4	@,
 119 001a 0621     		movs	r1, #6	@,
 120 001c FFF7FEFF 		bl	GPIO_PinAFConfig		@
 121              	.LVL2:
  10:i2c.c         **** 	GPIO_PinAFConfig(GPIOB, GPIO_PinSource7, GPIO_AF_4);
 122              		.loc 1 10 2 view .LVU9
 123 0020 2046     		mov	r0, r4	@, tmp110
 124 0022 0422     		movs	r2, #4	@,
 125 0024 0721     		movs	r1, #7	@,
 126 0026 FFF7FEFF 		bl	GPIO_PinAFConfig		@
 127              	.LVL3:
  11:i2c.c         **** 
  12:i2c.c         **** 	//Setting up the GPIO init structure
  13:i2c.c         **** 	GPIO_InitTypeDef GPIO_I2C1_Init;
 128              		.loc 1 13 2 view .LVU10
  14:i2c.c         **** 	
  15:i2c.c         **** 	GPIO_I2C1_Init.GPIO_Mode = GPIO_Mode_AF;
 129              		.loc 1 15 2 view .LVU11
  16:i2c.c         **** 	GPIO_I2C1_Init.GPIO_OType = GPIO_OType_OD;
 130              		.loc 1 16 2 view .LVU12
  17:i2c.c         **** 	GPIO_I2C1_Init.GPIO_Pin = GPIO_Pin_6 | GPIO_Pin_7;
 131              		.loc 1 17 2 view .LVU13
  18:i2c.c         **** 	GPIO_I2C1_Init.GPIO_PuPd = GPIO_PuPd_NOPULL;
 132              		.loc 1 18 2 view .LVU14
  19:i2c.c         **** 	GPIO_I2C1_Init.GPIO_Speed = GPIO_Speed_50MHz;
 133              		.loc 1 19 2 view .LVU15
 134              	@ i2c.c:15: 	GPIO_I2C1_Init.GPIO_Mode = GPIO_Mode_AF;
  15:i2c.c         **** 	GPIO_I2C1_Init.GPIO_OType = GPIO_OType_OD;
 135              		.loc 1 15 27 is_stmt 0 view .LVU16
 136 002a 134B     		ldr	r3, .L2+4	@ tmp113,
 137              	@ i2c.c:21: 	GPIO_Init(GPIOB, &GPIO_I2C1_Init);	
  20:i2c.c         **** 
  21:i2c.c         **** 	GPIO_Init(GPIOB, &GPIO_I2C1_Init);	
 138              		.loc 1 21 2 view .LVU17
 139 002c 2046     		mov	r0, r4	@, tmp110
 140              	@ i2c.c:24: 	I2C_DeInit(I2C1);	
  22:i2c.c         **** 
  23:i2c.c         **** 	//Setting up the i2c bus
  24:i2c.c         **** 	I2C_DeInit(I2C1);	
 141              		.loc 1 24 2 view .LVU18
 142 002e 134C     		ldr	r4, .L2+8	@ tmp116,
ARM GAS  /var/folders/_2/qbh2zpt918qcm2b_6mgyydnm0000gn/T//ccjkKXtC.s 			page 4


 143              	@ i2c.c:15: 	GPIO_I2C1_Init.GPIO_Mode = GPIO_Mode_AF;
  15:i2c.c         **** 	GPIO_I2C1_Init.GPIO_OType = GPIO_OType_OD;
 144              		.loc 1 15 27 view .LVU19
 145 0030 C022     		movs	r2, #192	@,
 146              	@ i2c.c:21: 	GPIO_Init(GPIOB, &GPIO_I2C1_Init);	
  21:i2c.c         **** 
 147              		.loc 1 21 2 view .LVU20
 148 0032 01A9     		add	r1, sp, #4	@,,
 149              	@ i2c.c:15: 	GPIO_I2C1_Init.GPIO_Mode = GPIO_Mode_AF;
  15:i2c.c         **** 	GPIO_I2C1_Init.GPIO_OType = GPIO_OType_OD;
 150              		.loc 1 15 27 view .LVU21
 151 0034 CDE90123 		strd	r2, r3, [sp, #4]	@, tmp113,,
  21:i2c.c         **** 
 152              		.loc 1 21 2 is_stmt 1 view .LVU22
 153 0038 FFF7FEFF 		bl	GPIO_Init		@
 154              	.LVL4:
 155              		.loc 1 24 2 view .LVU23
 156 003c 2046     		mov	r0, r4	@, tmp116
 157 003e FFF7FEFF 		bl	I2C_DeInit		@
 158              	.LVL5:
  25:i2c.c         **** 
  26:i2c.c         **** 	I2C_InitTypeDef I2C1_Init;
 159              		.loc 1 26 2 view .LVU24
  27:i2c.c         **** 	I2C1_Init.I2C_Ack = I2C_Ack_Enable;
 160              		.loc 1 27 2 view .LVU25
 161              	@ i2c.c:27: 	I2C1_Init.I2C_Ack = I2C_Ack_Enable;
 162              		.loc 1 27 20 is_stmt 0 view .LVU26
 163 0042 0023     		movs	r3, #0	@ tmp117,
 164              	@ i2c.c:28: 	I2C1_Init.I2C_AcknowledgedAddress = I2C_AcknowledgedAddress_7bit;
  28:i2c.c         **** 	I2C1_Init.I2C_AcknowledgedAddress = I2C_AcknowledgedAddress_7bit;
 165              		.loc 1 28 36 view .LVU27
 166 0044 CDE90833 		strd	r3, r3, [sp, #32]	@ tmp117, tmp117,,
  29:i2c.c         **** 	I2C1_Init.I2C_AnalogFilter = I2C_AnalogFilter_Enable;
 167              		.loc 1 29 2 is_stmt 1 view .LVU28
 168              	@ i2c.c:30: 	I2C1_Init.I2C_DigitalFilter = 0x00;
  30:i2c.c         **** 	I2C1_Init.I2C_DigitalFilter = 0x00;
 169              		.loc 1 30 30 is_stmt 0 view .LVU29
 170 0048 CDE90433 		strd	r3, r3, [sp, #16]	@ tmp117, tmp117,,
  31:i2c.c         **** 	I2C1_Init.I2C_Mode = I2C_Mode_I2C;
 171              		.loc 1 31 2 is_stmt 1 view .LVU30
 172              	@ i2c.c:32: 	I2C1_Init.I2C_OwnAddress1 = 0x00;
  32:i2c.c         **** 	I2C1_Init.I2C_OwnAddress1 = 0x00;
 173              		.loc 1 32 28 is_stmt 0 view .LVU31
 174 004c CDE90633 		strd	r3, r3, [sp, #24]	@ tmp117, tmp117,,
  33:i2c.c         **** 	//I2C1_Init.I2C_Timing = 0xC062121F; //1100 0000 0110 0010 0001 0010 0001 1111
  34:i2c.c         **** 	I2C1_Init.I2C_Timing = 0x00E0257A; // 400 Khz, 72Mhz Clock, Analog Filter Delay ON, Rise 100, Fall
 175              		.loc 1 34 2 is_stmt 1 view .LVU32
 176              	@ i2c.c:36: 	I2C_Init(I2C1, &I2C1_Init);
  35:i2c.c         **** 
  36:i2c.c         **** 	I2C_Init(I2C1, &I2C1_Init);
 177              		.loc 1 36 2 is_stmt 0 view .LVU33
 178 0050 03A9     		add	r1, sp, #12	@,,
 179              	@ i2c.c:34: 	I2C1_Init.I2C_Timing = 0x00E0257A; // 400 Khz, 72Mhz Clock, Analog Filter Delay ON, Ri
  34:i2c.c         **** 
 180              		.loc 1 34 23 view .LVU34
 181 0052 0B4B     		ldr	r3, .L2+12	@ tmp123,
 182 0054 0393     		str	r3, [sp, #12]	@ tmp123, I2C1_Init.I2C_Timing
ARM GAS  /var/folders/_2/qbh2zpt918qcm2b_6mgyydnm0000gn/T//ccjkKXtC.s 			page 5


 183              		.loc 1 36 2 is_stmt 1 view .LVU35
 184 0056 2046     		mov	r0, r4	@, tmp116
 185 0058 FFF7FEFF 		bl	I2C_Init		@
 186              	.LVL6:
  37:i2c.c         **** 	I2C_Cmd(I2C1, ENABLE);
 187              		.loc 1 37 2 view .LVU36
 188 005c 2046     		mov	r0, r4	@, tmp116
 189 005e 0121     		movs	r1, #1	@,
 190 0060 FFF7FEFF 		bl	I2C_Cmd		@
 191              	.LVL7:
  38:i2c.c         ****         //I2C_DMACmd(I2C1, I2C_DMAReq_Tx, ENABLE)
  39:i2c.c         ****         // I2C_DMACmd(I2C1, I2C_DMAReq_Rx, ENABLE);
  40:i2c.c         ****         I2C_ITConfig(I2C1, I2C_IT_TCI | I2C_IT_RXI, ENABLE);
 192              		.loc 1 40 9 view .LVU37
 193 0064 0122     		movs	r2, #1	@,
 194 0066 4421     		movs	r1, #68	@,
 195 0068 2046     		mov	r0, r4	@, tmp116
 196 006a FFF7FEFF 		bl	I2C_ITConfig		@
 197              	.LVL8:
 198              	@ i2c.c:41: };
  41:i2c.c         **** };
 199              		.loc 1 41 1 is_stmt 0 view .LVU38
 200 006e 0AB0     		add	sp, sp, #40	@,,
 201              	.LCFI2:
 202              		.cfi_def_cfa_offset 8
 203              		@ sp needed	@
 204 0070 10BD     		pop	{r4, pc}	@
 205              	.L3:
 206 0072 00BF     		.align	2
 207              	.L2:
 208 0074 00040048 		.word	1207960576
 209 0078 02030100 		.word	66306
 210 007c 00540040 		.word	1073763328
 211 0080 7A25E000 		.word	14689658
 212              		.cfi_endproc
 213              	.LFE126:
 214              		.size	init_i2c1, .-init_i2c1
 215              		.align	1
 216              		.global	initI2C1DmaTx
 217              		.syntax unified
 218              		.thumb
 219              		.thumb_func
 220              		.fpu softvfp
 221              		.type	initI2C1DmaTx, %function
 222              	initI2C1DmaTx:
 223              	.LFB127:
  42:i2c.c         **** 
  43:i2c.c         **** 
  44:i2c.c         **** void initI2C1DmaTx(){
 224              		.loc 1 44 21 is_stmt 1 view -0
 225              		.cfi_startproc
 226              		@ args = 0, pretend = 0, frame = 0
 227              		@ frame_needed = 0, uses_anonymous_args = 0
 228              		@ link register save eliminated.
  45:i2c.c         **** //DMA1 Channel6 
  46:i2c.c         **** };
 229              		.loc 1 46 1 view .LVU40
ARM GAS  /var/folders/_2/qbh2zpt918qcm2b_6mgyydnm0000gn/T//ccjkKXtC.s 			page 6


 230 0084 7047     		bx	lr	@
 231              		.cfi_endproc
 232              	.LFE127:
 233              		.size	initI2C1DmaTx, .-initI2C1DmaTx
 234              		.align	1
 235              		.global	initI2C1DmaRx
 236              		.syntax unified
 237              		.thumb
 238              		.thumb_func
 239              		.fpu softvfp
 240              		.type	initI2C1DmaRx, %function
 241              	initI2C1DmaRx:
 242              	.LFB128:
  47:i2c.c         **** 
  48:i2c.c         **** void initI2C1DmaRx(){
 243              		.loc 1 48 21 view -0
 244              		.cfi_startproc
 245              		@ args = 0, pretend = 0, frame = 48
 246              		@ frame_needed = 0, uses_anonymous_args = 0
  49:i2c.c         ****   DMA_InitTypeDef i2cdmatx;
 247              		.loc 1 49 3 view .LVU42
  50:i2c.c         ****   DMA_DeInit(DMA1_Channel7);   
 248              		.loc 1 50 3 view .LVU43
 249              	@ i2c.c:48: void initI2C1DmaRx(){
  48:i2c.c         ****   DMA_InitTypeDef i2cdmatx;
 250              		.loc 1 48 21 is_stmt 0 view .LVU44
 251 0086 10B5     		push	{r4, lr}	@
 252              	.LCFI3:
 253              		.cfi_def_cfa_offset 8
 254              		.cfi_offset 4, -8
 255              		.cfi_offset 14, -4
 256              	@ i2c.c:50:   DMA_DeInit(DMA1_Channel7);   
 257              		.loc 1 50 3 view .LVU45
 258 0088 154C     		ldr	r4, .L6	@ tmp111,
 259              	@ i2c.c:48: void initI2C1DmaRx(){
  48:i2c.c         ****   DMA_InitTypeDef i2cdmatx;
 260              		.loc 1 48 21 view .LVU46
 261 008a 8CB0     		sub	sp, sp, #48	@,,
 262              	.LCFI4:
 263              		.cfi_def_cfa_offset 56
 264              	@ i2c.c:50:   DMA_DeInit(DMA1_Channel7);   
 265              		.loc 1 50 3 view .LVU47
 266 008c 2046     		mov	r0, r4	@, tmp111
 267 008e FFF7FEFF 		bl	DMA_DeInit		@
 268              	.LVL9:
  51:i2c.c         ****   i2cdmatx.DMA_DIR = DMA_DIR_PeripheralSRC;
 269              		.loc 1 51 3 is_stmt 1 view .LVU48
 270              	@ i2c.c:53:   i2cdmatx.DMA_MemoryBaseAddr = (uint32_t)&gyroRawData;
  52:i2c.c         ****   i2cdmatx.DMA_M2M = DMA_M2M_Disable;
  53:i2c.c         ****   i2cdmatx.DMA_MemoryBaseAddr = (uint32_t)&gyroRawData;
 271              		.loc 1 53 31 is_stmt 0 view .LVU49
 272 0092 144A     		ldr	r2, .L6+4	@ tmp114,
 273 0094 0292     		str	r2, [sp, #8]	@ tmp114, i2cdmatx.DMA_MemoryBaseAddr
 274              	@ i2c.c:54:   i2cdmatx.DMA_MemoryInc = DMA_MemoryInc_Enable;
  54:i2c.c         ****   i2cdmatx.DMA_MemoryInc = DMA_MemoryInc_Enable;
 275              		.loc 1 54 26 view .LVU50
 276 0096 8022     		movs	r2, #128	@ tmp115,
ARM GAS  /var/folders/_2/qbh2zpt918qcm2b_6mgyydnm0000gn/T//ccjkKXtC.s 			page 7


 277              	@ i2c.c:51:   i2cdmatx.DMA_DIR = DMA_DIR_PeripheralSRC;
  51:i2c.c         ****   i2cdmatx.DMA_DIR = DMA_DIR_PeripheralSRC;
 278              		.loc 1 51 20 view .LVU51
 279 0098 0023     		movs	r3, #0	@ tmp112,
 280              	@ i2c.c:54:   i2cdmatx.DMA_MemoryInc = DMA_MemoryInc_Enable;
 281              		.loc 1 54 26 view .LVU52
 282 009a 0692     		str	r2, [sp, #24]	@ tmp115, i2cdmatx.DMA_MemoryInc
 283              	@ i2c.c:57:   i2cdmatx.DMA_BufferSize = 14;
  55:i2c.c         ****   i2cdmatx.DMA_MemoryDataSize = DMA_MemoryDataSize_Byte;
  56:i2c.c         ****   i2cdmatx.DMA_Mode = DMA_Mode_Normal;
  57:i2c.c         ****   i2cdmatx.DMA_BufferSize = 14;
 284              		.loc 1 57 27 view .LVU53
 285 009c 0E22     		movs	r2, #14	@ tmp119,
 286              	@ i2c.c:56:   i2cdmatx.DMA_Mode = DMA_Mode_Normal;
  56:i2c.c         ****   i2cdmatx.DMA_BufferSize = 14;
 287              		.loc 1 56 21 view .LVU54
 288 009e CDE90833 		strd	r3, r3, [sp, #32]	@ tmp112, tmp112,,
 289              	@ i2c.c:51:   i2cdmatx.DMA_DIR = DMA_DIR_PeripheralSRC;
  51:i2c.c         ****   i2cdmatx.DMA_M2M = DMA_M2M_Disable;
 290              		.loc 1 51 20 view .LVU55
 291 00a2 0393     		str	r3, [sp, #12]	@ tmp112, i2cdmatx.DMA_DIR
  52:i2c.c         ****   i2cdmatx.DMA_MemoryBaseAddr = (uint32_t)&gyroRawData;
 292              		.loc 1 52 3 is_stmt 1 view .LVU56
 293              	@ i2c.c:52:   i2cdmatx.DMA_M2M = DMA_M2M_Disable;
  52:i2c.c         ****   i2cdmatx.DMA_MemoryBaseAddr = (uint32_t)&gyroRawData;
 294              		.loc 1 52 20 is_stmt 0 view .LVU57
 295 00a4 0B93     		str	r3, [sp, #44]	@ tmp112, i2cdmatx.DMA_M2M
  53:i2c.c         ****   i2cdmatx.DMA_MemoryInc = DMA_MemoryInc_Enable;
 296              		.loc 1 53 3 is_stmt 1 view .LVU58
  54:i2c.c         ****   i2cdmatx.DMA_MemoryDataSize = DMA_MemoryDataSize_Byte;
 297              		.loc 1 54 3 view .LVU59
  55:i2c.c         ****   i2cdmatx.DMA_Mode = DMA_Mode_Normal;
 298              		.loc 1 55 3 view .LVU60
 299              		.loc 1 57 3 view .LVU61
 300              	@ i2c.c:57:   i2cdmatx.DMA_BufferSize = 14;
 301              		.loc 1 57 27 is_stmt 0 view .LVU62
 302 00a6 ADF81020 		strh	r2, [sp, #16]	@ movhi	@ tmp119, i2cdmatx.DMA_BufferSize
  58:i2c.c         ****   i2cdmatx.DMA_PeripheralBaseAddr = (uint32_t)&I2C1->RXDR;
 303              		.loc 1 58 3 is_stmt 1 view .LVU63
 304              	@ i2c.c:59:   i2cdmatx.DMA_PeripheralDataSize = DMA_PeripheralDataSize_Byte;
  59:i2c.c         ****   i2cdmatx.DMA_PeripheralDataSize = DMA_PeripheralDataSize_Byte;
 305              		.loc 1 59 35 is_stmt 0 view .LVU64
 306 00aa 0793     		str	r3, [sp, #28]	@ tmp112, i2cdmatx.DMA_PeripheralDataSize
 307              	@ i2c.c:58:   i2cdmatx.DMA_PeripheralBaseAddr = (uint32_t)&I2C1->RXDR;
  58:i2c.c         ****   i2cdmatx.DMA_PeripheralBaseAddr = (uint32_t)&I2C1->RXDR;
 308              		.loc 1 58 35 view .LVU65
 309 00ac 0E4A     		ldr	r2, .L6+8	@ tmp120,
 310              	@ i2c.c:60:   i2cdmatx.DMA_PeripheralInc = DMA_PeripheralInc_Disable;
  60:i2c.c         ****   i2cdmatx.DMA_PeripheralInc = DMA_PeripheralInc_Disable;
 311              		.loc 1 60 30 view .LVU66
 312 00ae 0593     		str	r3, [sp, #20]	@ tmp112, i2cdmatx.DMA_PeripheralInc
 313              	@ i2c.c:62:   DMA_Init(DMA1_Channel7, &i2cdmatx);
  61:i2c.c         ****   i2cdmatx.DMA_Priority = DMA_Priority_High;
  62:i2c.c         ****   DMA_Init(DMA1_Channel7, &i2cdmatx);
 314              		.loc 1 62 3 view .LVU67
 315 00b0 01A9     		add	r1, sp, #4	@,,
 316              	@ i2c.c:61:   i2cdmatx.DMA_Priority = DMA_Priority_High;
ARM GAS  /var/folders/_2/qbh2zpt918qcm2b_6mgyydnm0000gn/T//ccjkKXtC.s 			page 8


  61:i2c.c         ****   i2cdmatx.DMA_Priority = DMA_Priority_High;
 317              		.loc 1 61 25 view .LVU68
 318 00b2 4FF40053 		mov	r3, #8192	@ tmp123,
 319              	@ i2c.c:62:   DMA_Init(DMA1_Channel7, &i2cdmatx);
 320              		.loc 1 62 3 view .LVU69
 321 00b6 2046     		mov	r0, r4	@, tmp111
 322              	@ i2c.c:61:   i2cdmatx.DMA_Priority = DMA_Priority_High;
  61:i2c.c         ****   i2cdmatx.DMA_Priority = DMA_Priority_High;
 323              		.loc 1 61 25 view .LVU70
 324 00b8 0A93     		str	r3, [sp, #40]	@ tmp123, i2cdmatx.DMA_Priority
 325              	@ i2c.c:58:   i2cdmatx.DMA_PeripheralBaseAddr = (uint32_t)&I2C1->RXDR;
  58:i2c.c         ****   i2cdmatx.DMA_PeripheralDataSize = DMA_PeripheralDataSize_Byte;
 326              		.loc 1 58 35 view .LVU71
 327 00ba 0192     		str	r2, [sp, #4]	@ tmp120, i2cdmatx.DMA_PeripheralBaseAddr
  59:i2c.c         ****   i2cdmatx.DMA_PeripheralInc = DMA_PeripheralInc_Disable;
 328              		.loc 1 59 3 is_stmt 1 view .LVU72
  60:i2c.c         ****   i2cdmatx.DMA_Priority = DMA_Priority_High;
 329              		.loc 1 60 3 view .LVU73
  61:i2c.c         ****   DMA_Init(DMA1_Channel7, &i2cdmatx);
 330              		.loc 1 61 3 view .LVU74
 331              		.loc 1 62 3 view .LVU75
 332 00bc FFF7FEFF 		bl	DMA_Init		@
 333              	.LVL10:
  63:i2c.c         ****   DMA_ITConfig(DMA1_Channel7, DMA_IT_TC, ENABLE); //Enable the Transfer Complete interrupt.
 334              		.loc 1 63 3 view .LVU76
 335 00c0 0122     		movs	r2, #1	@,
 336 00c2 2046     		mov	r0, r4	@, tmp111
 337 00c4 0221     		movs	r1, #2	@,
 338 00c6 FFF7FEFF 		bl	DMA_ITConfig		@
 339              	.LVL11:
  64:i2c.c         ****   DMA_Cmd(DMA1_Channel7, ENABLE);
 340              		.loc 1 64 3 view .LVU77
 341 00ca 0121     		movs	r1, #1	@,
 342 00cc 2046     		mov	r0, r4	@, tmp111
 343 00ce FFF7FEFF 		bl	DMA_Cmd		@
 344              	.LVL12:
  65:i2c.c         **** 
  66:i2c.c         ****   NVIC_InitTypeDef dma1Channel7;
 345              		.loc 1 66 3 view .LVU78
  67:i2c.c         ****   dma1Channel7.NVIC_IRQChannel = DMA1_Channel7_IRQn;
 346              		.loc 1 67 3 view .LVU79
  68:i2c.c         ****   dma1Channel7.NVIC_IRQChannelCmd = ENABLE;
 347              		.loc 1 68 3 view .LVU80
  69:i2c.c         ****   dma1Channel7.NVIC_IRQChannelPreemptionPriority = 0x05;
 348              		.loc 1 69 3 view .LVU81
  70:i2c.c         ****   dma1Channel7.NVIC_IRQChannelSubPriority = 0x05;
 349              		.loc 1 70 3 view .LVU82
 350              	@ i2c.c:67:   dma1Channel7.NVIC_IRQChannel = DMA1_Channel7_IRQn;
  67:i2c.c         ****   dma1Channel7.NVIC_IRQChannelCmd = ENABLE;
 351              		.loc 1 67 32 is_stmt 0 view .LVU83
 352 00d2 064B     		ldr	r3, .L6+12	@ tmp128,
 353 00d4 0093     		str	r3, [sp]	@ tmp128, MEM[(void *)&dma1Channel7]
  71:i2c.c         ****   NVIC_Init(&dma1Channel7);	 
 354              		.loc 1 71 3 is_stmt 1 view .LVU84
 355 00d6 6846     		mov	r0, sp	@,
 356 00d8 FFF7FEFF 		bl	NVIC_Init		@
 357              	.LVL13:
ARM GAS  /var/folders/_2/qbh2zpt918qcm2b_6mgyydnm0000gn/T//ccjkKXtC.s 			page 9


 358              	@ i2c.c:72: };
  72:i2c.c         **** };
 359              		.loc 1 72 1 is_stmt 0 view .LVU85
 360 00dc 0CB0     		add	sp, sp, #48	@,,
 361              	.LCFI5:
 362              		.cfi_def_cfa_offset 8
 363              		@ sp needed	@
 364 00de 10BD     		pop	{r4, pc}	@
 365              	.L7:
 366              		.align	2
 367              	.L6:
 368 00e0 80000240 		.word	1073873024
 369 00e4 00000000 		.word	gyroRawData
 370 00e8 24540040 		.word	1073763364
 371 00ec 11050501 		.word	17106193
 372              		.cfi_endproc
 373              	.LFE128:
 374              		.size	initI2C1DmaRx, .-initI2C1DmaRx
 375              		.align	1
 376              		.global	I2C_DmaReadGyroValues
 377              		.syntax unified
 378              		.thumb
 379              		.thumb_func
 380              		.fpu softvfp
 381              		.type	I2C_DmaReadGyroValues, %function
 382              	I2C_DmaReadGyroValues:
 383              	.LVL14:
 384              	.LFB129:
  73:i2c.c         **** 
  74:i2c.c         **** void I2C_DmaReadGyroValues(uint8_t DevAddress, uint8_t RegAddress){
 385              		.loc 1 74 67 is_stmt 1 view -0
 386              		.cfi_startproc
 387              		@ args = 0, pretend = 0, frame = 0
 388              		@ frame_needed = 0, uses_anonymous_args = 0
  75:i2c.c         ****   DMA_SetCurrDataCounter(DMA1_Channel7, 14);
 389              		.loc 1 75 3 view .LVU87
 390              	@ i2c.c:74: void I2C_DmaReadGyroValues(uint8_t DevAddress, uint8_t RegAddress){
  74:i2c.c         ****   DMA_SetCurrDataCounter(DMA1_Channel7, 14);
 391              		.loc 1 74 67 is_stmt 0 view .LVU88
 392 00f0 73B5     		push	{r0, r1, r4, r5, r6, lr}	@
 393              	.LCFI6:
 394              		.cfi_def_cfa_offset 24
 395              		.cfi_offset 4, -16
 396              		.cfi_offset 5, -12
 397              		.cfi_offset 6, -8
 398              		.cfi_offset 14, -4
 399              	@ i2c.c:74: void I2C_DmaReadGyroValues(uint8_t DevAddress, uint8_t RegAddress){
  74:i2c.c         ****   DMA_SetCurrDataCounter(DMA1_Channel7, 14);
 400              		.loc 1 74 67 view .LVU89
 401 00f2 0446     		mov	r4, r0	@ DevAddress, tmp136
 402 00f4 0D46     		mov	r5, r1	@ RegAddress, tmp137
 403              	@ i2c.c:75:   DMA_SetCurrDataCounter(DMA1_Channel7, 14);
 404              		.loc 1 75 3 view .LVU90
 405 00f6 1C48     		ldr	r0, .L17	@,
 406              	.LVL15:
 407              	@ i2c.c:77:   while(I2C_GetFlagStatus(I2C1, I2C_ISR_BUSY) != RESET);
  76:i2c.c         ****   DMA_Cmd(DMA1_Channel7, ENABLE);
ARM GAS  /var/folders/_2/qbh2zpt918qcm2b_6mgyydnm0000gn/T//ccjkKXtC.s 			page 10


  77:i2c.c         ****   while(I2C_GetFlagStatus(I2C1, I2C_ISR_BUSY) != RESET);
 408              		.loc 1 77 9 view .LVU91
 409 00f8 1C4E     		ldr	r6, .L17+4	@ tmp135,
 410              	@ i2c.c:75:   DMA_SetCurrDataCounter(DMA1_Channel7, 14);
  75:i2c.c         ****   DMA_Cmd(DMA1_Channel7, ENABLE);
 411              		.loc 1 75 3 view .LVU92
 412 00fa 0E21     		movs	r1, #14	@,
 413              	.LVL16:
  75:i2c.c         ****   DMA_Cmd(DMA1_Channel7, ENABLE);
 414              		.loc 1 75 3 view .LVU93
 415 00fc FFF7FEFF 		bl	DMA_SetCurrDataCounter		@
 416              	.LVL17:
  76:i2c.c         ****   DMA_Cmd(DMA1_Channel7, ENABLE);
 417              		.loc 1 76 3 is_stmt 1 view .LVU94
 418 0100 1948     		ldr	r0, .L17	@,
 419 0102 0121     		movs	r1, #1	@,
 420 0104 FFF7FEFF 		bl	DMA_Cmd		@
 421              	.LVL18:
 422              		.loc 1 77 3 view .LVU95
 423              	.L9:
 424              		.loc 1 77 56 discriminator 1 view .LVU96
 425              		.loc 1 77 8 discriminator 1 view .LVU97
 426              	@ i2c.c:77:   while(I2C_GetFlagStatus(I2C1, I2C_ISR_BUSY) != RESET);
 427              		.loc 1 77 9 is_stmt 0 discriminator 1 view .LVU98
 428 0108 4FF40041 		mov	r1, #32768	@,
 429 010c 3046     		mov	r0, r6	@, tmp135
 430 010e FFF7FEFF 		bl	I2C_GetFlagStatus		@
 431              	.LVL19:
 432              	@ i2c.c:77:   while(I2C_GetFlagStatus(I2C1, I2C_ISR_BUSY) != RESET);
 433              		.loc 1 77 8 discriminator 1 view .LVU99
 434 0112 0346     		mov	r3, r0	@ tmp119, tmp138
 435 0114 0028     		cmp	r0, #0	@ tmp119
 436 0116 F7D1     		bne	.L9	@
  78:i2c.c         ****   I2C_TransferHandling(I2C1, DevAddress, 1, I2C_SoftEnd_Mode, I2C_Generate_Start_Write);
 437              		.loc 1 78 3 is_stmt 1 view .LVU100
 438 0118 4FF40052 		mov	r2, #8192	@ tmp121,
 439 011c A4B2     		uxth	r4, r4	@ _2, DevAddress
 440 011e 0092     		str	r2, [sp]	@ tmp121,
 441 0120 1248     		ldr	r0, .L17+4	@,
 442              	@ i2c.c:80:   while(I2C_GetFlagStatus(I2C1, I2C_ISR_TXIS) == RESET);
  79:i2c.c         ****   //Wait for the acknowledgement
  80:i2c.c         ****   while(I2C_GetFlagStatus(I2C1, I2C_ISR_TXIS) == RESET);
 443              		.loc 1 80 9 is_stmt 0 view .LVU101
 444 0122 124E     		ldr	r6, .L17+4	@ tmp133,
 445              	@ i2c.c:78:   I2C_TransferHandling(I2C1, DevAddress, 1, I2C_SoftEnd_Mode, I2C_Generate_Start_Write)
  78:i2c.c         ****   I2C_TransferHandling(I2C1, DevAddress, 1, I2C_SoftEnd_Mode, I2C_Generate_Start_Write);
 446              		.loc 1 78 3 view .LVU102
 447 0124 0122     		movs	r2, #1	@,
 448 0126 2146     		mov	r1, r4	@, _2
 449 0128 FFF7FEFF 		bl	I2C_TransferHandling		@
 450              	.LVL20:
 451              		.loc 1 80 3 is_stmt 1 view .LVU103
 452              	.L10:
 453              		.loc 1 80 56 discriminator 1 view .LVU104
 454              		.loc 1 80 8 discriminator 1 view .LVU105
 455              	@ i2c.c:80:   while(I2C_GetFlagStatus(I2C1, I2C_ISR_TXIS) == RESET);
 456              		.loc 1 80 9 is_stmt 0 discriminator 1 view .LVU106
ARM GAS  /var/folders/_2/qbh2zpt918qcm2b_6mgyydnm0000gn/T//ccjkKXtC.s 			page 11


 457 012c 0221     		movs	r1, #2	@,
 458 012e 3046     		mov	r0, r6	@, tmp133
 459 0130 FFF7FEFF 		bl	I2C_GetFlagStatus		@
 460              	.LVL21:
 461              	@ i2c.c:80:   while(I2C_GetFlagStatus(I2C1, I2C_ISR_TXIS) == RESET);
 462              		.loc 1 80 8 discriminator 1 view .LVU107
 463 0134 0028     		cmp	r0, #0	@ tmp139
 464 0136 F9D0     		beq	.L10	@
  81:i2c.c         ****   //Send Registeraddress we want to start reading from
  82:i2c.c         ****   I2C_SendData(I2C1, RegAddress);
 465              		.loc 1 82 3 is_stmt 1 view .LVU108
 466 0138 2946     		mov	r1, r5	@, RegAddress
 467 013a 0C48     		ldr	r0, .L17+4	@,
 468              	@ i2c.c:83:   while(I2C_GetFlagStatus(I2C1, I2C_ISR_TC) == RESET);
  83:i2c.c         ****   while(I2C_GetFlagStatus(I2C1, I2C_ISR_TC) == RESET);
 469              		.loc 1 83 9 is_stmt 0 view .LVU109
 470 013c 0B4D     		ldr	r5, .L17+4	@ tmp131,
 471              	@ i2c.c:82:   I2C_SendData(I2C1, RegAddress);
  82:i2c.c         ****   while(I2C_GetFlagStatus(I2C1, I2C_ISR_TC) == RESET);
 472              		.loc 1 82 3 view .LVU110
 473 013e FFF7FEFF 		bl	I2C_SendData		@
 474              	.LVL22:
 475              		.loc 1 83 3 is_stmt 1 view .LVU111
 476              	.L11:
 477              		.loc 1 83 54 discriminator 1 view .LVU112
 478              		.loc 1 83 8 discriminator 1 view .LVU113
 479              	@ i2c.c:83:   while(I2C_GetFlagStatus(I2C1, I2C_ISR_TC) == RESET);
 480              		.loc 1 83 9 is_stmt 0 discriminator 1 view .LVU114
 481 0142 4021     		movs	r1, #64	@,
 482 0144 2846     		mov	r0, r5	@, tmp131
 483 0146 FFF7FEFF 		bl	I2C_GetFlagStatus		@
 484              	.LVL23:
 485              	@ i2c.c:83:   while(I2C_GetFlagStatus(I2C1, I2C_ISR_TC) == RESET);
 486              		.loc 1 83 8 discriminator 1 view .LVU115
 487 014a 0028     		cmp	r0, #0	@ tmp140
 488 014c F9D0     		beq	.L11	@
  84:i2c.c         ****   //Ask for the 14 Bytes of Data 
  85:i2c.c         ****   I2C_TransferHandling(I2C1, DevAddress, 14, I2C_AutoEnd_Mode, I2C_Generate_Start_Read);
 489              		.loc 1 85 3 is_stmt 1 view .LVU116
 490 014e 4FF41053 		mov	r3, #9216	@ tmp128,
 491 0152 0093     		str	r3, [sp]	@ tmp128,
 492 0154 0548     		ldr	r0, .L17+4	@,
 493 0156 4FF00073 		mov	r3, #33554432	@,
 494 015a 0E22     		movs	r2, #14	@,
 495 015c 2146     		mov	r1, r4	@, _2
 496 015e FFF7FEFF 		bl	I2C_TransferHandling		@
 497              	.LVL24:
 498              	@ i2c.c:87: };
  86:i2c.c         ****   
  87:i2c.c         **** };
 499              		.loc 1 87 1 is_stmt 0 view .LVU117
 500 0162 02B0     		add	sp, sp, #8	@,,
 501              	.LCFI7:
 502              		.cfi_def_cfa_offset 16
 503              		@ sp needed	@
 504 0164 70BD     		pop	{r4, r5, r6, pc}	@
 505              	.L18:
ARM GAS  /var/folders/_2/qbh2zpt918qcm2b_6mgyydnm0000gn/T//ccjkKXtC.s 			page 12


 506 0166 00BF     		.align	2
 507              	.L17:
 508 0168 80000240 		.word	1073873024
 509 016c 00540040 		.word	1073763328
 510              		.cfi_endproc
 511              	.LFE129:
 512              		.size	I2C_DmaReadGyroValues, .-I2C_DmaReadGyroValues
 513              		.align	1
 514              		.global	I2C_writeByte
 515              		.syntax unified
 516              		.thumb
 517              		.thumb_func
 518              		.fpu softvfp
 519              		.type	I2C_writeByte, %function
 520              	I2C_writeByte:
 521              	.LVL25:
 522              	.LFB130:
  88:i2c.c         **** 
  89:i2c.c         **** void I2C_writeByte(I2C_TypeDef* I2Cx, uint8_t address, uint8_t regAddress, uint8_t data){
 523              		.loc 1 89 89 is_stmt 1 view -0
 524              		.cfi_startproc
 525              		@ args = 0, pretend = 0, frame = 0
 526              		@ frame_needed = 0, uses_anonymous_args = 0
 527              		.loc 1 89 89 is_stmt 0 view .LVU119
 528 0170 F7B5     		push	{r0, r1, r2, r4, r5, r6, r7, lr}	@
 529              	.LCFI8:
 530              		.cfi_def_cfa_offset 32
 531              		.cfi_offset 4, -20
 532              		.cfi_offset 5, -16
 533              		.cfi_offset 6, -12
 534              		.cfi_offset 7, -8
 535              		.cfi_offset 14, -4
 536 0172 0446     		mov	r4, r0	@ I2Cx, tmp132
 537 0174 0D46     		mov	r5, r1	@ address, tmp133
 538 0176 1746     		mov	r7, r2	@ regAddress, tmp134
 539 0178 1E46     		mov	r6, r3	@ data, tmp135
  90:i2c.c         **** 	while(I2C_GetFlagStatus(I2Cx, I2C_ISR_BUSY) != RESET); // Check if the i2c bus is bussy
 540              		.loc 1 90 2 is_stmt 1 view .LVU120
 541              	.LVL26:
 542              	.L20:
 543              		.loc 1 90 55 discriminator 1 view .LVU121
 544              		.loc 1 90 7 discriminator 1 view .LVU122
 545              	@ i2c.c:90: 	while(I2C_GetFlagStatus(I2Cx, I2C_ISR_BUSY) != RESET); // Check if the i2c bus is buss
 546              		.loc 1 90 8 is_stmt 0 discriminator 1 view .LVU123
 547 017a 4FF40041 		mov	r1, #32768	@,
 548 017e 2046     		mov	r0, r4	@, I2Cx
 549 0180 FFF7FEFF 		bl	I2C_GetFlagStatus		@
 550              	.LVL27:
 551              	@ i2c.c:90: 	while(I2C_GetFlagStatus(I2Cx, I2C_ISR_BUSY) != RESET); // Check if the i2c bus is buss
 552              		.loc 1 90 7 discriminator 1 view .LVU124
 553 0184 0028     		cmp	r0, #0	@ tmp136
 554 0186 F8D1     		bne	.L20	@
  91:i2c.c         **** 	I2C_TransferHandling(I2Cx, address, 1, I2C_Reload_Mode, I2C_Generate_Start_Write);
 555              		.loc 1 91 2 is_stmt 1 view .LVU125
 556 0188 4FF40053 		mov	r3, #8192	@ tmp121,
 557 018c ADB2     		uxth	r5, r5	@ _2, address
 558 018e 0093     		str	r3, [sp]	@ tmp121,
ARM GAS  /var/folders/_2/qbh2zpt918qcm2b_6mgyydnm0000gn/T//ccjkKXtC.s 			page 13


 559 0190 0122     		movs	r2, #1	@,
 560 0192 4FF08073 		mov	r3, #16777216	@,
 561 0196 2946     		mov	r1, r5	@, _2
 562 0198 2046     		mov	r0, r4	@, I2Cx
 563 019a FFF7FEFF 		bl	I2C_TransferHandling		@
 564              	.LVL28:
  92:i2c.c         **** 	while(I2C_GetFlagStatus(I2Cx, I2C_ISR_TXIS) == RESET);
 565              		.loc 1 92 2 view .LVU126
 566              	.L21:
 567              		.loc 1 92 55 discriminator 1 view .LVU127
 568              		.loc 1 92 7 discriminator 1 view .LVU128
 569              	@ i2c.c:92: 	while(I2C_GetFlagStatus(I2Cx, I2C_ISR_TXIS) == RESET);
 570              		.loc 1 92 8 is_stmt 0 discriminator 1 view .LVU129
 571 019e 0221     		movs	r1, #2	@,
 572 01a0 2046     		mov	r0, r4	@, I2Cx
 573 01a2 FFF7FEFF 		bl	I2C_GetFlagStatus		@
 574              	.LVL29:
 575              	@ i2c.c:92: 	while(I2C_GetFlagStatus(I2Cx, I2C_ISR_TXIS) == RESET);
 576              		.loc 1 92 7 discriminator 1 view .LVU130
 577 01a6 0028     		cmp	r0, #0	@ tmp137
 578 01a8 F9D0     		beq	.L21	@
  93:i2c.c         **** 	//After sending the start condition to the slave address we have waited for the acknowlegedment of
  94:i2c.c         **** 	I2C_SendData(I2Cx, regAddress);
 579              		.loc 1 94 2 is_stmt 1 view .LVU131
 580 01aa 3946     		mov	r1, r7	@, regAddress
 581 01ac 2046     		mov	r0, r4	@, I2Cx
 582 01ae FFF7FEFF 		bl	I2C_SendData		@
 583              	.LVL30:
  95:i2c.c         **** 	//Wait until the TCR flag is set
  96:i2c.c         **** 	while(I2C_GetFlagStatus(I2Cx, I2C_ISR_TCR) == RESET);
 584              		.loc 1 96 2 view .LVU132
 585              	.L22:
 586              		.loc 1 96 54 discriminator 1 view .LVU133
 587              		.loc 1 96 7 discriminator 1 view .LVU134
 588              	@ i2c.c:96: 	while(I2C_GetFlagStatus(I2Cx, I2C_ISR_TCR) == RESET);
 589              		.loc 1 96 8 is_stmt 0 discriminator 1 view .LVU135
 590 01b2 8021     		movs	r1, #128	@,
 591 01b4 2046     		mov	r0, r4	@, I2Cx
 592 01b6 FFF7FEFF 		bl	I2C_GetFlagStatus		@
 593              	.LVL31:
 594              	@ i2c.c:96: 	while(I2C_GetFlagStatus(I2Cx, I2C_ISR_TCR) == RESET);
 595              		.loc 1 96 7 discriminator 1 view .LVU136
 596 01ba 0028     		cmp	r0, #0	@ tmp138
 597 01bc F9D0     		beq	.L22	@
  97:i2c.c         **** 	//We have now send the start condition to the slave, set the direction == Write, and send the rega
  98:i2c.c         **** 	/* Configure slave address, nbytes, reload, end mode and start or stop generation */
  99:i2c.c         **** 	I2C_TransferHandling(I2Cx, address, 1, I2C_AutoEnd_Mode, I2C_No_StartStop);
 598              		.loc 1 99 2 is_stmt 1 view .LVU137
 599 01be 0023     		movs	r3, #0	@ tmp124,
 600 01c0 0093     		str	r3, [sp]	@ tmp124,
 601 01c2 0122     		movs	r2, #1	@,
 602 01c4 4FF00073 		mov	r3, #33554432	@,
 603 01c8 2946     		mov	r1, r5	@, _2
 604 01ca 2046     		mov	r0, r4	@, I2Cx
 605 01cc FFF7FEFF 		bl	I2C_TransferHandling		@
 606              	.LVL32:
 100:i2c.c         **** 	/* Wait until the TXIS flag is set */
ARM GAS  /var/folders/_2/qbh2zpt918qcm2b_6mgyydnm0000gn/T//ccjkKXtC.s 			page 14


 101:i2c.c         **** 	while(I2C_GetFlagStatus(I2Cx, I2C_ISR_TXIS) == RESET);
 607              		.loc 1 101 2 view .LVU138
 608              	.L23:
 609              		.loc 1 101 55 discriminator 1 view .LVU139
 610              		.loc 1 101 7 discriminator 1 view .LVU140
 611              	@ i2c.c:101: 	while(I2C_GetFlagStatus(I2Cx, I2C_ISR_TXIS) == RESET);
 612              		.loc 1 101 8 is_stmt 0 discriminator 1 view .LVU141
 613 01d0 0221     		movs	r1, #2	@,
 614 01d2 2046     		mov	r0, r4	@, I2Cx
 615 01d4 FFF7FEFF 		bl	I2C_GetFlagStatus		@
 616              	.LVL33:
 617              	@ i2c.c:101: 	while(I2C_GetFlagStatus(I2Cx, I2C_ISR_TXIS) == RESET);
 618              		.loc 1 101 7 discriminator 1 view .LVU142
 619 01d8 0028     		cmp	r0, #0	@ tmp139
 620 01da F9D0     		beq	.L23	@
 102:i2c.c         **** 	I2C_SendData(I2Cx, data);
 621              		.loc 1 102 2 is_stmt 1 view .LVU143
 622 01dc 3146     		mov	r1, r6	@, data
 623 01de 2046     		mov	r0, r4	@, I2Cx
 624 01e0 FFF7FEFF 		bl	I2C_SendData		@
 625              	.LVL34:
 103:i2c.c         **** 	while(I2C_GetFlagStatus(I2Cx, I2C_ISR_STOPF) == RESET);	
 626              		.loc 1 103 2 view .LVU144
 627              	.L24:
 628              		.loc 1 103 56 discriminator 1 view .LVU145
 629              		.loc 1 103 7 discriminator 1 view .LVU146
 630              	@ i2c.c:103: 	while(I2C_GetFlagStatus(I2Cx, I2C_ISR_STOPF) == RESET);	
 631              		.loc 1 103 8 is_stmt 0 discriminator 1 view .LVU147
 632 01e4 2021     		movs	r1, #32	@,
 633 01e6 2046     		mov	r0, r4	@, I2Cx
 634 01e8 FFF7FEFF 		bl	I2C_GetFlagStatus		@
 635              	.LVL35:
 636              	@ i2c.c:103: 	while(I2C_GetFlagStatus(I2Cx, I2C_ISR_STOPF) == RESET);	
 637              		.loc 1 103 7 discriminator 1 view .LVU148
 638 01ec 0028     		cmp	r0, #0	@ tmp140
 639 01ee F9D0     		beq	.L24	@
 104:i2c.c         **** 	I2C_ClearFlag(I2Cx, I2C_ICR_STOPCF);
 640              		.loc 1 104 2 is_stmt 1 view .LVU149
 641 01f0 2021     		movs	r1, #32	@,
 642 01f2 2046     		mov	r0, r4	@, I2Cx
 643              	@ i2c.c:105: };
 105:i2c.c         **** };
 644              		.loc 1 105 1 is_stmt 0 view .LVU150
 645 01f4 03B0     		add	sp, sp, #12	@,,
 646              	.LCFI9:
 647              		.cfi_def_cfa_offset 20
 648              		@ sp needed	@
 649 01f6 BDE8F040 		pop	{r4, r5, r6, r7, lr}	@
 650              	.LCFI10:
 651              		.cfi_restore 14
 652              		.cfi_restore 7
 653              		.cfi_restore 6
 654              		.cfi_restore 5
 655              		.cfi_restore 4
 656              		.cfi_def_cfa_offset 0
 657              	.LVL36:
 658              	@ i2c.c:104: 	I2C_ClearFlag(I2Cx, I2C_ICR_STOPCF);
ARM GAS  /var/folders/_2/qbh2zpt918qcm2b_6mgyydnm0000gn/T//ccjkKXtC.s 			page 15


 104:i2c.c         **** 	I2C_ClearFlag(I2Cx, I2C_ICR_STOPCF);
 659              		.loc 1 104 2 view .LVU151
 660 01fa FFF7FEBF 		b	I2C_ClearFlag		@
 661              	.LVL37:
 104:i2c.c         **** 	I2C_ClearFlag(I2Cx, I2C_ICR_STOPCF);
 662              		.loc 1 104 2 view .LVU152
 663              		.cfi_endproc
 664              	.LFE130:
 665              		.size	I2C_writeByte, .-I2C_writeByte
 666              		.align	1
 667              		.global	I2C_readByte
 668              		.syntax unified
 669              		.thumb
 670              		.thumb_func
 671              		.fpu softvfp
 672              		.type	I2C_readByte, %function
 673              	I2C_readByte:
 674              	.LVL38:
 675              	.LFB131:
 106:i2c.c         **** 
 107:i2c.c         **** uint8_t I2C_readByte(I2C_TypeDef* I2Cx, uint8_t address, uint8_t regAddress){
 676              		.loc 1 107 77 is_stmt 1 view -0
 677              		.cfi_startproc
 678              		@ args = 0, pretend = 0, frame = 0
 679              		@ frame_needed = 0, uses_anonymous_args = 0
 680              		.loc 1 107 77 is_stmt 0 view .LVU154
 681 01fe 73B5     		push	{r0, r1, r4, r5, r6, lr}	@
 682              	.LCFI11:
 683              		.cfi_def_cfa_offset 24
 684              		.cfi_offset 4, -16
 685              		.cfi_offset 5, -12
 686              		.cfi_offset 6, -8
 687              		.cfi_offset 14, -4
 688 0200 0446     		mov	r4, r0	@ I2Cx, tmp134
 689 0202 0D46     		mov	r5, r1	@ address, tmp135
 690 0204 1646     		mov	r6, r2	@ regAddress, tmp136
 108:i2c.c         **** 	uint8_t data;
 691              		.loc 1 108 2 is_stmt 1 view .LVU155
 109:i2c.c         **** 	while(I2C_GetFlagStatus(I2Cx, I2C_ISR_BUSY) != RESET);
 692              		.loc 1 109 2 view .LVU156
 693              	.LVL39:
 694              	.L35:
 695              		.loc 1 109 55 discriminator 1 view .LVU157
 696              		.loc 1 109 7 discriminator 1 view .LVU158
 697              	@ i2c.c:109: 	while(I2C_GetFlagStatus(I2Cx, I2C_ISR_BUSY) != RESET);
 698              		.loc 1 109 8 is_stmt 0 discriminator 1 view .LVU159
 699 0206 4FF40041 		mov	r1, #32768	@,
 700 020a 2046     		mov	r0, r4	@, I2Cx
 701 020c FFF7FEFF 		bl	I2C_GetFlagStatus		@
 702              	.LVL40:
 703              	@ i2c.c:109: 	while(I2C_GetFlagStatus(I2Cx, I2C_ISR_BUSY) != RESET);
 704              		.loc 1 109 7 discriminator 1 view .LVU160
 705 0210 0346     		mov	r3, r0	@ tmp120, tmp137
 706 0212 0028     		cmp	r0, #0	@ tmp120
 707 0214 F7D1     		bne	.L35	@
 110:i2c.c         **** 	I2C_TransferHandling(I2Cx, address, 1, I2C_SoftEnd_Mode, I2C_Generate_Start_Write);
 708              		.loc 1 110 2 is_stmt 1 view .LVU161
ARM GAS  /var/folders/_2/qbh2zpt918qcm2b_6mgyydnm0000gn/T//ccjkKXtC.s 			page 16


 709 0216 4FF40052 		mov	r2, #8192	@ tmp121,
 710 021a ADB2     		uxth	r5, r5	@ _2, address
 711 021c 0092     		str	r2, [sp]	@ tmp121,
 712 021e 2946     		mov	r1, r5	@, _2
 713 0220 0122     		movs	r2, #1	@,
 714 0222 2046     		mov	r0, r4	@, I2Cx
 715 0224 FFF7FEFF 		bl	I2C_TransferHandling		@
 716              	.LVL41:
 111:i2c.c         **** 	while(I2C_GetFlagStatus(I2Cx, I2C_ISR_TXIS) == RESET);
 717              		.loc 1 111 2 view .LVU162
 718              	.L36:
 719              		.loc 1 111 55 discriminator 1 view .LVU163
 720              		.loc 1 111 7 discriminator 1 view .LVU164
 721              	@ i2c.c:111: 	while(I2C_GetFlagStatus(I2Cx, I2C_ISR_TXIS) == RESET);
 722              		.loc 1 111 8 is_stmt 0 discriminator 1 view .LVU165
 723 0228 0221     		movs	r1, #2	@,
 724 022a 2046     		mov	r0, r4	@, I2Cx
 725 022c FFF7FEFF 		bl	I2C_GetFlagStatus		@
 726              	.LVL42:
 727              	@ i2c.c:111: 	while(I2C_GetFlagStatus(I2Cx, I2C_ISR_TXIS) == RESET);
 728              		.loc 1 111 7 discriminator 1 view .LVU166
 729 0230 0028     		cmp	r0, #0	@ tmp138
 730 0232 F9D0     		beq	.L36	@
 112:i2c.c         **** 	//Send Registeraddress we want to write to
 113:i2c.c         **** 	I2C_SendData(I2Cx, regAddress);
 731              		.loc 1 113 2 is_stmt 1 view .LVU167
 732 0234 3146     		mov	r1, r6	@, regAddress
 733 0236 2046     		mov	r0, r4	@, I2Cx
 734 0238 FFF7FEFF 		bl	I2C_SendData		@
 735              	.LVL43:
 114:i2c.c         **** 	while(I2C_GetFlagStatus(I2Cx, I2C_ISR_TC) == RESET);
 736              		.loc 1 114 2 view .LVU168
 737              	.L37:
 738              		.loc 1 114 53 discriminator 1 view .LVU169
 739              		.loc 1 114 7 discriminator 1 view .LVU170
 740              	@ i2c.c:114: 	while(I2C_GetFlagStatus(I2Cx, I2C_ISR_TC) == RESET);
 741              		.loc 1 114 8 is_stmt 0 discriminator 1 view .LVU171
 742 023c 4021     		movs	r1, #64	@,
 743 023e 2046     		mov	r0, r4	@, I2Cx
 744 0240 FFF7FEFF 		bl	I2C_GetFlagStatus		@
 745              	.LVL44:
 746              	@ i2c.c:114: 	while(I2C_GetFlagStatus(I2Cx, I2C_ISR_TC) == RESET);
 747              		.loc 1 114 7 discriminator 1 view .LVU172
 748 0244 0028     		cmp	r0, #0	@ tmp139
 749 0246 F9D0     		beq	.L37	@
 115:i2c.c         **** 	I2C_TransferHandling(I2Cx, address, 1, I2C_AutoEnd_Mode, I2C_Generate_Start_Read);
 750              		.loc 1 115 2 is_stmt 1 view .LVU173
 751 0248 4FF41053 		mov	r3, #9216	@ tmp124,
 752 024c 0093     		str	r3, [sp]	@ tmp124,
 753 024e 0122     		movs	r2, #1	@,
 754 0250 4FF00073 		mov	r3, #33554432	@,
 755 0254 2946     		mov	r1, r5	@, _2
 756 0256 2046     		mov	r0, r4	@, I2Cx
 757 0258 FFF7FEFF 		bl	I2C_TransferHandling		@
 758              	.LVL45:
 116:i2c.c         **** 	while(I2C_GetFlagStatus(I2Cx, I2C_ISR_RXNE) == RESET);
 759              		.loc 1 116 2 view .LVU174
ARM GAS  /var/folders/_2/qbh2zpt918qcm2b_6mgyydnm0000gn/T//ccjkKXtC.s 			page 17


 760              	.L38:
 761              		.loc 1 116 55 discriminator 1 view .LVU175
 762              		.loc 1 116 7 discriminator 1 view .LVU176
 763              	@ i2c.c:116: 	while(I2C_GetFlagStatus(I2Cx, I2C_ISR_RXNE) == RESET);
 764              		.loc 1 116 8 is_stmt 0 discriminator 1 view .LVU177
 765 025c 0421     		movs	r1, #4	@,
 766 025e 2046     		mov	r0, r4	@, I2Cx
 767 0260 FFF7FEFF 		bl	I2C_GetFlagStatus		@
 768              	.LVL46:
 769              	@ i2c.c:116: 	while(I2C_GetFlagStatus(I2Cx, I2C_ISR_RXNE) == RESET);
 770              		.loc 1 116 7 discriminator 1 view .LVU178
 771 0264 0028     		cmp	r0, #0	@ tmp140
 772 0266 F9D0     		beq	.L38	@
 117:i2c.c         **** 	data = I2C_ReceiveData(I2Cx);
 773              		.loc 1 117 2 is_stmt 1 view .LVU179
 774              	@ i2c.c:117: 	data = I2C_ReceiveData(I2Cx);
 775              		.loc 1 117 9 is_stmt 0 view .LVU180
 776 0268 2046     		mov	r0, r4	@, I2Cx
 777 026a FFF7FEFF 		bl	I2C_ReceiveData		@
 778              	.LVL47:
 779 026e 0546     		mov	r5, r0	@ <retval>, tmp141
 780              	.LVL48:
 118:i2c.c         **** 	while(I2C_GetFlagStatus(I2Cx, I2C_ISR_STOPF) == RESET);
 781              		.loc 1 118 2 is_stmt 1 view .LVU181
 782              	.L39:
 783              		.loc 1 118 56 discriminator 1 view .LVU182
 784              		.loc 1 118 7 discriminator 1 view .LVU183
 785              	@ i2c.c:118: 	while(I2C_GetFlagStatus(I2Cx, I2C_ISR_STOPF) == RESET);
 786              		.loc 1 118 8 is_stmt 0 discriminator 1 view .LVU184
 787 0270 2021     		movs	r1, #32	@,
 788 0272 2046     		mov	r0, r4	@, I2Cx
 789 0274 FFF7FEFF 		bl	I2C_GetFlagStatus		@
 790              	.LVL49:
 791              	@ i2c.c:118: 	while(I2C_GetFlagStatus(I2Cx, I2C_ISR_STOPF) == RESET);
 792              		.loc 1 118 7 discriminator 1 view .LVU185
 793 0278 0028     		cmp	r0, #0	@ tmp142
 794 027a F9D0     		beq	.L39	@
 119:i2c.c         **** 	I2C_ClearFlag(I2Cx, I2C_ICR_STOPCF);
 795              		.loc 1 119 2 is_stmt 1 view .LVU186
 796 027c 2046     		mov	r0, r4	@, I2Cx
 797 027e 2021     		movs	r1, #32	@,
 798 0280 FFF7FEFF 		bl	I2C_ClearFlag		@
 799              	.LVL50:
 120:i2c.c         **** 	return data;
 800              		.loc 1 120 2 view .LVU187
 801              	@ i2c.c:121: };
 121:i2c.c         **** };
 802              		.loc 1 121 1 is_stmt 0 view .LVU188
 803 0284 2846     		mov	r0, r5	@, <retval>
 804 0286 02B0     		add	sp, sp, #8	@,,
 805              	.LCFI12:
 806              		.cfi_def_cfa_offset 16
 807              		@ sp needed	@
 808 0288 70BD     		pop	{r4, r5, r6, pc}	@
 809              		.loc 1 121 1 view .LVU189
 810              		.cfi_endproc
 811              	.LFE131:
ARM GAS  /var/folders/_2/qbh2zpt918qcm2b_6mgyydnm0000gn/T//ccjkKXtC.s 			page 18


 812              		.size	I2C_readByte, .-I2C_readByte
 813              		.align	1
 814              		.global	I2C_getStatus
 815              		.syntax unified
 816              		.thumb
 817              		.thumb_func
 818              		.fpu softvfp
 819              		.type	I2C_getStatus, %function
 820              	I2C_getStatus:
 821              	.LVL51:
 822              	.LFB132:
 122:i2c.c         **** 
 123:i2c.c         **** uint8_t I2C_getStatus (I2C_TypeDef* I2Cx, uint8_t address){
 823              		.loc 1 123 59 is_stmt 1 view -0
 824              		.cfi_startproc
 825              		@ args = 0, pretend = 0, frame = 0
 826              		@ frame_needed = 0, uses_anonymous_args = 0
 124:i2c.c         **** 	I2C_TransferHandling(I2Cx, address, 0, I2C_AutoEnd_Mode, I2C_No_StartStop);
 827              		.loc 1 124 2 view .LVU191
 828              	@ i2c.c:123: uint8_t I2C_getStatus (I2C_TypeDef* I2Cx, uint8_t address){
 123:i2c.c         **** 	I2C_TransferHandling(I2Cx, address, 0, I2C_AutoEnd_Mode, I2C_No_StartStop);
 829              		.loc 1 123 59 is_stmt 0 view .LVU192
 830 028a 13B5     		push	{r0, r1, r4, lr}	@
 831              	.LCFI13:
 832              		.cfi_def_cfa_offset 16
 833              		.cfi_offset 4, -8
 834              		.cfi_offset 14, -4
 835              	@ i2c.c:124: 	I2C_TransferHandling(I2Cx, address, 0, I2C_AutoEnd_Mode, I2C_No_StartStop);
 836              		.loc 1 124 2 view .LVU193
 837 028c 0022     		movs	r2, #0	@ tmp117,
 838              	@ i2c.c:123: uint8_t I2C_getStatus (I2C_TypeDef* I2Cx, uint8_t address){
 123:i2c.c         **** 	I2C_TransferHandling(I2Cx, address, 0, I2C_AutoEnd_Mode, I2C_No_StartStop);
 839              		.loc 1 123 59 view .LVU194
 840 028e 0446     		mov	r4, r0	@ I2Cx, tmp122
 841              	@ i2c.c:124: 	I2C_TransferHandling(I2Cx, address, 0, I2C_AutoEnd_Mode, I2C_No_StartStop);
 842              		.loc 1 124 2 view .LVU195
 843 0290 0092     		str	r2, [sp]	@ tmp117,
 844 0292 4FF00073 		mov	r3, #33554432	@,
 845 0296 FFF7FEFF 		bl	I2C_TransferHandling		@
 846              	.LVL52:
 125:i2c.c         **** 	I2C_ClearFlag(I2Cx, (I2C_ICR_NACKCF | I2C_ICR_STOPCF));
 847              		.loc 1 125 2 is_stmt 1 view .LVU196
 848 029a 3021     		movs	r1, #48	@,
 849 029c 2046     		mov	r0, r4	@, I2Cx
 850 029e FFF7FEFF 		bl	I2C_ClearFlag		@
 851              	.LVL53:
 126:i2c.c         **** 	I2C_GenerateSTART(I2Cx, ENABLE);
 852              		.loc 1 126 2 view .LVU197
 853 02a2 0121     		movs	r1, #1	@,
 854 02a4 2046     		mov	r0, r4	@, I2Cx
 855 02a6 FFF7FEFF 		bl	I2C_GenerateSTART		@
 856              	.LVL54:
 127:i2c.c         **** 	while(I2C_GetFlagStatus(I2Cx, I2C_ISR_STOPF) == RESET);
 857              		.loc 1 127 2 view .LVU198
 858              	.L50:
 859              		.loc 1 127 56 discriminator 1 view .LVU199
 860              		.loc 1 127 7 discriminator 1 view .LVU200
ARM GAS  /var/folders/_2/qbh2zpt918qcm2b_6mgyydnm0000gn/T//ccjkKXtC.s 			page 19


 861              	@ i2c.c:127: 	while(I2C_GetFlagStatus(I2Cx, I2C_ISR_STOPF) == RESET);
 862              		.loc 1 127 8 is_stmt 0 discriminator 1 view .LVU201
 863 02aa 2021     		movs	r1, #32	@,
 864 02ac 2046     		mov	r0, r4	@, I2Cx
 865 02ae FFF7FEFF 		bl	I2C_GetFlagStatus		@
 866              	.LVL55:
 867              	@ i2c.c:127: 	while(I2C_GetFlagStatus(I2Cx, I2C_ISR_STOPF) == RESET);
 868              		.loc 1 127 7 discriminator 1 view .LVU202
 869 02b2 0028     		cmp	r0, #0	@ tmp124
 870 02b4 F9D0     		beq	.L50	@
 128:i2c.c         **** 	if(I2C_GetFlagStatus(I2Cx, I2C_ISR_NACKF) != RESET){
 871              		.loc 1 128 2 is_stmt 1 view .LVU203
 872              	@ i2c.c:128: 	if(I2C_GetFlagStatus(I2Cx, I2C_ISR_NACKF) != RESET){
 873              		.loc 1 128 5 is_stmt 0 view .LVU204
 874 02b6 1021     		movs	r1, #16	@,
 875 02b8 2046     		mov	r0, r4	@, I2Cx
 876 02ba FFF7FEFF 		bl	I2C_GetFlagStatus		@
 877              	.LVL56:
 878              	@ i2c.c:128: 	if(I2C_GetFlagStatus(I2Cx, I2C_ISR_NACKF) != RESET){
 879              		.loc 1 128 4 view .LVU205
 880 02be 30B1     		cbz	r0, .L51	@ tmp125,
 129:i2c.c         **** 		I2C_ClearFlag(I2Cx, (I2C_ICR_NACKCF | I2C_ICR_STOPCF));
 881              		.loc 1 129 3 is_stmt 1 view .LVU206
 882 02c0 2046     		mov	r0, r4	@, I2Cx
 883 02c2 3021     		movs	r1, #48	@,
 884 02c4 FFF7FEFF 		bl	I2C_ClearFlag		@
 885              	.LVL57:
 130:i2c.c         **** 		return 0;
 886              		.loc 1 130 3 view .LVU207
 887              	@ i2c.c:130: 		return 0;
 888              		.loc 1 130 10 is_stmt 0 view .LVU208
 889 02c8 0020     		movs	r0, #0	@ <retval>,
 890              	.L52:
 131:i2c.c         **** 	} else {
 132:i2c.c         **** 		I2C_ClearFlag(I2Cx, I2C_ICR_STOPCF);
 133:i2c.c         **** 		return 1;
 134:i2c.c         **** 	};
 891              		.loc 1 134 3 is_stmt 1 view .LVU209
 892              	@ i2c.c:136: };
 135:i2c.c         **** 
 136:i2c.c         **** };
 893              		.loc 1 136 1 is_stmt 0 view .LVU210
 894 02ca 02B0     		add	sp, sp, #8	@,,
 895              	.LCFI14:
 896              		.cfi_remember_state
 897              		.cfi_def_cfa_offset 8
 898              		@ sp needed	@
 899 02cc 10BD     		pop	{r4, pc}	@
 900              	.LVL58:
 901              	.L51:
 902              	.LCFI15:
 903              		.cfi_restore_state
 132:i2c.c         **** 		return 1;
 904              		.loc 1 132 3 is_stmt 1 view .LVU211
 905 02ce 2046     		mov	r0, r4	@, I2Cx
 906 02d0 2021     		movs	r1, #32	@,
 907 02d2 FFF7FEFF 		bl	I2C_ClearFlag		@
ARM GAS  /var/folders/_2/qbh2zpt918qcm2b_6mgyydnm0000gn/T//ccjkKXtC.s 			page 20


 908              	.LVL59:
 133:i2c.c         **** 	};
 909              		.loc 1 133 3 view .LVU212
 910              	@ i2c.c:133: 		return 1;
 133:i2c.c         **** 	};
 911              		.loc 1 133 10 is_stmt 0 view .LVU213
 912 02d6 0120     		movs	r0, #1	@ <retval>,
 913 02d8 F7E7     		b	.L52		@
 914              		.cfi_endproc
 915              	.LFE132:
 916              		.size	I2C_getStatus, .-I2C_getStatus
 917              		.align	1
 918              		.global	I2C_readBytes
 919              		.syntax unified
 920              		.thumb
 921              		.thumb_func
 922              		.fpu softvfp
 923              		.type	I2C_readBytes, %function
 924              	I2C_readBytes:
 925              	.LVL60:
 926              	.LFB133:
 137:i2c.c         **** 
 138:i2c.c         **** 
 139:i2c.c         **** void I2C_readBytes(I2C_TypeDef* I2Cx, uint8_t address, uint8_t regAddress, uint8_t nBytes, uint8_t*
 927              		.loc 1 139 113 is_stmt 1 view -0
 928              		.cfi_startproc
 929              		@ args = 4, pretend = 0, frame = 0
 930              		@ frame_needed = 0, uses_anonymous_args = 0
 931              		.loc 1 139 113 is_stmt 0 view .LVU215
 932 02da 2DE9F341 		push	{r0, r1, r4, r5, r6, r7, r8, lr}	@
 933              	.LCFI16:
 934              		.cfi_def_cfa_offset 32
 935              		.cfi_offset 4, -24
 936              		.cfi_offset 5, -20
 937              		.cfi_offset 6, -16
 938              		.cfi_offset 7, -12
 939              		.cfi_offset 8, -8
 940              		.cfi_offset 14, -4
 941 02de 089F     		ldr	r7, [sp, #32]	@ destination, destination
 942 02e0 0446     		mov	r4, r0	@ I2Cx, tmp142
 943 02e2 0E46     		mov	r6, r1	@ address, tmp143
 944 02e4 9046     		mov	r8, r2	@ regAddress, tmp144
 140:i2c.c         **** 	while(I2C_GetFlagStatus(I2Cx, I2C_ISR_BUSY) != RESET);
 945              		.loc 1 140 2 is_stmt 1 view .LVU216
 946              	@ i2c.c:139: void I2C_readBytes(I2C_TypeDef* I2Cx, uint8_t address, uint8_t regAddress, uint8_t nBy
 139:i2c.c         **** 	while(I2C_GetFlagStatus(I2Cx, I2C_ISR_BUSY) != RESET);
 947              		.loc 1 139 113 is_stmt 0 view .LVU217
 948 02e6 1D46     		mov	r5, r3	@ nBytes, tmp145
 949              	.LVL61:
 950              	.L56:
 951              		.loc 1 140 55 is_stmt 1 discriminator 1 view .LVU218
 952              		.loc 1 140 7 discriminator 1 view .LVU219
 953              	@ i2c.c:140: 	while(I2C_GetFlagStatus(I2Cx, I2C_ISR_BUSY) != RESET);
 954              		.loc 1 140 8 is_stmt 0 discriminator 1 view .LVU220
 955 02e8 4FF40041 		mov	r1, #32768	@,
 956 02ec 2046     		mov	r0, r4	@, I2Cx
 957 02ee FFF7FEFF 		bl	I2C_GetFlagStatus		@
ARM GAS  /var/folders/_2/qbh2zpt918qcm2b_6mgyydnm0000gn/T//ccjkKXtC.s 			page 21


 958              	.LVL62:
 959              	@ i2c.c:140: 	while(I2C_GetFlagStatus(I2Cx, I2C_ISR_BUSY) != RESET);
 960              		.loc 1 140 7 discriminator 1 view .LVU221
 961 02f2 0346     		mov	r3, r0	@ tmp125, tmp146
 962 02f4 0028     		cmp	r0, #0	@ tmp125
 963 02f6 F7D1     		bne	.L56	@
 141:i2c.c         **** 	I2C_TransferHandling(I2Cx, address, 1, I2C_SoftEnd_Mode, I2C_Generate_Start_Write);
 964              		.loc 1 141 2 is_stmt 1 view .LVU222
 965 02f8 4FF40052 		mov	r2, #8192	@ tmp126,
 966 02fc B6B2     		uxth	r6, r6	@ _2, address
 967 02fe 0092     		str	r2, [sp]	@ tmp126,
 968 0300 3146     		mov	r1, r6	@, _2
 969 0302 0122     		movs	r2, #1	@,
 970 0304 2046     		mov	r0, r4	@, I2Cx
 971 0306 FFF7FEFF 		bl	I2C_TransferHandling		@
 972              	.LVL63:
 142:i2c.c         **** 	//Wait for the Acknowledgement
 143:i2c.c         **** 	while(I2C_GetFlagStatus(I2Cx, I2C_ISR_TXIS) == RESET);
 973              		.loc 1 143 2 view .LVU223
 974              	.L57:
 975              		.loc 1 143 55 discriminator 1 view .LVU224
 976              		.loc 1 143 7 discriminator 1 view .LVU225
 977              	@ i2c.c:143: 	while(I2C_GetFlagStatus(I2Cx, I2C_ISR_TXIS) == RESET);
 978              		.loc 1 143 8 is_stmt 0 discriminator 1 view .LVU226
 979 030a 0221     		movs	r1, #2	@,
 980 030c 2046     		mov	r0, r4	@, I2Cx
 981 030e FFF7FEFF 		bl	I2C_GetFlagStatus		@
 982              	.LVL64:
 983              	@ i2c.c:143: 	while(I2C_GetFlagStatus(I2Cx, I2C_ISR_TXIS) == RESET);
 984              		.loc 1 143 7 discriminator 1 view .LVU227
 985 0312 0028     		cmp	r0, #0	@ tmp147
 986 0314 F9D0     		beq	.L57	@
 144:i2c.c         **** 	//Send Registeraddress we want to start reading from
 145:i2c.c         **** 	I2C_SendData(I2Cx, regAddress);
 987              		.loc 1 145 2 is_stmt 1 view .LVU228
 988 0316 4146     		mov	r1, r8	@, regAddress
 989 0318 2046     		mov	r0, r4	@, I2Cx
 990 031a FFF7FEFF 		bl	I2C_SendData		@
 991              	.LVL65:
 146:i2c.c         **** 	while(I2C_GetFlagStatus(I2Cx, I2C_ISR_TC) == RESET);
 992              		.loc 1 146 2 view .LVU229
 993              	.L58:
 994              		.loc 1 146 53 discriminator 1 view .LVU230
 995              		.loc 1 146 7 discriminator 1 view .LVU231
 996              	@ i2c.c:146: 	while(I2C_GetFlagStatus(I2Cx, I2C_ISR_TC) == RESET);
 997              		.loc 1 146 8 is_stmt 0 discriminator 1 view .LVU232
 998 031e 4021     		movs	r1, #64	@,
 999 0320 2046     		mov	r0, r4	@, I2Cx
 1000 0322 FFF7FEFF 		bl	I2C_GetFlagStatus		@
 1001              	.LVL66:
 1002              	@ i2c.c:146: 	while(I2C_GetFlagStatus(I2Cx, I2C_ISR_TC) == RESET);
 1003              		.loc 1 146 7 discriminator 1 view .LVU233
 1004 0326 0028     		cmp	r0, #0	@ tmp148
 1005 0328 F9D0     		beq	.L58	@
 147:i2c.c         **** 	I2C_TransferHandling(I2Cx, address, nBytes, I2C_AutoEnd_Mode, I2C_Generate_Start_Read);
 1006              		.loc 1 147 2 is_stmt 1 view .LVU234
 1007 032a 4FF41053 		mov	r3, #9216	@ tmp129,
ARM GAS  /var/folders/_2/qbh2zpt918qcm2b_6mgyydnm0000gn/T//ccjkKXtC.s 			page 22


 1008 032e 0093     		str	r3, [sp]	@ tmp129,
 1009 0330 2A46     		mov	r2, r5	@, nBytes
 1010 0332 4FF00073 		mov	r3, #33554432	@,
 1011 0336 3146     		mov	r1, r6	@, _2
 1012 0338 2046     		mov	r0, r4	@, I2Cx
 1013 033a FFF7FEFF 		bl	I2C_TransferHandling		@
 1014              	.LVL67:
 148:i2c.c         **** 	while(I2C_GetFlagStatus(I2Cx, I2C_ISR_RXNE) == RESET);
 1015              		.loc 1 148 2 view .LVU235
 1016              	.L59:
 1017              		.loc 1 148 55 discriminator 1 view .LVU236
 1018              		.loc 1 148 7 discriminator 1 view .LVU237
 1019              	@ i2c.c:148: 	while(I2C_GetFlagStatus(I2Cx, I2C_ISR_RXNE) == RESET);
 1020              		.loc 1 148 8 is_stmt 0 discriminator 1 view .LVU238
 1021 033e 0421     		movs	r1, #4	@,
 1022 0340 2046     		mov	r0, r4	@, I2Cx
 1023 0342 FFF7FEFF 		bl	I2C_GetFlagStatus		@
 1024              	.LVL68:
 1025              	@ i2c.c:148: 	while(I2C_GetFlagStatus(I2Cx, I2C_ISR_RXNE) == RESET);
 1026              		.loc 1 148 7 discriminator 1 view .LVU239
 1027 0346 0028     		cmp	r0, #0	@ tmp149
 1028 0348 F9D0     		beq	.L59	@
 1029 034a 3D44     		add	r5, r5, r7	@ _39, destination
 1030              	.LVL69:
 1031              	.L60:
 149:i2c.c         **** 	while (nBytes) {
 1032              		.loc 1 149 8 is_stmt 1 view .LVU240
 1033 034c AF42     		cmp	r7, r5	@ destination, _39
 1034 034e 0CD1     		bne	.L61		@,
 1035              	.LVL70:
 1036              	.L62:
 150:i2c.c         ****         	while (I2C_GetFlagStatus(I2Cx, I2C_ISR_RXNE) == RESET);
 151:i2c.c         ****         	*destination++ = I2C_ReceiveData(I2Cx);
 152:i2c.c         ****         	nBytes--;
 153:i2c.c         ****     	};
 154:i2c.c         **** 	while(I2C_GetFlagStatus(I2Cx, I2C_ISR_STOPF) == RESET);
 1037              		.loc 1 154 56 discriminator 1 view .LVU241
 1038              		.loc 1 154 7 discriminator 1 view .LVU242
 1039              	@ i2c.c:154: 	while(I2C_GetFlagStatus(I2Cx, I2C_ISR_STOPF) == RESET);
 1040              		.loc 1 154 8 is_stmt 0 discriminator 1 view .LVU243
 1041 0350 2021     		movs	r1, #32	@,
 1042 0352 2046     		mov	r0, r4	@, I2Cx
 1043 0354 FFF7FEFF 		bl	I2C_GetFlagStatus		@
 1044              	.LVL71:
 1045              	@ i2c.c:154: 	while(I2C_GetFlagStatus(I2Cx, I2C_ISR_STOPF) == RESET);
 1046              		.loc 1 154 7 discriminator 1 view .LVU244
 1047 0358 0028     		cmp	r0, #0	@ tmp152
 1048 035a F9D0     		beq	.L62	@
 155:i2c.c         **** 	I2C_ClearFlag(I2Cx, I2C_ICR_STOPCF);
 1049              		.loc 1 155 2 is_stmt 1 view .LVU245
 1050 035c 2021     		movs	r1, #32	@,
 1051 035e 2046     		mov	r0, r4	@, I2Cx
 1052              	@ i2c.c:156: };
 156:i2c.c         **** };
 1053              		.loc 1 156 1 is_stmt 0 view .LVU246
 1054 0360 02B0     		add	sp, sp, #8	@,,
 1055              	.LCFI17:
ARM GAS  /var/folders/_2/qbh2zpt918qcm2b_6mgyydnm0000gn/T//ccjkKXtC.s 			page 23


 1056              		.cfi_remember_state
 1057              		.cfi_def_cfa_offset 24
 1058              		@ sp needed	@
 1059 0362 BDE8F041 		pop	{r4, r5, r6, r7, r8, lr}	@
 1060              	.LCFI18:
 1061              		.cfi_restore 14
 1062              		.cfi_restore 8
 1063              		.cfi_restore 7
 1064              		.cfi_restore 6
 1065              		.cfi_restore 5
 1066              		.cfi_restore 4
 1067              		.cfi_def_cfa_offset 0
 1068              	.LVL72:
 1069              	@ i2c.c:155: 	I2C_ClearFlag(I2Cx, I2C_ICR_STOPCF);
 155:i2c.c         **** 	I2C_ClearFlag(I2Cx, I2C_ICR_STOPCF);
 1070              		.loc 1 155 2 view .LVU247
 1071 0366 FFF7FEBF 		b	I2C_ClearFlag		@
 1072              	.LVL73:
 1073              	.L61:
 1074              	.LCFI19:
 1075              		.cfi_restore_state
 150:i2c.c         ****         	while (I2C_GetFlagStatus(I2Cx, I2C_ISR_RXNE) == RESET);
 1076              		.loc 1 150 64 is_stmt 1 discriminator 1 view .LVU248
 150:i2c.c         ****         	while (I2C_GetFlagStatus(I2Cx, I2C_ISR_RXNE) == RESET);
 1077              		.loc 1 150 16 discriminator 1 view .LVU249
 1078              	@ i2c.c:150:         	while (I2C_GetFlagStatus(I2Cx, I2C_ISR_RXNE) == RESET);
 150:i2c.c         ****         	while (I2C_GetFlagStatus(I2Cx, I2C_ISR_RXNE) == RESET);
 1079              		.loc 1 150 17 is_stmt 0 discriminator 1 view .LVU250
 1080 036a 0421     		movs	r1, #4	@,
 1081 036c 2046     		mov	r0, r4	@, I2Cx
 1082 036e FFF7FEFF 		bl	I2C_GetFlagStatus		@
 1083              	.LVL74:
 1084              	@ i2c.c:150:         	while (I2C_GetFlagStatus(I2Cx, I2C_ISR_RXNE) == RESET);
 150:i2c.c         ****         	while (I2C_GetFlagStatus(I2Cx, I2C_ISR_RXNE) == RESET);
 1085              		.loc 1 150 16 discriminator 1 view .LVU251
 1086 0372 0028     		cmp	r0, #0	@ tmp150
 1087 0374 F9D0     		beq	.L61	@
 151:i2c.c         ****         	nBytes--;
 1088              		.loc 1 151 10 is_stmt 1 view .LVU252
 1089              	.LVL75:
 1090              	@ i2c.c:151:         	*destination++ = I2C_ReceiveData(I2Cx);
 151:i2c.c         ****         	nBytes--;
 1091              		.loc 1 151 27 is_stmt 0 view .LVU253
 1092 0376 2046     		mov	r0, r4	@, I2Cx
 1093 0378 FFF7FEFF 		bl	I2C_ReceiveData		@
 1094              	.LVL76:
 1095              	@ i2c.c:151:         	*destination++ = I2C_ReceiveData(I2Cx);
 151:i2c.c         ****         	nBytes--;
 1096              		.loc 1 151 25 view .LVU254
 1097 037c 07F8010B 		strb	r0, [r7], #1	@ tmp151, MEM[base: destination_34, offset: 4294967295B]
 1098              	.LVL77:
 152:i2c.c         ****     	};
 1099              		.loc 1 152 10 is_stmt 1 view .LVU255
 152:i2c.c         ****     	};
 1100              		.loc 1 152 10 is_stmt 0 view .LVU256
 1101 0380 E4E7     		b	.L60		@
 1102              		.cfi_endproc
ARM GAS  /var/folders/_2/qbh2zpt918qcm2b_6mgyydnm0000gn/T//ccjkKXtC.s 			page 24


 1103              	.LFE133:
 1104              		.size	I2C_readBytes, .-I2C_readBytes
 1105              		.comm	gyroRawData,14,1
 1106              	.Letext0:
 1107              		.file 2 "/usr/local/Cellar/arm-none-eabi-gcc/9-2019-q4-major/gcc/arm-none-eabi/include/machine/_de
 1108              		.file 3 "/usr/local/Cellar/arm-none-eabi-gcc/9-2019-q4-major/gcc/arm-none-eabi/include/sys/lock.h"
 1109              		.file 4 "/usr/local/Cellar/arm-none-eabi-gcc/9-2019-q4-major/gcc/arm-none-eabi/include/sys/_types.
 1110              		.file 5 "/usr/local/Cellar/arm-none-eabi-gcc/9-2019-q4-major/gcc/lib/gcc/arm-none-eabi/9.2.1/inclu
 1111              		.file 6 "/usr/local/Cellar/arm-none-eabi-gcc/9-2019-q4-major/gcc/arm-none-eabi/include/sys/reent.h
 1112              		.file 7 "/usr/local/Cellar/arm-none-eabi-gcc/9-2019-q4-major/gcc/arm-none-eabi/include/sys/_stdint
 1113              		.file 8 "/usr/local/Cellar/arm-none-eabi-gcc/9-2019-q4-major/gcc/arm-none-eabi/include/stdlib.h"
 1114              		.file 9 "/Users/rdaneel/Binary/Roaming/C-Code/StmProjects/stm32f3x/lib/STM32F30x_DSP_StdPeriph_Lib
 1115              		.file 10 "/Users/rdaneel/Binary/Roaming/C-Code/StmProjects/stm32f3x/lib/STM32F30x_DSP_StdPeriph_Li
 1116              		.file 11 "/Users/rdaneel/Binary/Roaming/C-Code/StmProjects/stm32f3x/lib/STM32F30x_DSP_StdPeriph_Li
 1117              		.file 12 "/Users/rdaneel/Binary/Roaming/C-Code/StmProjects/stm32f3x/lib/STM32F30x_DSP_StdPeriph_Li
 1118              		.file 13 "/Users/rdaneel/Binary/Roaming/C-Code/StmProjects/stm32f3x/lib/STM32F30x_DSP_StdPeriph_Li
 1119              		.file 14 "/Users/rdaneel/Binary/Roaming/C-Code/StmProjects/stm32f3x/lib/STM32F30x_DSP_StdPeriph_Li
 1120              		.file 15 "/Users/rdaneel/Binary/Roaming/C-Code/StmProjects/stm32f3x/lib/STM32F30x_DSP_StdPeriph_Li
 1121              		.file 16 "i2c.h"
 1122              		.file 17 "/Users/rdaneel/Binary/Roaming/C-Code/StmProjects/stm32f3x/lib/STM32F30x_DSP_StdPeriph_Li