ARM GAS  /var/folders/_2/qbh2zpt918qcm2b_6mgyydnm0000gn/T//ccx08FD0.s 			page 1


   1              		.cpu cortex-m4
   2              		.eabi_attribute 20, 1	@ Tag_ABI_FP_denormal
   3              		.eabi_attribute 21, 1	@ Tag_ABI_FP_exceptions
   4              		.eabi_attribute 23, 3	@ Tag_ABI_FP_number_model
   5              		.eabi_attribute 24, 1	@ Tag_ABI_align8_needed
   6              		.eabi_attribute 25, 1	@ Tag_ABI_align8_preserved
   7              		.eabi_attribute 26, 1	@ Tag_ABI_enum_size
   8              		.eabi_attribute 30, 4	@ Tag_ABI_optimization_goals
   9              		.eabi_attribute 34, 1	@ Tag_CPU_unaligned_access
  10              		.eabi_attribute 18, 4	@ Tag_ABI_PCS_wchar_t
  11              		.file	"main.c"
  12              	@ GNU C17 (GNU Tools for Arm Embedded Processors 9-2019-q4-major) version 9.2.1 20191025 (release) 
  13              	@	compiled by GNU C version 4.2.1 Compatible Apple LLVM 9.0.0 (clang-900.0.39.2), GMP version 6.1.0
  14              	
  15              	@ GGC heuristics: --param ggc-min-expand=100 --param ggc-min-heapsize=131072
  16              	@ options passed:  -I .
  17              	@ -I /Users/rdaneel/Binary/Roaming/C-Code/StmProjects/stm32f3x/lib/STM32F30x_DSP_StdPeriph_Lib_V1.2
  18              	@ -I /Users/rdaneel/Binary/Roaming/C-Code/StmProjects/stm32f3x/lib/STM32F30x_DSP_StdPeriph_Lib_V1.2
  19              	@ -I /Users/rdaneel/Binary/Roaming/C-Code/StmProjects/stm32f3x/lib/STM32F30x_DSP_StdPeriph_Lib_V1.2
  20              	@ -imultilib thumb/v7e-m/nofp
  21              	@ -iprefix /usr/local/Cellar/arm-none-eabi-gcc/9-2019-q4-major/gcc/bin/../lib/gcc/arm-none-eabi/9.2
  22              	@ -isysroot /usr/local/Cellar/arm-none-eabi-gcc/9-2019-q4-major/gcc/bin/../arm-none-eabi
  23              	@ -D__USES_INITFINI__ -D STM32F30X_MD -D USE_STDPERIPH_DRIVER
  24              	@ -D HSE_VALUE=8000000 -D RUN_FROM_FLASH=1 main.c -mcpu=cortex-m4 -mthumb
  25              	@ -mfloat-abi=soft -march=armv7e-m -auxbase-strip main.o -g -gdwarf-2 -Os
  26              	@ -Wall -fomit-frame-pointer -fverbose-asm
  27              	@ options enabled:  -faggressive-loop-optimizations -fassume-phsa
  28              	@ -fauto-inc-dec -fbranch-count-reg -fcaller-saves -fcode-hoisting
  29              	@ -fcombine-stack-adjustments -fcommon -fcompare-elim -fcprop-registers
  30              	@ -fcrossjumping -fcse-follow-jumps -fdefer-pop
  31              	@ -fdelete-null-pointer-checks -fdevirtualize -fdevirtualize-speculatively
  32              	@ -fdwarf2-cfi-asm -fearly-inlining -feliminate-unused-debug-types
  33              	@ -fexpensive-optimizations -fforward-propagate -ffp-int-builtin-inexact
  34              	@ -ffunction-cse -fgcse -fgcse-lm -fgnu-runtime -fgnu-unique
  35              	@ -fguess-branch-probability -fhoist-adjacent-loads -fident -fif-conversion
  36              	@ -fif-conversion2 -findirect-inlining -finline -finline-atomics
  37              	@ -finline-functions -finline-functions-called-once
  38              	@ -finline-small-functions -fipa-bit-cp -fipa-cp -fipa-icf
  39              	@ -fipa-icf-functions -fipa-icf-variables -fipa-profile -fipa-pure-const
  40              	@ -fipa-ra -fipa-reference -fipa-reference-addressable -fipa-sra
  41              	@ -fipa-stack-alignment -fipa-vrp -fira-hoist-pressure
  42              	@ -fira-share-save-slots -fira-share-spill-slots
  43              	@ -fisolate-erroneous-paths-dereference -fivopts -fkeep-static-consts
  44              	@ -fleading-underscore -flifetime-dse -flra-remat -flto-odr-type-merging
  45              	@ -fmath-errno -fmerge-constants -fmerge-debug-strings
  46              	@ -fmove-loop-invariants -fomit-frame-pointer -foptimize-sibling-calls
  47              	@ -fpartial-inlining -fpeephole -fpeephole2 -fplt -fprefetch-loop-arrays
  48              	@ -freg-struct-return -freorder-blocks -freorder-functions
  49              	@ -frerun-cse-after-loop -fsched-critical-path-heuristic
  50              	@ -fsched-dep-count-heuristic -fsched-group-heuristic -fsched-interblock
  51              	@ -fsched-last-insn-heuristic -fsched-pressure -fsched-rank-heuristic
  52              	@ -fsched-spec -fsched-spec-insn-heuristic -fsched-stalled-insns-dep
  53              	@ -fschedule-insns2 -fsection-anchors -fsemantic-interposition
  54              	@ -fshow-column -fshrink-wrap-separate -fsigned-zeros
  55              	@ -fsplit-ivs-in-unroller -fsplit-wide-types -fssa-backprop -fssa-phiopt
  56              	@ -fstdarg-opt -fstore-merging -fstrict-aliasing
  57              	@ -fstrict-volatile-bitfields -fsync-libcalls -fthread-jumps
ARM GAS  /var/folders/_2/qbh2zpt918qcm2b_6mgyydnm0000gn/T//ccx08FD0.s 			page 2


  58              	@ -ftoplevel-reorder -ftrapping-math -ftree-bit-ccp -ftree-builtin-call-dce
  59              	@ -ftree-ccp -ftree-ch -ftree-coalesce-vars -ftree-copy-prop -ftree-cselim
  60              	@ -ftree-dce -ftree-dominator-opts -ftree-dse -ftree-forwprop -ftree-fre
  61              	@ -ftree-loop-if-convert -ftree-loop-im -ftree-loop-ivcanon
  62              	@ -ftree-loop-optimize -ftree-parallelize-loops= -ftree-phiprop -ftree-pre
  63              	@ -ftree-pta -ftree-reassoc -ftree-scev-cprop -ftree-sink -ftree-slsr
  64              	@ -ftree-sra -ftree-switch-conversion -ftree-tail-merge -ftree-ter
  65              	@ -ftree-vrp -funit-at-a-time -fvar-tracking -fvar-tracking-assignments
  66              	@ -fverbose-asm -fzero-initialized-in-bss -masm-syntax-unified -mbe32
  67              	@ -mlittle-endian -mpic-data-is-text-relative -msched-prolog -mthumb
  68              	@ -munaligned-access -mvectorize-with-neon-quad
  69              	
  70              		.text
  71              	.Ltext0:
  72              		.cfi_sections	.debug_frame
  73              		.global	__aeabi_i2f
  74              		.global	__aeabi_fmul
  75              		.global	__aeabi_fdiv
  76              		.align	1
  77              		.global	setPidFrequency
  78              		.arch armv7e-m
  79              		.syntax unified
  80              		.thumb
  81              		.thumb_func
  82              		.fpu softvfp
  83              		.type	setPidFrequency, %function
  84              	setPidFrequency:
  85              	.LVL0:
  86              	.LFB129:
  87              		.file 1 "main.c"
   1:main.c        **** #include <stm32f30x_conf.h>
   2:main.c        **** #include <stm32f30x.h>
   3:main.c        **** #include <stdio.h>
   4:main.c        **** #include <stdlib.h>
   5:main.c        **** #include "usart.h"
   6:main.c        **** #include "i2c.h"
   7:main.c        **** #include "MPU6050.h"
   8:main.c        **** #include <math.h>
   9:main.c        **** #include <string.h>
  10:main.c        **** #include "filter.h"
  11:main.c        **** #include "maths.h"
  12:main.c        **** #include "spRacingF3.h"
  13:main.c        **** #include "mainVariables.h" 
  14:main.c        **** #include "stm32f3x_system.h"
  15:main.c        **** #include "buzzer.h"
  16:main.c        **** #include "scheduler.h"
  17:main.c        **** #include <stdbool.h>
  18:main.c        **** 
  19:main.c        **** #define DEBUG
  20:main.c        **** 
  21:main.c        **** int main(void){
  22:main.c        ****   stm32f3x_init();	
  23:main.c        ****   initSystemAndModules();
  24:main.c        ****   I2C_DMACmd(I2C1, I2C_DMAReq_Rx, ENABLE); //Needs to be enabled here. ohterwise it will cause conf
  25:main.c        ****   SET_FLAG(f.DISARMED);
  26:main.c        ****   runFlightControllerTasks();
  27:main.c        ****   return 0;
ARM GAS  /var/folders/_2/qbh2zpt918qcm2b_6mgyydnm0000gn/T//ccx08FD0.s 			page 3


  28:main.c        **** };
  29:main.c        **** 
  30:main.c        **** void runFlightControllerTasks(void){ 
  31:main.c        ****  
  32:main.c        ****   while(true){
  33:main.c        ****     getReceiverInputValues(&rxSetPoint[0]); 
  34:main.c        ****     areRxSetPointsValid();
  35:main.c        ****     if(f.VALID_RX_SIGNALS){ 	
  36:main.c        ****       getFlightModeAndArmDisarmSignal();
  37:main.c        ****       parseArmDisarmSignal(); 
  38:main.c        ****       taskMainPidLoop();
  39:main.c        **** 	
  40:main.c        ****       if(f.ARMED && !f.DISARMED){ 
  41:main.c        ****         calculateEscTimingFlight();
  42:main.c        ****       } else if (f.DISARMED && !f.ARMED) {
  43:main.c        ****         calculateEscTimingGround(); 
  44:main.c        ****       };
  45:main.c        ****      
  46:main.c        ****       taskWriteMotors();
  47:main.c        ****  /**
  48:main.c        ****  * If not valid signals and was not armed already then fc probably is turned on for debug
  49:main.c        ****  */
  50:main.c        ****     } else if(!f.VALID_RX_SIGNALS && !f.RX_SIGNALS_WAS_VALID) { 
  51:main.c        ****       
  52:main.c        ****       calculateEscTimingGround();
  53:main.c        ****       taskWriteMotors();
  54:main.c        ****       taskHandleSerialPortDebug(); 
  55:main.c        ****  
  56:main.c        ****       static uint16_t lastFlashingTime;
  57:main.c        ****       if(millis() - lastFlashingTime > 1000){
  58:main.c        ****         GPIOB->ODR ^= (0x01 << LED_R);
  59:main.c        ****         lastFlashingTime = millis();  
  60:main.c        ****       };  
  61:main.c        ****       subtaskUpdateBuzzer(millis());
  62:main.c        ****     } else if(!f.VALID_RX_SIGNALS && f.RX_SIGNALS_WAS_VALID && f.ARMED){
  63:main.c        ****    /**
  64:main.c        ****     * If the signal was valid, then the signal could be lost if we are in flight. 
  65:main.c        ****     * if we are on ground and the Motors are stoped then we turned of the receiver.
  66:main.c        ****     * Definition of the FAILSAIFE ROUTINE HERE
  67:main.c        ****     */
  68:main.c        ****     };
  69:main.c        **** #ifdef DEBUG
  70:main.c        ****    flushBufferOverUart();
  71:main.c        **** #endif
  72:main.c        ****    checkLoopTimingAndWait(targetLoopTime);
  73:main.c        ****    };
  74:main.c        **** };
  75:main.c        **** 
  76:main.c        **** //------------------------------------------------------------------
  77:main.c        **** //------------------ FUNCTION IMPLEMENTATION -----------------------
  78:main.c        **** //------------------------------------------------------------------
  79:main.c        **** 
  80:main.c        **** static inline void taskMainPidLoop(void){
  81:main.c        ****   uint32_t currentTime;
  82:main.c        ****   taskFetchGyroData(); 
  83:main.c        ****   calculateRcRatesForPitchAndRoll();
  84:main.c        ****   getThrottleSetPointAndCalculateExpo();
ARM GAS  /var/folders/_2/qbh2zpt918qcm2b_6mgyydnm0000gn/T//ccx08FD0.s 			page 4


  85:main.c        ****   get_tpa_factor();  
  86:main.c        ****   processGyroRawData();
  87:main.c        ****   currentTime = micros(); 
  88:main.c        ****   filterGyro(&Gyro[0], &Gyro_f, currentTime);
  89:main.c        ****   filterAccel(&Accel[0], &Acc_f);
  90:main.c        ****   executeNextSubTask(currentTime);
  91:main.c        ****   pid_calculation();
  92:main.c        **** };
  93:main.c        **** 
  94:main.c        **** void setPidFrequency(uint16_t targetPidLoopTime)
  95:main.c        **** {
  88              		.loc 1 95 1 view -0
  89              		.cfi_startproc
  90              		@ args = 0, pretend = 0, frame = 0
  91              		@ frame_needed = 0, uses_anonymous_args = 0
  96:main.c        ****   float dT = targetPidLoopTime * 1e-6f;
  92              		.loc 1 96 3 view .LVU1
  97:main.c        ****   pidFrequency = 1.0f / dT;
  93              		.loc 1 97 3 view .LVU2
  94              	@ main.c:95: {
  95:main.c        ****   float dT = targetPidLoopTime * 1e-6f;
  95              		.loc 1 95 1 is_stmt 0 view .LVU3
  96 0000 08B5     		push	{r3, lr}	@
  97              	.LCFI0:
  98              		.cfi_def_cfa_offset 8
  99              		.cfi_offset 3, -8
 100              		.cfi_offset 14, -4
 101              	@ main.c:96:   float dT = targetPidLoopTime * 1e-6f;
  96:main.c        ****   float dT = targetPidLoopTime * 1e-6f;
 102              		.loc 1 96 32 view .LVU4
 103 0002 FFF7FEFF 		bl	__aeabi_i2f		@
 104              	.LVL1:
 105              	@ main.c:96:   float dT = targetPidLoopTime * 1e-6f;
  96:main.c        ****   float dT = targetPidLoopTime * 1e-6f;
 106              		.loc 1 96 9 view .LVU5
 107 0006 0549     		ldr	r1, .L2	@,
 108 0008 FFF7FEFF 		bl	__aeabi_fmul		@
 109              	.LVL2:
 110 000c 0146     		mov	r1, r0	@ tmp119,
 111              	@ main.c:97:   pidFrequency = 1.0f / dT;
 112              		.loc 1 97 23 view .LVU6
 113 000e 4FF07E50 		mov	r0, #1065353216	@,
 114 0012 FFF7FEFF 		bl	__aeabi_fdiv		@
 115              	.LVL3:
 116              	@ main.c:97:   pidFrequency = 1.0f / dT;
 117              		.loc 1 97 16 view .LVU7
 118 0016 024B     		ldr	r3, .L2+4	@ tmp115,
 119 0018 1860     		str	r0, [r3]	@ float	@ tmp120, pidFrequency
 120              	@ main.c:98: };
  98:main.c        **** };
 121              		.loc 1 98 1 view .LVU8
 122 001a 08BD     		pop	{r3, pc}	@
 123              	.L3:
 124              		.align	2
 125              	.L2:
 126 001c BD378635 		.word	897988541
 127 0020 00000000 		.word	.LANCHOR0
ARM GAS  /var/folders/_2/qbh2zpt918qcm2b_6mgyydnm0000gn/T//ccx08FD0.s 			page 5


 128              		.cfi_endproc
 129              	.LFE129:
 130              		.size	setPidFrequency, .-setPidFrequency
 131              		.global	__aeabi_f2d
 132              		.global	__aeabi_ddiv
 133              		.global	__aeabi_dsub
 134              		.global	__aeabi_dcmplt
 135              		.global	__aeabi_fcmplt
 136              		.global	__aeabi_fcmpgt
 137              		.global	__aeabi_d2f
 138              		.align	1
 139              		.global	applyItermRelax
 140              		.syntax unified
 141              		.thumb
 142              		.thumb_func
 143              		.fpu softvfp
 144              		.type	applyItermRelax, %function
 145              	applyItermRelax:
 146              	.LVL4:
 147              	.LFB131:
  99:main.c        **** 
 100:main.c        **** static inline void pid_calculation(void){
 101:main.c        ****   static float gyroDtermPrevious[3];    
 102:main.c        ****   static float gyroDterm[3];
 103:main.c        ****   static float itermError;
 104:main.c        ****         
 105:main.c        ****   for(int axis = ROLL; axis <= YAW; ++axis){
 106:main.c        ****     PID_ERR.temp = pidSetpoint[axis] - Gyro_f.input[axis];
 107:main.c        ****         
 108:main.c        ****     if((f.ANGLE_MODE) && (axis != YAW)){
 109:main.c        ****       pidSetpoint[axis] = constrain_float(pidSetpoint[axis], MIN_ANGLE, MAX_ANGLE); //Setpoint: 500
 110:main.c        ****       PID_ERR.temp = ((pidSetpoint[axis] - angle[axis] ) * gain_level) - Gyro_f.input[axis];
 111:main.c        ****     };
 112:main.c        ****     
 113:main.c        ****     itermError = PID_ERR.temp;
 114:main.c        ****     applyItermRelax(axis, PID_ERR.I[axis], &itermError, pidSetpoint[axis]);
 115:main.c        **** 
 116:main.c        ****     PID_ERR.I[axis] += (pidGain[axis].I * itermError);
 117:main.c        ****     if(axis == YAW){
 118:main.c        ****       if(pidSetpoint[axis] >= 120 || pidSetpoint[axis] <= -120){
 119:main.c        ****         pidGain[axis].I = 0.0f;
 120:main.c        ****       };
 121:main.c        ****     }; 
 122:main.c        ****  
 123:main.c        ****     gyroDterm[axis] = dtermNotchFilterApply((filter_t*) &dtermNotch[axis], Gyro_f.input[axis]);
 124:main.c        ****     gyroDterm[axis] = dtermLowpassFilterApply((filter_t*) &dtermLowpass[axis], gyroDterm[axis]);
 125:main.c        ****     gyroDterm[axis] = dtermLowpassFilter2Apply((filter_t*) &dtermPT1[axis], gyroDterm[axis]);  
 126:main.c        ****       
 127:main.c        ****     PID_ERR.d_now[axis] = -(gyroDterm[axis] - gyroDtermPrevious[axis])  * pidFrequency; 
 128:main.c        ****     gyroDtermPrevious[axis] = gyroDterm[axis];
 129:main.c        ****     PID_ERR.D[axis] = pidGain[axis].D * throttlePIDAttenuation * PID_ERR.d_now[axis];
 130:main.c        ****     PID_ERR.P[axis] = pidGain[axis].P * PID_ERR.temp * throttlePIDAttenuation;
 131:main.c        ****    
 132:main.c        ****     pidOutput[axis] = PID_ERR.P[axis] + PID_ERR.I[axis] + PID_ERR.D[axis];
 133:main.c        ****     pidOutput[axis] = rintf(constrain_float(pidOutput[axis], (pidGain[axis].max * -1.0f), pidGain[a
 134:main.c        ****   };
 135:main.c        **** };
ARM GAS  /var/folders/_2/qbh2zpt918qcm2b_6mgyydnm0000gn/T//ccx08FD0.s 			page 6


 136:main.c        **** 
 137:main.c        **** void applyItermRelax(int axis, float previousIterm, float* itermError, float currentSetPoint)
 138:main.c        **** {
 148              		.loc 1 138 1 is_stmt 1 view -0
 149              		.cfi_startproc
 150              		@ args = 0, pretend = 0, frame = 0
 151              		@ frame_needed = 0, uses_anonymous_args = 0
 139:main.c        ****   if(axis < YAW){
 152              		.loc 1 139 3 view .LVU10
 153              	@ main.c:139:   if(axis < YAW){
 154              		.loc 1 139 5 is_stmt 0 view .LVU11
 155 0024 0128     		cmp	r0, #1	@ tmp139,
 156              	@ main.c:138: {
 138:main.c        ****   if(axis < YAW){
 157              		.loc 1 138 1 view .LVU12
 158 0026 2DE9F041 		push	{r4, r5, r6, r7, r8, lr}	@
 159              	.LCFI1:
 160              		.cfi_def_cfa_offset 24
 161              		.cfi_offset 4, -24
 162              		.cfi_offset 5, -20
 163              		.cfi_offset 6, -16
 164              		.cfi_offset 7, -12
 165              		.cfi_offset 8, -8
 166              		.cfi_offset 14, -4
 167              	@ main.c:138: {
 138:main.c        ****   if(axis < YAW){
 168              		.loc 1 138 1 view .LVU13
 169 002a 0D46     		mov	r5, r1	@ previousIterm, tmp140
 170 002c 1446     		mov	r4, r2	@ itermError, tmp141
 171              	@ main.c:139:   if(axis < YAW){
 172              		.loc 1 139 5 view .LVU14
 173 002e 34DC     		bgt	.L4		@,
 174              	.LVL5:
 175              	.LBB46:
 176              	.LBI46:
 137:main.c        **** {
 177              		.loc 1 137 6 is_stmt 1 view .LVU15
 178              	.LBB47:
 140:main.c        ****     const float itermRelaxFactor = MAX(0.0f, 1.0f - fabs(currentSetPoint) / ITERM_RELAX_SETPOINT_TH
 179              		.loc 1 140 5 view .LVU16
 180              	.LBB48:
 181              		.loc 1 140 36 view .LVU17
 182              		.loc 1 140 36 view .LVU18
 183 0030 23F00040 		bic	r0, r3, #-2147483648	@ tmp121, currentSetPoint,
 184              	.LVL6:
 185              		.loc 1 140 36 is_stmt 0 view .LVU19
 186 0034 FFF7FEFF 		bl	__aeabi_f2d		@
 187              	.LVL7:
 188              		.loc 1 140 36 view .LVU20
 189 0038 194B     		ldr	r3, .L14	@,
 190 003a 0022     		movs	r2, #0	@,
 191 003c FFF7FEFF 		bl	__aeabi_ddiv		@
 192              	.LVL8:
 193 0040 0246     		mov	r2, r0	@ tmp143,
 194 0042 0B46     		mov	r3, r1	@,
 195 0044 0020     		movs	r0, #0	@,
 196 0046 1749     		ldr	r1, .L14+4	@,
ARM GAS  /var/folders/_2/qbh2zpt918qcm2b_6mgyydnm0000gn/T//ccx08FD0.s 			page 7


 197 0048 FFF7FEFF 		bl	__aeabi_dsub		@
 198              	.LVL9:
 199 004c 0022     		movs	r2, #0	@,
 200 004e 0023     		movs	r3, #0	@,
 201 0050 0646     		mov	r6, r0	@ tmp144,
 202 0052 0F46     		mov	r7, r1	@,
 203              	.LVL10:
 204              		.loc 1 140 36 is_stmt 1 view .LVU21
 205 0054 FFF7FEFF 		bl	__aeabi_dcmplt		@
 206              	.LVL11:
 207 0058 08B1     		cbz	r0, .L6	@ tmp145,
 208 005a 0026     		movs	r6, #0	@ _b,
 209              	.LVL12:
 210              		.loc 1 140 36 is_stmt 0 view .LVU22
 211 005c 0027     		movs	r7, #0	@ _b,
 212              	.L6:
 213              	.LVL13:
 214              		.loc 1 140 36 view .LVU23
 215              	.LBE48:
 141:main.c        ****     const bool isIDecreasing = ((previousIterm < 0) && (*itermError > 0)) || ((previousIterm > 0) &
 216              		.loc 1 141 5 is_stmt 1 view .LVU24
 217              	@ main.c:141:     const bool isIDecreasing = ((previousIterm < 0) && (*itermError > 0)) || ((previo
 218              		.loc 1 141 75 is_stmt 0 view .LVU25
 219 005e 0021     		movs	r1, #0	@,
 220 0060 2846     		mov	r0, r5	@, previousIterm
 221 0062 D4F80080 		ldr	r8, [r4]	@ float	@ pretmp_17, *itermError_7(D)
 222 0066 FFF7FEFF 		bl	__aeabi_fcmplt		@
 223              	.LVL14:
 224 006a 20B1     		cbz	r0, .L7	@ tmp146,
 225              	@ main.c:141:     const bool isIDecreasing = ((previousIterm < 0) && (*itermError > 0)) || ((previo
 226              		.loc 1 141 53 view .LVU26
 227 006c 0021     		movs	r1, #0	@,
 228 006e 4046     		mov	r0, r8	@, pretmp_17
 229 0070 FFF7FEFF 		bl	__aeabi_fcmpgt		@
 230              	.LVL15:
 231 0074 88B9     		cbnz	r0, .L4	@ tmp147,
 232              	.L7:
 233              	@ main.c:141:     const bool isIDecreasing = ((previousIterm < 0) && (*itermError > 0)) || ((previo
 234              		.loc 1 141 75 view .LVU27
 235 0076 0021     		movs	r1, #0	@,
 236 0078 2846     		mov	r0, r5	@, previousIterm
 237 007a FFF7FEFF 		bl	__aeabi_fcmpgt		@
 238              	.LVL16:
 239 007e 20B1     		cbz	r0, .L9	@ tmp148,
 240              	@ main.c:141:     const bool isIDecreasing = ((previousIterm < 0) && (*itermError > 0)) || ((previo
 241              		.loc 1 141 99 view .LVU28
 242 0080 0021     		movs	r1, #0	@,
 243 0082 4046     		mov	r0, r8	@, pretmp_17
 244 0084 FFF7FEFF 		bl	__aeabi_fcmplt		@
 245              	.LVL17:
 246 0088 38B9     		cbnz	r0, .L4	@ tmp149,
 247              	.L9:
 248              	.LVL18:
 142:main.c        ****     if(isIDecreasing){
 249              		.loc 1 142 5 is_stmt 1 view .LVU29
 143:main.c        ****     } else{
 144:main.c        ****       *itermError *=itermRelaxFactor;
ARM GAS  /var/folders/_2/qbh2zpt918qcm2b_6mgyydnm0000gn/T//ccx08FD0.s 			page 8


 250              		.loc 1 144 7 view .LVU30
 251              	@ main.c:140:     const float itermRelaxFactor = MAX(0.0f, 1.0f - fabs(currentSetPoint) / ITERM_REL
 140:main.c        ****     const bool isIDecreasing = ((previousIterm < 0) && (*itermError > 0)) || ((previousIterm > 0) &
 252              		.loc 1 140 17 is_stmt 0 view .LVU31
 253 008a 3946     		mov	r1, r7	@, _b
 254 008c 3046     		mov	r0, r6	@, _b
 255 008e FFF7FEFF 		bl	__aeabi_d2f		@
 256              	.LVL19:
 257              	@ main.c:144:       *itermError *=itermRelaxFactor;
 258              		.loc 1 144 19 view .LVU32
 259 0092 4146     		mov	r1, r8	@, pretmp_17
 260 0094 FFF7FEFF 		bl	__aeabi_fmul		@
 261              	.LVL20:
 262 0098 2060     		str	r0, [r4]	@ float	@ tmp150, *itermError_7(D)
 263              	.LVL21:
 264              		.loc 1 144 19 view .LVU33
 265              	.LBE47:
 266              	.LBE46:
 267              	.LBB49:
 145:main.c        ****     };
 268              		.loc 1 145 6 is_stmt 1 view .LVU34
 269              	.LBE49:
 146:main.c        ****   };
 270              		.loc 1 146 4 view .LVU35
 271              	.L4:
 272              	@ main.c:147: };
 147:main.c        **** };
 273              		.loc 1 147 1 is_stmt 0 view .LVU36
 274 009a BDE8F081 		pop	{r4, r5, r6, r7, r8, pc}	@
 275              	.LVL22:
 276              	.L15:
 277              		.loc 1 147 1 view .LVU37
 278 009e 00BF     		.align	2
 279              	.L14:
 280 00a0 00004440 		.word	1078198272
 281 00a4 0000F03F 		.word	1072693248
 282              		.cfi_endproc
 283              	.LFE131:
 284              		.size	applyItermRelax, .-applyItermRelax
 285              		.align	1
 286              		.global	calculateRcRatesForPitchAndRoll
 287              		.syntax unified
 288              		.thumb
 289              		.thumb_func
 290              		.fpu softvfp
 291              		.type	calculateRcRatesForPitchAndRoll, %function
 292              	calculateRcRatesForPitchAndRoll:
 293              	.LFB132:
 148:main.c        **** 
 149:main.c        **** void calculateRcRatesForPitchAndRoll(void){ //deg/sec
 294              		.loc 1 149 43 is_stmt 1 view -0
 295              		.cfi_startproc
 296              		@ args = 0, pretend = 0, frame = 8
 297              		@ frame_needed = 0, uses_anonymous_args = 0
 150:main.c        ****   int16_t temp_rc[3],temp_rc2[3];
 298              		.loc 1 150 3 view .LVU39
 151:main.c        ****   int16_t rcCommand[3]; //Array to saw the RC VALUES [1000;2000] 
ARM GAS  /var/folders/_2/qbh2zpt918qcm2b_6mgyydnm0000gn/T//ccx08FD0.s 			page 9


 299              		.loc 1 151 3 view .LVU40
 152:main.c        **** 
 153:main.c        ****    for(uint8_t axis=0;axis<3;++axis){
 300              		.loc 1 153 4 view .LVU41
 301              	.LBB50:
 302              		.loc 1 153 8 view .LVU42
 303              	.LVL23:
 304              		.loc 1 153 23 view .LVU43
 305              	.LBE50:
 306              	@ main.c:149: void calculateRcRatesForPitchAndRoll(void){ //deg/sec
 149:main.c        ****   int16_t temp_rc[3],temp_rc2[3];
 307              		.loc 1 149 43 is_stmt 0 view .LVU44
 308 00a8 2DE9F74F 		push	{r0, r1, r2, r4, r5, r6, r7, r8, r9, r10, fp, lr}	@
 309              	.LCFI2:
 310              		.cfi_def_cfa_offset 48
 311              		.cfi_offset 4, -36
 312              		.cfi_offset 5, -32
 313              		.cfi_offset 6, -28
 314              		.cfi_offset 7, -24
 315              		.cfi_offset 8, -20
 316              		.cfi_offset 9, -16
 317              		.cfi_offset 10, -12
 318              		.cfi_offset 11, -8
 319              		.cfi_offset 14, -4
 320 00ac 304C     		ldr	r4, .L27	@ ivtmp.246,
 321 00ae DFF8CC80 		ldr	r8, .L27+12	@ tmp180,
 322 00b2 304D     		ldr	r5, .L27+4	@ tmp222,
 323 00b4 304E     		ldr	r6, .L27+8	@ tmp226,
 324 00b6 EB46     		mov	fp, sp	@ ivtmp.243,
 325              	@ main.c:149: void calculateRcRatesForPitchAndRoll(void){ //deg/sec
 149:main.c        ****   int16_t temp_rc[3],temp_rc2[3];
 326              		.loc 1 149 43 view .LVU45
 327 00b8 4FF0000A 		mov	r10, #0	@ ivtmp.235,
 328              	.LBB53:
 329              	@ main.c:155:     if (rxSetPoint[axis] >= (1500 + DEADBAND_RCSETPOINT)){
 154:main.c        ****     temp_rc[axis] = 0;
 155:main.c        ****     if (rxSetPoint[axis] >= (1500 + DEADBAND_RCSETPOINT)){
 330              		.loc 1 155 8 view .LVU46
 331 00bc 40F2E557 		movw	r7, #1509	@ tmp168,
 332              	@ main.c:157:     } else if (rxSetPoint[axis] <= (1500 - DEADBAND_RCSETPOINT)){
 156:main.c        ****        temp_rc[axis] = rxSetPoint[axis] - 1500;
 157:main.c        ****     } else if (rxSetPoint[axis] <= (1500 - DEADBAND_RCSETPOINT)){
 333              		.loc 1 157 15 view .LVU47
 334 00c0 40F2D259 		movw	r9, #1490	@ tmp225,
 335              	.LVL24:
 336              	.L23:
 154:main.c        ****     temp_rc[axis] = 0;
 337              		.loc 1 154 5 is_stmt 1 view .LVU48
 338              	@ main.c:154:     temp_rc[axis] = 0;
 154:main.c        ****     temp_rc[axis] = 0;
 339              		.loc 1 154 19 is_stmt 0 view .LVU49
 340 00c4 4FF00003 		mov	r3, #0	@ movhi	@ tmp230,
 341 00c8 2BF8023B 		strh	r3, [fp], #2	@ movhi	@ tmp230, MEM[base: _48, offset: 0B]
 155:main.c        ****        temp_rc[axis] = rxSetPoint[axis] - 1500;
 342              		.loc 1 155 5 is_stmt 1 view .LVU50
 343              	@ main.c:155:     if (rxSetPoint[axis] >= (1500 + DEADBAND_RCSETPOINT)){
 155:main.c        ****        temp_rc[axis] = rxSetPoint[axis] - 1500;
ARM GAS  /var/folders/_2/qbh2zpt918qcm2b_6mgyydnm0000gn/T//ccx08FD0.s 			page 10


 344              		.loc 1 155 19 is_stmt 0 view .LVU51
 345 00cc 54F8043B 		ldr	r3, [r4], #4	@ _2, MEM[base: _73, offset: 0B]
 346              	@ main.c:155:     if (rxSetPoint[axis] >= (1500 + DEADBAND_RCSETPOINT)){
 155:main.c        ****        temp_rc[axis] = rxSetPoint[axis] - 1500;
 347              		.loc 1 155 8 view .LVU52
 348 00d0 BB42     		cmp	r3, r7	@ _2, tmp168
 349 00d2 04DD     		ble	.L17		@,
 350              	.L25:
 158:main.c        ****        temp_rc[axis] = rxSetPoint[axis] - 1500;
 351              		.loc 1 158 8 is_stmt 1 view .LVU53
 352              	@ main.c:158:        temp_rc[axis] = rxSetPoint[axis] - 1500;
 353              		.loc 1 158 41 is_stmt 0 view .LVU54
 354 00d4 A3F2DC53 		subw	r3, r3, #1500	@ tmp174, _2,
 355              	@ main.c:158:        temp_rc[axis] = rxSetPoint[axis] - 1500;
 356              		.loc 1 158 22 view .LVU55
 357 00d8 2BF8023C 		strh	r3, [fp, #-2]	@ movhi	@ tmp174,
 358 00dc 01E0     		b	.L18		@
 359              	.L17:
 157:main.c        ****        temp_rc[axis] = rxSetPoint[axis] - 1500;
 360              		.loc 1 157 12 is_stmt 1 view .LVU56
 361              	@ main.c:157:     } else if (rxSetPoint[axis] <= (1500 - DEADBAND_RCSETPOINT)){
 157:main.c        ****        temp_rc[axis] = rxSetPoint[axis] - 1500;
 362              		.loc 1 157 15 is_stmt 0 view .LVU57
 363 00de 4B45     		cmp	r3, r9	@ _2, tmp225
 364 00e0 F8DD     		ble	.L25		@,
 365              	.L18:
 159:main.c        ****     };
 366              		.loc 1 159 6 is_stmt 1 view .LVU58
 160:main.c        ****     temp_rc[axis] = constrain_int(temp_rc[axis],-500,500);       
 367              		.loc 1 160 5 view .LVU59
 368              	@ main.c:160:     temp_rc[axis] = constrain_int(temp_rc[axis],-500,500);       
 369              		.loc 1 160 21 is_stmt 0 view .LVU60
 370 00e2 3BF9021C 		ldrsh	r1, [fp, #-2]	@ _9, MEM[base: _72, offset: 4294967294B]
 371              	.LVL25:
 372              	.LBB51:
 373              	.LBI51:
 161:main.c        ****                 
 162:main.c        ****     if(axis!=2){ //If axis is 0 Roll or 1 Pitch
 163:main.c        ****        if (temp_rc[axis] < 0){
 164:main.c        ****  	 temp_rc[axis]= temp_rc[axis] * -1;
 165:main.c        **** 	 temp_rc2[axis] = temp_rc[axis] >> 7; //--> this will result in a range 0 to 3
 166:main.c        ****          rcCommand[axis] = lookupRollPitch[temp_rc2[axis]] + ((temp_rc[axis] -(temp_rc2[axis] << 7)
 167:main.c        ****          rcCommand[axis] = rcCommand[axis]* -1;
 168:main.c        ****        } else {
 169:main.c        **** 	 temp_rc2[axis] = temp_rc[axis] >> 7; //--> this will result in a range 0 to 3
 170:main.c        **** 	 rcCommand[axis] = lookupRollPitch[temp_rc2[axis]] + ((temp_rc[axis] -(temp_rc2[axis] << 7)) * (lo
 171:main.c        ****        };
 172:main.c        ****      pidSetpoint[axis] = rcCommand[axis]; 
 173:main.c        ****    } else { //YAE AXIS is direct ouput
 174:main.c        ****      rcCommand[axis] = temp_rc[axis];
 175:main.c        ****      pidSetpoint[axis] =  (rcCommand[YAW] / yaw_rate) * yawSetPointInversion;
 176:main.c        ****    }; 
 177:main.c        ****   };	
 178:main.c        **** };
 179:main.c        ****   
 180:main.c        **** void getThrottleSetPointAndCalculateExpo(void){
 181:main.c        ****   uint16_t tempThrottle;
ARM GAS  /var/folders/_2/qbh2zpt918qcm2b_6mgyydnm0000gn/T//ccx08FD0.s 			page 11


 182:main.c        ****   uint8_t temp2Throttle;
 183:main.c        ****   throttle = rxSetPoint[THROTTLE];
 184:main.c        ****   tempThrottle = constrain_int(throttle, MINCHECK, 2000); //Minimum input resp. Dead band at low th
 185:main.c        ****   tempThrottle = (uint32_t)(tempThrottle - MINCHECK) * 2559 / (2000-MINCHECK);
 186:main.c        ****   temp2Throttle = tempThrottle / 256; //Results in a range of 0 - 9;
 187:main.c        ****   throttle = lookupThrottle[temp2Throttle] + (tempThrottle - temp2Throttle * 256) * (lookupThrottle
 188:main.c        **** };
 189:main.c        **** 
 190:main.c        **** void calculateEscTimingFlight(){
 191:main.c        ****   esc1 = throttle * mixerQuadX[0].throttle + pidOutput[PITCH] * mixerQuadX[0].pitch + pidOutput[ROL
 192:main.c        ****   esc2 = throttle * mixerQuadX[1].throttle + pidOutput[PITCH] * mixerQuadX[1].pitch + pidOutput[ROL
 193:main.c        ****   esc3 = throttle * mixerQuadX[2].throttle + pidOutput[PITCH] * mixerQuadX[2].pitch + pidOutput[ROL
 194:main.c        ****   esc4 = throttle * mixerQuadX[3].throttle + pidOutput[PITCH] * mixerQuadX[3].pitch + pidOutput[ROL
 195:main.c        ****   /**
 196:main.c        ****    * get the values mapped for oneshot 125us - 250us
 197:main.c        ****    */  
 198:main.c        **** 
 199:main.c        ****   if(esc1 > MAX_RC) esc1 = MAX_RC;
 200:main.c        ****   if(esc2 > MAX_RC) esc2 = MAX_RC;
 201:main.c        ****   if(esc3 > MAX_RC) esc3 = MAX_RC;
 202:main.c        ****   if(esc4 > MAX_RC) esc4 = MAX_RC;
 203:main.c        ****         
 204:main.c        ****   if(esc1 < MIN_RC) esc1 = MIN_RC;
 205:main.c        ****   if(esc2 < MIN_RC) esc2 = MIN_RC;
 206:main.c        ****   if(esc3 < MIN_RC) esc3 = MIN_RC;
 207:main.c        ****   if(esc4 < MIN_RC) esc4 = MIN_RC;
 208:main.c        **** };
 209:main.c        **** 
 210:main.c        **** 
 211:main.c        **** void calculateEscTimingGround(void){
 212:main.c        ****  esc1 = LOW_RC;
 213:main.c        ****  esc2 = LOW_RC;
 214:main.c        ****  esc3 = LOW_RC;
 215:main.c        ****  esc4 = LOW_RC;   
 216:main.c        **** };        
 217:main.c        **** 
 218:main.c        **** 
 219:main.c        **** void updatePWMTimerRegistersForMotors(void){
 220:main.c        ****   /**
 221:main.c        ****    * Looking in Flightdirection the default control is clockwise from 1 to 4 starting front left
 222:main.c        ****    */
 223:main.c        **** #if defined QUAD_4I
 224:main.c        ****   TIM3->CCR1 = esc1;
 225:main.c        ****   TIM3->CCR2 = esc4;
 226:main.c        ****   TIM4->CCR1 = esc2;
 227:main.c        ****   TIM4->CCR2 = esc3;
 228:main.c        **** #else
 229:main.c        ****   TIM3->CCR1 = esc1; //FRONT LEFT
 230:main.c        ****   TIM3->CCR2 = esc2; //FRRONT RIGHT
 231:main.c        ****   TIM4->CCR1 = esc3; // REAR RIGHT
 232:main.c        ****   TIM4->CCR2 = esc4; // REAR LEFT
 233:main.c        **** #endif
 234:main.c        **** };
 235:main.c        **** 
 236:main.c        **** void reinitializePWMTimerCounter(void){
 237:main.c        ****  /**
 238:main.c        ****   * Reinitialize the counter and generates an update of the registers. 
ARM GAS  /var/folders/_2/qbh2zpt918qcm2b_6mgyydnm0000gn/T//ccx08FD0.s 			page 12


 239:main.c        ****   * Note that the prescaler counter is cleared too (anyway the prescaler ratio is not affected). 
 240:main.c        ****   */
 241:main.c        ****  TIM4->EGR |= 0x01;
 242:main.c        ****  TIM3->EGR |= 0x01;
 243:main.c        **** };
 244:main.c        **** 
 245:main.c        **** void updatePWMTimerRegistersForGimbal(void){
 246:main.c        ****  TIM16->CCR1 = rxSetPoint[6];
 247:main.c        ****  TIM17->CCR1 = rxSetPoint[7]; 
 248:main.c        **** };
 249:main.c        **** 
 250:main.c        **** static inline void checkLoopTimingAndWait(const uint32_t LoopTime){	
 251:main.c        ****   static uint32_t lastProceedingTime;
 252:main.c        ****   loop_duration = micros() - lastProceedingTime;
 253:main.c        ****   if( (loop_duration) <= LoopTime) {
 254:main.c        ****     GPIOB->ODR |= (0x01 << LED_R);
 255:main.c        ****   } else {
 256:main.c        ****     GPIOB->ODR &= (0x00 << LED_R); //Inverted_ Turns on the LED_R
 257:main.c        ****   };
 258:main.c        ****   while (TIM7->CNT <= LoopTime){};
 259:main.c        ****   TIM7->EGR |= 0x01;
 260:main.c        ****   loopDurationAfterWait = micros() - lastProceedingTime;
 261:main.c        ****   lastProceedingTime = micros();
 262:main.c        **** };
 263:main.c        **** 
 264:main.c        **** //------------------------- Interrupts -----------------------------
 265:main.c        **** 
 266:main.c        **** void DMA1_Channel4_IRQHandler(void){
 267:main.c        ****   if(DMA_GetFlagStatus(DMA1_FLAG_TC4)){
 268:main.c        ****     DMA_ClearFlag(DMA1_FLAG_TC4);
 269:main.c        ****     DMA_Cmd(DMA1_Channel4, DISABLE);
 270:main.c        ****     *pbufferPosition = 0;
 271:main.c        ****     usart1TransferComplete = 1;
 272:main.c        ****   };	
 273:main.c        **** };
 274:main.c        **** 
 275:main.c        **** void DMA1_Channel7_IRQHandler(void){
 276:main.c        ****   if(DMA_GetFlagStatus(DMA1_FLAG_TC7)){
 277:main.c        ****     I2C_ClearFlag(I2C1, I2C_ICR_STOPCF);
 278:main.c        ****     SET_FLAG(f.GYRO_DATA_AVAILABLE);
 279:main.c        ****     DMA_Cmd(DMA1_Channel7, DISABLE);
 280:main.c        ****     DMA_ClearFlag(DMA1_FLAG_TC7);
 281:main.c        ****   };
 282:main.c        **** };
 283:main.c        **** 
 284:main.c        **** 
 285:main.c        **** /*
 286:main.c        **** void TIM7_IRQHandler()
 287:main.c        **** {
 288:main.c        ****  SET_FLAG(f.LOOP_TIME_EXCEEDED);
 289:main.c        ****  TIM7->SR |= 0x00 ; 
 290:main.c        **** };
 291:main.c        **** */
 292:main.c        **** 
 293:main.c        **** 
 294:main.c        **** void TIM2_IRQHandler(void){	
 295:main.c        ****   register int32_t start_time;
ARM GAS  /var/folders/_2/qbh2zpt918qcm2b_6mgyydnm0000gn/T//ccx08FD0.s 			page 13


 296:main.c        **** 	register int32_t measuredTime;
 297:main.c        **** 	register int32_t  previousStartTime;
 298:main.c        **** 	register uint8_t channel_select_counter; 
 299:main.c        ****   
 300:main.c        ****   start_time = TIM2->CCR4;
 301:main.c        ****   measuredTime = start_time - previousStartTime;
 302:main.c        ****   if (measuredTime < 0) measuredTime += 0xFFFF; // Correct the timer overflow by adding max number
 303:main.c        ****   previousStartTime = start_time;
 304:main.c        ****         	
 305:main.c        **** 	if (measuredTime > 2600){
 306:main.c        **** 		channel_select_counter = 0;
 307:main.c        **** 	} else {
 308:main.c        **** 		++channel_select_counter;
 309:main.c        **** 	};
 310:main.c        **** 
 311:main.c        **** 	// QX7 TARANIS ARTE CHANNEL ORDER
 312:main.c        **** 	switch(channel_select_counter){
 313:main.c        **** 		case 1:
 314:main.c        **** 			rxInputData[PITCH] = measuredTime;
 315:main.c        **** 			break;
 316:main.c        **** 		case 2:
 317:main.c        **** 			rxInputData[YAW] = measuredTime;
 318:main.c        **** 			break;
 319:main.c        **** 		case 3:
 320:main.c        **** 			rxInputData[ROLL] = measuredTime;
 321:main.c        **** 			break;
 322:main.c        **** 		case 4:
 323:main.c        **** 			rxInputData[THROTTLE] = measuredTime;
 324:main.c        **** 			break;
 325:main.c        **** 		case 5:
 326:main.c        **** 			rxInputData[CH5] = measuredTime;
 327:main.c        **** 			break;
 328:main.c        **** 		case 6:
 329:main.c        **** 			rxInputData[CH6] = measuredTime;
 330:main.c        **** 			break;
 331:main.c        **** 		case 7:
 332:main.c        **** 			rxInputData[CH7] = measuredTime;
 333:main.c        **** 			break;
 334:main.c        **** 		case 8:
 335:main.c        **** 			rxInputData[CH8] = measuredTime;
 336:main.c        **** 			break;
 337:main.c        **** 		default:
 338:main.c        **** 			break;
 339:main.c        **** 	};
 340:main.c        **** };
 341:main.c        **** 
 342:main.c        **** void SysTick_Handler(void){
 343:main.c        **** 	msTicks++;
 344:main.c        **** };
 345:main.c        **** 
 346:main.c        **** 
 347:main.c        **** uint32_t millis(void){
 348:main.c        ****     return msTicks;
 349:main.c        **** };
 350:main.c        **** 
 351:main.c        **** void delay_millis(uint32_t dlyticks){
 352:main.c        ****     uint32_t curTicks = msTicks;
ARM GAS  /var/folders/_2/qbh2zpt918qcm2b_6mgyydnm0000gn/T//ccx08FD0.s 			page 14


 353:main.c        ****     while ((msTicks - curTicks) < dlyticks){};
 354:main.c        **** };
 355:main.c        **** 
 356:main.c        **** uint32_t micros(){
 357:main.c        ****   uint32_t sys_clock_val; 
 358:main.c        ****   sys_clock_val = SysTick->VAL;
 359:main.c        ****   usTicks = msTicks * 1000 + 1000 - sys_clock_val/72; //To calculate the micros, the value will be 
 360:main.c        ****   return usTicks;
 361:main.c        **** };
 362:main.c        **** 
 363:main.c        **** static void delay_micros(uint32_t dlyticks){
 364:main.c        ****     uint32_t curTicks = micros();
 365:main.c        ****     while ((micros() - curTicks)<dlyticks){};
 366:main.c        **** };
 367:main.c        **** 
 368:main.c        **** void init_gyro(gyro_t *gyro, gyroConfig_t *gyroConfig){
 369:main.c        ****   init_MPU6050();
 370:main.c        ****   //Gyro settings
 371:main.c        ****   gyro->targetLoopTime = targetLoopTime;
 372:main.c        ****   gyro->gyroIsCalibrated = FALSE;
 373:main.c        ****   gyroConfig->gyroCalibrationDuration = 1.25f;  //in seconds
 374:main.c        ****   gyro->calibration.gyroMovementCalibrationThreshold = 48;
 375:main.c        ****   setGyroCalibrationCycles();
 376:main.c        ****   //Gyro Configuration
 377:main.c        ****   gyroConfig->gyro_lowpass_type = GYRO_LOW_PASS_FILTER; // FILTER_PT1 FILTER_BIQUAD 
 378:main.c        ****   gyroConfig->gyro_lowpass_Hz = GYRO_LOW_PASS_HZ; //Need to be within the nyquist frequenzy of 250 
 379:main.c        ****   gyroConfig->gyro_lowpass2_type = GYRO_LOW_PASS_FILTER2;
 380:main.c        ****   gyroConfig->gyro_lowpass2_Hz = GYRO_LOW_PASS_HZ_2;
 381:main.c        ****   gyroConfig->gyro_soft_notch_hz_1 = GYRO_SOFT_NOTCH_HZ_1;
 382:main.c        ****   gyroConfig->gyro_soft_notch_cutoff_1 = GYRO_SOFT_NOTCH_CUTOFF_1;
 383:main.c        ****   gyroConfig->gyro_soft_notch_hz_2 = GYRO_SOFT_NOTCH_HZ_2;
 384:main.c        ****   gyroConfig->gyro_soft_notch_cutoff_2 = GYRO_SOFT_NOTCH_CUTOFF_2;
 385:main.c        ****   gyroConfig->DynNotchFilterActive = DYN_NOTCH_FILTER_ACTIVE; 	
 386:main.c        **** };
 387:main.c        **** 
 388:main.c        **** void initDtermSettings(dtermFilter_t *dtermSettings){
 389:main.c        **** 
 390:main.c        ****   dtermSettings->dterm_notch_hz = DTERM_NOTCH_HZ;
 391:main.c        ****   dtermSettings->dterm_notch_cutoff_hz = DTERM_NOTCH_CUTOFF_HZ;
 392:main.c        ****   dtermSettings->dterm_lowpass2_hz = DTERM_LOWPASS2_HZ;
 393:main.c        ****   dtermSettings->dterm_lowpass_type = DTERM_LOWPASS_TYPE;
 394:main.c        ****   dtermSettings->dterm_lowpass_hz= DTERM_LOWPASS_HZ;
 395:main.c        **** };
 396:main.c        **** 
 397:main.c        **** void init_MPU6050(){
 398:main.c        **** 	I2C_writeByte(I2C1, MPU6050, PWR_MGMT_1, 0x80); // Resets the MPU6050. To perform the setback prop
 399:main.c        **** 	delay_millis(100);
 400:main.c        **** 	I2C_writeByte(I2C1, MPU6050, SIGNAL_PATH_RESET, 0x00); // Resets the gyro, accel and temp values;
 401:main.c        **** 	delay_millis(100);
 402:main.c        **** 	I2C_writeByte(I2C1, MPU6050, PWR_MGMT_1, 0x01); // Sets the Clock Source for the MPU6050 to the gy
 403:main.c        **** 	I2C_writeByte(I2C1, MPU6050, CONFIG, 0x00); // No DLPF on the Gyro
 404:main.c        **** 	I2C_writeByte(I2C1, MPU6050, SMPLRT_DIV, 0x00); //Samplerate divider is not set. This results in a
 405:main.c        **** 	delay_millis(10); 
 406:main.c        **** 	//Get the setting of the Gyro
 407:main.c        **** 
 408:main.c        **** 	uint8_t c = I2C_readByte(I2C1, MPU6050, GYRO_CONFIG);    
 409:main.c        **** 	I2C_writeByte(I2C1, MPU6050, GYRO_CONFIG, c & ~0xE0); // Clear self-test bits [7:5] 
ARM GAS  /var/folders/_2/qbh2zpt918qcm2b_6mgyydnm0000gn/T//ccx08FD0.s 			page 15


 410:main.c        **** 	I2C_writeByte(I2C1, MPU6050, GYRO_CONFIG, c & ~0x18); // Clear FS_SELL bits [4:3]
 411:main.c        **** 	I2C_writeByte(I2C1, MPU6050, GYRO_CONFIG, c | (0x03 << 3)); // Set range for the gyro to +-2000°/
 412:main.c        **** 	// Set accelerometer configuration
 413:main.c        **** 	
 414:main.c        **** 	c = I2C_readByte(I2C1, MPU6050, ACCEL_CONFIG);
 415:main.c        **** 	I2C_writeByte(I2C1, MPU6050, ACCEL_CONFIG, c & ~0xE0); // Clear self-test bits [7:5] 
 416:main.c        **** 	I2C_writeByte(I2C1, MPU6050, ACCEL_CONFIG, c & ~0x18); // Clear AFS bits [4:3]
 417:main.c        **** 	I2C_writeByte(I2C1, MPU6050, ACCEL_CONFIG, c | (0x02 << 3)); // Set range for the accelerometer to
 418:main.c        ****     
 419:main.c        **** 	I2C_writeByte(I2C1, MPU6050, INT_PIN_CFG, 0x02); //set interrupt pin active high
 420:main.c        **** 	I2C_writeByte(I2C1, MPU6050, INT_ENABLE, 0x01); //enable interrupt 
 421:main.c        **** };
 422:main.c        **** 
 423:main.c        **** void taskFetchGyroData(){
 424:main.c        ****  if(!f.GYRO_DATA_NOT_PROCESSED){
 425:main.c        ****     I2C_DmaReadGyroValues(MPU6050, ACCEL_XOUT_H); //gyroRawData is defined in i2c.c
 426:main.c        ****     SET_FLAG(f.GYRO_DATA_NOT_PROCESSED);
 427:main.c        ****  };
 428:main.c        **** };
 429:main.c        **** 
 430:main.c        **** static inline void processGyroRawData(){
 431:main.c        ****   if(f.GYRO_DATA_AVAILABLE){
 432:main.c        ****     imu.accel[X] = ((int16_t)gyroRawData[0]<<8)| gyroRawData[1]; // reading registers: 0x3B (ACCEL_
 433:main.c        ****     imu.accel[Y] = ((int16_t)gyroRawData[2]<<8)| gyroRawData[3]; // reading registers: 0x3D (ACCEL_
 434:main.c        ****     imu.accel[Z] = ((int16_t)gyroRawData[4]<<8)| gyroRawData[5]; // reading registers: 0x3F (ACCEL_
 435:main.c        ****     imu.temp = ((int16_t)gyroRawData[6]<<8) | gyroRawData[7]; // reading registers: 0x41 (TEMP_OUT_
 436:main.c        ****     imu.gyro[X] = ((int16_t)gyroRawData[8]<<8)| gyroRawData[9]; // reading registers: 0x43 (GYRO_XO
 437:main.c        ****     imu.gyro[Y] = ((int16_t)gyroRawData[10]<<8) | gyroRawData[11]; // reading registers: 0x45 (GYRO
 438:main.c        ****     imu.gyro[Z] = ((int16_t)gyroRawData[12]<<8) | gyroRawData[13]; // reading registers: 0x47 (GYRO
 439:main.c        **** 	
 440:main.c        ****     // Based on the orientation of the MPU on the SP Board the orientation output needs to be adjus
 441:main.c        ****     alignSensors(&imu.accel[0], ACC_MPU6050_ALIGN);
 442:main.c        ****     alignSensors(&imu.gyro[0], GYRO_MPU6050_ALIGN);
 443:main.c        ****     
 444:main.c        ****    if(gyro.gyroIsCalibrated){
 445:main.c        ****       Gyro[X] = (imu.gyro[X]) - gyro.gyroZero[X];
 446:main.c        ****       Gyro[Y] = (imu.gyro[Y]) - gyro.gyroZero[Y];
 447:main.c        ****       Gyro[Z] = (imu.gyro[Z]) - gyro.gyroZero[Z];
 448:main.c        ****       Accel[X] = (imu.accel[X] );
 449:main.c        ****       Accel[Y] = (imu.accel[Y] );
 450:main.c        ****       Accel[Z] = (imu.accel[Z] );
 451:main.c        ****    } else {
 452:main.c        ****      performGyroCalibration();
 453:main.c        ****    };
 454:main.c        ****  UNSET_FLAG(f.GYRO_DATA_NOT_PROCESSED);
 455:main.c        ****  UNSET_FLAG(f.GYRO_DATA_AVAILABLE);
 456:main.c        ****  };
 457:main.c        **** };
 458:main.c        **** 
 459:main.c        **** void performGyroCalibration(void)
 460:main.c        **** {
 461:main.c        ****   for (int axis = 0; axis < XYZ_AXIS_COUNT; ++axis){ 
 462:main.c        ****     if(isOnFirstCalibrationCycle()){
 463:main.c        ****       gyro.calibration.sum[axis] = 0.0;
 464:main.c        ****       gyro.calibration.varianz[axis].n = 0.0f;
 465:main.c        ****       gyro.gyroZero[axis] = 0.0f;
 466:main.c        ****     };
ARM GAS  /var/folders/_2/qbh2zpt918qcm2b_6mgyydnm0000gn/T//ccx08FD0.s 			page 16


 467:main.c        ****   
 468:main.c        ****     gyro.calibration.sum[axis] += imu.gyro[axis];
 469:main.c        ****     devPush(&gyro.calibration.varianz[axis], imu.gyro[axis]);
 470:main.c        ****    
 471:main.c        ****     if(isOnFinalCalibrationCycle()){
 472:main.c        ****         const float stddev = calculateStandardDeviation(&gyro.calibration.varianz[axis]);
 473:main.c        ****          if(gyro.calibration.gyroMovementCalibrationThreshold && stddev > gyro.calibration.gyroMove
 474:main.c        ****           setGyroCalibrationCycles();
 475:main.c        ****         return;
 476:main.c        ****         };
 477:main.c        ****         gyro.gyroZero[axis] = gyro.calibration.sum[axis] / gyroCalibrationCycles();
 478:main.c        ****     };
 479:main.c        ****   };
 480:main.c        ****   if (isOnFinalCalibrationCycle()){
 481:main.c        ****     activateBuzzer(&buzz_readyBeep[0]);
 482:main.c        ****     gyro.gyroIsCalibrated = TRUE;
 483:main.c        ****   }; 
 484:main.c        ****   --gyro.calibration.cyclesRemaining; 
 485:main.c        **** };
 486:main.c        **** 
 487:main.c        **** bool isOnFirstCalibrationCycle(void)
 488:main.c        **** {
 489:main.c        ****   return gyro.calibration.cyclesRemaining == gyroCalibrationCycles();
 490:main.c        **** };
 491:main.c        **** 
 492:main.c        **** uint32_t gyroCalibrationCycles(void)
 493:main.c        **** {
 494:main.c        ****   return (gyroConfig.gyroCalibrationDuration * 1e6) / gyro.targetLoopTime; 
 495:main.c        **** };
 496:main.c        **** 
 497:main.c        **** bool isOnFinalCalibrationCycle(void)
 498:main.c        **** {
 499:main.c        ****   return gyro.calibration.cyclesRemaining == 1;
 500:main.c        **** };
 501:main.c        **** 
 502:main.c        **** void setGyroCalibrationCycles(void)
 503:main.c        **** {
 504:main.c        ****   gyro.calibration.cyclesRemaining = gyroCalibrationCycles();
 505:main.c        **** };
 506:main.c        **** 
 507:main.c        **** void devPush(stdev_t *dev, float x)
 508:main.c        **** {
 509:main.c        ****     dev->n++;
 510:main.c        ****     if (dev->n == 1) {
 511:main.c        ****         dev->oldMean = dev->newMean = x;
 512:main.c        ****         dev->oldSigma = 0.0f;
 513:main.c        ****     } else {
 514:main.c        ****         dev->newMean = dev->oldMean + (x - dev->oldMean) / dev->n;
 515:main.c        ****         dev->newSigma = dev->oldSigma + (x - dev->oldMean) * (x - dev->newMean);
 516:main.c        ****         dev->oldMean = dev->newMean;
 517:main.c        ****         dev->oldSigma = dev->newSigma;
 518:main.c        ****     };
 519:main.c        **** };
 520:main.c        **** 
 521:main.c        **** float calculateStandardDeviation(stdev_t *dev)
 522:main.c        **** {
 523:main.c        ****   return sqrtf(devVarianz(dev));
ARM GAS  /var/folders/_2/qbh2zpt918qcm2b_6mgyydnm0000gn/T//ccx08FD0.s 			page 17


 524:main.c        **** };
 525:main.c        **** 
 526:main.c        **** float devVarianz(stdev_t *dev)
 527:main.c        **** {
 528:main.c        ****   return (dev->n > 1 ? (dev->newSigma / (dev->n - 1 )) : 0.0f);
 529:main.c        **** };
 530:main.c        **** 
 531:main.c        **** int16_t constrain_int(int16_t value_to_constrain, int16_t min, int16_t max){
 374              		.loc 1 531 9 is_stmt 1 view .LVU61
 375              	.LBB52:
 532:main.c        ****     int16_t result;
 376              		.loc 1 532 5 view .LVU62
 533:main.c        ****     if (value_to_constrain < min){
 377              		.loc 1 533 5 view .LVU63
 378 00e6 B1F5FA7F 		cmp	r1, #500	@ tmp178,
 379 00ea 0846     		mov	r0, r1	@ tmp178, _9
 380 00ec A8BF     		it	ge
 381 00ee 4FF4FA70 		movge	r0, #500	@ tmp178,
 382 00f2 4045     		cmp	r0, r8	@ tmp178, tmp180
 383 00f4 B8BF     		it	lt
 384 00f6 4046     		movlt	r0, r8	@ result, tmp180
 385              	.LVL26:
 534:main.c        ****         result = min;
 535:main.c        ****     } else if (value_to_constrain >max) {
 536:main.c        ****         result = max;
 537:main.c        ****     } else{
 538:main.c        ****         result = value_to_constrain;
 539:main.c        ****     };
 386              		.loc 1 539 6 view .LVU64
 540:main.c        **** return result;
 387              		.loc 1 540 1 view .LVU65
 388              		.loc 1 540 1 is_stmt 0 view .LVU66
 389              	.LBE52:
 390              	.LBE51:
 162:main.c        ****        if (temp_rc[axis] < 0){
 391              		.loc 1 162 5 is_stmt 1 view .LVU67
 392              	@ main.c:162:     if(axis!=2){ //If axis is 0 Roll or 1 Pitch
 162:main.c        ****        if (temp_rc[axis] < 0){
 393              		.loc 1 162 7 is_stmt 0 view .LVU68
 394 00f8 BAF1020F 		cmp	r10, #2	@ ivtmp.235,
 395 00fc 31D0     		beq	.L19		@,
 163:main.c        ****  	 temp_rc[axis]= temp_rc[axis] * -1;
 396              		.loc 1 163 8 is_stmt 1 view .LVU69
 397              	@ main.c:163:        if (temp_rc[axis] < 0){
 163:main.c        ****  	 temp_rc[axis]= temp_rc[axis] * -1;
 398              		.loc 1 163 11 is_stmt 0 view .LVU70
 399 00fe 0029     		cmp	r1, #0	@ _9,
 400 0100 1FDA     		bge	.L20		@,
 164:main.c        **** 	 temp_rc2[axis] = temp_rc[axis] >> 7; //--> this will result in a range 0 to 3
 401              		.loc 1 164 4 is_stmt 1 view .LVU71
 402              	@ main.c:164:  	 temp_rc[axis]= temp_rc[axis] * -1;
 164:main.c        **** 	 temp_rc2[axis] = temp_rc[axis] >> 7; //--> this will result in a range 0 to 3
 403              		.loc 1 164 17 is_stmt 0 view .LVU72
 404 0102 4042     		rsbs	r0, r0, #0	@ tmp184, result
 405              	@ main.c:166:          rcCommand[axis] = lookupRollPitch[temp_rc2[axis]] + ((temp_rc[axis] -(temp_r
 166:main.c        ****          rcCommand[axis] = rcCommand[axis]* -1;
 406              		.loc 1 166 52 view .LVU73
ARM GAS  /var/folders/_2/qbh2zpt918qcm2b_6mgyydnm0000gn/T//ccx08FD0.s 			page 18


 407 0104 40F3C813 		sbfx	r3, r0, #7, #9	@ _14, tmp184,,
 408              	@ main.c:166:          rcCommand[axis] = lookupRollPitch[temp_rc2[axis]] + ((temp_rc[axis] -(temp_r
 166:main.c        ****          rcCommand[axis] = rcCommand[axis]* -1;
 409              		.loc 1 166 120 view .LVU74
 410 0108 03F1010C 		add	ip, r3, #1	@ tmp189, _14,
 411              	@ main.c:164:  	 temp_rc[axis]= temp_rc[axis] * -1;
 164:main.c        **** 	 temp_rc2[axis] = temp_rc[axis] >> 7; //--> this will result in a range 0 to 3
 412              		.loc 1 164 17 view .LVU75
 413 010c 81B2     		uxth	r1, r0	@ _11, tmp184
 165:main.c        ****          rcCommand[axis] = lookupRollPitch[temp_rc2[axis]] + ((temp_rc[axis] -(temp_rc2[axis] << 7)
 414              		.loc 1 165 3 is_stmt 1 view .LVU76
 166:main.c        ****          rcCommand[axis] = rcCommand[axis]* -1;
 415              		.loc 1 166 10 view .LVU77
 416              	@ main.c:166:          rcCommand[axis] = lookupRollPitch[temp_rc2[axis]] + ((temp_rc[axis] -(temp_r
 166:main.c        ****          rcCommand[axis] = rcCommand[axis]* -1;
 417              		.loc 1 166 139 is_stmt 0 view .LVU78
 418 010e 56F82C20 		ldr	r2, [r6, ip, lsl #2]	@ tmp191, lookupRollPitch
 419              	@ main.c:166:          rcCommand[axis] = lookupRollPitch[temp_rc2[axis]] + ((temp_rc[axis] -(temp_r
 166:main.c        ****          rcCommand[axis] = rcCommand[axis]* -1;
 420              		.loc 1 166 43 view .LVU79
 421 0112 56F82300 		ldr	r0, [r6, r3, lsl #2]	@ _15, lookupRollPitch
 167:main.c        ****        } else {
 422              		.loc 1 167 10 is_stmt 1 view .LVU80
 423              	@ main.c:166:          rcCommand[axis] = lookupRollPitch[temp_rc2[axis]] + ((temp_rc[axis] -(temp_r
 166:main.c        ****          rcCommand[axis] = rcCommand[axis]* -1;
 424              		.loc 1 166 78 is_stmt 0 view .LVU81
 425 0116 A1EBC313 		sub	r3, r1, r3, lsl #7	@ tmp193, _11, _14,
 426              	@ main.c:166:          rcCommand[axis] = lookupRollPitch[temp_rc2[axis]] + ((temp_rc[axis] -(temp_r
 166:main.c        ****          rcCommand[axis] = rcCommand[axis]* -1;
 427              		.loc 1 166 139 view .LVU82
 428 011a A2EB000C 		sub	ip, r2, r0	@ tmp190, tmp191, _15
 429              	@ main.c:166:          rcCommand[axis] = lookupRollPitch[temp_rc2[axis]] + ((temp_rc[axis] -(temp_r
 166:main.c        ****          rcCommand[axis] = rcCommand[axis]* -1;
 430              		.loc 1 166 102 view .LVU83
 431 011e 03FB0CF3 		mul	r3, r3, ip	@ tmp194, tmp193, tmp190
 432              	@ main.c:166:          rcCommand[axis] = lookupRollPitch[temp_rc2[axis]] + ((temp_rc[axis] -(temp_r
 166:main.c        ****          rcCommand[axis] = rcCommand[axis]* -1;
 433              		.loc 1 166 60 view .LVU84
 434 0122 00EBD310 		add	r0, r0, r3, lsr #7	@ tmp198, _15, tmp194,
 435              	@ main.c:167:          rcCommand[axis] = rcCommand[axis]* -1;
 167:main.c        ****        } else {
 436              		.loc 1 167 26 view .LVU85
 437 0126 4042     		rsbs	r0, r0, #0	@ tmp200, tmp198
 438              	.L26:
 439              	@ main.c:170: 	 rcCommand[axis] = lookupRollPitch[temp_rc2[axis]] + ((temp_rc[axis] -(temp_rc2[axis
 170:main.c        ****        };
 440              		.loc 1 170 53 view .LVU86
 441 0128 00B2     		sxth	r0, r0	@ cstore_55, tmp213
 171:main.c        ****      pidSetpoint[axis] = rcCommand[axis]; 
 442              		.loc 1 171 9 is_stmt 1 view .LVU87
 172:main.c        ****    } else { //YAE AXIS is direct ouput
 443              		.loc 1 172 6 view .LVU88
 444              	@ main.c:172:      pidSetpoint[axis] = rcCommand[axis]; 
 172:main.c        ****    } else { //YAE AXIS is direct ouput
 445              		.loc 1 172 24 is_stmt 0 view .LVU89
 446 012a FFF7FEFF 		bl	__aeabi_i2f		@
 447              	.LVL27:
ARM GAS  /var/folders/_2/qbh2zpt918qcm2b_6mgyydnm0000gn/T//ccx08FD0.s 			page 19


 448 012e 45F82A00 		str	r0, [r5, r10, lsl #2]	@ float	@ tmp227, MEM[symbol: pidSetpoint, index: ivtmp.235_46, step: 4,
 449              	.L22:
 176:main.c        ****   };	
 450              		.loc 1 176 5 is_stmt 1 discriminator 2 view .LVU90
 153:main.c        ****     temp_rc[axis] = 0;
 451              		.loc 1 153 30 discriminator 2 view .LVU91
 452              	.LVL28:
 153:main.c        ****     temp_rc[axis] = 0;
 453              		.loc 1 153 23 discriminator 2 view .LVU92
 454 0132 0AF1010A 		add	r10, r10, #1	@ ivtmp.235, ivtmp.235,
 455              	.LVL29:
 456              	@ main.c:153:    for(uint8_t axis=0;axis<3;++axis){
 153:main.c        ****     temp_rc[axis] = 0;
 457              		.loc 1 153 4 is_stmt 0 discriminator 2 view .LVU93
 458 0136 BAF1030F 		cmp	r10, #3	@ ivtmp.235,
 459 013a C3D1     		bne	.L23		@,
 460              	.LBE53:
 461              	@ main.c:178: };
 178:main.c        ****   
 462              		.loc 1 178 1 view .LVU94
 463 013c 03B0     		add	sp, sp, #12	@,,
 464              	.LCFI3:
 465              		.cfi_remember_state
 466              		.cfi_def_cfa_offset 36
 467              		@ sp needed	@
 468 013e BDE8F08F 		pop	{r4, r5, r6, r7, r8, r9, r10, fp, pc}	@
 469              	.LVL30:
 470              	.L20:
 471              	.LCFI4:
 472              		.cfi_restore_state
 473              	.LBB54:
 169:main.c        **** 	 rcCommand[axis] = lookupRollPitch[temp_rc2[axis]] + ((temp_rc[axis] -(temp_rc2[axis] << 7)) * (lo
 474              		.loc 1 169 3 is_stmt 1 view .LVU95
 170:main.c        ****        };
 475              		.loc 1 170 3 view .LVU96
 476              	@ main.c:170: 	 rcCommand[axis] = lookupRollPitch[temp_rc2[axis]] + ((temp_rc[axis] -(temp_rc2[axis
 170:main.c        ****        };
 477              		.loc 1 170 45 is_stmt 0 view .LVU97
 478 0142 C111     		asrs	r1, r0, #7	@ _31, result,
 479              	@ main.c:170: 	 rcCommand[axis] = lookupRollPitch[temp_rc2[axis]] + ((temp_rc[axis] -(temp_rc2[axis
 170:main.c        ****        };
 480              		.loc 1 170 113 view .LVU98
 481 0144 01F1010C 		add	ip, r1, #1	@ tmp204, _31,
 482              	@ main.c:170: 	 rcCommand[axis] = lookupRollPitch[temp_rc2[axis]] + ((temp_rc[axis] -(temp_rc2[axis
 170:main.c        ****        };
 483              		.loc 1 170 36 view .LVU99
 484 0148 56F82130 		ldr	r3, [r6, r1, lsl #2]	@ _32, lookupRollPitch
 485              	@ main.c:170: 	 rcCommand[axis] = lookupRollPitch[temp_rc2[axis]] + ((temp_rc[axis] -(temp_rc2[axis
 170:main.c        ****        };
 486              		.loc 1 170 132 view .LVU100
 487 014c 56F82C20 		ldr	r2, [r6, ip, lsl #2]	@ tmp206, lookupRollPitch
 488              	@ main.c:170: 	 rcCommand[axis] = lookupRollPitch[temp_rc2[axis]] + ((temp_rc[axis] -(temp_rc2[axis
 170:main.c        ****        };
 489              		.loc 1 170 71 view .LVU101
 490 0150 A0EBC110 		sub	r0, r0, r1, lsl #7	@ tmp208, result, _31,
 491              	@ main.c:170: 	 rcCommand[axis] = lookupRollPitch[temp_rc2[axis]] + ((temp_rc[axis] -(temp_rc2[axis
 170:main.c        ****        };
ARM GAS  /var/folders/_2/qbh2zpt918qcm2b_6mgyydnm0000gn/T//ccx08FD0.s 			page 20


 492              		.loc 1 170 132 view .LVU102
 493 0154 A2EB030C 		sub	ip, r2, r3	@ tmp205, tmp206, _32
 494              	@ main.c:170: 	 rcCommand[axis] = lookupRollPitch[temp_rc2[axis]] + ((temp_rc[axis] -(temp_rc2[axis
 170:main.c        ****        };
 495              		.loc 1 170 95 view .LVU103
 496 0158 00FB0CF0 		mul	r0, r0, ip	@ tmp209, tmp208, tmp205
 497              	@ main.c:170: 	 rcCommand[axis] = lookupRollPitch[temp_rc2[axis]] + ((temp_rc[axis] -(temp_rc2[axis
 170:main.c        ****        };
 498              		.loc 1 170 53 view .LVU104
 499 015c 03EBD010 		add	r0, r3, r0, lsr #7	@ tmp213, _32, tmp209,
 500 0160 E2E7     		b	.L26		@
 501              	.L19:
 174:main.c        ****      pidSetpoint[axis] =  (rcCommand[YAW] / yaw_rate) * yawSetPointInversion;
 502              		.loc 1 174 6 is_stmt 1 view .LVU105
 175:main.c        ****    }; 
 503              		.loc 1 175 6 view .LVU106
 504              	@ main.c:175:      pidSetpoint[axis] =  (rcCommand[YAW] / yaw_rate) * yawSetPointInversion;
 175:main.c        ****    }; 
 505              		.loc 1 175 43 is_stmt 0 view .LVU107
 506 0162 FFF7FEFF 		bl	__aeabi_i2f		@
 507              	.LVL31:
 508              	@ main.c:175:      pidSetpoint[axis] =  (rcCommand[YAW] / yaw_rate) * yawSetPointInversion;
 175:main.c        ****    }; 
 509              		.loc 1 175 24 view .LVU108
 510 0166 00F10040 		add	r0, r0, #-2147483648	@ tmp221, tmp228,
 511 016a A860     		str	r0, [r5, #8]	@ float	@ tmp221, pidSetpoint
 512 016c E1E7     		b	.L22		@
 513              	.L28:
 514 016e 00BF     		.align	2
 515              	.L27:
 516 0170 00000000 		.word	rxSetPoint
 517 0174 00000000 		.word	pidSetpoint
 518 0178 00000000 		.word	lookupRollPitch
 519 017c 0CFEFFFF 		.word	-500
 520              	.LBE54:
 521              		.cfi_endproc
 522              	.LFE132:
 523              		.size	calculateRcRatesForPitchAndRoll, .-calculateRcRatesForPitchAndRoll
 524              		.align	1
 525              		.global	getThrottleSetPointAndCalculateExpo
 526              		.syntax unified
 527              		.thumb
 528              		.thumb_func
 529              		.fpu softvfp
 530              		.type	getThrottleSetPointAndCalculateExpo, %function
 531              	getThrottleSetPointAndCalculateExpo:
 532              	.LFB133:
 180:main.c        ****   uint16_t tempThrottle;
 533              		.loc 1 180 47 is_stmt 1 view -0
 534              		.cfi_startproc
 535              		@ args = 0, pretend = 0, frame = 0
 536              		@ frame_needed = 0, uses_anonymous_args = 0
 181:main.c        ****   uint8_t temp2Throttle;
 537              		.loc 1 181 3 view .LVU110
 182:main.c        ****   throttle = rxSetPoint[THROTTLE];
 538              		.loc 1 182 3 view .LVU111
 183:main.c        ****   tempThrottle = constrain_int(throttle, MINCHECK, 2000); //Minimum input resp. Dead band at low th
ARM GAS  /var/folders/_2/qbh2zpt918qcm2b_6mgyydnm0000gn/T//ccx08FD0.s 			page 21


 539              		.loc 1 183 3 view .LVU112
 184:main.c        ****   tempThrottle = (uint32_t)(tempThrottle - MINCHECK) * 2559 / (2000-MINCHECK);
 540              		.loc 1 184 3 view .LVU113
 541              	.LVL32:
 542              	.LBB55:
 543              	.LBI55:
 531:main.c        ****     int16_t result;
 544              		.loc 1 531 9 view .LVU114
 545              	.LBB56:
 532:main.c        ****     if (value_to_constrain < min){
 546              		.loc 1 532 5 view .LVU115
 533:main.c        ****         result = min;
 547              		.loc 1 533 5 view .LVU116
 539:main.c        **** return result;
 548              		.loc 1 539 6 view .LVU117
 549              		.loc 1 540 1 view .LVU118
 550              		.loc 1 540 1 is_stmt 0 view .LVU119
 551              	.LBE56:
 552              	.LBE55:
 185:main.c        ****   temp2Throttle = tempThrottle / 256; //Results in a range of 0 - 9;
 553              		.loc 1 185 3 is_stmt 1 view .LVU120
 554              	@ main.c:185:   tempThrottle = (uint32_t)(tempThrottle - MINCHECK) * 2559 / (2000-MINCHECK);
 185:main.c        ****   temp2Throttle = tempThrottle / 256; //Results in a range of 0 - 9;
 555              		.loc 1 185 42 is_stmt 0 view .LVU121
 556 0180 134B     		ldr	r3, .L30	@ tmp136,
 557              	@ main.c:187:   throttle = lookupThrottle[temp2Throttle] + (tempThrottle - temp2Throttle * 256) * (
 187:main.c        **** };
 558              		.loc 1 187 28 view .LVU122
 559 0182 1449     		ldr	r1, .L30+4	@ tmp151,
 560              	@ main.c:185:   tempThrottle = (uint32_t)(tempThrottle - MINCHECK) * 2559 / (2000-MINCHECK);
 185:main.c        ****   temp2Throttle = tempThrottle / 256; //Results in a range of 0 - 9;
 561              		.loc 1 185 42 view .LVU123
 562 0184 B3F90C30 		ldrsh	r3, [r3, #12]	@ rxSetPoint, rxSetPoint
 563 0188 B3F5FA6F 		cmp	r3, #2000	@ rxSetPoint,
 564 018c A8BF     		it	ge
 565 018e 4FF4FA63 		movge	r3, #2000	@ tmp140,
 566 0192 40F21A42 		movw	r2, #1050	@ tmp142,
 567 0196 9342     		cmp	r3, r2	@ tmp140, tmp142
 568 0198 B8BF     		it	lt
 569 019a 1346     		movlt	r3, r2	@ tmp143, tmp142
 570 019c A3F21A42 		subw	r2, r3, #1050	@ tmp144, tmp143,
 571              	@ main.c:185:   tempThrottle = (uint32_t)(tempThrottle - MINCHECK) * 2559 / (2000-MINCHECK);
 185:main.c        ****   temp2Throttle = tempThrottle / 256; //Results in a range of 0 - 9;
 572              		.loc 1 185 54 view .LVU124
 573 01a0 40F6FF13 		movw	r3, #2559	@ tmp146,
 574 01a4 5343     		muls	r3, r2, r3	@ tmp145, tmp144
 575              	@ main.c:185:   tempThrottle = (uint32_t)(tempThrottle - MINCHECK) * 2559 / (2000-MINCHECK);
 185:main.c        ****   temp2Throttle = tempThrottle / 256; //Results in a range of 0 - 9;
 576              		.loc 1 185 61 view .LVU125
 577 01a6 40F2B632 		movw	r2, #950	@ tmp147,
 578 01aa B3FBF2F3 		udiv	r3, r3, r2	@ _8, tmp145, tmp147
 579              	.LVL33:
 186:main.c        ****   throttle = lookupThrottle[temp2Throttle] + (tempThrottle - temp2Throttle * 256) * (lookupThrottle
 580              		.loc 1 186 3 is_stmt 1 view .LVU126
 187:main.c        **** };
 581              		.loc 1 187 3 view .LVU127
 582              	@ main.c:187:   throttle = lookupThrottle[temp2Throttle] + (tempThrottle - temp2Throttle * 256) * (
ARM GAS  /var/folders/_2/qbh2zpt918qcm2b_6mgyydnm0000gn/T//ccx08FD0.s 			page 22


 187:main.c        **** };
 583              		.loc 1 187 28 is_stmt 0 view .LVU128
 584 01ae C3F30720 		ubfx	r0, r3, #8, #8	@ _10, _8,,
 585              	@ main.c:180: void getThrottleSetPointAndCalculateExpo(void){
 180:main.c        ****   uint16_t tempThrottle;
 586              		.loc 1 180 47 view .LVU129
 587 01b2 10B5     		push	{r4, lr}	@
 588              	.LCFI5:
 589              		.cfi_def_cfa_offset 8
 590              		.cfi_offset 4, -8
 591              		.cfi_offset 14, -4
 592              	@ main.c:187:   throttle = lookupThrottle[temp2Throttle] + (tempThrottle - temp2Throttle * 256) * (
 187:main.c        **** };
 593              		.loc 1 187 100 view .LVU130
 594 01b4 441C     		adds	r4, r0, #1	@ tmp154, _10,
 595              	@ main.c:187:   throttle = lookupThrottle[temp2Throttle] + (tempThrottle - temp2Throttle * 256) * (
 187:main.c        **** };
 596              		.loc 1 187 28 view .LVU131
 597 01b6 51F82020 		ldr	r2, [r1, r0, lsl #2]	@ _11, lookupThrottle
 598              	@ main.c:187:   throttle = lookupThrottle[temp2Throttle] + (tempThrottle - temp2Throttle * 256) * (
 187:main.c        **** };
 599              		.loc 1 187 120 view .LVU132
 600 01ba 51F82410 		ldr	r1, [r1, r4, lsl #2]	@ tmp156, lookupThrottle
 601              	@ main.c:187:   throttle = lookupThrottle[temp2Throttle] + (tempThrottle - temp2Throttle * 256) * (
 187:main.c        **** };
 602              		.loc 1 187 60 view .LVU133
 603 01be A3EB0023 		sub	r3, r3, r0, lsl #8	@ tmp158, _8, _10,
 604              	.LVL34:
 605              	@ main.c:187:   throttle = lookupThrottle[temp2Throttle] + (tempThrottle - temp2Throttle * 256) * (
 187:main.c        **** };
 606              		.loc 1 187 120 view .LVU134
 607 01c2 891A     		subs	r1, r1, r2	@ tmp155, tmp156, _11
 608              	@ main.c:187:   throttle = lookupThrottle[temp2Throttle] + (tempThrottle - temp2Throttle * 256) * (
 187:main.c        **** };
 609              		.loc 1 187 83 view .LVU135
 610 01c4 4B43     		muls	r3, r1, r3	@ tmp159, tmp155
 611              	@ main.c:187:   throttle = lookupThrottle[temp2Throttle] + (tempThrottle - temp2Throttle * 256) * (
 187:main.c        **** };
 612              		.loc 1 187 44 view .LVU136
 613 01c6 02EB1323 		add	r3, r2, r3, lsr #8	@ tmp163, _11, tmp159,
 614              	@ main.c:187:   throttle = lookupThrottle[temp2Throttle] + (tempThrottle - temp2Throttle * 256) * (
 187:main.c        **** };
 615              		.loc 1 187 12 view .LVU137
 616 01ca 034A     		ldr	r2, .L30+8	@ tmp152,
 617 01cc 1380     		strh	r3, [r2]	@ movhi	@ tmp163, throttle
 618              	@ main.c:188: };
 188:main.c        **** 
 619              		.loc 1 188 1 view .LVU138
 620 01ce 10BD     		pop	{r4, pc}	@
 621              	.L31:
 622              		.align	2
 623              	.L30:
 624 01d0 00000000 		.word	rxSetPoint
 625 01d4 00000000 		.word	lookupThrottle
 626 01d8 00000000 		.word	throttle
 627              		.cfi_endproc
 628              	.LFE133:
ARM GAS  /var/folders/_2/qbh2zpt918qcm2b_6mgyydnm0000gn/T//ccx08FD0.s 			page 23


 629              		.size	getThrottleSetPointAndCalculateExpo, .-getThrottleSetPointAndCalculateExpo
 630              		.global	__aeabi_fsub
 631              		.global	__aeabi_fadd
 632              		.global	__aeabi_f2uiz
 633              		.align	1
 634              		.global	calculateEscTimingFlight
 635              		.syntax unified
 636              		.thumb
 637              		.thumb_func
 638              		.fpu softvfp
 639              		.type	calculateEscTimingFlight, %function
 640              	calculateEscTimingFlight:
 641              	.LFB134:
 190:main.c        ****   esc1 = throttle * mixerQuadX[0].throttle + pidOutput[PITCH] * mixerQuadX[0].pitch + pidOutput[ROL
 642              		.loc 1 190 32 is_stmt 1 view -0
 643              		.cfi_startproc
 644              		@ args = 0, pretend = 0, frame = 8
 645              		@ frame_needed = 0, uses_anonymous_args = 0
 191:main.c        ****   esc2 = throttle * mixerQuadX[1].throttle + pidOutput[PITCH] * mixerQuadX[1].pitch + pidOutput[ROL
 646              		.loc 1 191 3 view .LVU140
 647              	@ main.c:191:   esc1 = throttle * mixerQuadX[0].throttle + pidOutput[PITCH] * mixerQuadX[0].pitch +
 191:main.c        ****   esc2 = throttle * mixerQuadX[1].throttle + pidOutput[PITCH] * mixerQuadX[1].pitch + pidOutput[ROL
 648              		.loc 1 191 19 is_stmt 0 view .LVU141
 649 01dc 404B     		ldr	r3, .L41	@ tmp134,
 650              	@ main.c:190: void calculateEscTimingFlight(){
 190:main.c        ****   esc1 = throttle * mixerQuadX[0].throttle + pidOutput[PITCH] * mixerQuadX[0].pitch + pidOutput[ROL
 651              		.loc 1 190 32 view .LVU142
 652 01de 2DE9F74F 		push	{r0, r1, r2, r4, r5, r6, r7, r8, r9, r10, fp, lr}	@
 653              	.LCFI6:
 654              		.cfi_def_cfa_offset 48
 655              		.cfi_offset 4, -36
 656              		.cfi_offset 5, -32
 657              		.cfi_offset 6, -28
 658              		.cfi_offset 7, -24
 659              		.cfi_offset 8, -20
 660              		.cfi_offset 9, -16
 661              		.cfi_offset 10, -12
 662              		.cfi_offset 11, -8
 663              		.cfi_offset 14, -4
 664              	@ main.c:191:   esc1 = throttle * mixerQuadX[0].throttle + pidOutput[PITCH] * mixerQuadX[0].pitch +
 191:main.c        ****   esc2 = throttle * mixerQuadX[1].throttle + pidOutput[PITCH] * mixerQuadX[1].pitch + pidOutput[ROL
 665              		.loc 1 191 55 view .LVU143
 666 01e2 404C     		ldr	r4, .L41+4	@ tmp136,
 667              	@ main.c:191:   esc1 = throttle * mixerQuadX[0].throttle + pidOutput[PITCH] * mixerQuadX[0].pitch +
 191:main.c        ****   esc2 = throttle * mixerQuadX[1].throttle + pidOutput[PITCH] * mixerQuadX[1].pitch + pidOutput[ROL
 668              		.loc 1 191 19 view .LVU144
 669 01e4 1888     		ldrh	r0, [r3]	@, throttle
 670              	@ main.c:191:   esc1 = throttle * mixerQuadX[0].throttle + pidOutput[PITCH] * mixerQuadX[0].pitch +
 191:main.c        ****   esc2 = throttle * mixerQuadX[1].throttle + pidOutput[PITCH] * mixerQuadX[1].pitch + pidOutput[ROL
 671              		.loc 1 191 8 view .LVU145
 672 01e6 DFF80891 		ldr	r9, .L41+16	@ tmp144,
 673              	@ main.c:192:   esc2 = throttle * mixerQuadX[1].throttle + pidOutput[PITCH] * mixerQuadX[1].pitch +
 192:main.c        ****   esc3 = throttle * mixerQuadX[2].throttle + pidOutput[PITCH] * mixerQuadX[2].pitch + pidOutput[ROL
 674              		.loc 1 192 8 view .LVU146
 675 01ea DFF808B1 		ldr	fp, .L41+20	@ tmp150,
 676              	@ main.c:191:   esc1 = throttle * mixerQuadX[0].throttle + pidOutput[PITCH] * mixerQuadX[0].pitch +
 191:main.c        ****   esc2 = throttle * mixerQuadX[1].throttle + pidOutput[PITCH] * mixerQuadX[1].pitch + pidOutput[ROL
ARM GAS  /var/folders/_2/qbh2zpt918qcm2b_6mgyydnm0000gn/T//ccx08FD0.s 			page 24


 677              		.loc 1 191 19 view .LVU147
 678 01ee FFF7FEFF 		bl	__aeabi_i2f		@
 679              	.LVL35:
 680              	@ main.c:191:   esc1 = throttle * mixerQuadX[0].throttle + pidOutput[PITCH] * mixerQuadX[0].pitch +
 191:main.c        ****   esc2 = throttle * mixerQuadX[1].throttle + pidOutput[PITCH] * mixerQuadX[1].pitch + pidOutput[ROL
 681              		.loc 1 191 55 view .LVU148
 682 01f2 6368     		ldr	r3, [r4, #4]	@ float	@ _6, pidOutput
 683 01f4 0193     		str	r3, [sp, #4]	@ _6, %sfp
 684 01f6 1946     		mov	r1, r3	@, _6
 685              	@ main.c:191:   esc1 = throttle * mixerQuadX[0].throttle + pidOutput[PITCH] * mixerQuadX[0].pitch +
 191:main.c        ****   esc2 = throttle * mixerQuadX[1].throttle + pidOutput[PITCH] * mixerQuadX[1].pitch + pidOutput[ROL
 686              		.loc 1 191 19 view .LVU149
 687 01f8 0746     		mov	r7, r0	@ _3, tmp231
 688 01fa FFF7FEFF 		bl	__aeabi_fsub		@
 689              	.LVL36:
 690              	@ main.c:191:   esc1 = throttle * mixerQuadX[0].throttle + pidOutput[PITCH] * mixerQuadX[0].pitch +
 191:main.c        ****   esc2 = throttle * mixerQuadX[1].throttle + pidOutput[PITCH] * mixerQuadX[1].pitch + pidOutput[ROL
 691              		.loc 1 191 96 view .LVU150
 692 01fe 2568     		ldr	r5, [r4]	@ float	@ _8, pidOutput
 693              	@ main.c:191:   esc1 = throttle * mixerQuadX[0].throttle + pidOutput[PITCH] * mixerQuadX[0].pitch +
 191:main.c        ****   esc2 = throttle * mixerQuadX[1].throttle + pidOutput[PITCH] * mixerQuadX[1].pitch + pidOutput[ROL
 694              		.loc 1 191 135 view .LVU151
 695 0200 A468     		ldr	r4, [r4, #8]	@ float	@ _11, pidOutput
 696 0202 0646     		mov	r6, r0	@ tmp137, tmp232
 697              	@ main.c:191:   esc1 = throttle * mixerQuadX[0].throttle + pidOutput[PITCH] * mixerQuadX[0].pitch +
 191:main.c        ****   esc2 = throttle * mixerQuadX[1].throttle + pidOutput[PITCH] * mixerQuadX[1].pitch + pidOutput[ROL
 698              		.loc 1 191 85 view .LVU152
 699 0204 0146     		mov	r1, r0	@, tmp137
 700 0206 2846     		mov	r0, r5	@, _8
 701 0208 FFF7FEFF 		bl	__aeabi_fadd		@
 702              	.LVL37:
 703              	@ main.c:191:   esc1 = throttle * mixerQuadX[0].throttle + pidOutput[PITCH] * mixerQuadX[0].pitch +
 191:main.c        ****   esc2 = throttle * mixerQuadX[1].throttle + pidOutput[PITCH] * mixerQuadX[1].pitch + pidOutput[ROL
 704              		.loc 1 191 8 view .LVU153
 705 020c 2146     		mov	r1, r4	@, _11
 706 020e FFF7FEFF 		bl	__aeabi_fsub		@
 707              	.LVL38:
 708 0212 FFF7FEFF 		bl	__aeabi_f2uiz		@
 709              	.LVL39:
 710 0216 1FFA80FA 		uxth	r10, r0	@ _12, tmp233
 711              	@ main.c:192:   esc2 = throttle * mixerQuadX[1].throttle + pidOutput[PITCH] * mixerQuadX[1].pitch +
 192:main.c        ****   esc3 = throttle * mixerQuadX[2].throttle + pidOutput[PITCH] * mixerQuadX[2].pitch + pidOutput[ROL
 712              		.loc 1 192 124 view .LVU154
 713 021a 2946     		mov	r1, r5	@, _8
 714              	@ main.c:191:   esc1 = throttle * mixerQuadX[0].throttle + pidOutput[PITCH] * mixerQuadX[0].pitch +
 191:main.c        ****   esc2 = throttle * mixerQuadX[1].throttle + pidOutput[PITCH] * mixerQuadX[1].pitch + pidOutput[ROL
 715              		.loc 1 191 8 view .LVU155
 716 021c A9F800A0 		strh	r10, [r9]	@ movhi	@ _12, esc1
 192:main.c        ****   esc3 = throttle * mixerQuadX[2].throttle + pidOutput[PITCH] * mixerQuadX[2].pitch + pidOutput[ROL
 717              		.loc 1 192 3 is_stmt 1 view .LVU156
 718              	@ main.c:192:   esc2 = throttle * mixerQuadX[1].throttle + pidOutput[PITCH] * mixerQuadX[1].pitch +
 192:main.c        ****   esc3 = throttle * mixerQuadX[2].throttle + pidOutput[PITCH] * mixerQuadX[2].pitch + pidOutput[ROL
 719              		.loc 1 192 124 is_stmt 0 view .LVU157
 720 0220 3046     		mov	r0, r6	@, tmp137
 721 0222 FFF7FEFF 		bl	__aeabi_fsub		@
 722              	.LVL40:
 723 0226 2146     		mov	r1, r4	@, _11
ARM GAS  /var/folders/_2/qbh2zpt918qcm2b_6mgyydnm0000gn/T//ccx08FD0.s 			page 25


 724 0228 FFF7FEFF 		bl	__aeabi_fadd		@
 725              	.LVL41:
 726              	@ main.c:192:   esc2 = throttle * mixerQuadX[1].throttle + pidOutput[PITCH] * mixerQuadX[1].pitch +
 192:main.c        ****   esc3 = throttle * mixerQuadX[2].throttle + pidOutput[PITCH] * mixerQuadX[2].pitch + pidOutput[ROL
 727              		.loc 1 192 8 view .LVU158
 728 022c FFF7FEFF 		bl	__aeabi_f2uiz		@
 729              	.LVL42:
 730              	@ main.c:193:   esc3 = throttle * mixerQuadX[2].throttle + pidOutput[PITCH] * mixerQuadX[2].pitch +
 193:main.c        ****   esc4 = throttle * mixerQuadX[3].throttle + pidOutput[PITCH] * mixerQuadX[3].pitch + pidOutput[ROL
 731              		.loc 1 193 44 view .LVU159
 732 0230 019B     		ldr	r3, [sp, #4]	@ _6, %sfp
 733              	@ main.c:193:   esc3 = throttle * mixerQuadX[2].throttle + pidOutput[PITCH] * mixerQuadX[2].pitch +
 193:main.c        ****   esc4 = throttle * mixerQuadX[3].throttle + pidOutput[PITCH] * mixerQuadX[3].pitch + pidOutput[ROL
 734              		.loc 1 193 8 view .LVU160
 735 0232 2D4E     		ldr	r6, .L41+8	@ tmp157,
 736              	@ main.c:192:   esc2 = throttle * mixerQuadX[1].throttle + pidOutput[PITCH] * mixerQuadX[1].pitch +
 192:main.c        ****   esc3 = throttle * mixerQuadX[2].throttle + pidOutput[PITCH] * mixerQuadX[2].pitch + pidOutput[ROL
 737              		.loc 1 192 8 view .LVU161
 738 0234 1FFA80F8 		uxth	r8, r0	@ _14, tmp234
 739              	@ main.c:193:   esc3 = throttle * mixerQuadX[2].throttle + pidOutput[PITCH] * mixerQuadX[2].pitch +
 193:main.c        ****   esc4 = throttle * mixerQuadX[3].throttle + pidOutput[PITCH] * mixerQuadX[3].pitch + pidOutput[ROL
 740              		.loc 1 193 44 view .LVU162
 741 0238 1946     		mov	r1, r3	@, _6
 742              	@ main.c:192:   esc2 = throttle * mixerQuadX[1].throttle + pidOutput[PITCH] * mixerQuadX[1].pitch +
 192:main.c        ****   esc3 = throttle * mixerQuadX[2].throttle + pidOutput[PITCH] * mixerQuadX[2].pitch + pidOutput[ROL
 743              		.loc 1 192 8 view .LVU163
 744 023a ABF80080 		strh	r8, [fp]	@ movhi	@ _14, esc2
 193:main.c        ****   esc4 = throttle * mixerQuadX[3].throttle + pidOutput[PITCH] * mixerQuadX[3].pitch + pidOutput[ROL
 745              		.loc 1 193 3 is_stmt 1 view .LVU164
 746              	@ main.c:193:   esc3 = throttle * mixerQuadX[2].throttle + pidOutput[PITCH] * mixerQuadX[2].pitch +
 193:main.c        ****   esc4 = throttle * mixerQuadX[3].throttle + pidOutput[PITCH] * mixerQuadX[3].pitch + pidOutput[ROL
 747              		.loc 1 193 44 is_stmt 0 view .LVU165
 748 023e 3846     		mov	r0, r7	@, _3
 749 0240 FFF7FEFF 		bl	__aeabi_fadd		@
 750              	.LVL43:
 751              	@ main.c:193:   esc3 = throttle * mixerQuadX[2].throttle + pidOutput[PITCH] * mixerQuadX[2].pitch +
 193:main.c        ****   esc4 = throttle * mixerQuadX[3].throttle + pidOutput[PITCH] * mixerQuadX[3].pitch + pidOutput[ROL
 752              		.loc 1 193 8 view .LVU166
 753 0244 2946     		mov	r1, r5	@, _8
 754              	@ main.c:193:   esc3 = throttle * mixerQuadX[2].throttle + pidOutput[PITCH] * mixerQuadX[2].pitch +
 193:main.c        ****   esc4 = throttle * mixerQuadX[3].throttle + pidOutput[PITCH] * mixerQuadX[3].pitch + pidOutput[ROL
 755              		.loc 1 193 44 view .LVU167
 756 0246 0190     		str	r0, [sp, #4]	@ tmp152, %sfp
 757              	@ main.c:193:   esc3 = throttle * mixerQuadX[2].throttle + pidOutput[PITCH] * mixerQuadX[2].pitch +
 193:main.c        ****   esc4 = throttle * mixerQuadX[3].throttle + pidOutput[PITCH] * mixerQuadX[3].pitch + pidOutput[ROL
 758              		.loc 1 193 8 view .LVU168
 759 0248 FFF7FEFF 		bl	__aeabi_fsub		@
 760              	.LVL44:
 761 024c 2146     		mov	r1, r4	@, _11
 762 024e FFF7FEFF 		bl	__aeabi_fsub		@
 763              	.LVL45:
 764 0252 FFF7FEFF 		bl	__aeabi_f2uiz		@
 765              	.LVL46:
 766              	@ main.c:194:   esc4 = throttle * mixerQuadX[3].throttle + pidOutput[PITCH] * mixerQuadX[3].pitch +
 194:main.c        ****   /**
 767              		.loc 1 194 85 view .LVU169
 768 0256 019B     		ldr	r3, [sp, #4]	@ tmp152, %sfp
ARM GAS  /var/folders/_2/qbh2zpt918qcm2b_6mgyydnm0000gn/T//ccx08FD0.s 			page 26


 769              	@ main.c:193:   esc3 = throttle * mixerQuadX[2].throttle + pidOutput[PITCH] * mixerQuadX[2].pitch +
 193:main.c        ****   esc4 = throttle * mixerQuadX[3].throttle + pidOutput[PITCH] * mixerQuadX[3].pitch + pidOutput[ROL
 770              		.loc 1 193 8 view .LVU170
 771 0258 87B2     		uxth	r7, r0	@ _16, tmp236
 772              	@ main.c:194:   esc4 = throttle * mixerQuadX[3].throttle + pidOutput[PITCH] * mixerQuadX[3].pitch +
 194:main.c        ****   /**
 773              		.loc 1 194 85 view .LVU171
 774 025a 1946     		mov	r1, r3	@, tmp152
 775              	@ main.c:193:   esc3 = throttle * mixerQuadX[2].throttle + pidOutput[PITCH] * mixerQuadX[2].pitch +
 193:main.c        ****   esc4 = throttle * mixerQuadX[3].throttle + pidOutput[PITCH] * mixerQuadX[3].pitch + pidOutput[ROL
 776              		.loc 1 193 8 view .LVU172
 777 025c 3780     		strh	r7, [r6]	@ movhi	@ _16, esc3
 194:main.c        ****   /**
 778              		.loc 1 194 3 is_stmt 1 view .LVU173
 779              	@ main.c:194:   esc4 = throttle * mixerQuadX[3].throttle + pidOutput[PITCH] * mixerQuadX[3].pitch +
 194:main.c        ****   /**
 780              		.loc 1 194 85 is_stmt 0 view .LVU174
 781 025e 2846     		mov	r0, r5	@, _8
 782 0260 FFF7FEFF 		bl	__aeabi_fadd		@
 783              	.LVL47:
 784              	@ main.c:194:   esc4 = throttle * mixerQuadX[3].throttle + pidOutput[PITCH] * mixerQuadX[3].pitch +
 194:main.c        ****   /**
 785              		.loc 1 194 124 view .LVU175
 786 0264 2146     		mov	r1, r4	@, _11
 787 0266 FFF7FEFF 		bl	__aeabi_fadd		@
 788              	.LVL48:
 789              	@ main.c:194:   esc4 = throttle * mixerQuadX[3].throttle + pidOutput[PITCH] * mixerQuadX[3].pitch +
 194:main.c        ****   /**
 790              		.loc 1 194 8 view .LVU176
 791 026a FFF7FEFF 		bl	__aeabi_f2uiz		@
 792              	.LVL49:
 793              	@ main.c:199:   if(esc1 > MAX_RC) esc1 = MAX_RC;
 199:main.c        ****   if(esc2 > MAX_RC) esc2 = MAX_RC;
 794              		.loc 1 199 5 view .LVU177
 795 026e 40F2C672 		movw	r2, #1990	@ tmp167,
 796 0272 9245     		cmp	r10, r2	@ _12, tmp167
 797              	@ main.c:199:   if(esc1 > MAX_RC) esc1 = MAX_RC;
 199:main.c        ****   if(esc2 > MAX_RC) esc2 = MAX_RC;
 798              		.loc 1 199 26 view .LVU178
 799 0274 88BF     		it	hi
 800 0276 A9F80020 		strhhi	r2, [r9]	@ movhi	@ tmp221, esc1
 801              	@ main.c:200:   if(esc2 > MAX_RC) esc2 = MAX_RC;
 200:main.c        ****   if(esc3 > MAX_RC) esc3 = MAX_RC;
 802              		.loc 1 200 5 view .LVU179
 803 027a 9045     		cmp	r8, r2	@ _14, tmp221
 804              	@ main.c:200:   if(esc2 > MAX_RC) esc2 = MAX_RC;
 200:main.c        ****   if(esc3 > MAX_RC) esc3 = MAX_RC;
 805              		.loc 1 200 26 view .LVU180
 806 027c 88BF     		it	hi
 807 027e ABF80020 		strhhi	r2, [fp]	@ movhi	@ tmp221, esc2
 808              	@ main.c:201:   if(esc3 > MAX_RC) esc3 = MAX_RC;
 201:main.c        ****   if(esc4 > MAX_RC) esc4 = MAX_RC;
 809              		.loc 1 201 5 view .LVU181
 810 0282 40F2C672 		movw	r2, #1990	@ tmp179,
 811              	@ main.c:194:   esc4 = throttle * mixerQuadX[3].throttle + pidOutput[PITCH] * mixerQuadX[3].pitch +
 194:main.c        ****   /**
 812              		.loc 1 194 8 view .LVU182
ARM GAS  /var/folders/_2/qbh2zpt918qcm2b_6mgyydnm0000gn/T//ccx08FD0.s 			page 27


 813 0286 194B     		ldr	r3, .L41+12	@ tmp163,
 814              	@ main.c:201:   if(esc3 > MAX_RC) esc3 = MAX_RC;
 201:main.c        ****   if(esc4 > MAX_RC) esc4 = MAX_RC;
 815              		.loc 1 201 5 view .LVU183
 816 0288 9742     		cmp	r7, r2	@ _16, tmp179
 817              	@ main.c:194:   esc4 = throttle * mixerQuadX[3].throttle + pidOutput[PITCH] * mixerQuadX[3].pitch +
 194:main.c        ****   /**
 818              		.loc 1 194 8 view .LVU184
 819 028a 81B2     		uxth	r1, r0	@ _19, tmp237
 820              	@ main.c:201:   if(esc3 > MAX_RC) esc3 = MAX_RC;
 201:main.c        ****   if(esc4 > MAX_RC) esc4 = MAX_RC;
 821              		.loc 1 201 26 view .LVU185
 822 028c 88BF     		it	hi
 823 028e 3280     		strhhi	r2, [r6]	@ movhi	@ tmp222, esc3
 824              	@ main.c:202:   if(esc4 > MAX_RC) esc4 = MAX_RC;
 202:main.c        ****         
 825              		.loc 1 202 5 view .LVU186
 826 0290 9142     		cmp	r1, r2	@ _19, tmp222
 827              	@ main.c:194:   esc4 = throttle * mixerQuadX[3].throttle + pidOutput[PITCH] * mixerQuadX[3].pitch +
 194:main.c        ****   /**
 828              		.loc 1 194 8 view .LVU187
 829 0292 1980     		strh	r1, [r3]	@ movhi	@ _19, esc4
 199:main.c        ****   if(esc2 > MAX_RC) esc2 = MAX_RC;
 830              		.loc 1 199 3 is_stmt 1 view .LVU188
 199:main.c        ****   if(esc2 > MAX_RC) esc2 = MAX_RC;
 831              		.loc 1 199 21 view .LVU189
 200:main.c        ****   if(esc3 > MAX_RC) esc3 = MAX_RC;
 832              		.loc 1 200 3 view .LVU190
 200:main.c        ****   if(esc3 > MAX_RC) esc3 = MAX_RC;
 833              		.loc 1 200 21 view .LVU191
 201:main.c        ****   if(esc4 > MAX_RC) esc4 = MAX_RC;
 834              		.loc 1 201 3 view .LVU192
 201:main.c        ****   if(esc4 > MAX_RC) esc4 = MAX_RC;
 835              		.loc 1 201 21 view .LVU193
 202:main.c        ****         
 836              		.loc 1 202 3 view .LVU194
 202:main.c        ****         
 837              		.loc 1 202 21 view .LVU195
 838              	@ main.c:202:   if(esc4 > MAX_RC) esc4 = MAX_RC;
 202:main.c        ****         
 839              		.loc 1 202 26 is_stmt 0 view .LVU196
 840 0294 88BF     		it	hi
 841 0296 1A80     		strhhi	r2, [r3]	@ movhi	@ tmp222, esc4
 204:main.c        ****   if(esc2 < MIN_RC) esc2 = MIN_RC;
 842              		.loc 1 204 3 is_stmt 1 view .LVU197
 843              	@ main.c:204:   if(esc1 < MIN_RC) esc1 = MIN_RC;
 204:main.c        ****   if(esc2 < MIN_RC) esc2 = MIN_RC;
 844              		.loc 1 204 5 is_stmt 0 view .LVU198
 845 0298 B9F80020 		ldrh	r2, [r9]	@ esc1, esc1
 846 029c B2F57A7F 		cmp	r2, #1000	@ esc1,
 204:main.c        ****   if(esc2 < MIN_RC) esc2 = MIN_RC;
 847              		.loc 1 204 21 is_stmt 1 view .LVU199
 848              	@ main.c:204:   if(esc1 < MIN_RC) esc1 = MIN_RC;
 204:main.c        ****   if(esc2 < MIN_RC) esc2 = MIN_RC;
 849              		.loc 1 204 26 is_stmt 0 view .LVU200
 850 02a0 3CBF     		itt	cc
 851 02a2 4FF47A72 		movcc	r2, #1000	@ tmp195,
ARM GAS  /var/folders/_2/qbh2zpt918qcm2b_6mgyydnm0000gn/T//ccx08FD0.s 			page 28


 852 02a6 A9F80020 		strhcc	r2, [r9]	@ movhi	@ tmp195, esc1
 205:main.c        ****   if(esc3 < MIN_RC) esc3 = MIN_RC;
 853              		.loc 1 205 3 is_stmt 1 view .LVU201
 854              	@ main.c:205:   if(esc2 < MIN_RC) esc2 = MIN_RC;
 205:main.c        ****   if(esc3 < MIN_RC) esc3 = MIN_RC;
 855              		.loc 1 205 5 is_stmt 0 view .LVU202
 856 02aa BBF80020 		ldrh	r2, [fp]	@ esc2, esc2
 857 02ae B2F57A7F 		cmp	r2, #1000	@ esc2,
 205:main.c        ****   if(esc3 < MIN_RC) esc3 = MIN_RC;
 858              		.loc 1 205 21 is_stmt 1 view .LVU203
 859              	@ main.c:205:   if(esc2 < MIN_RC) esc2 = MIN_RC;
 205:main.c        ****   if(esc3 < MIN_RC) esc3 = MIN_RC;
 860              		.loc 1 205 26 is_stmt 0 view .LVU204
 861 02b2 3CBF     		itt	cc
 862 02b4 4FF47A72 		movcc	r2, #1000	@ tmp202,
 863 02b8 ABF80020 		strhcc	r2, [fp]	@ movhi	@ tmp202, esc2
 206:main.c        ****   if(esc4 < MIN_RC) esc4 = MIN_RC;
 864              		.loc 1 206 3 is_stmt 1 view .LVU205
 865              	@ main.c:206:   if(esc3 < MIN_RC) esc3 = MIN_RC;
 206:main.c        ****   if(esc4 < MIN_RC) esc4 = MIN_RC;
 866              		.loc 1 206 5 is_stmt 0 view .LVU206
 867 02bc 3288     		ldrh	r2, [r6]	@ esc3, esc3
 868 02be B2F57A7F 		cmp	r2, #1000	@ esc3,
 206:main.c        ****   if(esc4 < MIN_RC) esc4 = MIN_RC;
 869              		.loc 1 206 21 is_stmt 1 view .LVU207
 870              	@ main.c:206:   if(esc3 < MIN_RC) esc3 = MIN_RC;
 206:main.c        ****   if(esc4 < MIN_RC) esc4 = MIN_RC;
 871              		.loc 1 206 26 is_stmt 0 view .LVU208
 872 02c2 3CBF     		itt	cc
 873 02c4 4FF47A72 		movcc	r2, #1000	@ tmp209,
 874 02c8 3280     		strhcc	r2, [r6]	@ movhi	@ tmp209, esc3
 207:main.c        **** };
 875              		.loc 1 207 3 is_stmt 1 view .LVU209
 876              	@ main.c:207:   if(esc4 < MIN_RC) esc4 = MIN_RC;
 207:main.c        **** };
 877              		.loc 1 207 5 is_stmt 0 view .LVU210
 878 02ca 1A88     		ldrh	r2, [r3]	@ esc4, esc4
 879 02cc B2F57A7F 		cmp	r2, #1000	@ esc4,
 207:main.c        **** };
 880              		.loc 1 207 21 is_stmt 1 view .LVU211
 881              	@ main.c:207:   if(esc4 < MIN_RC) esc4 = MIN_RC;
 207:main.c        **** };
 882              		.loc 1 207 26 is_stmt 0 view .LVU212
 883 02d0 3CBF     		itt	cc
 884 02d2 4FF47A72 		movcc	r2, #1000	@ tmp216,
 885 02d6 1A80     		strhcc	r2, [r3]	@ movhi	@ tmp216, esc4
 886              	@ main.c:208: };
 208:main.c        **** 
 887              		.loc 1 208 1 view .LVU213
 888 02d8 03B0     		add	sp, sp, #12	@,,
 889              	.LCFI7:
 890              		.cfi_def_cfa_offset 36
 891              		@ sp needed	@
 892 02da BDE8F08F 		pop	{r4, r5, r6, r7, r8, r9, r10, fp, pc}	@
 893              	.L42:
 894 02de 00BF     		.align	2
 895              	.L41:
ARM GAS  /var/folders/_2/qbh2zpt918qcm2b_6mgyydnm0000gn/T//ccx08FD0.s 			page 29


 896 02e0 00000000 		.word	throttle
 897 02e4 00000000 		.word	pidOutput
 898 02e8 00000000 		.word	esc3
 899 02ec 00000000 		.word	esc4
 900 02f0 00000000 		.word	esc1
 901 02f4 00000000 		.word	esc2
 902              		.cfi_endproc
 903              	.LFE134:
 904              		.size	calculateEscTimingFlight, .-calculateEscTimingFlight
 905              		.align	1
 906              		.global	calculateEscTimingGround
 907              		.syntax unified
 908              		.thumb
 909              		.thumb_func
 910              		.fpu softvfp
 911              		.type	calculateEscTimingGround, %function
 912              	calculateEscTimingGround:
 913              	.LFB135:
 211:main.c        ****  esc1 = LOW_RC;
 914              		.loc 1 211 36 is_stmt 1 view -0
 915              		.cfi_startproc
 916              		@ args = 0, pretend = 0, frame = 0
 917              		@ frame_needed = 0, uses_anonymous_args = 0
 918              		@ link register save eliminated.
 212:main.c        ****  esc2 = LOW_RC;
 919              		.loc 1 212 2 view .LVU215
 920              	@ main.c:212:  esc1 = LOW_RC;
 212:main.c        ****  esc2 = LOW_RC;
 921              		.loc 1 212 7 is_stmt 0 view .LVU216
 922 02f8 054A     		ldr	r2, .L44	@ tmp110,
 923 02fa 40F2D933 		movw	r3, #985	@ tmp112,
 924 02fe 1380     		strh	r3, [r2]	@ movhi	@ tmp112, esc1
 213:main.c        ****  esc3 = LOW_RC;
 925              		.loc 1 213 2 is_stmt 1 view .LVU217
 926              	@ main.c:213:  esc2 = LOW_RC;
 213:main.c        ****  esc3 = LOW_RC;
 927              		.loc 1 213 7 is_stmt 0 view .LVU218
 928 0300 044A     		ldr	r2, .L44+4	@ tmp113,
 929 0302 1380     		strh	r3, [r2]	@ movhi	@ tmp112, esc2
 214:main.c        ****  esc4 = LOW_RC;   
 930              		.loc 1 214 2 is_stmt 1 view .LVU219
 931              	@ main.c:214:  esc3 = LOW_RC;
 214:main.c        ****  esc4 = LOW_RC;   
 932              		.loc 1 214 7 is_stmt 0 view .LVU220
 933 0304 044A     		ldr	r2, .L44+8	@ tmp116,
 934 0306 1380     		strh	r3, [r2]	@ movhi	@ tmp112, esc3
 215:main.c        **** };        
 935              		.loc 1 215 2 is_stmt 1 view .LVU221
 936              	@ main.c:215:  esc4 = LOW_RC;   
 215:main.c        **** };        
 937              		.loc 1 215 7 is_stmt 0 view .LVU222
 938 0308 044A     		ldr	r2, .L44+12	@ tmp119,
 939 030a 1380     		strh	r3, [r2]	@ movhi	@ tmp112, esc4
 940              	@ main.c:216: };        
 216:main.c        **** 
 941              		.loc 1 216 1 view .LVU223
 942 030c 7047     		bx	lr	@
ARM GAS  /var/folders/_2/qbh2zpt918qcm2b_6mgyydnm0000gn/T//ccx08FD0.s 			page 30


 943              	.L45:
 944 030e 00BF     		.align	2
 945              	.L44:
 946 0310 00000000 		.word	esc1
 947 0314 00000000 		.word	esc2
 948 0318 00000000 		.word	esc3
 949 031c 00000000 		.word	esc4
 950              		.cfi_endproc
 951              	.LFE135:
 952              		.size	calculateEscTimingGround, .-calculateEscTimingGround
 953              		.align	1
 954              		.global	updatePWMTimerRegistersForMotors
 955              		.syntax unified
 956              		.thumb
 957              		.thumb_func
 958              		.fpu softvfp
 959              		.type	updatePWMTimerRegistersForMotors, %function
 960              	updatePWMTimerRegistersForMotors:
 961              	.LFB136:
 219:main.c        ****   /**
 962              		.loc 1 219 44 is_stmt 1 view -0
 963              		.cfi_startproc
 964              		@ args = 0, pretend = 0, frame = 0
 965              		@ frame_needed = 0, uses_anonymous_args = 0
 966              		@ link register save eliminated.
 229:main.c        ****   TIM3->CCR2 = esc2; //FRRONT RIGHT
 967              		.loc 1 229 3 view .LVU225
 968              	@ main.c:229:   TIM3->CCR1 = esc1; //FRONT LEFT
 229:main.c        ****   TIM3->CCR2 = esc2; //FRRONT RIGHT
 969              		.loc 1 229 14 is_stmt 0 view .LVU226
 970 0320 074B     		ldr	r3, .L47	@ tmp118,
 971 0322 1A88     		ldrh	r2, [r3]	@ _2, esc1
 972 0324 074B     		ldr	r3, .L47+4	@ tmp119,
 973 0326 5A63     		str	r2, [r3, #52]	@ _2, MEM[(struct TIM_TypeDef *)1073742848B].CCR1
 230:main.c        ****   TIM4->CCR1 = esc3; // REAR RIGHT
 974              		.loc 1 230 3 is_stmt 1 view .LVU227
 975              	@ main.c:230:   TIM3->CCR2 = esc2; //FRRONT RIGHT
 230:main.c        ****   TIM4->CCR1 = esc3; // REAR RIGHT
 976              		.loc 1 230 14 is_stmt 0 view .LVU228
 977 0328 074A     		ldr	r2, .L47+8	@ tmp120,
 978 032a 1288     		ldrh	r2, [r2]	@ _4, esc2
 979 032c 9A63     		str	r2, [r3, #56]	@ _4, MEM[(struct TIM_TypeDef *)1073742848B].CCR2
 231:main.c        ****   TIM4->CCR2 = esc4; // REAR LEFT
 980              		.loc 1 231 3 is_stmt 1 view .LVU229
 981              	@ main.c:231:   TIM4->CCR1 = esc3; // REAR RIGHT
 231:main.c        ****   TIM4->CCR2 = esc4; // REAR LEFT
 982              		.loc 1 231 14 is_stmt 0 view .LVU230
 983 032e 074B     		ldr	r3, .L47+12	@ tmp122,
 984 0330 1A88     		ldrh	r2, [r3]	@ _6, esc3
 985 0332 074B     		ldr	r3, .L47+16	@ tmp123,
 986 0334 5A63     		str	r2, [r3, #52]	@ _6, MEM[(struct TIM_TypeDef *)1073743872B].CCR1
 232:main.c        **** #endif
 987              		.loc 1 232 3 is_stmt 1 view .LVU231
 988              	@ main.c:232:   TIM4->CCR2 = esc4; // REAR LEFT
 232:main.c        **** #endif
 989              		.loc 1 232 14 is_stmt 0 view .LVU232
 990 0336 074A     		ldr	r2, .L47+20	@ tmp124,
ARM GAS  /var/folders/_2/qbh2zpt918qcm2b_6mgyydnm0000gn/T//ccx08FD0.s 			page 31


 991 0338 1288     		ldrh	r2, [r2]	@ _8, esc4
 992 033a 9A63     		str	r2, [r3, #56]	@ _8, MEM[(struct TIM_TypeDef *)1073743872B].CCR2
 993              	@ main.c:234: };
 234:main.c        **** 
 994              		.loc 1 234 1 view .LVU233
 995 033c 7047     		bx	lr	@
 996              	.L48:
 997 033e 00BF     		.align	2
 998              	.L47:
 999 0340 00000000 		.word	esc1
 1000 0344 00040040 		.word	1073742848
 1001 0348 00000000 		.word	esc2
 1002 034c 00000000 		.word	esc3
 1003 0350 00080040 		.word	1073743872
 1004 0354 00000000 		.word	esc4
 1005              		.cfi_endproc
 1006              	.LFE136:
 1007              		.size	updatePWMTimerRegistersForMotors, .-updatePWMTimerRegistersForMotors
 1008              		.align	1
 1009              		.global	reinitializePWMTimerCounter
 1010              		.syntax unified
 1011              		.thumb
 1012              		.thumb_func
 1013              		.fpu softvfp
 1014              		.type	reinitializePWMTimerCounter, %function
 1015              	reinitializePWMTimerCounter:
 1016              	.LFB137:
 236:main.c        ****  /**
 1017              		.loc 1 236 39 is_stmt 1 view -0
 1018              		.cfi_startproc
 1019              		@ args = 0, pretend = 0, frame = 0
 1020              		@ frame_needed = 0, uses_anonymous_args = 0
 1021              		@ link register save eliminated.
 241:main.c        ****  TIM3->EGR |= 0x01;
 1022              		.loc 1 241 2 view .LVU235
 1023              	@ main.c:241:  TIM4->EGR |= 0x01;
 241:main.c        ****  TIM3->EGR |= 0x01;
 1024              		.loc 1 241 12 is_stmt 0 view .LVU236
 1025 0358 054A     		ldr	r2, .L50	@ tmp114,
 1026 035a 5369     		ldr	r3, [r2, #20]	@ _1, MEM[(struct TIM_TypeDef *)1073743872B].EGR
 1027 035c 43F00103 		orr	r3, r3, #1	@ _2, _1,
 1028 0360 5361     		str	r3, [r2, #20]	@ _2, MEM[(struct TIM_TypeDef *)1073743872B].EGR
 242:main.c        **** };
 1029              		.loc 1 242 2 is_stmt 1 view .LVU237
 1030              	@ main.c:242:  TIM3->EGR |= 0x01;
 242:main.c        **** };
 1031              		.loc 1 242 12 is_stmt 0 view .LVU238
 1032 0362 A2F58062 		sub	r2, r2, #1024	@ tmp116, tmp116,
 1033 0366 5369     		ldr	r3, [r2, #20]	@ _3, MEM[(struct TIM_TypeDef *)1073742848B].EGR
 1034 0368 43F00103 		orr	r3, r3, #1	@ _4, _3,
 1035 036c 5361     		str	r3, [r2, #20]	@ _4, MEM[(struct TIM_TypeDef *)1073742848B].EGR
 1036              	@ main.c:243: };
 243:main.c        **** 
 1037              		.loc 1 243 1 view .LVU239
 1038 036e 7047     		bx	lr	@
 1039              	.L51:
 1040              		.align	2
ARM GAS  /var/folders/_2/qbh2zpt918qcm2b_6mgyydnm0000gn/T//ccx08FD0.s 			page 32


 1041              	.L50:
 1042 0370 00080040 		.word	1073743872
 1043              		.cfi_endproc
 1044              	.LFE137:
 1045              		.size	reinitializePWMTimerCounter, .-reinitializePWMTimerCounter
 1046              		.align	1
 1047              		.global	updatePWMTimerRegistersForGimbal
 1048              		.syntax unified
 1049              		.thumb
 1050              		.thumb_func
 1051              		.fpu softvfp
 1052              		.type	updatePWMTimerRegistersForGimbal, %function
 1053              	updatePWMTimerRegistersForGimbal:
 1054              	.LFB138:
 245:main.c        ****  TIM16->CCR1 = rxSetPoint[6];
 1055              		.loc 1 245 44 is_stmt 1 view -0
 1056              		.cfi_startproc
 1057              		@ args = 0, pretend = 0, frame = 0
 1058              		@ frame_needed = 0, uses_anonymous_args = 0
 1059              		@ link register save eliminated.
 246:main.c        ****  TIM17->CCR1 = rxSetPoint[7]; 
 1060              		.loc 1 246 2 view .LVU241
 1061              	@ main.c:246:  TIM16->CCR1 = rxSetPoint[6];
 246:main.c        ****  TIM17->CCR1 = rxSetPoint[7]; 
 1062              		.loc 1 246 26 is_stmt 0 view .LVU242
 1063 0374 034B     		ldr	r3, .L53	@ tmp114,
 1064              	@ main.c:246:  TIM16->CCR1 = rxSetPoint[6];
 246:main.c        ****  TIM17->CCR1 = rxSetPoint[7]; 
 1065              		.loc 1 246 14 view .LVU243
 1066 0376 044A     		ldr	r2, .L53+4	@ tmp115,
 1067              	@ main.c:246:  TIM16->CCR1 = rxSetPoint[6];
 246:main.c        ****  TIM17->CCR1 = rxSetPoint[7]; 
 1068              		.loc 1 246 26 view .LVU244
 1069 0378 9969     		ldr	r1, [r3, #24]	@ _2, rxSetPoint
 1070              	@ main.c:246:  TIM16->CCR1 = rxSetPoint[6];
 246:main.c        ****  TIM17->CCR1 = rxSetPoint[7]; 
 1071              		.loc 1 246 14 view .LVU245
 1072 037a 5163     		str	r1, [r2, #52]	@ _2, MEM[(struct TIM_TypeDef *)1073824768B].CCR1
 247:main.c        **** };
 1073              		.loc 1 247 2 is_stmt 1 view .LVU246
 1074              	@ main.c:247:  TIM17->CCR1 = rxSetPoint[7]; 
 247:main.c        **** };
 1075              		.loc 1 247 26 is_stmt 0 view .LVU247
 1076 037c DA69     		ldr	r2, [r3, #28]	@ _4, rxSetPoint
 1077              	@ main.c:247:  TIM17->CCR1 = rxSetPoint[7]; 
 247:main.c        **** };
 1078              		.loc 1 247 14 view .LVU248
 1079 037e 034B     		ldr	r3, .L53+8	@ tmp117,
 1080 0380 5A63     		str	r2, [r3, #52]	@ _4, MEM[(struct TIM_TypeDef *)1073825792B].CCR1
 1081              	@ main.c:248: };
 248:main.c        **** 
 1082              		.loc 1 248 1 view .LVU249
 1083 0382 7047     		bx	lr	@
 1084              	.L54:
 1085              		.align	2
 1086              	.L53:
 1087 0384 00000000 		.word	rxSetPoint
ARM GAS  /var/folders/_2/qbh2zpt918qcm2b_6mgyydnm0000gn/T//ccx08FD0.s 			page 33


 1088 0388 00440140 		.word	1073824768
 1089 038c 00480140 		.word	1073825792
 1090              		.cfi_endproc
 1091              	.LFE138:
 1092              		.size	updatePWMTimerRegistersForGimbal, .-updatePWMTimerRegistersForGimbal
 1093              		.align	1
 1094              		.global	DMA1_Channel4_IRQHandler
 1095              		.syntax unified
 1096              		.thumb
 1097              		.thumb_func
 1098              		.fpu softvfp
 1099              		.type	DMA1_Channel4_IRQHandler, %function
 1100              	DMA1_Channel4_IRQHandler:
 1101              	.LFB140:
 266:main.c        ****   if(DMA_GetFlagStatus(DMA1_FLAG_TC4)){
 1102              		.loc 1 266 36 is_stmt 1 view -0
 1103              		.cfi_startproc
 1104              		@ args = 0, pretend = 0, frame = 0
 1105              		@ frame_needed = 0, uses_anonymous_args = 0
 267:main.c        ****     DMA_ClearFlag(DMA1_FLAG_TC4);
 1106              		.loc 1 267 3 view .LVU251
 1107              	@ main.c:266: void DMA1_Channel4_IRQHandler(void){
 266:main.c        ****   if(DMA_GetFlagStatus(DMA1_FLAG_TC4)){
 1108              		.loc 1 266 36 is_stmt 0 view .LVU252
 1109 0390 08B5     		push	{r3, lr}	@
 1110              	.LCFI8:
 1111              		.cfi_def_cfa_offset 8
 1112              		.cfi_offset 3, -8
 1113              		.cfi_offset 14, -4
 1114              	@ main.c:267:   if(DMA_GetFlagStatus(DMA1_FLAG_TC4)){
 267:main.c        ****     DMA_ClearFlag(DMA1_FLAG_TC4);
 1115              		.loc 1 267 6 view .LVU253
 1116 0392 4FF40050 		mov	r0, #8192	@,
 1117 0396 FFF7FEFF 		bl	DMA_GetFlagStatus		@
 1118              	.LVL50:
 1119              	@ main.c:267:   if(DMA_GetFlagStatus(DMA1_FLAG_TC4)){
 267:main.c        ****     DMA_ClearFlag(DMA1_FLAG_TC4);
 1120              		.loc 1 267 5 view .LVU254
 1121 039a 68B1     		cbz	r0, .L55	@ tmp121,
 268:main.c        ****     DMA_Cmd(DMA1_Channel4, DISABLE);
 1122              		.loc 1 268 5 is_stmt 1 view .LVU255
 1123 039c 4FF40050 		mov	r0, #8192	@,
 1124 03a0 FFF7FEFF 		bl	DMA_ClearFlag		@
 1125              	.LVL51:
 269:main.c        ****     *pbufferPosition = 0;
 1126              		.loc 1 269 5 view .LVU256
 1127 03a4 0021     		movs	r1, #0	@,
 1128 03a6 0548     		ldr	r0, .L60	@,
 1129 03a8 FFF7FEFF 		bl	DMA_Cmd		@
 1130              	.LVL52:
 270:main.c        ****     usart1TransferComplete = 1;
 1131              		.loc 1 270 5 view .LVU257
 1132 03ac 044B     		ldr	r3, .L60+4	@ tmp114,
 1133              	@ main.c:270:     *pbufferPosition = 0;
 270:main.c        ****     usart1TransferComplete = 1;
 1134              		.loc 1 270 22 is_stmt 0 view .LVU258
 1135 03ae 1A68     		ldr	r2, [r3]	@ pbufferPosition, pbufferPosition
ARM GAS  /var/folders/_2/qbh2zpt918qcm2b_6mgyydnm0000gn/T//ccx08FD0.s 			page 34


 1136 03b0 0021     		movs	r1, #0	@ tmp117,
 1137 03b2 1180     		strh	r1, [r2]	@ movhi	@ tmp117, *pbufferPosition.47_2
 271:main.c        ****   };	
 1138              		.loc 1 271 5 is_stmt 1 view .LVU259
 1139              	@ main.c:271:     usart1TransferComplete = 1;
 271:main.c        ****   };	
 1140              		.loc 1 271 28 is_stmt 0 view .LVU260
 1141 03b4 0122     		movs	r2, #1	@ tmp119,
 1142 03b6 1A71     		strb	r2, [r3, #4]	@ tmp119, usart1TransferComplete
 272:main.c        **** };
 1143              		.loc 1 272 4 is_stmt 1 view .LVU261
 1144              	.L55:
 1145              	@ main.c:273: };
 273:main.c        **** 
 1146              		.loc 1 273 1 is_stmt 0 view .LVU262
 1147 03b8 08BD     		pop	{r3, pc}	@
 1148              	.L61:
 1149 03ba 00BF     		.align	2
 1150              	.L60:
 1151 03bc 44000240 		.word	1073872964
 1152 03c0 00000000 		.word	.LANCHOR1
 1153              		.cfi_endproc
 1154              	.LFE140:
 1155              		.size	DMA1_Channel4_IRQHandler, .-DMA1_Channel4_IRQHandler
 1156              		.align	1
 1157              		.global	DMA1_Channel7_IRQHandler
 1158              		.syntax unified
 1159              		.thumb
 1160              		.thumb_func
 1161              		.fpu softvfp
 1162              		.type	DMA1_Channel7_IRQHandler, %function
 1163              	DMA1_Channel7_IRQHandler:
 1164              	.LFB141:
 275:main.c        ****   if(DMA_GetFlagStatus(DMA1_FLAG_TC7)){
 1165              		.loc 1 275 36 is_stmt 1 view -0
 1166              		.cfi_startproc
 1167              		@ args = 0, pretend = 0, frame = 0
 1168              		@ frame_needed = 0, uses_anonymous_args = 0
 276:main.c        ****     I2C_ClearFlag(I2C1, I2C_ICR_STOPCF);
 1169              		.loc 1 276 3 view .LVU264
 1170              	@ main.c:275: void DMA1_Channel7_IRQHandler(void){
 275:main.c        ****   if(DMA_GetFlagStatus(DMA1_FLAG_TC7)){
 1171              		.loc 1 275 36 is_stmt 0 view .LVU265
 1172 03c4 08B5     		push	{r3, lr}	@
 1173              	.LCFI9:
 1174              		.cfi_def_cfa_offset 8
 1175              		.cfi_offset 3, -8
 1176              		.cfi_offset 14, -4
 1177              	@ main.c:276:   if(DMA_GetFlagStatus(DMA1_FLAG_TC7)){
 276:main.c        ****     I2C_ClearFlag(I2C1, I2C_ICR_STOPCF);
 1178              		.loc 1 276 6 view .LVU266
 1179 03c6 4FF00070 		mov	r0, #33554432	@,
 1180 03ca FFF7FEFF 		bl	DMA_GetFlagStatus		@
 1181              	.LVL53:
 1182              	@ main.c:276:   if(DMA_GetFlagStatus(DMA1_FLAG_TC7)){
 276:main.c        ****     I2C_ClearFlag(I2C1, I2C_ICR_STOPCF);
 1183              		.loc 1 276 5 view .LVU267
ARM GAS  /var/folders/_2/qbh2zpt918qcm2b_6mgyydnm0000gn/T//ccx08FD0.s 			page 35


 1184 03ce 90B1     		cbz	r0, .L62	@ tmp119,
 277:main.c        ****     SET_FLAG(f.GYRO_DATA_AVAILABLE);
 1185              		.loc 1 277 5 is_stmt 1 view .LVU268
 1186 03d0 0948     		ldr	r0, .L64	@,
 1187 03d2 2021     		movs	r1, #32	@,
 1188 03d4 FFF7FEFF 		bl	I2C_ClearFlag		@
 1189              	.LVL54:
 278:main.c        ****     DMA_Cmd(DMA1_Channel7, DISABLE);
 1190              		.loc 1 278 5 view .LVU269
 1191 03d8 084A     		ldr	r2, .L64+4	@ tmp113,
 1192              	@ main.c:279:     DMA_Cmd(DMA1_Channel7, DISABLE);
 279:main.c        ****     DMA_ClearFlag(DMA1_FLAG_TC7);
 1193              		.loc 1 279 5 is_stmt 0 view .LVU270
 1194 03da 0948     		ldr	r0, .L64+8	@,
 1195              	@ main.c:278:     SET_FLAG(f.GYRO_DATA_AVAILABLE);
 278:main.c        ****     DMA_Cmd(DMA1_Channel7, DISABLE);
 1196              		.loc 1 278 5 view .LVU271
 1197 03dc 5379     		ldrb	r3, [r2, #5]	@ zero_extendqisi2	@ f.GYRO_DATA_AVAILABLE, f.GYRO_DATA_AVAILABLE
 1198              	@ main.c:279:     DMA_Cmd(DMA1_Channel7, DISABLE);
 279:main.c        ****     DMA_ClearFlag(DMA1_FLAG_TC7);
 1199              		.loc 1 279 5 view .LVU272
 1200 03de 0021     		movs	r1, #0	@,
 1201              	@ main.c:278:     SET_FLAG(f.GYRO_DATA_AVAILABLE);
 278:main.c        ****     DMA_Cmd(DMA1_Channel7, DISABLE);
 1202              		.loc 1 278 5 view .LVU273
 1203 03e0 43F04003 		orr	r3, r3, #64	@ tmp116, f.GYRO_DATA_AVAILABLE,
 1204 03e4 5371     		strb	r3, [r2, #5]	@ tmp116, f.GYRO_DATA_AVAILABLE
 279:main.c        ****     DMA_ClearFlag(DMA1_FLAG_TC7);
 1205              		.loc 1 279 5 is_stmt 1 view .LVU274
 1206 03e6 FFF7FEFF 		bl	DMA_Cmd		@
 1207              	.LVL55:
 280:main.c        ****   };
 1208              		.loc 1 280 5 view .LVU275
 1209              	@ main.c:282: };
 282:main.c        **** 
 1210              		.loc 1 282 1 is_stmt 0 view .LVU276
 1211 03ea BDE80840 		pop	{r3, lr}	@
 1212              	.LCFI10:
 1213              		.cfi_remember_state
 1214              		.cfi_restore 14
 1215              		.cfi_restore 3
 1216              		.cfi_def_cfa_offset 0
 1217              	@ main.c:280:     DMA_ClearFlag(DMA1_FLAG_TC7);
 280:main.c        ****   };
 1218              		.loc 1 280 5 view .LVU277
 1219 03ee 4FF00070 		mov	r0, #33554432	@,
 1220 03f2 FFF7FEBF 		b	DMA_ClearFlag		@
 1221              	.LVL56:
 1222              	.L62:
 1223              	.LCFI11:
 1224              		.cfi_restore_state
 1225              	@ main.c:282: };
 282:main.c        **** 
 1226              		.loc 1 282 1 view .LVU278
 1227 03f6 08BD     		pop	{r3, pc}	@
 1228              	.L65:
 1229              		.align	2
ARM GAS  /var/folders/_2/qbh2zpt918qcm2b_6mgyydnm0000gn/T//ccx08FD0.s 			page 36


 1230              	.L64:
 1231 03f8 00540040 		.word	1073763328
 1232 03fc 00000000 		.word	.LANCHOR0
 1233 0400 80000240 		.word	1073873024
 1234              		.cfi_endproc
 1235              	.LFE141:
 1236              		.size	DMA1_Channel7_IRQHandler, .-DMA1_Channel7_IRQHandler
 1237              		.align	1
 1238              		.global	TIM2_IRQHandler
 1239              		.syntax unified
 1240              		.thumb
 1241              		.thumb_func
 1242              		.fpu softvfp
 1243              		.type	TIM2_IRQHandler, %function
 1244              	TIM2_IRQHandler:
 1245              	.LFB142:
 294:main.c        ****   register int32_t start_time;
 1246              		.loc 1 294 27 is_stmt 1 view -0
 1247              		.cfi_startproc
 1248              		@ args = 0, pretend = 0, frame = 0
 1249              		@ frame_needed = 0, uses_anonymous_args = 0
 1250              		@ link register save eliminated.
 295:main.c        **** 	register int32_t measuredTime;
 1251              		.loc 1 295 3 view .LVU280
 296:main.c        **** 	register int32_t  previousStartTime;
 1252              		.loc 1 296 2 view .LVU281
 297:main.c        **** 	register uint8_t channel_select_counter; 
 1253              		.loc 1 297 2 view .LVU282
 298:main.c        ****   
 1254              		.loc 1 298 2 view .LVU283
 300:main.c        ****   measuredTime = start_time - previousStartTime;
 1255              		.loc 1 300 3 view .LVU284
 1256              	@ main.c:300:   start_time = TIM2->CCR4;
 300:main.c        ****   measuredTime = start_time - previousStartTime;
 1257              		.loc 1 300 20 is_stmt 0 view .LVU285
 1258 0404 4FF08043 		mov	r3, #1073741824	@ tmp111,
 1259 0408 1B6C     		ldr	r3, [r3, #64]	@ _1, MEM[(struct TIM_TypeDef *)1073741824B].CCR4
 1260              	.LVL57:
 301:main.c        ****   if (measuredTime < 0) measuredTime += 0xFFFF; // Correct the timer overflow by adding max number
 1261              		.loc 1 301 3 is_stmt 1 view .LVU286
 302:main.c        ****   previousStartTime = start_time;
 1262              		.loc 1 302 3 view .LVU287
 303:main.c        ****         	
 1263              		.loc 1 303 3 view .LVU288
 305:main.c        **** 		channel_select_counter = 0;
 1264              		.loc 1 305 2 view .LVU289
 309:main.c        **** 
 1265              		.loc 1 309 3 view .LVU290
 312:main.c        **** 		case 1:
 1266              		.loc 1 312 2 view .LVU291
 339:main.c        **** };
 1267              		.loc 1 339 3 view .LVU292
 1268              	@ main.c:340: };
 340:main.c        **** 
 1269              		.loc 1 340 1 is_stmt 0 view .LVU293
 1270 040a 7047     		bx	lr	@
 1271              		.cfi_endproc
ARM GAS  /var/folders/_2/qbh2zpt918qcm2b_6mgyydnm0000gn/T//ccx08FD0.s 			page 37


 1272              	.LFE142:
 1273              		.size	TIM2_IRQHandler, .-TIM2_IRQHandler
 1274              		.align	1
 1275              		.global	SysTick_Handler
 1276              		.syntax unified
 1277              		.thumb
 1278              		.thumb_func
 1279              		.fpu softvfp
 1280              		.type	SysTick_Handler, %function
 1281              	SysTick_Handler:
 1282              	.LFB143:
 342:main.c        **** 	msTicks++;
 1283              		.loc 1 342 27 is_stmt 1 view -0
 1284              		.cfi_startproc
 1285              		@ args = 0, pretend = 0, frame = 0
 1286              		@ frame_needed = 0, uses_anonymous_args = 0
 1287              		@ link register save eliminated.
 343:main.c        **** };
 1288              		.loc 1 343 2 view .LVU295
 1289              	@ main.c:343: 	msTicks++;
 343:main.c        **** };
 1290              		.loc 1 343 9 is_stmt 0 view .LVU296
 1291 040c 024A     		ldr	r2, .L68	@ tmp112,
 1292 040e 1368     		ldr	r3, [r2]	@ msTicks.48_1, msTicks
 1293 0410 0133     		adds	r3, r3, #1	@ _2, msTicks.48_1,
 1294 0412 1360     		str	r3, [r2]	@ _2, msTicks
 1295              	@ main.c:344: };
 344:main.c        **** 
 1296              		.loc 1 344 1 view .LVU297
 1297 0414 7047     		bx	lr	@
 1298              	.L69:
 1299 0416 00BF     		.align	2
 1300              	.L68:
 1301 0418 00000000 		.word	msTicks
 1302              		.cfi_endproc
 1303              	.LFE143:
 1304              		.size	SysTick_Handler, .-SysTick_Handler
 1305              		.align	1
 1306              		.global	millis
 1307              		.syntax unified
 1308              		.thumb
 1309              		.thumb_func
 1310              		.fpu softvfp
 1311              		.type	millis, %function
 1312              	millis:
 1313              	.LFB144:
 347:main.c        ****     return msTicks;
 1314              		.loc 1 347 22 is_stmt 1 view -0
 1315              		.cfi_startproc
 1316              		@ args = 0, pretend = 0, frame = 0
 1317              		@ frame_needed = 0, uses_anonymous_args = 0
 1318              		@ link register save eliminated.
 348:main.c        **** };
 1319              		.loc 1 348 5 view .LVU299
 1320              	@ main.c:348:     return msTicks;
 348:main.c        **** };
 1321              		.loc 1 348 12 is_stmt 0 view .LVU300
ARM GAS  /var/folders/_2/qbh2zpt918qcm2b_6mgyydnm0000gn/T//ccx08FD0.s 			page 38


 1322 041c 014B     		ldr	r3, .L71	@ tmp111,
 1323 041e 1868     		ldr	r0, [r3]	@ <retval>, msTicks
 1324              	@ main.c:349: };
 349:main.c        **** 
 1325              		.loc 1 349 1 view .LVU301
 1326 0420 7047     		bx	lr	@
 1327              	.L72:
 1328 0422 00BF     		.align	2
 1329              	.L71:
 1330 0424 00000000 		.word	msTicks
 1331              		.cfi_endproc
 1332              	.LFE144:
 1333              		.size	millis, .-millis
 1334              		.align	1
 1335              		.global	delay_millis
 1336              		.syntax unified
 1337              		.thumb
 1338              		.thumb_func
 1339              		.fpu softvfp
 1340              		.type	delay_millis, %function
 1341              	delay_millis:
 1342              	.LVL58:
 1343              	.LFB145:
 351:main.c        ****     uint32_t curTicks = msTicks;
 1344              		.loc 1 351 37 is_stmt 1 view -0
 1345              		.cfi_startproc
 1346              		@ args = 0, pretend = 0, frame = 0
 1347              		@ frame_needed = 0, uses_anonymous_args = 0
 1348              		@ link register save eliminated.
 352:main.c        ****     while ((msTicks - curTicks) < dlyticks){};
 1349              		.loc 1 352 5 view .LVU303
 1350              	@ main.c:352:     uint32_t curTicks = msTicks;
 352:main.c        ****     while ((msTicks - curTicks) < dlyticks){};
 1351              		.loc 1 352 14 is_stmt 0 view .LVU304
 1352 0428 034B     		ldr	r3, .L76	@ tmp114,
 1353 042a 1968     		ldr	r1, [r3]	@ curTicks, msTicks
 1354              	.LVL59:
 353:main.c        **** };
 1355              		.loc 1 353 5 is_stmt 1 view .LVU305
 1356              	.L74:
 353:main.c        **** };
 1357              		.loc 1 353 45 discriminator 1 view .LVU306
 353:main.c        **** };
 1358              		.loc 1 353 11 discriminator 1 view .LVU307
 1359              	@ main.c:353:     while ((msTicks - curTicks) < dlyticks){};
 353:main.c        **** };
 1360              		.loc 1 353 21 is_stmt 0 discriminator 1 view .LVU308
 1361 042c 1A68     		ldr	r2, [r3]	@ msTicks.49_1, msTicks
 1362 042e 521A     		subs	r2, r2, r1	@ tmp116, msTicks.49_1, curTicks
 1363              	@ main.c:353:     while ((msTicks - curTicks) < dlyticks){};
 353:main.c        **** };
 1364              		.loc 1 353 11 discriminator 1 view .LVU309
 1365 0430 8242     		cmp	r2, r0	@ tmp116, dlyticks
 1366 0432 FBD3     		bcc	.L74		@,
 1367              	@ main.c:354: };
 354:main.c        **** 
 1368              		.loc 1 354 1 view .LVU310
ARM GAS  /var/folders/_2/qbh2zpt918qcm2b_6mgyydnm0000gn/T//ccx08FD0.s 			page 39


 1369 0434 7047     		bx	lr	@
 1370              	.L77:
 1371 0436 00BF     		.align	2
 1372              	.L76:
 1373 0438 00000000 		.word	msTicks
 1374              		.cfi_endproc
 1375              	.LFE145:
 1376              		.size	delay_millis, .-delay_millis
 1377              		.align	1
 1378              		.global	micros
 1379              		.syntax unified
 1380              		.thumb
 1381              		.thumb_func
 1382              		.fpu softvfp
 1383              		.type	micros, %function
 1384              	micros:
 1385              	.LFB146:
 356:main.c        ****   uint32_t sys_clock_val; 
 1386              		.loc 1 356 18 is_stmt 1 view -0
 1387              		.cfi_startproc
 1388              		@ args = 0, pretend = 0, frame = 0
 1389              		@ frame_needed = 0, uses_anonymous_args = 0
 1390              		@ link register save eliminated.
 357:main.c        ****   sys_clock_val = SysTick->VAL;
 1391              		.loc 1 357 3 view .LVU312
 358:main.c        ****   usTicks = msTicks * 1000 + 1000 - sys_clock_val/72; //To calculate the micros, the value will be 
 1392              		.loc 1 358 3 view .LVU313
 1393              	@ main.c:358:   sys_clock_val = SysTick->VAL;
 358:main.c        ****   usTicks = msTicks * 1000 + 1000 - sys_clock_val/72; //To calculate the micros, the value will be 
 1394              		.loc 1 358 17 is_stmt 0 view .LVU314
 1395 043c 074B     		ldr	r3, .L79	@ tmp117,
 1396 043e 9A68     		ldr	r2, [r3, #8]	@ sys_clock_val, MEM[(struct SysTick_Type *)3758153744B].VAL
 1397              	.LVL60:
 359:main.c        ****   return usTicks;
 1398              		.loc 1 359 3 is_stmt 1 view .LVU315
 1399              	@ main.c:359:   usTicks = msTicks * 1000 + 1000 - sys_clock_val/72; //To calculate the micros, the 
 359:main.c        ****   return usTicks;
 1400              		.loc 1 359 28 is_stmt 0 view .LVU316
 1401 0440 074B     		ldr	r3, .L79+4	@ tmp118,
 1402 0442 1968     		ldr	r1, [r3]	@ msTicks.50_1, msTicks
 1403 0444 4FF47A73 		mov	r3, #1000	@ tmp121,
 1404 0448 01FB0333 		mla	r3, r1, r3, r3	@ tmp120, msTicks.50_1, tmp121, tmp121
 1405              	@ main.c:359:   usTicks = msTicks * 1000 + 1000 - sys_clock_val/72; //To calculate the micros, the 
 359:main.c        ****   return usTicks;
 1406              		.loc 1 359 50 view .LVU317
 1407 044c 4821     		movs	r1, #72	@ tmp124,
 1408 044e B2FBF1F2 		udiv	r2, r2, r1	@ tmp123, sys_clock_val, tmp124
 1409              	.LVL61:
 1410              	@ main.c:359:   usTicks = msTicks * 1000 + 1000 - sys_clock_val/72; //To calculate the micros, the 
 359:main.c        ****   return usTicks;
 1411              		.loc 1 359 35 view .LVU318
 1412 0452 9B1A     		subs	r3, r3, r2	@ _5, tmp120, tmp123
 1413              	@ main.c:359:   usTicks = msTicks * 1000 + 1000 - sys_clock_val/72; //To calculate the micros, the 
 359:main.c        ****   return usTicks;
 1414              		.loc 1 359 11 view .LVU319
 1415 0454 034A     		ldr	r2, .L79+8	@ tmp125,
 1416 0456 1360     		str	r3, [r2]	@ _5, usTicks
ARM GAS  /var/folders/_2/qbh2zpt918qcm2b_6mgyydnm0000gn/T//ccx08FD0.s 			page 40


 360:main.c        **** };
 1417              		.loc 1 360 3 is_stmt 1 view .LVU320
 1418              	@ main.c:360:   return usTicks;
 360:main.c        **** };
 1419              		.loc 1 360 10 is_stmt 0 view .LVU321
 1420 0458 1068     		ldr	r0, [r2]	@ <retval>, usTicks
 1421              	@ main.c:361: };
 361:main.c        **** 
 1422              		.loc 1 361 1 view .LVU322
 1423 045a 7047     		bx	lr	@
 1424              	.L80:
 1425              		.align	2
 1426              	.L79:
 1427 045c 10E000E0 		.word	-536813552
 1428 0460 00000000 		.word	msTicks
 1429 0464 00000000 		.word	usTicks
 1430              		.cfi_endproc
 1431              	.LFE146:
 1432              		.size	micros, .-micros
 1433              		.align	1
 1434              		.global	initDtermSettings
 1435              		.syntax unified
 1436              		.thumb
 1437              		.thumb_func
 1438              		.fpu softvfp
 1439              		.type	initDtermSettings, %function
 1440              	initDtermSettings:
 1441              	.LVL62:
 1442              	.LFB149:
 388:main.c        **** 
 1443              		.loc 1 388 53 is_stmt 1 view -0
 1444              		.cfi_startproc
 1445              		@ args = 0, pretend = 0, frame = 0
 1446              		@ frame_needed = 0, uses_anonymous_args = 0
 1447              		@ link register save eliminated.
 390:main.c        ****   dtermSettings->dterm_notch_cutoff_hz = DTERM_NOTCH_CUTOFF_HZ;
 1448              		.loc 1 390 3 view .LVU324
 1449              	@ main.c:390:   dtermSettings->dterm_notch_hz = DTERM_NOTCH_HZ;
 390:main.c        ****   dtermSettings->dterm_notch_cutoff_hz = DTERM_NOTCH_CUTOFF_HZ;
 1450              		.loc 1 390 33 is_stmt 0 view .LVU325
 1451 0468 4FF48273 		mov	r3, #260	@ tmp112,
 1452 046c 0380     		strh	r3, [r0]	@ movhi	@ tmp112, dtermSettings_2(D)->dterm_notch_hz
 391:main.c        ****   dtermSettings->dterm_lowpass2_hz = DTERM_LOWPASS2_HZ;
 1453              		.loc 1 391 3 is_stmt 1 view .LVU326
 1454              	@ main.c:391:   dtermSettings->dterm_notch_cutoff_hz = DTERM_NOTCH_CUTOFF_HZ;
 391:main.c        ****   dtermSettings->dterm_lowpass2_hz = DTERM_LOWPASS2_HZ;
 1455              		.loc 1 391 40 is_stmt 0 view .LVU327
 1456 046e A023     		movs	r3, #160	@ tmp114,
 1457 0470 4380     		strh	r3, [r0, #2]	@ movhi	@ tmp114, dtermSettings_2(D)->dterm_notch_cutoff_hz
 392:main.c        ****   dtermSettings->dterm_lowpass_type = DTERM_LOWPASS_TYPE;
 1458              		.loc 1 392 3 is_stmt 1 view .LVU328
 1459              	@ main.c:392:   dtermSettings->dterm_lowpass2_hz = DTERM_LOWPASS2_HZ;
 392:main.c        ****   dtermSettings->dterm_lowpass_type = DTERM_LOWPASS_TYPE;
 1460              		.loc 1 392 36 is_stmt 0 view .LVU329
 1461 0472 C823     		movs	r3, #200	@ tmp116,
 1462 0474 8380     		strh	r3, [r0, #4]	@ movhi	@ tmp116, dtermSettings_2(D)->dterm_lowpass2_hz
 393:main.c        ****   dtermSettings->dterm_lowpass_hz= DTERM_LOWPASS_HZ;
ARM GAS  /var/folders/_2/qbh2zpt918qcm2b_6mgyydnm0000gn/T//ccx08FD0.s 			page 41


 1463              		.loc 1 393 3 is_stmt 1 view .LVU330
 1464              	@ main.c:393:   dtermSettings->dterm_lowpass_type = DTERM_LOWPASS_TYPE;
 393:main.c        ****   dtermSettings->dterm_lowpass_hz= DTERM_LOWPASS_HZ;
 1465              		.loc 1 393 37 is_stmt 0 view .LVU331
 1466 0476 0023     		movs	r3, #0	@ tmp117,
 1467 0478 8371     		strb	r3, [r0, #6]	@ tmp117, dtermSettings_2(D)->dterm_lowpass_type
 394:main.c        **** };
 1468              		.loc 1 394 3 is_stmt 1 view .LVU332
 1469              	@ main.c:394:   dtermSettings->dterm_lowpass_hz= DTERM_LOWPASS_HZ;
 394:main.c        **** };
 1470              		.loc 1 394 34 is_stmt 0 view .LVU333
 1471 047a 6423     		movs	r3, #100	@ tmp120,
 1472 047c 0381     		strh	r3, [r0, #8]	@ movhi	@ tmp120, dtermSettings_2(D)->dterm_lowpass_hz
 1473              	@ main.c:395: };
 395:main.c        **** 
 1474              		.loc 1 395 1 view .LVU334
 1475 047e 7047     		bx	lr	@
 1476              		.cfi_endproc
 1477              	.LFE149:
 1478              		.size	initDtermSettings, .-initDtermSettings
 1479              		.align	1
 1480              		.global	init_MPU6050
 1481              		.syntax unified
 1482              		.thumb
 1483              		.thumb_func
 1484              		.fpu softvfp
 1485              		.type	init_MPU6050, %function
 1486              	init_MPU6050:
 1487              	.LFB150:
 397:main.c        **** 	I2C_writeByte(I2C1, MPU6050, PWR_MGMT_1, 0x80); // Resets the MPU6050. To perform the setback prop
 1488              		.loc 1 397 20 is_stmt 1 view -0
 1489              		.cfi_startproc
 1490              		@ args = 0, pretend = 0, frame = 0
 1491              		@ frame_needed = 0, uses_anonymous_args = 0
 398:main.c        **** 	delay_millis(100);
 1492              		.loc 1 398 2 view .LVU336
 1493              	@ main.c:397: void init_MPU6050(){
 397:main.c        **** 	I2C_writeByte(I2C1, MPU6050, PWR_MGMT_1, 0x80); // Resets the MPU6050. To perform the setback prop
 1494              		.loc 1 397 20 is_stmt 0 view .LVU337
 1495 0480 70B5     		push	{r4, r5, r6, lr}	@
 1496              	.LCFI12:
 1497              		.cfi_def_cfa_offset 16
 1498              		.cfi_offset 4, -16
 1499              		.cfi_offset 5, -12
 1500              		.cfi_offset 6, -8
 1501              		.cfi_offset 14, -4
 1502              	@ main.c:398: 	I2C_writeByte(I2C1, MPU6050, PWR_MGMT_1, 0x80); // Resets the MPU6050. To perform th
 398:main.c        **** 	delay_millis(100);
 1503              		.loc 1 398 2 view .LVU338
 1504 0482 374C     		ldr	r4, .L83	@ tmp118,
 1505 0484 8023     		movs	r3, #128	@,
 1506 0486 6B22     		movs	r2, #107	@,
 1507 0488 D021     		movs	r1, #208	@,
 1508 048a 2046     		mov	r0, r4	@, tmp118
 1509 048c FFF7FEFF 		bl	I2C_writeByte		@
 1510              	.LVL63:
 399:main.c        **** 	I2C_writeByte(I2C1, MPU6050, SIGNAL_PATH_RESET, 0x00); // Resets the gyro, accel and temp values;
ARM GAS  /var/folders/_2/qbh2zpt918qcm2b_6mgyydnm0000gn/T//ccx08FD0.s 			page 42


 1511              		.loc 1 399 2 is_stmt 1 view .LVU339
 1512 0490 6420     		movs	r0, #100	@,
 1513 0492 FFF7FEFF 		bl	delay_millis		@
 1514              	.LVL64:
 400:main.c        **** 	delay_millis(100);
 1515              		.loc 1 400 2 view .LVU340
 1516 0496 0023     		movs	r3, #0	@,
 1517 0498 6822     		movs	r2, #104	@,
 1518 049a D021     		movs	r1, #208	@,
 1519 049c 2046     		mov	r0, r4	@, tmp118
 1520 049e FFF7FEFF 		bl	I2C_writeByte		@
 1521              	.LVL65:
 401:main.c        **** 	I2C_writeByte(I2C1, MPU6050, PWR_MGMT_1, 0x01); // Sets the Clock Source for the MPU6050 to the gy
 1522              		.loc 1 401 2 view .LVU341
 1523 04a2 6420     		movs	r0, #100	@,
 1524 04a4 FFF7FEFF 		bl	delay_millis		@
 1525              	.LVL66:
 402:main.c        **** 	I2C_writeByte(I2C1, MPU6050, CONFIG, 0x00); // No DLPF on the Gyro
 1526              		.loc 1 402 2 view .LVU342
 1527 04a8 2046     		mov	r0, r4	@, tmp118
 1528 04aa 0123     		movs	r3, #1	@,
 1529 04ac 6B22     		movs	r2, #107	@,
 1530 04ae D021     		movs	r1, #208	@,
 1531 04b0 FFF7FEFF 		bl	I2C_writeByte		@
 1532              	.LVL67:
 403:main.c        **** 	I2C_writeByte(I2C1, MPU6050, SMPLRT_DIV, 0x00); //Samplerate divider is not set. This results in a
 1533              		.loc 1 403 2 view .LVU343
 1534 04b4 2046     		mov	r0, r4	@, tmp118
 1535 04b6 0023     		movs	r3, #0	@,
 1536 04b8 1A22     		movs	r2, #26	@,
 1537 04ba D021     		movs	r1, #208	@,
 1538 04bc FFF7FEFF 		bl	I2C_writeByte		@
 1539              	.LVL68:
 404:main.c        **** 	delay_millis(10); 
 1540              		.loc 1 404 2 view .LVU344
 1541 04c0 0023     		movs	r3, #0	@,
 1542 04c2 1922     		movs	r2, #25	@,
 1543 04c4 D021     		movs	r1, #208	@,
 1544 04c6 2046     		mov	r0, r4	@, tmp118
 1545 04c8 FFF7FEFF 		bl	I2C_writeByte		@
 1546              	.LVL69:
 405:main.c        **** 	//Get the setting of the Gyro
 1547              		.loc 1 405 2 view .LVU345
 1548 04cc 0A20     		movs	r0, #10	@,
 1549 04ce FFF7FEFF 		bl	delay_millis		@
 1550              	.LVL70:
 408:main.c        **** 	I2C_writeByte(I2C1, MPU6050, GYRO_CONFIG, c & ~0xE0); // Clear self-test bits [7:5] 
 1551              		.loc 1 408 2 view .LVU346
 1552              	@ main.c:408: 	uint8_t c = I2C_readByte(I2C1, MPU6050, GYRO_CONFIG);    
 408:main.c        **** 	I2C_writeByte(I2C1, MPU6050, GYRO_CONFIG, c & ~0xE0); // Clear self-test bits [7:5] 
 1553              		.loc 1 408 14 is_stmt 0 view .LVU347
 1554 04d2 1B22     		movs	r2, #27	@,
 1555 04d4 D021     		movs	r1, #208	@,
 1556 04d6 2046     		mov	r0, r4	@, tmp118
 1557 04d8 FFF7FEFF 		bl	I2C_readByte		@
 1558              	.LVL71:
 1559              	@ main.c:409: 	I2C_writeByte(I2C1, MPU6050, GYRO_CONFIG, c & ~0xE0); // Clear self-test bits [7:5] 
ARM GAS  /var/folders/_2/qbh2zpt918qcm2b_6mgyydnm0000gn/T//ccx08FD0.s 			page 43


 409:main.c        **** 	I2C_writeByte(I2C1, MPU6050, GYRO_CONFIG, c & ~0x18); // Clear FS_SELL bits [4:3]
 1560              		.loc 1 409 2 view .LVU348
 1561 04dc 1B22     		movs	r2, #27	@,
 1562              	@ main.c:408: 	uint8_t c = I2C_readByte(I2C1, MPU6050, GYRO_CONFIG);    
 408:main.c        **** 	I2C_writeByte(I2C1, MPU6050, GYRO_CONFIG, c & ~0xE0); // Clear self-test bits [7:5] 
 1563              		.loc 1 408 14 view .LVU349
 1564 04de 0546     		mov	r5, r0	@ tmp124, tmp147
 1565              	.LVL72:
 409:main.c        **** 	I2C_writeByte(I2C1, MPU6050, GYRO_CONFIG, c & ~0x18); // Clear FS_SELL bits [4:3]
 1566              		.loc 1 409 2 is_stmt 1 view .LVU350
 1567 04e0 00F01F03 		and	r3, r0, #31	@, tmp124,
 1568 04e4 D021     		movs	r1, #208	@,
 1569 04e6 2046     		mov	r0, r4	@, tmp118
 1570              	.LVL73:
 409:main.c        **** 	I2C_writeByte(I2C1, MPU6050, GYRO_CONFIG, c & ~0x18); // Clear FS_SELL bits [4:3]
 1571              		.loc 1 409 2 is_stmt 0 view .LVU351
 1572 04e8 FFF7FEFF 		bl	I2C_writeByte		@
 1573              	.LVL74:
 410:main.c        **** 	I2C_writeByte(I2C1, MPU6050, GYRO_CONFIG, c | (0x03 << 3)); // Set range for the gyro to +-2000°/
 1574              		.loc 1 410 2 is_stmt 1 view .LVU352
 1575 04ec 05F0E703 		and	r3, r5, #231	@, tmp124,
 1576 04f0 2046     		mov	r0, r4	@, tmp118
 1577 04f2 1B22     		movs	r2, #27	@,
 1578 04f4 D021     		movs	r1, #208	@,
 1579 04f6 FFF7FEFF 		bl	I2C_writeByte		@
 1580              	.LVL75:
 411:main.c        **** 	// Set accelerometer configuration
 1581              		.loc 1 411 2 view .LVU353
 1582 04fa 45F01803 		orr	r3, r5, #24	@ tmp131, tmp124,
 1583 04fe DBB2     		uxtb	r3, r3	@, tmp131
 1584 0500 2046     		mov	r0, r4	@, tmp118
 1585 0502 1B22     		movs	r2, #27	@,
 1586 0504 D021     		movs	r1, #208	@,
 1587 0506 FFF7FEFF 		bl	I2C_writeByte		@
 1588              	.LVL76:
 414:main.c        **** 	I2C_writeByte(I2C1, MPU6050, ACCEL_CONFIG, c & ~0xE0); // Clear self-test bits [7:5] 
 1589              		.loc 1 414 2 view .LVU354
 1590              	@ main.c:414: 	c = I2C_readByte(I2C1, MPU6050, ACCEL_CONFIG);
 414:main.c        **** 	I2C_writeByte(I2C1, MPU6050, ACCEL_CONFIG, c & ~0xE0); // Clear self-test bits [7:5] 
 1591              		.loc 1 414 6 is_stmt 0 view .LVU355
 1592 050a 1C22     		movs	r2, #28	@,
 1593 050c D021     		movs	r1, #208	@,
 1594 050e 2046     		mov	r0, r4	@, tmp118
 1595 0510 FFF7FEFF 		bl	I2C_readByte		@
 1596              	.LVL77:
 1597              	@ main.c:415: 	I2C_writeByte(I2C1, MPU6050, ACCEL_CONFIG, c & ~0xE0); // Clear self-test bits [7:5]
 415:main.c        **** 	I2C_writeByte(I2C1, MPU6050, ACCEL_CONFIG, c & ~0x18); // Clear AFS bits [4:3]
 1598              		.loc 1 415 2 view .LVU356
 1599 0514 1C22     		movs	r2, #28	@,
 1600              	@ main.c:414: 	c = I2C_readByte(I2C1, MPU6050, ACCEL_CONFIG);
 414:main.c        **** 	I2C_writeByte(I2C1, MPU6050, ACCEL_CONFIG, c & ~0xE0); // Clear self-test bits [7:5] 
 1601              		.loc 1 414 6 view .LVU357
 1602 0516 0546     		mov	r5, r0	@ tmp135, tmp148
 1603              	.LVL78:
 415:main.c        **** 	I2C_writeByte(I2C1, MPU6050, ACCEL_CONFIG, c & ~0x18); // Clear AFS bits [4:3]
 1604              		.loc 1 415 2 is_stmt 1 view .LVU358
 1605 0518 00F01F03 		and	r3, r0, #31	@, tmp135,
ARM GAS  /var/folders/_2/qbh2zpt918qcm2b_6mgyydnm0000gn/T//ccx08FD0.s 			page 44


 1606 051c D021     		movs	r1, #208	@,
 1607 051e 2046     		mov	r0, r4	@, tmp118
 1608              	.LVL79:
 415:main.c        **** 	I2C_writeByte(I2C1, MPU6050, ACCEL_CONFIG, c & ~0x18); // Clear AFS bits [4:3]
 1609              		.loc 1 415 2 is_stmt 0 view .LVU359
 1610 0520 FFF7FEFF 		bl	I2C_writeByte		@
 1611              	.LVL80:
 416:main.c        **** 	I2C_writeByte(I2C1, MPU6050, ACCEL_CONFIG, c | (0x02 << 3)); // Set range for the accelerometer to
 1612              		.loc 1 416 2 is_stmt 1 view .LVU360
 1613 0524 05F0E703 		and	r3, r5, #231	@, tmp135,
 1614 0528 2046     		mov	r0, r4	@, tmp118
 1615 052a 1C22     		movs	r2, #28	@,
 1616 052c D021     		movs	r1, #208	@,
 1617 052e FFF7FEFF 		bl	I2C_writeByte		@
 1618              	.LVL81:
 417:main.c        ****     
 1619              		.loc 1 417 2 view .LVU361
 1620 0532 45F01003 		orr	r3, r5, #16	@ tmp142, tmp135,
 1621 0536 2046     		mov	r0, r4	@, tmp118
 1622 0538 DBB2     		uxtb	r3, r3	@, tmp142
 1623 053a 1C22     		movs	r2, #28	@,
 1624 053c D021     		movs	r1, #208	@,
 1625 053e FFF7FEFF 		bl	I2C_writeByte		@
 1626              	.LVL82:
 419:main.c        **** 	I2C_writeByte(I2C1, MPU6050, INT_ENABLE, 0x01); //enable interrupt 
 1627              		.loc 1 419 2 view .LVU362
 1628 0542 2046     		mov	r0, r4	@, tmp118
 1629 0544 0223     		movs	r3, #2	@,
 1630 0546 3722     		movs	r2, #55	@,
 1631 0548 D021     		movs	r1, #208	@,
 1632 054a FFF7FEFF 		bl	I2C_writeByte		@
 1633              	.LVL83:
 420:main.c        **** };
 1634              		.loc 1 420 2 view .LVU363
 1635 054e 2046     		mov	r0, r4	@, tmp118
 1636 0550 0123     		movs	r3, #1	@,
 1637              	@ main.c:421: };
 421:main.c        **** 
 1638              		.loc 1 421 1 is_stmt 0 view .LVU364
 1639 0552 BDE87040 		pop	{r4, r5, r6, lr}	@
 1640              	.LCFI13:
 1641              		.cfi_restore 14
 1642              		.cfi_restore 6
 1643              		.cfi_restore 5
 1644              		.cfi_restore 4
 1645              		.cfi_def_cfa_offset 0
 1646              	@ main.c:420: 	I2C_writeByte(I2C1, MPU6050, INT_ENABLE, 0x01); //enable interrupt 
 420:main.c        **** };
 1647              		.loc 1 420 2 view .LVU365
 1648 0556 3822     		movs	r2, #56	@,
 1649 0558 D021     		movs	r1, #208	@,
 1650 055a FFF7FEBF 		b	I2C_writeByte		@
 1651              	.LVL84:
 1652              	.L84:
 1653 055e 00BF     		.align	2
 1654              	.L83:
 1655 0560 00540040 		.word	1073763328
ARM GAS  /var/folders/_2/qbh2zpt918qcm2b_6mgyydnm0000gn/T//ccx08FD0.s 			page 45


 1656              		.cfi_endproc
 1657              	.LFE150:
 1658              		.size	init_MPU6050, .-init_MPU6050
 1659              		.align	1
 1660              		.global	taskFetchGyroData
 1661              		.syntax unified
 1662              		.thumb
 1663              		.thumb_func
 1664              		.fpu softvfp
 1665              		.type	taskFetchGyroData, %function
 1666              	taskFetchGyroData:
 1667              	.LFB151:
 423:main.c        ****  if(!f.GYRO_DATA_NOT_PROCESSED){
 1668              		.loc 1 423 25 is_stmt 1 view -0
 1669              		.cfi_startproc
 1670              		@ args = 0, pretend = 0, frame = 0
 1671              		@ frame_needed = 0, uses_anonymous_args = 0
 424:main.c        ****     I2C_DmaReadGyroValues(MPU6050, ACCEL_XOUT_H); //gyroRawData is defined in i2c.c
 1672              		.loc 1 424 2 view .LVU367
 1673              	@ main.c:423: void taskFetchGyroData(){
 423:main.c        ****  if(!f.GYRO_DATA_NOT_PROCESSED){
 1674              		.loc 1 423 25 is_stmt 0 view .LVU368
 1675 0564 10B5     		push	{r4, lr}	@
 1676              	.LCFI14:
 1677              		.cfi_def_cfa_offset 8
 1678              		.cfi_offset 4, -8
 1679              		.cfi_offset 14, -4
 1680              	@ main.c:424:  if(!f.GYRO_DATA_NOT_PROCESSED){
 424:main.c        ****     I2C_DmaReadGyroValues(MPU6050, ACCEL_XOUT_H); //gyroRawData is defined in i2c.c
 1681              		.loc 1 424 5 view .LVU369
 1682 0566 074C     		ldr	r4, .L87	@ tmp112,
 1683              	@ main.c:424:  if(!f.GYRO_DATA_NOT_PROCESSED){
 424:main.c        ****     I2C_DmaReadGyroValues(MPU6050, ACCEL_XOUT_H); //gyroRawData is defined in i2c.c
 1684              		.loc 1 424 4 view .LVU370
 1685 0568 94F90530 		ldrsb	r3, [r4, #5]	@ f, f
 1686 056c 002B     		cmp	r3, #0	@ f,
 1687 056e 07DB     		blt	.L85		@,
 1688              	.LBB59:
 1689              	.LBI59:
 423:main.c        ****  if(!f.GYRO_DATA_NOT_PROCESSED){
 1690              		.loc 1 423 6 is_stmt 1 view .LVU371
 1691              	.LBB60:
 425:main.c        ****     SET_FLAG(f.GYRO_DATA_NOT_PROCESSED);
 1692              		.loc 1 425 5 view .LVU372
 1693 0570 3B21     		movs	r1, #59	@,
 1694 0572 D020     		movs	r0, #208	@,
 1695 0574 FFF7FEFF 		bl	I2C_DmaReadGyroValues		@
 1696              	.LVL85:
 426:main.c        ****  };
 1697              		.loc 1 426 5 view .LVU373
 1698 0578 6379     		ldrb	r3, [r4, #5]	@ zero_extendqisi2	@ f.GYRO_DATA_NOT_PROCESSED, f.GYRO_DATA_NOT_PROCESSED
 1699 057a 43F08003 		orr	r3, r3, #128	@ tmp119, f.GYRO_DATA_NOT_PROCESSED,
 1700 057e 6371     		strb	r3, [r4, #5]	@ tmp119, f.GYRO_DATA_NOT_PROCESSED
 427:main.c        **** };
 1701              		.loc 1 427 3 view .LVU374
 1702              	.LBE60:
 1703              	.LBE59:
ARM GAS  /var/folders/_2/qbh2zpt918qcm2b_6mgyydnm0000gn/T//ccx08FD0.s 			page 46


 427:main.c        **** };
 1704              		.loc 1 427 3 view .LVU375
 1705              	.L85:
 1706              	@ main.c:428: };
 428:main.c        **** 
 1707              		.loc 1 428 1 is_stmt 0 view .LVU376
 1708 0580 10BD     		pop	{r4, pc}	@
 1709              	.L88:
 1710 0582 00BF     		.align	2
 1711              	.L87:
 1712 0584 00000000 		.word	.LANCHOR0
 1713              		.cfi_endproc
 1714              	.LFE151:
 1715              		.size	taskFetchGyroData, .-taskFetchGyroData
 1716              		.global	__aeabi_i2d
 1717              		.global	__aeabi_dmul
 1718              		.global	__aeabi_ui2d
 1719              		.global	__aeabi_d2uiz
 1720              		.align	1
 1721              		.global	gyroCalibrationCycles
 1722              		.syntax unified
 1723              		.thumb
 1724              		.thumb_func
 1725              		.fpu softvfp
 1726              		.type	gyroCalibrationCycles, %function
 1727              	gyroCalibrationCycles:
 1728              	.LFB155:
 493:main.c        ****   return (gyroConfig.gyroCalibrationDuration * 1e6) / gyro.targetLoopTime; 
 1729              		.loc 1 493 1 is_stmt 1 view -0
 1730              		.cfi_startproc
 1731              		@ args = 0, pretend = 0, frame = 0
 1732              		@ frame_needed = 0, uses_anonymous_args = 0
 494:main.c        **** };
 1733              		.loc 1 494 3 view .LVU378
 1734              	@ main.c:493: {
 493:main.c        ****   return (gyroConfig.gyroCalibrationDuration * 1e6) / gyro.targetLoopTime; 
 1735              		.loc 1 493 1 is_stmt 0 view .LVU379
 1736 0588 38B5     		push	{r3, r4, r5, lr}	@
 1737              	.LCFI15:
 1738              		.cfi_def_cfa_offset 16
 1739              		.cfi_offset 3, -16
 1740              		.cfi_offset 4, -12
 1741              		.cfi_offset 5, -8
 1742              		.cfi_offset 14, -4
 1743              	@ main.c:494:   return (gyroConfig.gyroCalibrationDuration * 1e6) / gyro.targetLoopTime; 
 494:main.c        **** };
 1744              		.loc 1 494 46 view .LVU380
 1745 058a 0F4B     		ldr	r3, .L90+8	@ tmp119,
 1746 058c 188A     		ldrh	r0, [r3, #16]	@, gyroConfig.gyroCalibrationDuration
 1747 058e FFF7FEFF 		bl	__aeabi_i2d		@
 1748              	.LVL86:
 1749 0592 0BA3     		adr	r3, .L90	@,
 1750 0594 D3E90023 		ldrd	r2, [r3]	@,
 1751 0598 FFF7FEFF 		bl	__aeabi_dmul		@
 1752              	.LVL87:
 1753              	@ main.c:494:   return (gyroConfig.gyroCalibrationDuration * 1e6) / gyro.targetLoopTime; 
 494:main.c        **** };
ARM GAS  /var/folders/_2/qbh2zpt918qcm2b_6mgyydnm0000gn/T//ccx08FD0.s 			page 47


 1754              		.loc 1 494 59 view .LVU381
 1755 059c 0B4B     		ldr	r3, .L90+12	@ tmp123,
 1756              	@ main.c:494:   return (gyroConfig.gyroCalibrationDuration * 1e6) / gyro.targetLoopTime; 
 494:main.c        **** };
 1757              		.loc 1 494 46 view .LVU382
 1758 059e 0446     		mov	r4, r0	@ tmp122, tmp126
 1759              	@ main.c:494:   return (gyroConfig.gyroCalibrationDuration * 1e6) / gyro.targetLoopTime; 
 494:main.c        **** };
 1760              		.loc 1 494 53 view .LVU383
 1761 05a0 1868     		ldr	r0, [r3]	@, gyro.targetLoopTime
 1762              	@ main.c:494:   return (gyroConfig.gyroCalibrationDuration * 1e6) / gyro.targetLoopTime; 
 494:main.c        **** };
 1763              		.loc 1 494 46 view .LVU384
 1764 05a2 0D46     		mov	r5, r1	@,
 1765              	@ main.c:494:   return (gyroConfig.gyroCalibrationDuration * 1e6) / gyro.targetLoopTime; 
 494:main.c        **** };
 1766              		.loc 1 494 53 view .LVU385
 1767 05a4 FFF7FEFF 		bl	__aeabi_ui2d		@
 1768              	.LVL88:
 1769 05a8 0246     		mov	r2, r0	@ tmp127,
 1770 05aa 0B46     		mov	r3, r1	@,
 1771 05ac 2046     		mov	r0, r4	@, tmp122
 1772 05ae 2946     		mov	r1, r5	@,
 1773 05b0 FFF7FEFF 		bl	__aeabi_ddiv		@
 1774              	.LVL89:
 1775 05b4 FFF7FEFF 		bl	__aeabi_d2uiz		@
 1776              	.LVL90:
 1777              	@ main.c:495: };
 495:main.c        **** 
 1778              		.loc 1 495 1 view .LVU386
 1779 05b8 38BD     		pop	{r3, r4, r5, pc}	@
 1780              	.L91:
 1781 05ba 00BFAFF3 		.align	3
 1781      0080
 1782              	.L90:
 1783 05c0 00000000 		.word	0
 1784 05c4 80842E41 		.word	1093567616
 1785 05c8 00000000 		.word	gyroConfig
 1786 05cc 00000000 		.word	gyro
 1787              		.cfi_endproc
 1788              	.LFE155:
 1789              		.size	gyroCalibrationCycles, .-gyroCalibrationCycles
 1790              		.align	1
 1791              		.global	isOnFirstCalibrationCycle
 1792              		.syntax unified
 1793              		.thumb
 1794              		.thumb_func
 1795              		.fpu softvfp
 1796              		.type	isOnFirstCalibrationCycle, %function
 1797              	isOnFirstCalibrationCycle:
 1798              	.LFB154:
 488:main.c        ****   return gyro.calibration.cyclesRemaining == gyroCalibrationCycles();
 1799              		.loc 1 488 1 is_stmt 1 view -0
 1800              		.cfi_startproc
 1801              		@ args = 0, pretend = 0, frame = 0
 1802              		@ frame_needed = 0, uses_anonymous_args = 0
 489:main.c        **** };
ARM GAS  /var/folders/_2/qbh2zpt918qcm2b_6mgyydnm0000gn/T//ccx08FD0.s 			page 48


 1803              		.loc 1 489 3 view .LVU388
 1804              	@ main.c:489:   return gyro.calibration.cyclesRemaining == gyroCalibrationCycles();
 489:main.c        **** };
 1805              		.loc 1 489 26 is_stmt 0 view .LVU389
 1806 05d0 044B     		ldr	r3, .L93	@ tmp113,
 1807              	@ main.c:488: {
 488:main.c        ****   return gyro.calibration.cyclesRemaining == gyroCalibrationCycles();
 1808              		.loc 1 488 1 view .LVU390
 1809 05d2 10B5     		push	{r4, lr}	@
 1810              	.LCFI16:
 1811              		.cfi_def_cfa_offset 8
 1812              		.cfi_offset 4, -8
 1813              		.cfi_offset 14, -4
 1814              	@ main.c:489:   return gyro.calibration.cyclesRemaining == gyroCalibrationCycles();
 489:main.c        **** };
 1815              		.loc 1 489 26 view .LVU391
 1816 05d4 5C6F     		ldr	r4, [r3, #116]	@ _1, gyro.calibration.cyclesRemaining
 1817              	@ main.c:489:   return gyro.calibration.cyclesRemaining == gyroCalibrationCycles();
 489:main.c        **** };
 1818              		.loc 1 489 46 view .LVU392
 1819 05d6 FFF7FEFF 		bl	gyroCalibrationCycles		@
 1820              	.LVL91:
 1821              	@ main.c:490: };
 490:main.c        **** 
 1822              		.loc 1 490 1 view .LVU393
 1823 05da 231A     		subs	r3, r4, r0	@, _1, tmp117
 1824 05dc 5842     		rsbs	r0, r3, #0	@,,
 1825 05de 5841     		adcs	r0, r0, r3	@,,
 1826 05e0 10BD     		pop	{r4, pc}	@
 1827              	.L94:
 1828 05e2 00BF     		.align	2
 1829              	.L93:
 1830 05e4 00000000 		.word	gyro
 1831              		.cfi_endproc
 1832              	.LFE154:
 1833              		.size	isOnFirstCalibrationCycle, .-isOnFirstCalibrationCycle
 1834              		.align	1
 1835              		.global	isOnFinalCalibrationCycle
 1836              		.syntax unified
 1837              		.thumb
 1838              		.thumb_func
 1839              		.fpu softvfp
 1840              		.type	isOnFinalCalibrationCycle, %function
 1841              	isOnFinalCalibrationCycle:
 1842              	.LFB156:
 498:main.c        ****   return gyro.calibration.cyclesRemaining == 1;
 1843              		.loc 1 498 1 is_stmt 1 view -0
 1844              		.cfi_startproc
 1845              		@ args = 0, pretend = 0, frame = 0
 1846              		@ frame_needed = 0, uses_anonymous_args = 0
 1847              		@ link register save eliminated.
 499:main.c        **** };
 1848              		.loc 1 499 3 view .LVU395
 1849              	@ main.c:499:   return gyro.calibration.cyclesRemaining == 1;
 499:main.c        **** };
 1850              		.loc 1 499 26 is_stmt 0 view .LVU396
 1851 05e8 024B     		ldr	r3, .L96	@ tmp113,
ARM GAS  /var/folders/_2/qbh2zpt918qcm2b_6mgyydnm0000gn/T//ccx08FD0.s 			page 49


 1852              	@ main.c:499:   return gyro.calibration.cyclesRemaining == 1;
 499:main.c        **** };
 1853              		.loc 1 499 43 view .LVU397
 1854 05ea 586F     		ldr	r0, [r3, #116]	@ gyro.calibration.cyclesRemaining, gyro.calibration.cyclesRemaining
 1855              	@ main.c:500: };
 500:main.c        **** 
 1856              		.loc 1 500 1 view .LVU398
 1857 05ec 431E     		subs	r3, r0, #1	@, gyro.calibration.cyclesRemaining,
 1858 05ee 5842     		rsbs	r0, r3, #0	@,,
 1859 05f0 5841     		adcs	r0, r0, r3	@,,
 1860 05f2 7047     		bx	lr	@
 1861              	.L97:
 1862              		.align	2
 1863              	.L96:
 1864 05f4 00000000 		.word	gyro
 1865              		.cfi_endproc
 1866              	.LFE156:
 1867              		.size	isOnFinalCalibrationCycle, .-isOnFinalCalibrationCycle
 1868              		.align	1
 1869              		.global	setGyroCalibrationCycles
 1870              		.syntax unified
 1871              		.thumb
 1872              		.thumb_func
 1873              		.fpu softvfp
 1874              		.type	setGyroCalibrationCycles, %function
 1875              	setGyroCalibrationCycles:
 1876              	.LFB157:
 503:main.c        ****   gyro.calibration.cyclesRemaining = gyroCalibrationCycles();
 1877              		.loc 1 503 1 is_stmt 1 view -0
 1878              		.cfi_startproc
 1879              		@ args = 0, pretend = 0, frame = 0
 1880              		@ frame_needed = 0, uses_anonymous_args = 0
 504:main.c        **** };
 1881              		.loc 1 504 3 view .LVU400
 1882              	@ main.c:503: {
 503:main.c        ****   gyro.calibration.cyclesRemaining = gyroCalibrationCycles();
 1883              		.loc 1 503 1 is_stmt 0 view .LVU401
 1884 05f8 08B5     		push	{r3, lr}	@
 1885              	.LCFI17:
 1886              		.cfi_def_cfa_offset 8
 1887              		.cfi_offset 3, -8
 1888              		.cfi_offset 14, -4
 1889              	@ main.c:504:   gyro.calibration.cyclesRemaining = gyroCalibrationCycles();
 504:main.c        **** };
 1890              		.loc 1 504 38 view .LVU402
 1891 05fa FFF7FEFF 		bl	gyroCalibrationCycles		@
 1892              	.LVL92:
 1893              	@ main.c:504:   gyro.calibration.cyclesRemaining = gyroCalibrationCycles();
 504:main.c        **** };
 1894              		.loc 1 504 36 view .LVU403
 1895 05fe 014B     		ldr	r3, .L99	@ tmp111,
 1896 0600 5867     		str	r0, [r3, #116]	@ tmp112, gyro.calibration.cyclesRemaining
 1897              	@ main.c:505: };
 505:main.c        **** 
 1898              		.loc 1 505 1 view .LVU404
 1899 0602 08BD     		pop	{r3, pc}	@
 1900              	.L100:
ARM GAS  /var/folders/_2/qbh2zpt918qcm2b_6mgyydnm0000gn/T//ccx08FD0.s 			page 50


 1901              		.align	2
 1902              	.L99:
 1903 0604 00000000 		.word	gyro
 1904              		.cfi_endproc
 1905              	.LFE157:
 1906              		.size	setGyroCalibrationCycles, .-setGyroCalibrationCycles
 1907              		.align	1
 1908              		.global	init_gyro
 1909              		.syntax unified
 1910              		.thumb
 1911              		.thumb_func
 1912              		.fpu softvfp
 1913              		.type	init_gyro, %function
 1914              	init_gyro:
 1915              	.LVL93:
 1916              	.LFB148:
 368:main.c        ****   init_MPU6050();
 1917              		.loc 1 368 55 is_stmt 1 view -0
 1918              		.cfi_startproc
 1919              		@ args = 0, pretend = 0, frame = 0
 1920              		@ frame_needed = 0, uses_anonymous_args = 0
 369:main.c        ****   //Gyro settings
 1921              		.loc 1 369 3 view .LVU406
 1922              	@ main.c:368: void init_gyro(gyro_t *gyro, gyroConfig_t *gyroConfig){
 368:main.c        ****   init_MPU6050();
 1923              		.loc 1 368 55 is_stmt 0 view .LVU407
 1924 0608 F8B5     		push	{r3, r4, r5, r6, r7, lr}	@
 1925              	.LCFI18:
 1926              		.cfi_def_cfa_offset 24
 1927              		.cfi_offset 3, -24
 1928              		.cfi_offset 4, -20
 1929              		.cfi_offset 5, -16
 1930              		.cfi_offset 6, -12
 1931              		.cfi_offset 7, -8
 1932              		.cfi_offset 14, -4
 1933              	@ main.c:368: void init_gyro(gyro_t *gyro, gyroConfig_t *gyroConfig){
 368:main.c        ****   init_MPU6050();
 1934              		.loc 1 368 55 view .LVU408
 1935 060a 0546     		mov	r5, r0	@ gyro, tmp135
 1936 060c 0C46     		mov	r4, r1	@ gyroConfig, tmp136
 1937              	@ main.c:369:   init_MPU6050();
 369:main.c        ****   //Gyro settings
 1938              		.loc 1 369 3 view .LVU409
 1939 060e FFF7FEFF 		bl	init_MPU6050		@
 1940              	.LVL94:
 371:main.c        ****   gyro->gyroIsCalibrated = FALSE;
 1941              		.loc 1 371 3 is_stmt 1 view .LVU410
 1942              	@ main.c:371:   gyro->targetLoopTime = targetLoopTime;
 371:main.c        ****   gyro->gyroIsCalibrated = FALSE;
 1943              		.loc 1 371 24 is_stmt 0 view .LVU411
 1944 0612 4FF4FA73 		mov	r3, #500	@ tmp112,
 1945 0616 2B60     		str	r3, [r5]	@ tmp112, gyro_3(D)->targetLoopTime
 372:main.c        ****   gyroConfig->gyroCalibrationDuration = 1.25f;  //in seconds
 1946              		.loc 1 372 3 is_stmt 1 view .LVU412
 1947              	@ main.c:372:   gyro->gyroIsCalibrated = FALSE;
 372:main.c        ****   gyroConfig->gyroCalibrationDuration = 1.25f;  //in seconds
 1948              		.loc 1 372 26 is_stmt 0 view .LVU413
ARM GAS  /var/folders/_2/qbh2zpt918qcm2b_6mgyydnm0000gn/T//ccx08FD0.s 			page 51


 1949 0618 0027     		movs	r7, #0	@ tmp113,
 1950              	@ main.c:374:   gyro->calibration.gyroMovementCalibrationThreshold = 48;
 374:main.c        ****   setGyroCalibrationCycles();
 1951              		.loc 1 374 54 view .LVU414
 1952 061a 3023     		movs	r3, #48	@ tmp118,
 1953              	@ main.c:373:   gyroConfig->gyroCalibrationDuration = 1.25f;  //in seconds
 373:main.c        ****   gyro->calibration.gyroMovementCalibrationThreshold = 48;
 1954              		.loc 1 373 39 view .LVU415
 1955 061c 0126     		movs	r6, #1	@ tmp116,
 1956              	@ main.c:372:   gyro->gyroIsCalibrated = FALSE;
 372:main.c        ****   gyroConfig->gyroCalibrationDuration = 1.25f;  //in seconds
 1957              		.loc 1 372 26 view .LVU416
 1958 061e 85F88070 		strb	r7, [r5, #128]	@ tmp113, gyro_3(D)->gyroIsCalibrated
 372:main.c        ****   gyroConfig->gyroCalibrationDuration = 1.25f;  //in seconds
 1959              		.loc 1 372 33 is_stmt 1 view .LVU417
 373:main.c        ****   gyro->calibration.gyroMovementCalibrationThreshold = 48;
 1960              		.loc 1 373 3 view .LVU418
 1961              	@ main.c:373:   gyroConfig->gyroCalibrationDuration = 1.25f;  //in seconds
 373:main.c        ****   gyro->calibration.gyroMovementCalibrationThreshold = 48;
 1962              		.loc 1 373 39 is_stmt 0 view .LVU419
 1963 0622 2682     		strh	r6, [r4, #16]	@ movhi	@ tmp116, gyroConfig_6(D)->gyroCalibrationDuration
 374:main.c        ****   setGyroCalibrationCycles();
 1964              		.loc 1 374 3 is_stmt 1 view .LVU420
 1965              	@ main.c:374:   gyro->calibration.gyroMovementCalibrationThreshold = 48;
 374:main.c        ****   setGyroCalibrationCycles();
 1966              		.loc 1 374 54 is_stmt 0 view .LVU421
 1967 0624 A5F87830 		strh	r3, [r5, #120]	@ movhi	@ tmp118, gyro_3(D)->calibration.gyroMovementCalibrationThreshold
 375:main.c        ****   //Gyro Configuration
 1968              		.loc 1 375 3 is_stmt 1 view .LVU422
 1969 0628 FFF7FEFF 		bl	setGyroCalibrationCycles		@
 1970              	.LVL95:
 377:main.c        ****   gyroConfig->gyro_lowpass_Hz = GYRO_LOW_PASS_HZ; //Need to be within the nyquist frequenzy of 250 
 1971              		.loc 1 377 3 view .LVU423
 378:main.c        ****   gyroConfig->gyro_lowpass2_type = GYRO_LOW_PASS_FILTER2;
 1972              		.loc 1 378 3 view .LVU424
 379:main.c        ****   gyroConfig->gyro_lowpass2_Hz = GYRO_LOW_PASS_HZ_2;
 1973              		.loc 1 379 3 view .LVU425
 380:main.c        ****   gyroConfig->gyro_soft_notch_hz_1 = GYRO_SOFT_NOTCH_HZ_1;
 1974              		.loc 1 380 3 view .LVU426
 381:main.c        ****   gyroConfig->gyro_soft_notch_cutoff_1 = GYRO_SOFT_NOTCH_CUTOFF_1;
 1975              		.loc 1 381 3 view .LVU427
 382:main.c        ****   gyroConfig->gyro_soft_notch_hz_2 = GYRO_SOFT_NOTCH_HZ_2;
 1976              		.loc 1 382 3 view .LVU428
 383:main.c        ****   gyroConfig->gyro_soft_notch_cutoff_2 = GYRO_SOFT_NOTCH_CUTOFF_2;
 1977              		.loc 1 383 3 view .LVU429
 384:main.c        ****   gyroConfig->DynNotchFilterActive = DYN_NOTCH_FILTER_ACTIVE; 	
 1978              		.loc 1 384 3 view .LVU430
 385:main.c        **** };
 1979              		.loc 1 385 3 view .LVU431
 1980              	@ main.c:380:   gyroConfig->gyro_lowpass2_Hz = GYRO_LOW_PASS_HZ_2;
 380:main.c        ****   gyroConfig->gyro_soft_notch_hz_1 = GYRO_SOFT_NOTCH_HZ_1;
 1981              		.loc 1 380 32 is_stmt 0 view .LVU432
 1982 062c AA22     		movs	r2, #170	@ tmp122,
 1983 062e 6280     		strh	r2, [r4, #2]	@ movhi	@ tmp122, gyroConfig_6(D)->gyro_lowpass2_Hz
 1984              	@ main.c:381:   gyroConfig->gyro_soft_notch_hz_1 = GYRO_SOFT_NOTCH_HZ_1;
 381:main.c        ****   gyroConfig->gyro_soft_notch_cutoff_1 = GYRO_SOFT_NOTCH_CUTOFF_1;
 1985              		.loc 1 381 36 view .LVU433
ARM GAS  /var/folders/_2/qbh2zpt918qcm2b_6mgyydnm0000gn/T//ccx08FD0.s 			page 52


 1986 0630 4FF4C872 		mov	r2, #400	@ tmp124,
 1987 0634 A280     		strh	r2, [r4, #4]	@ movhi	@ tmp124, gyroConfig_6(D)->gyro_soft_notch_hz_1
 1988              	@ main.c:382:   gyroConfig->gyro_soft_notch_cutoff_1 = GYRO_SOFT_NOTCH_CUTOFF_1;
 382:main.c        ****   gyroConfig->gyro_soft_notch_hz_2 = GYRO_SOFT_NOTCH_HZ_2;
 1989              		.loc 1 382 40 view .LVU434
 1990 0636 4FF49672 		mov	r2, #300	@ tmp126,
 1991              	@ main.c:378:   gyroConfig->gyro_lowpass_Hz = GYRO_LOW_PASS_HZ; //Need to be within the nyquist fre
 378:main.c        ****   gyroConfig->gyro_lowpass2_type = GYRO_LOW_PASS_FILTER2;
 1992              		.loc 1 378 31 view .LVU435
 1993 063a 6423     		movs	r3, #100	@ tmp120,
 1994              	@ main.c:382:   gyroConfig->gyro_soft_notch_cutoff_1 = GYRO_SOFT_NOTCH_CUTOFF_1;
 382:main.c        ****   gyroConfig->gyro_soft_notch_hz_2 = GYRO_SOFT_NOTCH_HZ_2;
 1995              		.loc 1 382 40 view .LVU436
 1996 063c E280     		strh	r2, [r4, #6]	@ movhi	@ tmp126, gyroConfig_6(D)->gyro_soft_notch_cutoff_1
 1997              	@ main.c:383:   gyroConfig->gyro_soft_notch_hz_2 = GYRO_SOFT_NOTCH_HZ_2;
 383:main.c        ****   gyroConfig->gyro_soft_notch_cutoff_2 = GYRO_SOFT_NOTCH_CUTOFF_2;
 1998              		.loc 1 383 36 view .LVU437
 1999 063e C822     		movs	r2, #200	@ tmp128,
 2000              	@ main.c:378:   gyroConfig->gyro_lowpass_Hz = GYRO_LOW_PASS_HZ; //Need to be within the nyquist fre
 378:main.c        ****   gyroConfig->gyro_lowpass2_type = GYRO_LOW_PASS_FILTER2;
 2001              		.loc 1 378 31 view .LVU438
 2002 0640 2380     		strh	r3, [r4]	@ movhi	@ tmp120, gyroConfig_6(D)->gyro_lowpass_Hz
 2003              	@ main.c:383:   gyroConfig->gyro_soft_notch_hz_2 = GYRO_SOFT_NOTCH_HZ_2;
 383:main.c        ****   gyroConfig->gyro_soft_notch_cutoff_2 = GYRO_SOFT_NOTCH_CUTOFF_2;
 2004              		.loc 1 383 36 view .LVU439
 2005 0642 2281     		strh	r2, [r4, #8]	@ movhi	@ tmp128, gyroConfig_6(D)->gyro_soft_notch_hz_2
 2006              	@ main.c:384:   gyroConfig->gyro_soft_notch_cutoff_2 = GYRO_SOFT_NOTCH_CUTOFF_2;
 384:main.c        ****   gyroConfig->DynNotchFilterActive = DYN_NOTCH_FILTER_ACTIVE; 	
 2007              		.loc 1 384 40 view .LVU440
 2008 0644 6381     		strh	r3, [r4, #10]	@ movhi	@ tmp120, gyroConfig_6(D)->gyro_soft_notch_cutoff_2
 2009              	@ main.c:385:   gyroConfig->DynNotchFilterActive = DYN_NOTCH_FILTER_ACTIVE; 	
 385:main.c        **** };
 2010              		.loc 1 385 36 view .LVU441
 2011 0646 A781     		strh	r7, [r4, #12]	@ movhi	@ tmp113, MEM[(unsigned char *)gyroConfig_6(D) + 12B]
 2012              	@ main.c:379:   gyroConfig->gyro_lowpass2_type = GYRO_LOW_PASS_FILTER2;
 379:main.c        ****   gyroConfig->gyro_lowpass2_Hz = GYRO_LOW_PASS_HZ_2;
 2013              		.loc 1 379 34 view .LVU442
 2014 0648 A673     		strb	r6, [r4, #14]	@ tmp116, gyroConfig_6(D)->gyro_lowpass2_type
 2015              	@ main.c:386: };
 386:main.c        **** 
 2016              		.loc 1 386 1 view .LVU443
 2017 064a F8BD     		pop	{r3, r4, r5, r6, r7, pc}	@
 386:main.c        **** 
 2018              		.loc 1 386 1 view .LVU444
 2019              		.cfi_endproc
 2020              	.LFE148:
 2021              		.size	init_gyro, .-init_gyro
 2022              		.align	1
 2023              		.global	devPush
 2024              		.syntax unified
 2025              		.thumb
 2026              		.thumb_func
 2027              		.fpu softvfp
 2028              		.type	devPush, %function
 2029              	devPush:
 2030              	.LVL96:
 2031              	.LFB158:
ARM GAS  /var/folders/_2/qbh2zpt918qcm2b_6mgyydnm0000gn/T//ccx08FD0.s 			page 53


 508:main.c        ****     dev->n++;
 2032              		.loc 1 508 1 is_stmt 1 view -0
 2033              		.cfi_startproc
 2034              		@ args = 0, pretend = 0, frame = 0
 2035              		@ frame_needed = 0, uses_anonymous_args = 0
 509:main.c        ****     if (dev->n == 1) {
 2036              		.loc 1 509 5 view .LVU446
 2037              	@ main.c:508: {
 508:main.c        ****     dev->n++;
 2038              		.loc 1 508 1 is_stmt 0 view .LVU447
 2039 064c 2DE9F041 		push	{r4, r5, r6, r7, r8, lr}	@
 2040              	.LCFI19:
 2041              		.cfi_def_cfa_offset 24
 2042              		.cfi_offset 4, -24
 2043              		.cfi_offset 5, -20
 2044              		.cfi_offset 6, -16
 2045              		.cfi_offset 7, -12
 2046              		.cfi_offset 8, -8
 2047              		.cfi_offset 14, -4
 2048              	@ main.c:509:     dev->n++;
 509:main.c        ****     if (dev->n == 1) {
 2049              		.loc 1 509 11 view .LVU448
 2050 0650 0669     		ldr	r6, [r0, #16]	@ dev_14(D)->n, dev_14(D)->n
 2051 0652 0136     		adds	r6, r6, #1	@ _2, dev_14(D)->n,
 2052              	@ main.c:510:     if (dev->n == 1) {
 510:main.c        ****         dev->oldMean = dev->newMean = x;
 2053              		.loc 1 510 8 view .LVU449
 2054 0654 012E     		cmp	r6, #1	@ _2,
 2055              	@ main.c:508: {
 508:main.c        ****     dev->n++;
 2056              		.loc 1 508 1 view .LVU450
 2057 0656 0446     		mov	r4, r0	@ dev, tmp132
 2058 0658 0D46     		mov	r5, r1	@ x, tmp133
 2059              	@ main.c:509:     dev->n++;
 509:main.c        ****     if (dev->n == 1) {
 2060              		.loc 1 509 11 view .LVU451
 2061 065a 0661     		str	r6, [r0, #16]	@ _2, dev_14(D)->n
 510:main.c        ****         dev->oldMean = dev->newMean = x;
 2062              		.loc 1 510 5 is_stmt 1 view .LVU452
 2063              	@ main.c:510:     if (dev->n == 1) {
 510:main.c        ****         dev->oldMean = dev->newMean = x;
 2064              		.loc 1 510 8 is_stmt 0 view .LVU453
 2065 065c 05D1     		bne	.L103		@,
 511:main.c        ****         dev->oldSigma = 0.0f;
 2066              		.loc 1 511 9 is_stmt 1 view .LVU454
 2067              	@ main.c:512:         dev->oldSigma = 0.0f;
 512:main.c        ****     } else {
 2068              		.loc 1 512 23 is_stmt 0 view .LVU455
 2069 065e 0023     		movs	r3, #0	@ tmp124,
 2070              	@ main.c:511:         dev->oldMean = dev->newMean = x;
 511:main.c        ****         dev->oldSigma = 0.0f;
 2071              		.loc 1 511 37 view .LVU456
 2072 0660 4160     		str	r1, [r0, #4]	@ float	@ x, dev_14(D)->newMean
 2073              	@ main.c:511:         dev->oldMean = dev->newMean = x;
 511:main.c        ****         dev->oldSigma = 0.0f;
 2074              		.loc 1 511 22 view .LVU457
 2075 0662 0160     		str	r1, [r0]	@ float	@ x, dev_14(D)->oldMean
ARM GAS  /var/folders/_2/qbh2zpt918qcm2b_6mgyydnm0000gn/T//ccx08FD0.s 			page 54


 512:main.c        ****     } else {
 2076              		.loc 1 512 9 is_stmt 1 view .LVU458
 2077              	@ main.c:512:         dev->oldSigma = 0.0f;
 512:main.c        ****     } else {
 2078              		.loc 1 512 23 is_stmt 0 view .LVU459
 2079 0664 8360     		str	r3, [r0, #8]	@ float	@ tmp124, dev_14(D)->oldSigma
 2080              	.LVL97:
 2081              	.L102:
 2082              	@ main.c:519: };
 519:main.c        **** 
 2083              		.loc 1 519 1 view .LVU460
 2084 0666 BDE8F081 		pop	{r4, r5, r6, r7, r8, pc}	@
 2085              	.LVL98:
 2086              	.L103:
 514:main.c        ****         dev->newSigma = dev->oldSigma + (x - dev->oldMean) * (x - dev->newMean);
 2087              		.loc 1 514 9 is_stmt 1 view .LVU461
 2088              	@ main.c:514:         dev->newMean = dev->oldMean + (x - dev->oldMean) / dev->n;
 514:main.c        ****         dev->newSigma = dev->oldSigma + (x - dev->oldMean) * (x - dev->newMean);
 2089              		.loc 1 514 27 is_stmt 0 view .LVU462
 2090 066a D0F80080 		ldr	r8, [r0]	@ float	@ _3, dev_14(D)->oldMean
 2091              	@ main.c:514:         dev->newMean = dev->oldMean + (x - dev->oldMean) / dev->n;
 514:main.c        ****         dev->newSigma = dev->oldSigma + (x - dev->oldMean) * (x - dev->newMean);
 2092              		.loc 1 514 42 view .LVU463
 2093 066e 2846     		mov	r0, r5	@, x
 2094              	.LVL99:
 514:main.c        ****         dev->newSigma = dev->oldSigma + (x - dev->oldMean) * (x - dev->newMean);
 2095              		.loc 1 514 42 view .LVU464
 2096 0670 4146     		mov	r1, r8	@, _3
 2097              	.LVL100:
 514:main.c        ****         dev->newSigma = dev->oldSigma + (x - dev->oldMean) * (x - dev->newMean);
 2098              		.loc 1 514 42 view .LVU465
 2099 0672 FFF7FEFF 		bl	__aeabi_fsub		@
 2100              	.LVL101:
 2101 0676 0746     		mov	r7, r0	@ tmp125, tmp134
 2102              	@ main.c:514:         dev->newMean = dev->oldMean + (x - dev->oldMean) / dev->n;
 514:main.c        ****         dev->newSigma = dev->oldSigma + (x - dev->oldMean) * (x - dev->newMean);
 2103              		.loc 1 514 58 view .LVU466
 2104 0678 3046     		mov	r0, r6	@, _2
 2105 067a FFF7FEFF 		bl	__aeabi_i2f		@
 2106              	.LVL102:
 2107 067e 0146     		mov	r1, r0	@ tmp135,
 2108 0680 3846     		mov	r0, r7	@, tmp125
 2109 0682 FFF7FEFF 		bl	__aeabi_fdiv		@
 2110              	.LVL103:
 2111              	@ main.c:514:         dev->newMean = dev->oldMean + (x - dev->oldMean) / dev->n;
 514:main.c        ****         dev->newSigma = dev->oldSigma + (x - dev->oldMean) * (x - dev->newMean);
 2112              		.loc 1 514 37 view .LVU467
 2113 0686 4146     		mov	r1, r8	@, _3
 2114 0688 FFF7FEFF 		bl	__aeabi_fadd		@
 2115              	.LVL104:
 2116              	@ main.c:515:         dev->newSigma = dev->oldSigma + (x - dev->oldMean) * (x - dev->newMean);
 515:main.c        ****         dev->oldMean = dev->newMean;
 2117              		.loc 1 515 65 view .LVU468
 2118 068c 0146     		mov	r1, r0	@, tmp128
 2119              	@ main.c:514:         dev->newMean = dev->oldMean + (x - dev->oldMean) / dev->n;
 514:main.c        ****         dev->newSigma = dev->oldSigma + (x - dev->oldMean) * (x - dev->newMean);
 2120              		.loc 1 514 37 view .LVU469
ARM GAS  /var/folders/_2/qbh2zpt918qcm2b_6mgyydnm0000gn/T//ccx08FD0.s 			page 55


 2121 068e 0646     		mov	r6, r0	@ tmp128, tmp136
 2122              	@ main.c:514:         dev->newMean = dev->oldMean + (x - dev->oldMean) / dev->n;
 514:main.c        ****         dev->newSigma = dev->oldSigma + (x - dev->oldMean) * (x - dev->newMean);
 2123              		.loc 1 514 22 view .LVU470
 2124 0690 6060     		str	r0, [r4, #4]	@ float	@ tmp128, dev_14(D)->newMean
 515:main.c        ****         dev->oldMean = dev->newMean;
 2125              		.loc 1 515 9 is_stmt 1 view .LVU471
 2126              	@ main.c:515:         dev->newSigma = dev->oldSigma + (x - dev->oldMean) * (x - dev->newMean);
 515:main.c        ****         dev->oldMean = dev->newMean;
 2127              		.loc 1 515 65 is_stmt 0 view .LVU472
 2128 0692 2846     		mov	r0, r5	@, x
 2129 0694 FFF7FEFF 		bl	__aeabi_fsub		@
 2130              	.LVL105:
 2131              	@ main.c:515:         dev->newSigma = dev->oldSigma + (x - dev->oldMean) * (x - dev->newMean);
 515:main.c        ****         dev->oldMean = dev->newMean;
 2132              		.loc 1 515 60 view .LVU473
 2133 0698 3946     		mov	r1, r7	@, tmp125
 2134 069a FFF7FEFF 		bl	__aeabi_fmul		@
 2135              	.LVL106:
 2136              	@ main.c:515:         dev->newSigma = dev->oldSigma + (x - dev->oldMean) * (x - dev->newMean);
 515:main.c        ****         dev->oldMean = dev->newMean;
 2137              		.loc 1 515 39 view .LVU474
 2138 069e A168     		ldr	r1, [r4, #8]	@ float	@, dev_14(D)->oldSigma
 2139 06a0 FFF7FEFF 		bl	__aeabi_fadd		@
 2140              	.LVL107:
 2141              	@ main.c:516:         dev->oldMean = dev->newMean;
 516:main.c        ****         dev->oldSigma = dev->newSigma;
 2142              		.loc 1 516 22 view .LVU475
 2143 06a4 2660     		str	r6, [r4]	@ float	@ tmp128, dev_14(D)->oldMean
 2144              	@ main.c:515:         dev->newSigma = dev->oldSigma + (x - dev->oldMean) * (x - dev->newMean);
 515:main.c        ****         dev->oldMean = dev->newMean;
 2145              		.loc 1 515 23 view .LVU476
 2146 06a6 E060     		str	r0, [r4, #12]	@ float	@ tmp131, dev_14(D)->newSigma
 516:main.c        ****         dev->oldSigma = dev->newSigma;
 2147              		.loc 1 516 9 is_stmt 1 view .LVU477
 517:main.c        ****     };
 2148              		.loc 1 517 9 view .LVU478
 2149              	@ main.c:517:         dev->oldSigma = dev->newSigma;
 517:main.c        ****     };
 2150              		.loc 1 517 23 is_stmt 0 view .LVU479
 2151 06a8 A060     		str	r0, [r4, #8]	@ float	@ tmp131, dev_14(D)->oldSigma
 518:main.c        **** };
 2152              		.loc 1 518 6 is_stmt 1 view .LVU480
 2153              	@ main.c:519: };
 519:main.c        **** 
 2154              		.loc 1 519 1 is_stmt 0 view .LVU481
 2155 06aa DCE7     		b	.L102		@
 2156              		.cfi_endproc
 2157              	.LFE158:
 2158              		.size	devPush, .-devPush
 2159              		.align	1
 2160              		.global	devVarianz
 2161              		.syntax unified
 2162              		.thumb
 2163              		.thumb_func
 2164              		.fpu softvfp
 2165              		.type	devVarianz, %function
ARM GAS  /var/folders/_2/qbh2zpt918qcm2b_6mgyydnm0000gn/T//ccx08FD0.s 			page 56


 2166              	devVarianz:
 2167              	.LVL108:
 2168              	.LFB160:
 527:main.c        ****   return (dev->n > 1 ? (dev->newSigma / (dev->n - 1 )) : 0.0f);
 2169              		.loc 1 527 1 is_stmt 1 view -0
 2170              		.cfi_startproc
 2171              		@ args = 0, pretend = 0, frame = 0
 2172              		@ frame_needed = 0, uses_anonymous_args = 0
 528:main.c        **** };
 2173              		.loc 1 528 3 view .LVU483
 2174              	@ main.c:527: {
 527:main.c        ****   return (dev->n > 1 ? (dev->newSigma / (dev->n - 1 )) : 0.0f);
 2175              		.loc 1 527 1 is_stmt 0 view .LVU484
 2176 06ac 10B5     		push	{r4, lr}	@
 2177              	.LCFI20:
 2178              		.cfi_def_cfa_offset 8
 2179              		.cfi_offset 4, -8
 2180              		.cfi_offset 14, -4
 2181              	@ main.c:527: {
 527:main.c        ****   return (dev->n > 1 ? (dev->newSigma / (dev->n - 1 )) : 0.0f);
 2182              		.loc 1 527 1 view .LVU485
 2183 06ae 0446     		mov	r4, r0	@ dev, tmp120
 2184              	@ main.c:528:   return (dev->n > 1 ? (dev->newSigma / (dev->n - 1 )) : 0.0f);
 528:main.c        **** };
 2185              		.loc 1 528 14 view .LVU486
 2186 06b0 0069     		ldr	r0, [r0, #16]	@ _1, dev_7(D)->n
 2187              	.LVL109:
 2188              	@ main.c:528:   return (dev->n > 1 ? (dev->newSigma / (dev->n - 1 )) : 0.0f);
 528:main.c        **** };
 2189              		.loc 1 528 56 view .LVU487
 2190 06b2 0128     		cmp	r0, #1	@ _1,
 2191 06b4 07DD     		ble	.L107		@,
 2192              	@ main.c:528:   return (dev->n > 1 ? (dev->newSigma / (dev->n - 1 )) : 0.0f);
 528:main.c        **** };
 2193              		.loc 1 528 39 discriminator 1 view .LVU488
 2194 06b6 0138     		subs	r0, r0, #1	@, _1,
 2195 06b8 FFF7FEFF 		bl	__aeabi_i2f		@
 2196              	.LVL110:
 2197 06bc 0146     		mov	r1, r0	@ tmp121,
 2198              	@ main.c:528:   return (dev->n > 1 ? (dev->newSigma / (dev->n - 1 )) : 0.0f);
 528:main.c        **** };
 2199              		.loc 1 528 56 discriminator 1 view .LVU489
 2200 06be E068     		ldr	r0, [r4, #12]	@ float	@, dev_7(D)->newSigma
 2201 06c0 FFF7FEFF 		bl	__aeabi_fdiv		@
 2202              	.LVL111:
 2203              	.L105:
 2204              	@ main.c:529: };
 529:main.c        **** 
 2205              		.loc 1 529 1 view .LVU490
 2206 06c4 10BD     		pop	{r4, pc}	@
 2207              	.LVL112:
 2208              	.L107:
 2209              	@ main.c:528:   return (dev->n > 1 ? (dev->newSigma / (dev->n - 1 )) : 0.0f);
 528:main.c        **** };
 2210              		.loc 1 528 56 view .LVU491
 2211 06c6 0020     		movs	r0, #0	@ <retval>,
 2212 06c8 FCE7     		b	.L105		@
ARM GAS  /var/folders/_2/qbh2zpt918qcm2b_6mgyydnm0000gn/T//ccx08FD0.s 			page 57


 2213              		.cfi_endproc
 2214              	.LFE160:
 2215              		.size	devVarianz, .-devVarianz
 2216              		.align	1
 2217              		.global	calculateStandardDeviation
 2218              		.syntax unified
 2219              		.thumb
 2220              		.thumb_func
 2221              		.fpu softvfp
 2222              		.type	calculateStandardDeviation, %function
 2223              	calculateStandardDeviation:
 2224              	.LVL113:
 2225              	.LFB159:
 522:main.c        ****   return sqrtf(devVarianz(dev));
 2226              		.loc 1 522 1 is_stmt 1 view -0
 2227              		.cfi_startproc
 2228              		@ args = 0, pretend = 0, frame = 0
 2229              		@ frame_needed = 0, uses_anonymous_args = 0
 523:main.c        **** };
 2230              		.loc 1 523 3 view .LVU493
 2231              	@ main.c:522: {
 522:main.c        ****   return sqrtf(devVarianz(dev));
 2232              		.loc 1 522 1 is_stmt 0 view .LVU494
 2233 06ca 08B5     		push	{r3, lr}	@
 2234              	.LCFI21:
 2235              		.cfi_def_cfa_offset 8
 2236              		.cfi_offset 3, -8
 2237              		.cfi_offset 14, -4
 2238              	@ main.c:523:   return sqrtf(devVarianz(dev));
 523:main.c        **** };
 2239              		.loc 1 523 10 view .LVU495
 2240 06cc FFF7FEFF 		bl	devVarianz		@
 2241              	.LVL114:
 2242              	@ main.c:524: };
 524:main.c        **** 
 2243              		.loc 1 524 1 view .LVU496
 2244 06d0 BDE80840 		pop	{r3, lr}	@
 2245              	.LCFI22:
 2246              		.cfi_restore 14
 2247              		.cfi_restore 3
 2248              		.cfi_def_cfa_offset 0
 2249              	@ main.c:523:   return sqrtf(devVarianz(dev));
 523:main.c        **** };
 2250              		.loc 1 523 10 view .LVU497
 2251 06d4 FFF7FEBF 		b	sqrtf		@
 2252              	.LVL115:
 2253              		.cfi_endproc
 2254              	.LFE159:
 2255              		.size	calculateStandardDeviation, .-calculateStandardDeviation
 2256              		.global	__aeabi_dadd
 2257              		.align	1
 2258              		.global	performGyroCalibration
 2259              		.syntax unified
 2260              		.thumb
 2261              		.thumb_func
 2262              		.fpu softvfp
 2263              		.type	performGyroCalibration, %function
ARM GAS  /var/folders/_2/qbh2zpt918qcm2b_6mgyydnm0000gn/T//ccx08FD0.s 			page 58


 2264              	performGyroCalibration:
 2265              	.LFB153:
 460:main.c        ****   for (int axis = 0; axis < XYZ_AXIS_COUNT; ++axis){ 
 2266              		.loc 1 460 1 is_stmt 1 view -0
 2267              		.cfi_startproc
 2268              		@ args = 0, pretend = 0, frame = 0
 2269              		@ frame_needed = 0, uses_anonymous_args = 0
 461:main.c        ****     if(isOnFirstCalibrationCycle()){
 2270              		.loc 1 461 3 view .LVU499
 2271              	.LBB61:
 461:main.c        ****     if(isOnFirstCalibrationCycle()){
 2272              		.loc 1 461 8 view .LVU500
 2273              	.LVL116:
 461:main.c        ****     if(isOnFirstCalibrationCycle()){
 2274              		.loc 1 461 22 view .LVU501
 2275              	.LBE61:
 2276              	@ main.c:460: {
 460:main.c        ****   for (int axis = 0; axis < XYZ_AXIS_COUNT; ++axis){ 
 2277              		.loc 1 460 1 is_stmt 0 view .LVU502
 2278 06d8 2DE9F84F 		push	{r3, r4, r5, r6, r7, r8, r9, r10, fp, lr}	@
 2279              	.LCFI23:
 2280              		.cfi_def_cfa_offset 40
 2281              		.cfi_offset 3, -40
 2282              		.cfi_offset 4, -36
 2283              		.cfi_offset 5, -32
 2284              		.cfi_offset 6, -28
 2285              		.cfi_offset 7, -24
 2286              		.cfi_offset 8, -20
 2287              		.cfi_offset 9, -16
 2288              		.cfi_offset 10, -12
 2289              		.cfi_offset 11, -8
 2290              		.cfi_offset 14, -4
 2291 06dc 2F4C     		ldr	r4, .L124	@ ivtmp.305,
 2292 06de DFF8C480 		ldr	r8, .L124+8	@ ivtmp.311,
 2293 06e2 A4F12007 		sub	r7, r4, #32	@ ivtmp.308, ivtmp.305,
 2294 06e6 04F11806 		add	r6, r4, #24	@ ivtmp.312, ivtmp.305,
 2295 06ea B246     		mov	r10, r6	@ _60, ivtmp.312
 2296 06ec 3D46     		mov	r5, r7	@ tmp167, ivtmp.308
 2297              	.LBB66:
 2298              	@ main.c:465:       gyro.gyroZero[axis] = 0.0f;
 465:main.c        ****     };
 2299              		.loc 1 465 27 view .LVU503
 2300 06ee 4FF0000B 		mov	fp, #0	@ tmp170,
 2301              	.LVL117:
 2302              	.L114:
 462:main.c        ****       gyro.calibration.sum[axis] = 0.0;
 2303              		.loc 1 462 5 is_stmt 1 view .LVU504
 2304              	@ main.c:462:     if(isOnFirstCalibrationCycle()){
 462:main.c        ****       gyro.calibration.sum[axis] = 0.0;
 2305              		.loc 1 462 8 is_stmt 0 view .LVU505
 2306 06f2 FFF7FEFF 		bl	isOnFirstCalibrationCycle		@
 2307              	.LVL118:
 2308              	@ main.c:462:     if(isOnFirstCalibrationCycle()){
 462:main.c        ****       gyro.calibration.sum[axis] = 0.0;
 2309              		.loc 1 462 7 view .LVU506
 2310 06f6 38B1     		cbz	r0, .L110	@ tmp171,
 463:main.c        ****       gyro.calibration.varianz[axis].n = 0.0f;
ARM GAS  /var/folders/_2/qbh2zpt918qcm2b_6mgyydnm0000gn/T//ccx08FD0.s 			page 59


 2311              		.loc 1 463 7 is_stmt 1 view .LVU507
 2312              	@ main.c:463:       gyro.calibration.sum[axis] = 0.0;
 463:main.c        ****       gyro.calibration.varianz[axis].n = 0.0f;
 2313              		.loc 1 463 34 is_stmt 0 view .LVU508
 2314 06f8 0023     		movs	r3, #0	@,
 2315 06fa 0022     		movs	r2, #0	@ tmp179,
 2316 06fc C4E90023 		strd	r2, [r4]	@ tmp179, MEM[base: _64, offset: 0B]
 464:main.c        ****       gyro.gyroZero[axis] = 0.0f;
 2317              		.loc 1 464 7 is_stmt 1 view .LVU509
 2318              	@ main.c:464:       gyro.calibration.varianz[axis].n = 0.0f;
 464:main.c        ****       gyro.gyroZero[axis] = 0.0f;
 2319              		.loc 1 464 40 is_stmt 0 view .LVU510
 2320 0700 0023     		movs	r3, #0	@ tmp180,
 2321 0702 3361     		str	r3, [r6, #16]	@ tmp180, MEM[base: _68, offset: 16B]
 465:main.c        ****     };
 2322              		.loc 1 465 7 is_stmt 1 view .LVU511
 2323              	@ main.c:465:       gyro.gyroZero[axis] = 0.0f;
 465:main.c        ****     };
 2324              		.loc 1 465 27 is_stmt 0 view .LVU512
 2325 0704 C7F810B0 		str	fp, [r7, #16]	@ float	@ tmp170, MEM[base: _66, offset: 16B]
 2326              	.L110:
 466:main.c        ****   
 2327              		.loc 1 466 6 is_stmt 1 view .LVU513
 468:main.c        ****     devPush(&gyro.calibration.varianz[axis], imu.gyro[axis]);
 2328              		.loc 1 468 5 view .LVU514
 2329              	@ main.c:468:     gyro.calibration.sum[axis] += imu.gyro[axis];
 468:main.c        ****     devPush(&gyro.calibration.varianz[axis], imu.gyro[axis]);
 2330              		.loc 1 468 43 is_stmt 0 view .LVU515
 2331 0708 38F9029B 		ldrsh	r9, [r8], #2	@ _3, MEM[base: _67, offset: 0B]
 2332              	@ main.c:468:     gyro.calibration.sum[axis] += imu.gyro[axis];
 468:main.c        ****     devPush(&gyro.calibration.varianz[axis], imu.gyro[axis]);
 2333              		.loc 1 468 32 view .LVU516
 2334 070c 4846     		mov	r0, r9	@, _3
 2335 070e FFF7FEFF 		bl	__aeabi_i2d		@
 2336              	.LVL119:
 2337 0712 0B46     		mov	r3, r1	@,
 2338 0714 0246     		mov	r2, r0	@ tmp172,
 2339 0716 D4E90001 		ldrd	r0, [r4]	@, MEM[base: _62, offset: 0B]
 2340 071a FFF7FEFF 		bl	__aeabi_dadd		@
 2341              	.LVL120:
 2342 071e C4E90001 		strd	r0, [r4]	@ tmp173, MEM[base: _62, offset: 0B]
 469:main.c        ****    
 2343              		.loc 1 469 5 is_stmt 1 view .LVU517
 2344 0722 4846     		mov	r0, r9	@, _3
 2345 0724 FFF7FEFF 		bl	__aeabi_i2f		@
 2346              	.LVL121:
 2347 0728 0146     		mov	r1, r0	@ tmp174,
 2348 072a 3046     		mov	r0, r6	@, ivtmp.312
 2349 072c FFF7FEFF 		bl	devPush		@
 2350              	.LVL122:
 471:main.c        ****         const float stddev = calculateStandardDeviation(&gyro.calibration.varianz[axis]);
 2351              		.loc 1 471 5 view .LVU518
 2352              	.LBB62:
 2353              	.LBI62:
 497:main.c        **** {
 2354              		.loc 1 497 6 view .LVU519
 2355              	.LBB63:
ARM GAS  /var/folders/_2/qbh2zpt918qcm2b_6mgyydnm0000gn/T//ccx08FD0.s 			page 60


 499:main.c        **** };
 2356              		.loc 1 499 3 view .LVU520
 2357              	.LBE63:
 2358              	.LBE62:
 2359              	@ main.c:471:     if(isOnFinalCalibrationCycle()){
 471:main.c        ****         const float stddev = calculateStandardDeviation(&gyro.calibration.varianz[axis]);
 2360              		.loc 1 471 7 is_stmt 0 view .LVU521
 2361 0730 6B6F     		ldr	r3, [r5, #116]	@ gyro.calibration.cyclesRemaining, gyro.calibration.cyclesRemaining
 2362 0732 012B     		cmp	r3, #1	@ gyro.calibration.cyclesRemaining,
 2363 0734 1DD1     		bne	.L111		@,
 2364              	.LBB64:
 472:main.c        ****          if(gyro.calibration.gyroMovementCalibrationThreshold && stddev > gyro.calibration.gyroMove
 2365              		.loc 1 472 9 is_stmt 1 view .LVU522
 2366              	@ main.c:472:         const float stddev = calculateStandardDeviation(&gyro.calibration.varianz[axi
 472:main.c        ****          if(gyro.calibration.gyroMovementCalibrationThreshold && stddev > gyro.calibration.gyroMove
 2367              		.loc 1 472 30 is_stmt 0 view .LVU523
 2368 0736 3046     		mov	r0, r6	@, ivtmp.312
 2369 0738 FFF7FEFF 		bl	calculateStandardDeviation		@
 2370              	.LVL123:
 2371 073c 8146     		mov	r9, r0	@ stddev, tmp175
 2372              	.LVL124:
 473:main.c        ****           setGyroCalibrationCycles();
 2373              		.loc 1 473 10 is_stmt 1 view .LVU524
 2374              	@ main.c:473:          if(gyro.calibration.gyroMovementCalibrationThreshold && stddev > gyro.calibr
 473:main.c        ****           setGyroCalibrationCycles();
 2375              		.loc 1 473 29 is_stmt 0 view .LVU525
 2376 073e B5F87800 		ldrh	r0, [r5, #120]	@ _8, gyro.calibration.gyroMovementCalibrationThreshold
 2377              	.LVL125:
 2378              	@ main.c:473:          if(gyro.calibration.gyroMovementCalibrationThreshold && stddev > gyro.calibr
 473:main.c        ****           setGyroCalibrationCycles();
 2379              		.loc 1 473 12 view .LVU526
 2380 0742 48B1     		cbz	r0, .L112	@ _8,
 2381              	@ main.c:473:          if(gyro.calibration.gyroMovementCalibrationThreshold && stddev > gyro.calibr
 473:main.c        ****           setGyroCalibrationCycles();
 2382              		.loc 1 473 73 discriminator 1 view .LVU527
 2383 0744 FFF7FEFF 		bl	__aeabi_i2f		@
 2384              	.LVL126:
 2385              	@ main.c:473:          if(gyro.calibration.gyroMovementCalibrationThreshold && stddev > gyro.calibr
 473:main.c        ****           setGyroCalibrationCycles();
 2386              		.loc 1 473 63 discriminator 1 view .LVU528
 2387 0748 4946     		mov	r1, r9	@, stddev
 2388 074a FFF7FEFF 		bl	__aeabi_fcmplt		@
 2389              	.LVL127:
 2390 074e 18B1     		cbz	r0, .L112	@ tmp176,
 474:main.c        ****         return;
 2391              		.loc 1 474 11 is_stmt 1 view .LVU529
 2392              	.LBE64:
 2393              	.LBE66:
 2394              	@ main.c:485: };
 485:main.c        **** 
 2395              		.loc 1 485 1 is_stmt 0 view .LVU530
 2396 0750 BDE8F84F 		pop	{r3, r4, r5, r6, r7, r8, r9, r10, fp, lr}	@
 2397              	.LCFI24:
 2398              		.cfi_remember_state
 2399              		.cfi_restore 14
 2400              		.cfi_restore 11
 2401              		.cfi_restore 10
ARM GAS  /var/folders/_2/qbh2zpt918qcm2b_6mgyydnm0000gn/T//ccx08FD0.s 			page 61


 2402              		.cfi_restore 9
 2403              		.cfi_restore 8
 2404              		.cfi_restore 7
 2405              		.cfi_restore 6
 2406              		.cfi_restore 5
 2407              		.cfi_restore 4
 2408              		.cfi_restore 3
 2409              		.cfi_def_cfa_offset 0
 2410              	.LVL128:
 2411              	.LBB67:
 2412              	.LBB65:
 2413              	@ main.c:474:           setGyroCalibrationCycles();
 474:main.c        ****         return;
 2414              		.loc 1 474 11 view .LVU531
 2415 0754 FFF7FEBF 		b	setGyroCalibrationCycles		@
 2416              	.LVL129:
 2417              	.L112:
 2418              	.LCFI25:
 2419              		.cfi_restore_state
 476:main.c        ****         gyro.gyroZero[axis] = gyro.calibration.sum[axis] / gyroCalibrationCycles();
 2420              		.loc 1 476 10 is_stmt 1 view .LVU532
 477:main.c        ****     };
 2421              		.loc 1 477 9 view .LVU533
 2422              	@ main.c:477:         gyro.gyroZero[axis] = gyro.calibration.sum[axis] / gyroCalibrationCycles();
 477:main.c        ****     };
 2423              		.loc 1 477 60 is_stmt 0 view .LVU534
 2424 0758 FFF7FEFF 		bl	gyroCalibrationCycles		@
 2425              	.LVL130:
 2426              	@ main.c:477:         gyro.gyroZero[axis] = gyro.calibration.sum[axis] / gyroCalibrationCycles();
 477:main.c        ****     };
 2427              		.loc 1 477 58 view .LVU535
 2428 075c FFF7FEFF 		bl	__aeabi_ui2d		@
 2429              	.LVL131:
 2430 0760 0246     		mov	r2, r0	@ tmp177,
 2431 0762 0B46     		mov	r3, r1	@,
 2432 0764 D4E90001 		ldrd	r0, [r4]	@, MEM[base: _62, offset: 0B]
 2433 0768 FFF7FEFF 		bl	__aeabi_ddiv		@
 2434              	.LVL132:
 2435 076c FFF7FEFF 		bl	__aeabi_d2f		@
 2436              	.LVL133:
 2437 0770 3861     		str	r0, [r7, #16]	@ float	@ tmp178, MEM[base: _65, offset: 16B]
 2438              	.LVL134:
 2439              	.L111:
 477:main.c        ****     };
 2440              		.loc 1 477 58 view .LVU536
 2441              	.LBE65:
 478:main.c        ****   };
 2442              		.loc 1 478 6 is_stmt 1 discriminator 2 view .LVU537
 461:main.c        ****     if(isOnFirstCalibrationCycle()){
 2443              		.loc 1 461 45 discriminator 2 view .LVU538
 461:main.c        ****     if(isOnFirstCalibrationCycle()){
 2444              		.loc 1 461 22 discriminator 2 view .LVU539
 2445 0772 0834     		adds	r4, r4, #8	@ ivtmp.305, ivtmp.305,
 2446              	@ main.c:461:   for (int axis = 0; axis < XYZ_AXIS_COUNT; ++axis){ 
 461:main.c        ****     if(isOnFirstCalibrationCycle()){
 2447              		.loc 1 461 3 is_stmt 0 discriminator 2 view .LVU540
 2448 0774 5445     		cmp	r4, r10	@ ivtmp.305, _60
ARM GAS  /var/folders/_2/qbh2zpt918qcm2b_6mgyydnm0000gn/T//ccx08FD0.s 			page 62


 2449 0776 07F10407 		add	r7, r7, #4	@ ivtmp.308, ivtmp.308,
 2450 077a 06F11406 		add	r6, r6, #20	@ ivtmp.312, ivtmp.312,
 2451 077e B8D1     		bne	.L114		@,
 2452              	.LBE67:
 479:main.c        ****   if (isOnFinalCalibrationCycle()){
 2453              		.loc 1 479 4 is_stmt 1 view .LVU541
 480:main.c        ****     activateBuzzer(&buzz_readyBeep[0]);
 2454              		.loc 1 480 3 view .LVU542
 2455              	.LBB68:
 2456              	.LBI68:
 497:main.c        **** {
 2457              		.loc 1 497 6 view .LVU543
 2458              	.LBB69:
 499:main.c        **** };
 2459              		.loc 1 499 3 view .LVU544
 2460              	.LBE69:
 2461              	.LBE68:
 2462              	@ main.c:480:   if (isOnFinalCalibrationCycle()){
 480:main.c        ****     activateBuzzer(&buzz_readyBeep[0]);
 2463              		.loc 1 480 6 is_stmt 0 view .LVU545
 2464 0780 6C6F     		ldr	r4, [r5, #116]	@ gyro.calibration.cyclesRemaining, gyro.calibration.cyclesRemaining
 2465 0782 012C     		cmp	r4, #1	@ gyro.calibration.cyclesRemaining,
 2466 0784 04D1     		bne	.L115		@,
 481:main.c        ****     gyro.gyroIsCalibrated = TRUE;
 2467              		.loc 1 481 5 is_stmt 1 view .LVU546
 2468 0786 0648     		ldr	r0, .L124+4	@,
 2469 0788 FFF7FEFF 		bl	activateBuzzer		@
 2470              	.LVL135:
 482:main.c        ****   }; 
 2471              		.loc 1 482 5 view .LVU547
 2472              	@ main.c:482:     gyro.gyroIsCalibrated = TRUE;
 482:main.c        ****   }; 
 2473              		.loc 1 482 27 is_stmt 0 view .LVU548
 2474 078c 85F88040 		strb	r4, [r5, #128]	@ gyro.calibration.cyclesRemaining, gyro.gyroIsCalibrated
 2475              	.L115:
 482:main.c        ****   }; 
 2476              		.loc 1 482 33 is_stmt 1 discriminator 1 view .LVU549
 483:main.c        ****   --gyro.calibration.cyclesRemaining; 
 2477              		.loc 1 483 4 discriminator 1 view .LVU550
 484:main.c        **** };
 2478              		.loc 1 484 3 discriminator 1 view .LVU551
 2479 0790 6B6F     		ldr	r3, [r5, #116]	@ gyro.calibration.cyclesRemaining, gyro.calibration.cyclesRemaining
 2480 0792 013B     		subs	r3, r3, #1	@ tmp165, gyro.calibration.cyclesRemaining,
 2481 0794 6B67     		str	r3, [r5, #116]	@ tmp165, gyro.calibration.cyclesRemaining
 2482              	@ main.c:485: };
 485:main.c        **** 
 2483              		.loc 1 485 1 is_stmt 0 discriminator 1 view .LVU552
 2484 0796 BDE8F88F 		pop	{r3, r4, r5, r6, r7, r8, r9, r10, fp, pc}	@
 2485              	.L125:
 2486 079a 00BF     		.align	2
 2487              	.L124:
 2488 079c 20000000 		.word	gyro+32
 2489 07a0 00000000 		.word	buzz_readyBeep
 2490 07a4 06000000 		.word	.LANCHOR0+6
 2491              		.cfi_endproc
 2492              	.LFE153:
 2493              		.size	performGyroCalibration, .-performGyroCalibration
ARM GAS  /var/folders/_2/qbh2zpt918qcm2b_6mgyydnm0000gn/T//ccx08FD0.s 			page 63


 2494              		.align	1
 2495              		.global	constrain_int
 2496              		.syntax unified
 2497              		.thumb
 2498              		.thumb_func
 2499              		.fpu softvfp
 2500              		.type	constrain_int, %function
 2501              	constrain_int:
 2502              	.LVL136:
 2503              	.LFB161:
 531:main.c        ****     int16_t result;
 2504              		.loc 1 531 76 is_stmt 1 view -0
 2505              		.cfi_startproc
 2506              		@ args = 0, pretend = 0, frame = 0
 2507              		@ frame_needed = 0, uses_anonymous_args = 0
 2508              		@ link register save eliminated.
 532:main.c        ****     if (value_to_constrain < min){
 2509              		.loc 1 532 5 view .LVU554
 533:main.c        ****         result = min;
 2510              		.loc 1 533 5 view .LVU555
 2511              	@ main.c:531: int16_t constrain_int(int16_t value_to_constrain, int16_t min, int16_t max){
 531:main.c        ****     int16_t result;
 2512              		.loc 1 531 76 is_stmt 0 view .LVU556
 2513 07a8 0346     		mov	r3, r0	@ value_to_constrain, tmp117
 2514              	@ main.c:533:     if (value_to_constrain < min){
 533:main.c        ****         result = min;
 2515              		.loc 1 533 8 view .LVU557
 2516 07aa 8B42     		cmp	r3, r1	@ value_to_constrain, min
 2517              	@ main.c:531: int16_t constrain_int(int16_t value_to_constrain, int16_t min, int16_t max){
 531:main.c        ****     int16_t result;
 2518              		.loc 1 531 76 view .LVU558
 2519 07ac 0846     		mov	r0, r1	@ min, tmp118
 2520              	.LVL137:
 2521              	@ main.c:533:     if (value_to_constrain < min){
 533:main.c        ****         result = min;
 2522              		.loc 1 533 8 view .LVU559
 2523 07ae 03DB     		blt	.L127		@,
 535:main.c        ****         result = max;
 2524              		.loc 1 535 12 is_stmt 1 view .LVU560
 2525 07b0 9342     		cmp	r3, r2	@ value_to_constrain, max
 2526 07b2 A8BF     		it	ge
 2527 07b4 1346     		movge	r3, r2	@ value_to_constrain, max
 2528 07b6 1846     		mov	r0, r3	@ min, value_to_constrain
 2529              	.L127:
 2530              	.LVL138:
 539:main.c        **** return result;
 2531              		.loc 1 539 6 view .LVU561
 2532              		.loc 1 540 1 view .LVU562
 2533              	@ main.c:541: };
 541:main.c        **** };
 2534              		.loc 1 541 1 is_stmt 0 view .LVU563
 2535 07b8 7047     		bx	lr	@
 2536              		.cfi_endproc
 2537              	.LFE161:
 2538              		.size	constrain_int, .-constrain_int
 2539              		.align	1
 2540              		.global	constrain_float
ARM GAS  /var/folders/_2/qbh2zpt918qcm2b_6mgyydnm0000gn/T//ccx08FD0.s 			page 64


 2541              		.syntax unified
 2542              		.thumb
 2543              		.thumb_func
 2544              		.fpu softvfp
 2545              		.type	constrain_float, %function
 2546              	constrain_float:
 2547              	.LVL139:
 2548              	.LFB162:
 542:main.c        **** 
 543:main.c        **** 
 544:main.c        **** float constrain_float(float value_to_constrain, float min, float max){
 2549              		.loc 1 544 70 is_stmt 1 view -0
 2550              		.cfi_startproc
 2551              		@ args = 0, pretend = 0, frame = 0
 2552              		@ frame_needed = 0, uses_anonymous_args = 0
 545:main.c        ****     float result;
 2553              		.loc 1 545 5 view .LVU565
 546:main.c        ****     if(value_to_constrain < min){
 2554              		.loc 1 546 5 view .LVU566
 2555              	@ main.c:544: float constrain_float(float value_to_constrain, float min, float max){
 544:main.c        ****     float result;
 2556              		.loc 1 544 70 is_stmt 0 view .LVU567
 2557 07ba 70B5     		push	{r4, r5, r6, lr}	@
 2558              	.LCFI26:
 2559              		.cfi_def_cfa_offset 16
 2560              		.cfi_offset 4, -16
 2561              		.cfi_offset 5, -12
 2562              		.cfi_offset 6, -8
 2563              		.cfi_offset 14, -4
 2564              	@ main.c:544: float constrain_float(float value_to_constrain, float min, float max){
 544:main.c        ****     float result;
 2565              		.loc 1 544 70 view .LVU568
 2566 07bc 0646     		mov	r6, r0	@ value_to_constrain, tmp117
 2567 07be 0C46     		mov	r4, r1	@ min, tmp118
 2568 07c0 1546     		mov	r5, r2	@ max, tmp119
 2569              	@ main.c:546:     if(value_to_constrain < min){
 2570              		.loc 1 546 7 view .LVU569
 2571 07c2 FFF7FEFF 		bl	__aeabi_fcmplt		@
 2572              	.LVL140:
 2573              		.loc 1 546 7 view .LVU570
 2574 07c6 28B9     		cbnz	r0, .L129	@ tmp120,
 547:main.c        ****         result = min;
 548:main.c        ****     } else if (value_to_constrain > max){
 2575              		.loc 1 548 12 is_stmt 1 view .LVU571
 2576              	@ main.c:548:     } else if (value_to_constrain > max){
 2577              		.loc 1 548 15 is_stmt 0 view .LVU572
 2578 07c8 2946     		mov	r1, r5	@, max
 2579 07ca 3046     		mov	r0, r6	@, value_to_constrain
 2580 07cc FFF7FEFF 		bl	__aeabi_fcmpgt		@
 2581              	.LVL141:
 2582 07d0 10B9     		cbnz	r0, .L130	@ tmp121,
 2583              	@ main.c:551:         result = value_to_constrain;
 549:main.c        ****         result = max;
 550:main.c        ****     } else {
 551:main.c        ****         result = value_to_constrain;
 2584              		.loc 1 551 16 view .LVU573
 2585 07d2 3446     		mov	r4, r6	@ min, value_to_constrain
ARM GAS  /var/folders/_2/qbh2zpt918qcm2b_6mgyydnm0000gn/T//ccx08FD0.s 			page 65


 2586              	.LVL142:
 2587              	.L129:
 552:main.c        ****     };
 2588              		.loc 1 552 6 is_stmt 1 view .LVU574
 553:main.c        **** return result;
 2589              		.loc 1 553 1 view .LVU575
 2590              	@ main.c:554: }
 554:main.c        **** }
 2591              		.loc 1 554 1 is_stmt 0 view .LVU576
 2592 07d4 2046     		mov	r0, r4	@, min
 2593 07d6 70BD     		pop	{r4, r5, r6, pc}	@
 2594              	.LVL143:
 2595              	.L130:
 2596              	@ main.c:549:         result = max;
 549:main.c        ****     } else {
 2597              		.loc 1 549 16 view .LVU577
 2598 07d8 2C46     		mov	r4, r5	@ min, max
 2599              	.LVL144:
 549:main.c        ****     } else {
 2600              		.loc 1 549 16 view .LVU578
 2601 07da FBE7     		b	.L129		@
 2602              		.cfi_endproc
 2603              	.LFE162:
 2604              		.size	constrain_float, .-constrain_float
 2605              		.align	1
 2606              		.global	init_lookupRollPitch
 2607              		.syntax unified
 2608              		.thumb
 2609              		.thumb_func
 2610              		.fpu softvfp
 2611              		.type	init_lookupRollPitch, %function
 2612              	init_lookupRollPitch:
 2613              	.LFB163:
 555:main.c        **** 
 556:main.c        **** void init_lookupRollPitch(){
 2614              		.loc 1 556 28 is_stmt 1 view -0
 2615              		.cfi_startproc
 2616              		@ args = 0, pretend = 0, frame = 0
 2617              		@ frame_needed = 0, uses_anonymous_args = 0
 2618              		@ link register save eliminated.
 557:main.c        ****     for (int i=0;i<5;i++){
 2619              		.loc 1 557 5 view .LVU580
 2620              	.LBB70:
 2621              		.loc 1 557 10 view .LVU581
 2622              	.LVL145:
 2623              		.loc 1 557 18 view .LVU582
 558:main.c        ****         lookupRollPitch[i] = (1526 + EXPO * (i*i-15)) * i * (uint32_t)RC_RATE/1192;
 2624              		.loc 1 558 9 view .LVU583
 2625              	@ main.c:558:         lookupRollPitch[i] = (1526 + EXPO * (i*i-15)) * i * (uint32_t)RC_RATE/1192;
 2626              		.loc 1 558 28 is_stmt 0 view .LVU584
 2627 07dc 064B     		ldr	r3, .L132	@ tmp110,
 2628 07de 4322     		movs	r2, #67	@ tmp113,
 2629 07e0 0021     		movs	r1, #0	@,
 2630 07e2 C3E90012 		strd	r1, r2, [r3]	@, tmp113, tmp110
 557:main.c        ****     for (int i=0;i<5;i++){
 2631              		.loc 1 557 22 is_stmt 1 view .LVU585
 2632              	.LVL146:
ARM GAS  /var/folders/_2/qbh2zpt918qcm2b_6mgyydnm0000gn/T//ccx08FD0.s 			page 66


 557:main.c        ****     for (int i=0;i<5;i++){
 2633              		.loc 1 557 18 view .LVU586
 2634              		.loc 1 558 9 view .LVU587
 2635              	@ main.c:558:         lookupRollPitch[i] = (1526 + EXPO * (i*i-15)) * i * (uint32_t)RC_RATE/1192;
 2636              		.loc 1 558 28 is_stmt 0 view .LVU588
 2637 07e6 B020     		movs	r0, #176	@,
 2638 07e8 40F27312 		movw	r2, #371	@ tmp117,
 2639 07ec C3E90202 		strd	r0, r2, [r3, #8]	@, tmp117, tmp110,
 557:main.c        ****     for (int i=0;i<5;i++){
 2640              		.loc 1 557 22 is_stmt 1 view .LVU589
 2641              	.LVL147:
 557:main.c        ****     for (int i=0;i<5;i++){
 2642              		.loc 1 557 18 view .LVU590
 2643              		.loc 1 558 9 view .LVU591
 2644              	@ main.c:558:         lookupRollPitch[i] = (1526 + EXPO * (i*i-15)) * i * (uint32_t)RC_RATE/1192;
 2645              		.loc 1 558 28 is_stmt 0 view .LVU592
 2646 07f0 40F2B622 		movw	r2, #694	@ tmp119,
 2647 07f4 1A61     		str	r2, [r3, #16]	@ tmp119, lookupRollPitch
 557:main.c        ****     for (int i=0;i<5;i++){
 2648              		.loc 1 557 22 is_stmt 1 view .LVU593
 2649              	.LVL148:
 557:main.c        ****     for (int i=0;i<5;i++){
 2650              		.loc 1 557 18 view .LVU594
 2651              	.LBE70:
 559:main.c        ****     };
 2652              		.loc 1 559 6 view .LVU595
 2653              	@ main.c:560: };
 560:main.c        **** };
 2654              		.loc 1 560 1 is_stmt 0 view .LVU596
 2655 07f6 7047     		bx	lr	@
 2656              	.L133:
 2657              		.align	2
 2658              	.L132:
 2659 07f8 00000000 		.word	lookupRollPitch
 2660              		.cfi_endproc
 2661              	.LFE163:
 2662              		.size	init_lookupRollPitch, .-init_lookupRollPitch
 2663              		.align	1
 2664              		.global	init_lookupThrottle
 2665              		.syntax unified
 2666              		.thumb
 2667              		.thumb_func
 2668              		.fpu softvfp
 2669              		.type	init_lookupThrottle, %function
 2670              	init_lookupThrottle:
 2671              	.LFB164:
 561:main.c        **** 
 562:main.c        **** void init_lookupThrottle(){
 2672              		.loc 1 562 27 is_stmt 1 view -0
 2673              		.cfi_startproc
 2674              		@ args = 0, pretend = 0, frame = 0
 2675              		@ frame_needed = 0, uses_anonymous_args = 0
 563:main.c        **** 	int8_t i;
 2676              		.loc 1 563 2 view .LVU598
 564:main.c        **** 	int8_t tmp,y;
 2677              		.loc 1 564 2 view .LVU599
 565:main.c        **** 	for(i=0;i<12;i++){
ARM GAS  /var/folders/_2/qbh2zpt918qcm2b_6mgyydnm0000gn/T//ccx08FD0.s 			page 67


 2678              		.loc 1 565 2 view .LVU600
 2679              	.LVL149:
 2680              		.loc 1 565 10 view .LVU601
 2681              	@ main.c:562: void init_lookupThrottle(){
 562:main.c        **** 	int8_t i;
 2682              		.loc 1 562 27 is_stmt 0 view .LVU602
 2683 07fc 2DE9F047 		push	{r4, r5, r6, r7, r8, r9, r10, lr}	@
 2684              	.LCFI27:
 2685              		.cfi_def_cfa_offset 32
 2686              		.cfi_offset 4, -32
 2687              		.cfi_offset 5, -28
 2688              		.cfi_offset 6, -24
 2689              		.cfi_offset 7, -20
 2690              		.cfi_offset 8, -16
 2691              		.cfi_offset 9, -12
 2692              		.cfi_offset 10, -8
 2693              		.cfi_offset 14, -4
 2694              	@ main.c:566: 		tmp = 10 * i - ThrMidEx;
 566:main.c        **** 		tmp = 10 * i - ThrMidEx;
 2695              		.loc 1 566 16 view .LVU603
 2696 0800 184B     		ldr	r3, .L137	@ tmp144,
 2697 0802 194E     		ldr	r6, .L137+4	@ ivtmp.335,
 2698 0804 5979     		ldrb	r1, [r3, #5]	@ zero_extendqisi2	@ ThrMidEx.53_3, ThrMidEx
 2699              	@ main.c:567: 		y = ThrMidEx;
 567:main.c        **** 		y = ThrMidEx;
 2700              		.loc 1 567 5 view .LVU604
 2701 0806 93F90500 		ldrsb	r0, [r3, #5]	@ y, ThrMidEx
 2702              	@ main.c:568: 		lookupThrottle[i]= 100 * ThrMidEx + tmp * (10 - ExpoThrottle + ExpoThrottle * (tmp 
 568:main.c        **** 		lookupThrottle[i]= 100 * ThrMidEx + tmp * (10 - ExpoThrottle + ExpoThrottle * (tmp * tmp)/(y *y)+
 2703              		.loc 1 568 49 view .LVU605
 2704 080a 9F79     		ldrb	r7, [r3, #6]	@ zero_extendqisi2	@ _9, ExpoThrottle
 2705              	@ main.c:568: 		lookupThrottle[i]= 100 * ThrMidEx + tmp * (10 - ExpoThrottle + ExpoThrottle * (tmp 
 2706              		.loc 1 568 99 view .LVU606
 2707 080c 93F80780 		ldrb	r8, [r3, #7]	@ zero_extendqisi2	@ _18, ExpCorFactor
 2708              	@ main.c:568: 		lookupThrottle[i]= 100 * ThrMidEx + tmp * (10 - ExpoThrottle + ExpoThrottle * (tmp 
 2709              		.loc 1 568 26 view .LVU607
 2710 0810 6425     		movs	r5, #100	@ tmp146,
 2711 0812 4A42     		rsbs	r2, r1, #0	@ tmp150, ThrMidEx.53_3
 2712 0814 C1F17804 		rsb	r4, r1, #120	@ tmp151, ThrMidEx.53_3,
 2713 0818 11FB05F5 		smulbb	r5, r1, r5	@ _6, ThrMidEx.53_3, tmp146
 2714              	@ main.c:568: 		lookupThrottle[i]= 100 * ThrMidEx + tmp * (10 - ExpoThrottle + ExpoThrottle * (tmp 
 2715              		.loc 1 568 49 view .LVU608
 2716 081c C7F10A09 		rsb	r9, r7, #10	@ _10, _9,
 2717              	@ main.c:568: 		lookupThrottle[i]= 100 * ThrMidEx + tmp * (10 - ExpoThrottle + ExpoThrottle * (tmp 
 2718              		.loc 1 568 96 view .LVU609
 2719 0820 10FB00F0 		smulbb	r0, r0, r0	@ _14, y, y
 2720 0824 D2B2     		uxtb	r2, r2	@ ivtmp.332, tmp150
 2721 0826 E4B2     		uxtb	r4, r4	@ _57, tmp151
 2722              	@ main.c:569: 		lookupThrottle[i]= MINTHROTTLE + ( MAXTHROTTLE - MINTHROTTLE) * lookupThrottle[i] /
 569:main.c        **** 		lookupThrottle[i]= MINTHROTTLE + ( MAXTHROTTLE - MINTHROTTLE) * lookupThrottle[i] / 10000;
 2723              		.loc 1 569 65 view .LVU610
 2724 0828 40F2EF2E 		movw	lr, #751	@ tmp162,
 2725              	@ main.c:569: 		lookupThrottle[i]= MINTHROTTLE + ( MAXTHROTTLE - MINTHROTTLE) * lookupThrottle[i] /
 2726              		.loc 1 569 85 view .LVU611
 2727 082c 42F2107C 		movw	ip, #10000	@ tmp165,
 2728              	.LVL150:
 2729              	.L135:
ARM GAS  /var/folders/_2/qbh2zpt918qcm2b_6mgyydnm0000gn/T//ccx08FD0.s 			page 68


 566:main.c        **** 		y = ThrMidEx;
 2730              		.loc 1 566 3 is_stmt 1 discriminator 3 view .LVU612
 2731              	@ main.c:566: 		tmp = 10 * i - ThrMidEx;
 566:main.c        **** 		y = ThrMidEx;
 2732              		.loc 1 566 7 is_stmt 0 discriminator 3 view .LVU613
 2733 0830 4FFA82FA 		sxtb	r10, r2	@ tmp, ivtmp.332
 2734              	.LVL151:
 567:main.c        **** 		lookupThrottle[i]= 100 * ThrMidEx + tmp * (10 - ExpoThrottle + ExpoThrottle * (tmp * tmp)/(y *y)+
 2735              		.loc 1 567 3 is_stmt 1 discriminator 3 view .LVU614
 568:main.c        **** 		lookupThrottle[i]= MINTHROTTLE + ( MAXTHROTTLE - MINTHROTTLE) * lookupThrottle[i] / 10000;
 2736              		.loc 1 568 3 discriminator 3 view .LVU615
 2737              		.loc 1 569 3 discriminator 3 view .LVU616
 2738              	@ main.c:568: 		lookupThrottle[i]= 100 * ThrMidEx + tmp * (10 - ExpoThrottle + ExpoThrottle * (tmp 
 568:main.c        **** 		lookupThrottle[i]= MINTHROTTLE + ( MAXTHROTTLE - MINTHROTTLE) * lookupThrottle[i] / 10000;
 2739              		.loc 1 568 86 is_stmt 0 discriminator 3 view .LVU617
 2740 0834 1AFB0AF3 		smulbb	r3, r10, r10	@ tmp152, tmp, tmp
 2741              	@ main.c:568: 		lookupThrottle[i]= 100 * ThrMidEx + tmp * (10 - ExpoThrottle + ExpoThrottle * (tmp 
 568:main.c        **** 		lookupThrottle[i]= MINTHROTTLE + ( MAXTHROTTLE - MINTHROTTLE) * lookupThrottle[i] / 10000;
 2742              		.loc 1 568 79 discriminator 3 view .LVU618
 2743 0838 7B43     		muls	r3, r7, r3	@ tmp153, _9
 2744              	@ main.c:568: 		lookupThrottle[i]= 100 * ThrMidEx + tmp * (10 - ExpoThrottle + ExpoThrottle * (tmp 
 568:main.c        **** 		lookupThrottle[i]= MINTHROTTLE + ( MAXTHROTTLE - MINTHROTTLE) * lookupThrottle[i] / 10000;
 2745              		.loc 1 568 92 discriminator 3 view .LVU619
 2746 083a 93FBF0F3 		sdiv	r3, r3, r0	@ tmp155, tmp153, _14
 2747              	@ main.c:568: 		lookupThrottle[i]= 100 * ThrMidEx + tmp * (10 - ExpoThrottle + ExpoThrottle * (tmp 
 568:main.c        **** 		lookupThrottle[i]= MINTHROTTLE + ( MAXTHROTTLE - MINTHROTTLE) * lookupThrottle[i] / 10000;
 2748              		.loc 1 568 64 discriminator 3 view .LVU620
 2749 083e 4B44     		add	r3, r3, r9	@ tmp156, _10
 2750              	@ main.c:568: 		lookupThrottle[i]= 100 * ThrMidEx + tmp * (10 - ExpoThrottle + ExpoThrottle * (tmp 
 568:main.c        **** 		lookupThrottle[i]= MINTHROTTLE + ( MAXTHROTTLE - MINTHROTTLE) * lookupThrottle[i] / 10000;
 2751              		.loc 1 568 99 discriminator 3 view .LVU621
 2752 0840 4344     		add	r3, r3, r8	@ tmp157, _18
 2753              	@ main.c:568: 		lookupThrottle[i]= 100 * ThrMidEx + tmp * (10 - ExpoThrottle + ExpoThrottle * (tmp 
 568:main.c        **** 		lookupThrottle[i]= MINTHROTTLE + ( MAXTHROTTLE - MINTHROTTLE) * lookupThrottle[i] / 10000;
 2754              		.loc 1 568 114 discriminator 3 view .LVU622
 2755 0842 5B1A     		subs	r3, r3, r1	@ tmp158, tmp157, ThrMidEx.53_3
 2756 0844 0A32     		adds	r2, r2, #10	@ tmp167, ivtmp.332,
 2757              	@ main.c:568: 		lookupThrottle[i]= 100 * ThrMidEx + tmp * (10 - ExpoThrottle + ExpoThrottle * (tmp 
 568:main.c        **** 		lookupThrottle[i]= MINTHROTTLE + ( MAXTHROTTLE - MINTHROTTLE) * lookupThrottle[i] / 10000;
 2758              		.loc 1 568 37 discriminator 3 view .LVU623
 2759 0846 0AFB0353 		mla	r3, r10, r3, r5	@ tmp160, tmp, tmp158, _6
 2760 084a D2B2     		uxtb	r2, r2	@ ivtmp.332, tmp167
 2761              	@ main.c:569: 		lookupThrottle[i]= MINTHROTTLE + ( MAXTHROTTLE - MINTHROTTLE) * lookupThrottle[i] /
 2762              		.loc 1 569 65 discriminator 3 view .LVU624
 2763 084c 0EFB03F3 		mul	r3, lr, r3	@ tmp161, tmp162, tmp160
 2764              	@ main.c:565: 	for(i=0;i<12;i++){
 565:main.c        **** 		tmp = 10 * i - ThrMidEx;
 2765              		.loc 1 565 2 discriminator 3 view .LVU625
 2766 0850 9442     		cmp	r4, r2	@ _57, ivtmp.332
 2767              	@ main.c:569: 		lookupThrottle[i]= MINTHROTTLE + ( MAXTHROTTLE - MINTHROTTLE) * lookupThrottle[i] /
 2768              		.loc 1 569 85 discriminator 3 view .LVU626
 2769 0852 B3FBFCF3 		udiv	r3, r3, ip	@ tmp164, tmp161, tmp165
 2770              	@ main.c:569: 		lookupThrottle[i]= MINTHROTTLE + ( MAXTHROTTLE - MINTHROTTLE) * lookupThrottle[i] /
 2771              		.loc 1 569 34 discriminator 3 view .LVU627
 2772 0856 03F24C43 		addw	r3, r3, #1100	@ tmp166, tmp164,
 2773              	@ main.c:569: 		lookupThrottle[i]= MINTHROTTLE + ( MAXTHROTTLE - MINTHROTTLE) * lookupThrottle[i] /
 2774              		.loc 1 569 20 discriminator 3 view .LVU628
ARM GAS  /var/folders/_2/qbh2zpt918qcm2b_6mgyydnm0000gn/T//ccx08FD0.s 			page 69


 2775 085a 46F8043B 		str	r3, [r6], #4	@ tmp166, MEM[base: _58, offset: 0B]
 565:main.c        **** 		tmp = 10 * i - ThrMidEx;
 2776              		.loc 1 565 15 is_stmt 1 discriminator 3 view .LVU629
 565:main.c        **** 		tmp = 10 * i - ThrMidEx;
 2777              		.loc 1 565 10 discriminator 3 view .LVU630
 2778              	@ main.c:565: 	for(i=0;i<12;i++){
 565:main.c        **** 		tmp = 10 * i - ThrMidEx;
 2779              		.loc 1 565 2 is_stmt 0 discriminator 3 view .LVU631
 2780 085e E7D1     		bne	.L135		@,
 2781              	@ main.c:571: };
 570:main.c        **** 	}; 
 571:main.c        **** };
 2782              		.loc 1 571 1 view .LVU632
 2783 0860 BDE8F087 		pop	{r4, r5, r6, r7, r8, r9, r10, pc}	@
 2784              	.LVL152:
 2785              	.L138:
 2786              		.loc 1 571 1 view .LVU633
 2787              		.align	2
 2788              	.L137:
 2789 0864 00000000 		.word	.LANCHOR1
 2790 0868 00000000 		.word	lookupThrottle
 2791              		.cfi_endproc
 2792              	.LFE164:
 2793              		.size	init_lookupThrottle, .-init_lookupThrottle
 2794              		.align	1
 2795              		.global	getFlightModeAndArmDisarmSignal
 2796              		.syntax unified
 2797              		.thumb
 2798              		.thumb_func
 2799              		.fpu softvfp
 2800              		.type	getFlightModeAndArmDisarmSignal, %function
 2801              	getFlightModeAndArmDisarmSignal:
 2802              	.LFB165:
 572:main.c        **** 
 573:main.c        **** void getFlightModeAndArmDisarmSignal(void){
 2803              		.loc 1 573 43 is_stmt 1 view -0
 2804              		.cfi_startproc
 2805              		@ args = 0, pretend = 0, frame = 0
 2806              		@ frame_needed = 0, uses_anonymous_args = 0
 2807              		@ link register save eliminated.
 574:main.c        **** 
 575:main.c        ****   if(rxSetPoint[ARM]> 992 && rxSetPoint[ARM] < 1020 ){
 2808              		.loc 1 575 3 view .LVU635
 2809              	@ main.c:575:   if(rxSetPoint[ARM]> 992 && rxSetPoint[ARM] < 1020 ){
 2810              		.loc 1 575 16 is_stmt 0 view .LVU636
 2811 086c 184B     		ldr	r3, .L144	@ tmp121,
 2812              	@ main.c:575:   if(rxSetPoint[ARM]> 992 && rxSetPoint[ARM] < 1020 ){
 2813              		.loc 1 575 27 view .LVU637
 2814 086e 1A69     		ldr	r2, [r3, #16]	@ _2, rxSetPoint
 2815 0870 6FF47870 		mvn	r0, #992	@,
 2816 0874 1118     		adds	r1, r2, r0	@ tmp122, _2,
 2817              	@ main.c:575:   if(rxSetPoint[ARM]> 992 && rxSetPoint[ARM] < 1020 ){
 2818              		.loc 1 575 5 view .LVU638
 2819 0876 1A29     		cmp	r1, #26	@ tmp122,
 2820 0878 10D8     		bhi	.L140		@,
 576:main.c        ****     SET_FLAG(f.DISARME_SIG);
 2821              		.loc 1 576 5 is_stmt 1 view .LVU639
ARM GAS  /var/folders/_2/qbh2zpt918qcm2b_6mgyydnm0000gn/T//ccx08FD0.s 			page 70


 2822 087a 1649     		ldr	r1, .L144+4	@ tmp123,
 2823 087c 4A79     		ldrb	r2, [r1, #5]	@ zero_extendqisi2	@ f.DISARME_SIG, f.DISARME_SIG
 2824 087e 42F01002 		orr	r2, r2, #16	@ tmp126, f.DISARME_SIG,
 2825 0882 4A71     		strb	r2, [r1, #5]	@ tmp126, f.DISARME_SIG
 577:main.c        ****   };
 2826              		.loc 1 577 4 view .LVU640
 578:main.c        ****   if(rxSetPoint[ARM] > 1900 && rxSetPoint[ARM] < 2010){
 2827              		.loc 1 578 3 view .LVU641
 2828              	.L141:
 579:main.c        ****     UNSET_FLAG(f.DISARME_SIG);
 580:main.c        ****     UNSET_FLAG(f.OK_TO_DISARME);
 581:main.c        ****     SET_FLAG(f.OK_TO_ARM);
 582:main.c        ****   };
 2829              		.loc 1 582 4 view .LVU642
 583:main.c        ****   if(rxSetPoint[CH6] > 992 && rxSetPoint[CH6] < 1020 ){
 2830              		.loc 1 583 3 view .LVU643
 2831              	@ main.c:583:   if(rxSetPoint[CH6] > 992 && rxSetPoint[CH6] < 1020 ){
 2832              		.loc 1 583 28 is_stmt 0 view .LVU644
 2833 0884 5B69     		ldr	r3, [r3, #20]	@ _6, rxSetPoint
 2834 0886 6FF47871 		mvn	r1, #992	@,
 2835 088a 5A18     		adds	r2, r3, r1	@ tmp143, _6,
 2836              	@ main.c:583:   if(rxSetPoint[CH6] > 992 && rxSetPoint[CH6] < 1020 ){
 2837              		.loc 1 583 5 view .LVU645
 2838 088c 1A2A     		cmp	r2, #26	@ tmp143,
 2839 088e 13D8     		bhi	.L142		@,
 584:main.c        ****     UNSET_FLAG(f.ANGLE_MODE);
 2840              		.loc 1 584 5 is_stmt 1 view .LVU646
 2841 0890 104B     		ldr	r3, .L144+4	@ tmp144,
 2842 0892 1A79     		ldrb	r2, [r3, #4]	@ zero_extendqisi2	@, f.ANGLE_MODE
 2843 0894 6FF3C712 		bfc	r2, #7, #1	@ f.ANGLE_MODE,,
 2844 0898 1A71     		strb	r2, [r3, #4]	@ f.ANGLE_MODE, f.ANGLE_MODE
 585:main.c        ****   };
 2845              		.loc 1 585 4 view .LVU647
 586:main.c        ****   if (rxSetPoint[CH6] > 1480 && rxSetPoint[CH6] < 1520){
 2846              		.loc 1 586 3 view .LVU648
 2847 089a 7047     		bx	lr	@
 2848              	.L140:
 577:main.c        ****   if(rxSetPoint[ARM] > 1900 && rxSetPoint[ARM] < 2010){
 2849              		.loc 1 577 4 view .LVU649
 578:main.c        ****     UNSET_FLAG(f.DISARME_SIG);
 2850              		.loc 1 578 3 view .LVU650
 2851              	@ main.c:578:   if(rxSetPoint[ARM] > 1900 && rxSetPoint[ARM] < 2010){
 578:main.c        ****     UNSET_FLAG(f.DISARME_SIG);
 2852              		.loc 1 578 29 is_stmt 0 view .LVU651
 2853 089c A2F26D72 		subw	r2, r2, #1901	@ tmp128, _2,
 2854              	@ main.c:578:   if(rxSetPoint[ARM] > 1900 && rxSetPoint[ARM] < 2010){
 578:main.c        ****     UNSET_FLAG(f.DISARME_SIG);
 2855              		.loc 1 578 5 view .LVU652
 2856 08a0 6C2A     		cmp	r2, #108	@ tmp128,
 2857 08a2 EFD8     		bhi	.L141		@,
 579:main.c        ****     UNSET_FLAG(f.OK_TO_DISARME);
 2858              		.loc 1 579 5 is_stmt 1 view .LVU653
 580:main.c        ****     SET_FLAG(f.OK_TO_ARM);
 2859              		.loc 1 580 5 view .LVU654
 581:main.c        ****   };
 2860              		.loc 1 581 5 view .LVU655
 2861 08a4 0B4A     		ldr	r2, .L144+4	@ tmp129,
ARM GAS  /var/folders/_2/qbh2zpt918qcm2b_6mgyydnm0000gn/T//ccx08FD0.s 			page 71


 2862 08a6 1179     		ldrb	r1, [r2, #4]	@ zero_extendqisi2	@ f.OK_TO_ARM, f.OK_TO_ARM
 2863 08a8 41F00201 		orr	r1, r1, #2	@ tmp132, f.OK_TO_ARM,
 2864 08ac 1171     		strb	r1, [r2, #4]	@ tmp132, f.OK_TO_ARM
 2865              	@ main.c:580:     UNSET_FLAG(f.OK_TO_DISARME);
 580:main.c        ****     SET_FLAG(f.OK_TO_ARM);
 2866              		.loc 1 580 5 is_stmt 0 view .LVU656
 2867 08ae 5179     		ldrb	r1, [r2, #5]	@ zero_extendqisi2	@ MEM[(struct  *)&f + 1B], MEM[(struct  *)&f + 1B]
 2868 08b0 21F01801 		bic	r1, r1, #24	@ tmp138, MEM[(struct  *)&f + 1B],
 2869 08b4 5171     		strb	r1, [r2, #5]	@ tmp138, MEM[(struct  *)&f + 1B]
 2870 08b6 E5E7     		b	.L141		@
 2871              	.L142:
 585:main.c        ****   if (rxSetPoint[CH6] > 1480 && rxSetPoint[CH6] < 1520){
 2872              		.loc 1 585 4 is_stmt 1 view .LVU657
 2873              		.loc 1 586 3 view .LVU658
 2874              	@ main.c:586:   if (rxSetPoint[CH6] > 1480 && rxSetPoint[CH6] < 1520){
 2875              		.loc 1 586 30 is_stmt 0 view .LVU659
 2876 08b8 6FF4B962 		mvn	r2, #1480	@,
 2877 08bc 1344     		add	r3, r3, r2	@ tmp147,
 2878              	@ main.c:586:   if (rxSetPoint[CH6] > 1480 && rxSetPoint[CH6] < 1520){
 2879              		.loc 1 586 6 view .LVU660
 2880 08be 262B     		cmp	r3, #38	@ tmp147,
 587:main.c        ****     SET_FLAG(f.ANGLE_MODE);
 2881              		.loc 1 587 5 is_stmt 1 view .LVU661
 2882 08c0 9FBF     		itttt	ls
 2883 08c2 044A     		ldrls	r2, .L144+4	@ tmp148,
 2884 08c4 1379     		ldrbls	r3, [r2, #4]	@ zero_extendqisi2	@ f.ANGLE_MODE, f.ANGLE_MODE
 2885 08c6 43F08003 		orrls	r3, r3, #128	@ tmp151, f.ANGLE_MODE,
 2886 08ca 1371     		strbls	r3, [r2, #4]	@ tmp151, f.ANGLE_MODE
 588:main.c        ****   };
 2887              		.loc 1 588 4 view .LVU662
 2888              	@ main.c:589: };
 589:main.c        **** };
 2889              		.loc 1 589 1 is_stmt 0 view .LVU663
 2890 08cc 7047     		bx	lr	@
 2891              	.L145:
 2892 08ce 00BF     		.align	2
 2893              	.L144:
 2894 08d0 00000000 		.word	rxSetPoint
 2895 08d4 00000000 		.word	.LANCHOR0
 2896              		.cfi_endproc
 2897              	.LFE165:
 2898              		.size	getFlightModeAndArmDisarmSignal, .-getFlightModeAndArmDisarmSignal
 2899              		.align	1
 2900              		.global	get_tpa_factor
 2901              		.syntax unified
 2902              		.thumb
 2903              		.thumb_func
 2904              		.fpu softvfp
 2905              		.type	get_tpa_factor, %function
 2906              	get_tpa_factor:
 2907              	.LFB166:
 590:main.c        **** 
 591:main.c        **** void get_tpa_factor(){
 2908              		.loc 1 591 22 is_stmt 1 view -0
 2909              		.cfi_startproc
 2910              		@ args = 0, pretend = 0, frame = 0
 2911              		@ frame_needed = 0, uses_anonymous_args = 0
ARM GAS  /var/folders/_2/qbh2zpt918qcm2b_6mgyydnm0000gn/T//ccx08FD0.s 			page 72


 592:main.c        ****  	static int32_t prop;
 2912              		.loc 1 592 3 view .LVU665
 593:main.c        **** 	if(rxSetPoint[THROTTLE] < TpaBreakPoint){
 2913              		.loc 1 593 2 view .LVU666
 2914              	@ main.c:593: 	if(rxSetPoint[THROTTLE] < TpaBreakPoint){
 2915              		.loc 1 593 15 is_stmt 0 view .LVU667
 2916 08d8 114B     		ldr	r3, .L151	@ tmp117,
 2917 08da 124A     		ldr	r2, .L151+4	@ tmp133,
 2918 08dc D868     		ldr	r0, [r3, #12]	@ _1, rxSetPoint
 2919              	@ main.c:593: 	if(rxSetPoint[THROTTLE] < TpaBreakPoint){
 2920              		.loc 1 593 4 view .LVU668
 2921 08de 40F24553 		movw	r3, #1349	@ tmp118,
 2922 08e2 9842     		cmp	r0, r3	@ _1, tmp118
 2923              	@ main.c:591: void get_tpa_factor(){
 591:main.c        ****  	static int32_t prop;
 2924              		.loc 1 591 22 view .LVU669
 2925 08e4 10B5     		push	{r4, lr}	@
 2926              	.LCFI28:
 2927              		.cfi_def_cfa_offset 8
 2928              		.cfi_offset 4, -8
 2929              		.cfi_offset 14, -4
 2930 08e6 104C     		ldr	r4, .L151+8	@ tmp134,
 2931              	@ main.c:593: 	if(rxSetPoint[THROTTLE] < TpaBreakPoint){
 2932              		.loc 1 593 4 view .LVU670
 2933 08e8 05DC     		bgt	.L147		@,
 594:main.c        **** 		prop = 100;
 2934              		.loc 1 594 3 is_stmt 1 view .LVU671
 2935              	@ main.c:594: 		prop = 100;
 2936              		.loc 1 594 8 is_stmt 0 view .LVU672
 2937 08ea 6423     		movs	r3, #100	@ tmp120,
 2938 08ec 5361     		str	r3, [r2, #20]	@ tmp120, prop
 595:main.c        **** 		throttlePIDAttenuation = 1.0f;
 2939              		.loc 1 595 3 is_stmt 1 view .LVU673
 2940              	@ main.c:595: 		throttlePIDAttenuation = 1.0f;
 2941              		.loc 1 595 26 is_stmt 0 view .LVU674
 2942 08ee 4FF07E53 		mov	r3, #1065353216	@ tmp122,
 2943 08f2 2360     		str	r3, [r4]	@ float	@ tmp122, throttlePIDAttenuation
 2944              	.L146:
 2945              	@ main.c:604: };
 596:main.c        **** 	} else{
 597:main.c        **** 		if(rxSetPoint[THROTTLE] < 2000){
 598:main.c        **** 			prop = 100 - dynThrPid * (rxSetPoint[THROTTLE] - TpaBreakPoint) / (2000 - TpaBreakPoint);
 599:main.c        **** 		} else {
 600:main.c        **** 			prop = 100 - dynThrPid;
 601:main.c        **** 		}; 
 602:main.c        **** 		throttlePIDAttenuation = prop / 100.0f;
 603:main.c        **** 	};
 604:main.c        **** };
 2946              		.loc 1 604 1 view .LVU675
 2947 08f4 10BD     		pop	{r4, pc}	@
 2948              	.L147:
 597:main.c        **** 			prop = 100 - dynThrPid * (rxSetPoint[THROTTLE] - TpaBreakPoint) / (2000 - TpaBreakPoint);
 2949              		.loc 1 597 3 is_stmt 1 view .LVU676
 2950              	@ main.c:597: 		if(rxSetPoint[THROTTLE] < 2000){
 597:main.c        **** 			prop = 100 - dynThrPid * (rxSetPoint[THROTTLE] - TpaBreakPoint) / (2000 - TpaBreakPoint);
 2951              		.loc 1 597 5 is_stmt 0 view .LVU677
 2952 08f6 B0F5FA6F 		cmp	r0, #2000	@ _1,
ARM GAS  /var/folders/_2/qbh2zpt918qcm2b_6mgyydnm0000gn/T//ccx08FD0.s 			page 73


 598:main.c        **** 		} else {
 2953              		.loc 1 598 4 is_stmt 1 view .LVU678
 2954              	@ main.c:598: 			prop = 100 - dynThrPid * (rxSetPoint[THROTTLE] - TpaBreakPoint) / (2000 - TpaBreak
 598:main.c        **** 		} else {
 2955              		.loc 1 598 51 is_stmt 0 view .LVU679
 2956 08fa BDBF     		ittte	lt
 2957 08fc A0F24653 		subwlt	r3, r0, #1350	@ tmp123, _1,
 2958              	@ main.c:598: 			prop = 100 - dynThrPid * (rxSetPoint[THROTTLE] - TpaBreakPoint) / (2000 - TpaBreak
 598:main.c        **** 		} else {
 2959              		.loc 1 598 27 view .LVU680
 2960 0900 5620     		movlt	r0, #86	@ tmp125,
 2961 0902 5843     		mullt	r0, r0, r3	@ tmp124, tmp125, tmp123
 2962              	@ main.c:600: 			prop = 100 - dynThrPid;
 600:main.c        **** 		}; 
 2963              		.loc 1 600 9 view .LVU681
 2964 0904 0E20     		movge	r0, #14	@ cstore_18,
 2965              	@ main.c:598: 			prop = 100 - dynThrPid * (rxSetPoint[THROTTLE] - TpaBreakPoint) / (2000 - TpaBreak
 598:main.c        **** 		} else {
 2966              		.loc 1 598 68 view .LVU682
 2967 0906 BEBF     		ittt	lt
 2968 0908 084B     		ldrlt	r3, .L151+12	@ tmp128,
 2969 090a 90FBF3F0 		sdivlt	r0, r0, r3	@ tmp127, tmp124, tmp128
 2970              	@ main.c:598: 			prop = 100 - dynThrPid * (rxSetPoint[THROTTLE] - TpaBreakPoint) / (2000 - TpaBreak
 598:main.c        **** 		} else {
 2971              		.loc 1 598 15 view .LVU683
 2972 090e 6430     		addlt	r0, r0, #100	@ cstore_18, tmp127,
 2973 0910 5061     		str	r0, [r2, #20]	@ cstore_18, prop
 2974              	.LBB73:
 2975              	.LBI73:
 591:main.c        ****  	static int32_t prop;
 2976              		.loc 1 591 6 is_stmt 1 view .LVU684
 2977              	.LBB74:
 601:main.c        **** 		throttlePIDAttenuation = prop / 100.0f;
 2978              		.loc 1 601 4 view .LVU685
 602:main.c        **** 	};
 2979              		.loc 1 602 3 view .LVU686
 2980              	@ main.c:602: 		throttlePIDAttenuation = prop / 100.0f;
 602:main.c        **** 	};
 2981              		.loc 1 602 33 is_stmt 0 view .LVU687
 2982 0912 FFF7FEFF 		bl	__aeabi_i2f		@
 2983              	.LVL153:
 2984 0916 0649     		ldr	r1, .L151+16	@,
 2985 0918 FFF7FEFF 		bl	__aeabi_fdiv		@
 2986              	.LVL154:
 2987              	@ main.c:602: 		throttlePIDAttenuation = prop / 100.0f;
 602:main.c        **** 	};
 2988              		.loc 1 602 26 view .LVU688
 2989 091c 2060     		str	r0, [r4]	@ float	@ tmp135, throttlePIDAttenuation
 2990              	.LBE74:
 2991              	.LBE73:
 603:main.c        **** };
 2992              		.loc 1 603 3 is_stmt 1 view .LVU689
 2993              	@ main.c:604: };
 2994              		.loc 1 604 1 is_stmt 0 view .LVU690
 2995 091e E9E7     		b	.L146		@
 2996              	.L152:
 2997              		.align	2
ARM GAS  /var/folders/_2/qbh2zpt918qcm2b_6mgyydnm0000gn/T//ccx08FD0.s 			page 74


 2998              	.L151:
 2999 0920 00000000 		.word	rxSetPoint
 3000 0924 00000000 		.word	.LANCHOR0
 3001 0928 00000000 		.word	throttlePIDAttenuation
 3002 092c 76FDFFFF 		.word	-650
 3003 0930 0000C842 		.word	1120403456
 3004              		.cfi_endproc
 3005              	.LFE166:
 3006              		.size	get_tpa_factor, .-get_tpa_factor
 3007              		.align	1
 3008              		.global	imuComputeQuaternionProducts
 3009              		.syntax unified
 3010              		.thumb
 3011              		.thumb_func
 3012              		.fpu softvfp
 3013              		.type	imuComputeQuaternionProducts, %function
 3014              	imuComputeQuaternionProducts:
 3015              	.LVL155:
 3016              	.LFB170:
 605:main.c        **** 
 606:main.c        **** static void imuCalculationAttitude(uint32_t currentTimeUs){
 607:main.c        **** 	static uint32_t previousIMUUpdateTime;
 608:main.c        **** 	uint8_t USE_ACC = 0;
 609:main.c        **** 	uint8_t USE_MAG = 0;
 610:main.c        **** 	uint8_t USE_COG = 0;
 611:main.c        **** 	static const float dcmKpGainConf = 0.25f;	
 612:main.c        **** 	uint32_t deltaTime = currentTimeUs - previousIMUUpdateTime;
 613:main.c        **** 	previousIMUUpdateTime = currentTimeUs;
 614:main.c        **** 	// For 3-Axis;
 615:main.c        **** 	//gyroGetAccumulationAverage(gyroAverage);
 616:main.c        **** 	
 617:main.c        **** 	//deltaTime needs to be set to us	
 618:main.c        **** 	USE_ACC = imuIsAccelerometerHealthy(&Acc_f.input[0]);
 619:main.c        **** 
 620:main.c        **** 	imuMahonyCalculation(deltaTime * 1e-6f, gyroAngleIntegrate[X] * DEG_TO_RAD, gyroAngleIntegrate[Y] 
 621:main.c        **** 	
 622:main.c        **** 	imuUpdateEulerAngles();
 623:main.c        **** };
 624:main.c        **** 
 625:main.c        **** static void imuMahonyCalculation(float deltaT, float gx, float gy, float gz, uint8_t useAcc, float 
 626:main.c        **** 	static float integralFBx = 0.0f;
 627:main.c        **** 	static float integralFBy = 0.0f;
 628:main.c        **** 	static float integralFBz = 0.0f;
 629:main.c        **** 	static float  dcmKpGain;
 630:main.c        ****         float spin_rate = sqrtf(sq(gx) + sq(gy) + sq(gz));
 631:main.c        **** 	//error
 632:main.c        **** 	float ex = 0, ey = 0, ez = 0;
 633:main.c        **** 	float recipAccNorm = sq(ax) + sq(ay) + sq(az);
 634:main.c        **** 
 635:main.c        **** 	if(useAcc && recipAccNorm > 0.01f){
 636:main.c        **** 		//Normalise accelerometer measuremet
 637:main.c        **** 		recipAccNorm = invSqrt(recipAccNorm);
 638:main.c        **** 		ax *= recipAccNorm;
 639:main.c        **** 		ay *= recipAccNorm;
 640:main.c        **** 		az *= recipAccNorm;
 641:main.c        **** 	
 642:main.c        **** 		//error is the sum of the cross product between estimated direction and measured direction of gra
ARM GAS  /var/folders/_2/qbh2zpt918qcm2b_6mgyydnm0000gn/T//ccx08FD0.s 			page 75


 643:main.c        **** 		ex += (ay * rotMat[2][2] - az * rotMat[2][1]);
 644:main.c        **** 		ey += (az * rotMat[2][0] - ax * rotMat[2][2]);
 645:main.c        **** 		ez += (ax * rotMat[2][1] - ay * rotMat[2][0]);
 646:main.c        **** 	};
 647:main.c        **** 
 648:main.c        **** 	//Compute and apply integral feedback if enabled 	
 649:main.c        **** 	
 650:main.c        **** 	if(spin_rate < DEG_TO_RAD * 20.0f){
 651:main.c        **** 		const float dcmKiGain = 0.01;
 652:main.c        **** 		integralFBx += dcmKiGain * ex * deltaT;
 653:main.c        **** 		integralFBy += dcmKiGain * ey * deltaT;
 654:main.c        **** 		integralFBz += dcmKiGain * ez * deltaT;
 655:main.c        **** 	} else {
 656:main.c        **** 		integralFBx = 0.0f;
 657:main.c        **** 		integralFBy = 0.0f;
 658:main.c        **** 		integralFBz = 0.0f;
 659:main.c        **** 	};
 660:main.c        **** 	
 661:main.c        ****         dcmKpGain = dcmKpGainConf * getPGainScaleFactor();
 662:main.c        **** 	//Apply proportional and integral feedback
 663:main.c        **** 	gx += dcmKpGain * ex + integralFBx;
 664:main.c        **** 	gy += dcmKpGain * ey + integralFBy;
 665:main.c        **** 	gz += dcmKpGain * ez + integralFBz;
 666:main.c        **** 
 667:main.c        **** 	//integrate the rate of change of quaternion
 668:main.c        **** 	gx *= (0.5f * deltaT);
 669:main.c        **** 	gy *= (0.5f * deltaT);
 670:main.c        **** 	gz *= (0.5f * deltaT);
 671:main.c        **** 
 672:main.c        **** 	QUATERNION buffer;
 673:main.c        **** 	buffer.w = q.w;
 674:main.c        **** 	buffer.x = q.x;
 675:main.c        **** 	buffer.y = q.y;
 676:main.c        **** 	buffer.z = q.z;
 677:main.c        **** 
 678:main.c        **** 	q.w += (-buffer.x * gx - buffer.y * gy - buffer.z * gz);
 679:main.c        **** 	q.x += (+buffer.w * gx + buffer.y * gz - buffer.z * gy);
 680:main.c        **** 	q.y += (+buffer.w * gy - buffer.x * gz + buffer.z * gx);
 681:main.c        **** 	q.z += (+buffer.w * gz + buffer.x * gy - buffer.y * gx);
 682:main.c        **** 	
 683:main.c        **** 	// Normalise quaternion
 684:main.c        **** 	float recipNorm = invSqrt((sq(q.w) + sq(q.x) + sq(q.y) + sq(q.z)));
 685:main.c        **** 	q.w *= recipNorm;
 686:main.c        **** 	q.x *= recipNorm;
 687:main.c        **** 	q.y *= recipNorm;
 688:main.c        **** 	q.z *= recipNorm;
 689:main.c        **** 	
 690:main.c        ****     	// Pre-compute rotation matrix from quaternion
 691:main.c        ****     	imuComputeRotationMatrix();	
 692:main.c        **** }
 693:main.c        **** 
 694:main.c        **** static void imuComputeRotationMatrix(void){
 695:main.c        **** 	imuComputeQuaternionProducts(&q, &qP);
 696:main.c        **** 	
 697:main.c        **** 	rotMat[0][0] = 1.0f - 2.0f * qP.yy - 2.0f * qP.zz;
 698:main.c        **** 	rotMat[0][1] = 2.0f * (qP.xy + -qP.wz);
 699:main.c        **** 	rotMat[0][2] = 2.0f * (qP.xz - -qP.wy);
ARM GAS  /var/folders/_2/qbh2zpt918qcm2b_6mgyydnm0000gn/T//ccx08FD0.s 			page 76


 700:main.c        **** 
 701:main.c        **** 	rotMat[1][0] = 2.0f * (qP.xy - -qP.wz);
 702:main.c        **** 	rotMat[1][1] = 1.0f - 2.0f * qP.xx - 2.0f * qP.zz;
 703:main.c        **** 	rotMat[1][2] = 2.0f * (qP.yz + -qP.wx);
 704:main.c        **** 
 705:main.c        **** 	rotMat[2][0] = 2.0f * (qP.xz + -qP.wy);
 706:main.c        **** 	rotMat[2][1] = 2.0f * (qP.yz - -qP.wx);
 707:main.c        **** 	rotMat[2][2] = 1.0f - 2.0f * qP.xx - 2.0f * qP.yy;
 708:main.c        **** };
 709:main.c        **** 
 710:main.c        **** void imuComputeQuaternionProducts(QUATERNION* quat, QUATERNION_PRODUCTS* quatProd){
 3017              		.loc 1 710 83 is_stmt 1 view -0
 3018              		.cfi_startproc
 3019              		@ args = 0, pretend = 0, frame = 0
 3020              		@ frame_needed = 0, uses_anonymous_args = 0
 711:main.c        **** 	quatProd->ww = quat->w * quat->w;
 3021              		.loc 1 711 2 view .LVU692
 3022              	@ main.c:710: void imuComputeQuaternionProducts(QUATERNION* quat, QUATERNION_PRODUCTS* quatProd){
 710:main.c        **** 	quatProd->ww = quat->w * quat->w;
 3023              		.loc 1 710 83 is_stmt 0 view .LVU693
 3024 0934 2DE9F041 		push	{r4, r5, r6, r7, r8, lr}	@
 3025              	.LCFI29:
 3026              		.cfi_def_cfa_offset 24
 3027              		.cfi_offset 4, -24
 3028              		.cfi_offset 5, -20
 3029              		.cfi_offset 6, -16
 3030              		.cfi_offset 7, -12
 3031              		.cfi_offset 8, -8
 3032              		.cfi_offset 14, -4
 3033              	@ main.c:711: 	quatProd->ww = quat->w * quat->w;
 3034              		.loc 1 711 21 view .LVU694
 3035 0938 D0F80080 		ldr	r8, [r0]	@ float	@ _1, quat_16(D)->w
 3036              	@ main.c:710: void imuComputeQuaternionProducts(QUATERNION* quat, QUATERNION_PRODUCTS* quatProd){
 710:main.c        **** 	quatProd->ww = quat->w * quat->w;
 3037              		.loc 1 710 83 view .LVU695
 3038 093c 0C46     		mov	r4, r1	@ quatProd, tmp137
 3039 093e 0546     		mov	r5, r0	@ quat, tmp136
 3040              	@ main.c:711: 	quatProd->ww = quat->w * quat->w;
 3041              		.loc 1 711 25 view .LVU696
 3042 0940 4146     		mov	r1, r8	@, _1
 3043              	.LVL156:
 3044              		.loc 1 711 25 view .LVU697
 3045 0942 4046     		mov	r0, r8	@, _1
 3046              	.LVL157:
 3047              		.loc 1 711 25 view .LVU698
 3048 0944 FFF7FEFF 		bl	__aeabi_fmul		@
 3049              	.LVL158:
 3050              	@ main.c:712: 	quatProd->wx = quat->w * quat->x;
 712:main.c        **** 	quatProd->wx = quat->w * quat->x;
 3051              		.loc 1 712 31 view .LVU699
 3052 0948 6F68     		ldr	r7, [r5, #4]	@ float	@ _3, quat_16(D)->x
 3053              	@ main.c:711: 	quatProd->ww = quat->w * quat->w;
 711:main.c        **** 	quatProd->ww = quat->w * quat->w;
 3054              		.loc 1 711 15 view .LVU700
 3055 094a 2060     		str	r0, [r4]	@ float	@ tmp138, quatProd_17(D)->ww
 3056              		.loc 1 712 2 is_stmt 1 view .LVU701
 3057              	@ main.c:712: 	quatProd->wx = quat->w * quat->x;
ARM GAS  /var/folders/_2/qbh2zpt918qcm2b_6mgyydnm0000gn/T//ccx08FD0.s 			page 77


 3058              		.loc 1 712 25 is_stmt 0 view .LVU702
 3059 094c 3946     		mov	r1, r7	@, _3
 3060 094e 4046     		mov	r0, r8	@, _1
 3061 0950 FFF7FEFF 		bl	__aeabi_fmul		@
 3062              	.LVL159:
 3063              	@ main.c:713: 	quatProd->wy = quat->w * quat->y;
 713:main.c        **** 	quatProd->wy = quat->w * quat->y;
 3064              		.loc 1 713 31 view .LVU703
 3065 0954 AE68     		ldr	r6, [r5, #8]	@ float	@ _5, quat_16(D)->y
 3066              	@ main.c:712: 	quatProd->wx = quat->w * quat->x;
 712:main.c        **** 	quatProd->wx = quat->w * quat->x;
 3067              		.loc 1 712 15 view .LVU704
 3068 0956 6060     		str	r0, [r4, #4]	@ float	@ tmp139, quatProd_17(D)->wx
 3069              		.loc 1 713 2 is_stmt 1 view .LVU705
 3070              	@ main.c:713: 	quatProd->wy = quat->w * quat->y;
 3071              		.loc 1 713 25 is_stmt 0 view .LVU706
 3072 0958 3146     		mov	r1, r6	@, _5
 3073 095a 4046     		mov	r0, r8	@, _1
 3074 095c FFF7FEFF 		bl	__aeabi_fmul		@
 3075              	.LVL160:
 3076              	@ main.c:714: 	quatProd->wz = quat->w * quat->z;
 714:main.c        **** 	quatProd->wz = quat->w * quat->z;
 3077              		.loc 1 714 31 view .LVU707
 3078 0960 ED68     		ldr	r5, [r5, #12]	@ float	@ _7, quat_16(D)->z
 3079              	.LVL161:
 3080              	@ main.c:713: 	quatProd->wy = quat->w * quat->y;
 713:main.c        **** 	quatProd->wy = quat->w * quat->y;
 3081              		.loc 1 713 15 view .LVU708
 3082 0962 A060     		str	r0, [r4, #8]	@ float	@ tmp140, quatProd_17(D)->wy
 3083              		.loc 1 714 2 is_stmt 1 view .LVU709
 3084              	@ main.c:714: 	quatProd->wz = quat->w * quat->z;
 3085              		.loc 1 714 25 is_stmt 0 view .LVU710
 3086 0964 2946     		mov	r1, r5	@, _7
 3087 0966 4046     		mov	r0, r8	@, _1
 3088 0968 FFF7FEFF 		bl	__aeabi_fmul		@
 3089              	.LVL162:
 3090              	@ main.c:715: 	quatProd->xx = quat->x * quat->x;
 715:main.c        **** 	quatProd->xx = quat->x * quat->x;
 3091              		.loc 1 715 25 view .LVU711
 3092 096c 3946     		mov	r1, r7	@, _3
 3093              	@ main.c:714: 	quatProd->wz = quat->w * quat->z;
 714:main.c        **** 	quatProd->wz = quat->w * quat->z;
 3094              		.loc 1 714 15 view .LVU712
 3095 096e E060     		str	r0, [r4, #12]	@ float	@ tmp141, quatProd_17(D)->wz
 3096              		.loc 1 715 2 is_stmt 1 view .LVU713
 3097              	@ main.c:715: 	quatProd->xx = quat->x * quat->x;
 3098              		.loc 1 715 25 is_stmt 0 view .LVU714
 3099 0970 3846     		mov	r0, r7	@, _3
 3100 0972 FFF7FEFF 		bl	__aeabi_fmul		@
 3101              	.LVL163:
 3102              	@ main.c:716: 	quatProd->xy = quat->x * quat->y;
 716:main.c        **** 	quatProd->xy = quat->x * quat->y;
 3103              		.loc 1 716 25 view .LVU715
 3104 0976 3146     		mov	r1, r6	@, _5
 3105              	@ main.c:715: 	quatProd->xx = quat->x * quat->x;
 715:main.c        **** 	quatProd->xx = quat->x * quat->x;
 3106              		.loc 1 715 15 view .LVU716
ARM GAS  /var/folders/_2/qbh2zpt918qcm2b_6mgyydnm0000gn/T//ccx08FD0.s 			page 78


 3107 0978 2061     		str	r0, [r4, #16]	@ float	@ tmp142, quatProd_17(D)->xx
 3108              		.loc 1 716 2 is_stmt 1 view .LVU717
 3109              	@ main.c:716: 	quatProd->xy = quat->x * quat->y;
 3110              		.loc 1 716 25 is_stmt 0 view .LVU718
 3111 097a 3846     		mov	r0, r7	@, _3
 3112 097c FFF7FEFF 		bl	__aeabi_fmul		@
 3113              	.LVL164:
 3114              	@ main.c:717: 	quatProd->xz = quat->x * quat->z;
 717:main.c        **** 	quatProd->xz = quat->x * quat->z;
 3115              		.loc 1 717 25 view .LVU719
 3116 0980 2946     		mov	r1, r5	@, _7
 3117              	@ main.c:716: 	quatProd->xy = quat->x * quat->y;
 716:main.c        **** 	quatProd->xy = quat->x * quat->y;
 3118              		.loc 1 716 15 view .LVU720
 3119 0982 6061     		str	r0, [r4, #20]	@ float	@ tmp143, quatProd_17(D)->xy
 3120              		.loc 1 717 2 is_stmt 1 view .LVU721
 3121              	@ main.c:717: 	quatProd->xz = quat->x * quat->z;
 3122              		.loc 1 717 25 is_stmt 0 view .LVU722
 3123 0984 3846     		mov	r0, r7	@, _3
 3124 0986 FFF7FEFF 		bl	__aeabi_fmul		@
 3125              	.LVL165:
 3126              	@ main.c:718: 	quatProd->yy = quat->y * quat->y;
 718:main.c        **** 	quatProd->yy = quat->y * quat->y;
 3127              		.loc 1 718 25 view .LVU723
 3128 098a 3146     		mov	r1, r6	@, _5
 3129              	@ main.c:717: 	quatProd->xz = quat->x * quat->z;
 717:main.c        **** 	quatProd->xz = quat->x * quat->z;
 3130              		.loc 1 717 15 view .LVU724
 3131 098c A061     		str	r0, [r4, #24]	@ float	@ tmp144, quatProd_17(D)->xz
 3132              		.loc 1 718 2 is_stmt 1 view .LVU725
 3133              	@ main.c:718: 	quatProd->yy = quat->y * quat->y;
 3134              		.loc 1 718 25 is_stmt 0 view .LVU726
 3135 098e 3046     		mov	r0, r6	@, _5
 3136 0990 FFF7FEFF 		bl	__aeabi_fmul		@
 3137              	.LVL166:
 3138              	@ main.c:719: 	quatProd->yz = quat->y * quat->z;
 719:main.c        **** 	quatProd->yz = quat->y * quat->z;
 3139              		.loc 1 719 25 view .LVU727
 3140 0994 2946     		mov	r1, r5	@, _7
 3141              	@ main.c:718: 	quatProd->yy = quat->y * quat->y;
 718:main.c        **** 	quatProd->yy = quat->y * quat->y;
 3142              		.loc 1 718 15 view .LVU728
 3143 0996 E061     		str	r0, [r4, #28]	@ float	@ tmp145, quatProd_17(D)->yy
 3144              		.loc 1 719 2 is_stmt 1 view .LVU729
 3145              	@ main.c:719: 	quatProd->yz = quat->y * quat->z;
 3146              		.loc 1 719 25 is_stmt 0 view .LVU730
 3147 0998 3046     		mov	r0, r6	@, _5
 3148 099a FFF7FEFF 		bl	__aeabi_fmul		@
 3149              	.LVL167:
 3150              	@ main.c:720: 	quatProd->zz = quat->z * quat->z;
 720:main.c        **** 	quatProd->zz = quat->z * quat->z;
 3151              		.loc 1 720 25 view .LVU731
 3152 099e 2946     		mov	r1, r5	@, _7
 3153              	@ main.c:719: 	quatProd->yz = quat->y * quat->z;
 719:main.c        **** 	quatProd->yz = quat->y * quat->z;
 3154              		.loc 1 719 15 view .LVU732
 3155 09a0 2062     		str	r0, [r4, #32]	@ float	@ tmp146, quatProd_17(D)->yz
ARM GAS  /var/folders/_2/qbh2zpt918qcm2b_6mgyydnm0000gn/T//ccx08FD0.s 			page 79


 3156              		.loc 1 720 2 is_stmt 1 view .LVU733
 3157              	@ main.c:720: 	quatProd->zz = quat->z * quat->z;
 3158              		.loc 1 720 25 is_stmt 0 view .LVU734
 3159 09a2 2846     		mov	r0, r5	@, tmp1
 3160 09a4 FFF7FEFF 		bl	__aeabi_fmul		@
 3161              	.LVL168:
 3162              	@ main.c:720: 	quatProd->zz = quat->z * quat->z;
 3163              		.loc 1 720 15 view .LVU735
 3164 09a8 6062     		str	r0, [r4, #36]	@ float	@ tmp147, quatProd_17(D)->zz
 3165              	@ main.c:721: };
 721:main.c        **** };
 3166              		.loc 1 721 1 view .LVU736
 3167 09aa BDE8F081 		pop	{r4, r5, r6, r7, r8, pc}	@
 3168              		.loc 1 721 1 view .LVU737
 3169              		.cfi_endproc
 3170              	.LFE170:
 3171              		.size	imuComputeQuaternionProducts, .-imuComputeQuaternionProducts
 3172              		.align	1
 3173              		.syntax unified
 3174              		.thumb
 3175              		.thumb_func
 3176              		.fpu softvfp
 3177              		.type	imuComputeRotationMatrix, %function
 3178              	imuComputeRotationMatrix:
 3179              	.LFB169:
 694:main.c        **** 	imuComputeQuaternionProducts(&q, &qP);
 3180              		.loc 1 694 43 is_stmt 1 view -0
 3181              		.cfi_startproc
 3182              		@ args = 0, pretend = 0, frame = 0
 3183              		@ frame_needed = 0, uses_anonymous_args = 0
 695:main.c        **** 	
 3184              		.loc 1 695 2 view .LVU739
 3185              	@ main.c:694: static void imuComputeRotationMatrix(void){
 694:main.c        **** 	imuComputeQuaternionProducts(&q, &qP);
 3186              		.loc 1 694 43 is_stmt 0 view .LVU740
 3187 09ae 2DE9F84F 		push	{r3, r4, r5, r6, r7, r8, r9, r10, fp, lr}	@
 3188              	.LCFI30:
 3189              		.cfi_def_cfa_offset 40
 3190              		.cfi_offset 3, -40
 3191              		.cfi_offset 4, -36
 3192              		.cfi_offset 5, -32
 3193              		.cfi_offset 6, -28
 3194              		.cfi_offset 7, -24
 3195              		.cfi_offset 8, -20
 3196              		.cfi_offset 9, -16
 3197              		.cfi_offset 10, -12
 3198              		.cfi_offset 11, -8
 3199              		.cfi_offset 14, -4
 3200              	@ main.c:695: 	imuComputeQuaternionProducts(&q, &qP);
 695:main.c        **** 	
 3201              		.loc 1 695 2 view .LVU741
 3202 09b2 354C     		ldr	r4, .L155	@ tmp139,
 3203              	@ main.c:697: 	rotMat[0][0] = 1.0f - 2.0f * qP.yy - 2.0f * qP.zz;
 697:main.c        **** 	rotMat[0][1] = 2.0f * (qP.xy + -qP.wz);
 3204              		.loc 1 697 15 view .LVU742
 3205 09b4 354D     		ldr	r5, .L155+4	@ tmp149,
 3206              	@ main.c:695: 	imuComputeQuaternionProducts(&q, &qP);
ARM GAS  /var/folders/_2/qbh2zpt918qcm2b_6mgyydnm0000gn/T//ccx08FD0.s 			page 80


 695:main.c        **** 	
 3207              		.loc 1 695 2 view .LVU743
 3208 09b6 04F10801 		add	r1, r4, #8	@, tmp139,
 3209 09ba 04F13000 		add	r0, r4, #48	@, tmp139,
 3210 09be FFF7FEFF 		bl	imuComputeQuaternionProducts		@
 3211              	.LVL169:
 697:main.c        **** 	rotMat[0][1] = 2.0f * (qP.xy + -qP.wz);
 3212              		.loc 1 697 2 is_stmt 1 view .LVU744
 3213              	@ main.c:697: 	rotMat[0][0] = 1.0f - 2.0f * qP.yy - 2.0f * qP.zz;
 697:main.c        **** 	rotMat[0][1] = 2.0f * (qP.xy + -qP.wz);
 3214              		.loc 1 697 29 is_stmt 0 view .LVU745
 3215 09c2 616A     		ldr	r1, [r4, #36]	@ float	@, qP.yy
 3216 09c4 0846     		mov	r0, r1	@,
 3217 09c6 FFF7FEFF 		bl	__aeabi_fadd		@
 3218              	.LVL170:
 3219              	@ main.c:697: 	rotMat[0][0] = 1.0f - 2.0f * qP.yy - 2.0f * qP.zz;
 697:main.c        **** 	rotMat[0][1] = 2.0f * (qP.xy + -qP.wz);
 3220              		.loc 1 697 44 view .LVU746
 3221 09ca E16A     		ldr	r1, [r4, #44]	@ float	@, qP.zz
 3222              	@ main.c:697: 	rotMat[0][0] = 1.0f - 2.0f * qP.yy - 2.0f * qP.zz;
 697:main.c        **** 	rotMat[0][1] = 2.0f * (qP.xy + -qP.wz);
 3223              		.loc 1 697 29 view .LVU747
 3224 09cc 0646     		mov	r6, r0	@ tmp145, tmp184
 3225              	@ main.c:697: 	rotMat[0][0] = 1.0f - 2.0f * qP.yy - 2.0f * qP.zz;
 697:main.c        **** 	rotMat[0][1] = 2.0f * (qP.xy + -qP.wz);
 3226              		.loc 1 697 44 view .LVU748
 3227 09ce 0846     		mov	r0, r1	@,
 3228 09d0 FFF7FEFF 		bl	__aeabi_fadd		@
 3229              	.LVL171:
 3230              	@ main.c:697: 	rotMat[0][0] = 1.0f - 2.0f * qP.yy - 2.0f * qP.zz;
 697:main.c        **** 	rotMat[0][1] = 2.0f * (qP.xy + -qP.wz);
 3231              		.loc 1 697 22 view .LVU749
 3232 09d4 3146     		mov	r1, r6	@, tmp145
 3233              	@ main.c:697: 	rotMat[0][0] = 1.0f - 2.0f * qP.yy - 2.0f * qP.zz;
 697:main.c        **** 	rotMat[0][1] = 2.0f * (qP.xy + -qP.wz);
 3234              		.loc 1 697 44 view .LVU750
 3235 09d6 0746     		mov	r7, r0	@ tmp148, tmp185
 3236              	@ main.c:697: 	rotMat[0][0] = 1.0f - 2.0f * qP.yy - 2.0f * qP.zz;
 697:main.c        **** 	rotMat[0][1] = 2.0f * (qP.xy + -qP.wz);
 3237              		.loc 1 697 22 view .LVU751
 3238 09d8 4FF07E50 		mov	r0, #1065353216	@,
 3239 09dc FFF7FEFF 		bl	__aeabi_fsub		@
 3240              	.LVL172:
 3241              	@ main.c:697: 	rotMat[0][0] = 1.0f - 2.0f * qP.yy - 2.0f * qP.zz;
 697:main.c        **** 	rotMat[0][1] = 2.0f * (qP.xy + -qP.wz);
 3242              		.loc 1 697 37 view .LVU752
 3243 09e0 3946     		mov	r1, r7	@, tmp148
 3244 09e2 FFF7FEFF 		bl	__aeabi_fsub		@
 3245              	.LVL173:
 3246              	@ main.c:698: 	rotMat[0][1] = 2.0f * (qP.xy + -qP.wz);
 698:main.c        **** 	rotMat[0][2] = 2.0f * (qP.xz - -qP.wy);
 3247              		.loc 1 698 27 view .LVU753
 3248 09e6 D4F81C80 		ldr	r8, [r4, #28]	@ float	@ _7, qP.xy
 3249              	@ main.c:698: 	rotMat[0][1] = 2.0f * (qP.xy + -qP.wz);
 698:main.c        **** 	rotMat[0][2] = 2.0f * (qP.xz - -qP.wy);
 3250              		.loc 1 698 36 view .LVU754
 3251 09ea D4F814B0 		ldr	fp, [r4, #20]	@ float	@ _8, qP.wz
ARM GAS  /var/folders/_2/qbh2zpt918qcm2b_6mgyydnm0000gn/T//ccx08FD0.s 			page 81


 3252              	@ main.c:697: 	rotMat[0][0] = 1.0f - 2.0f * qP.yy - 2.0f * qP.zz;
 697:main.c        **** 	rotMat[0][1] = 2.0f * (qP.xy + -qP.wz);
 3253              		.loc 1 697 15 view .LVU755
 3254 09ee 2860     		str	r0, [r5]	@ float	@ tmp186, rotMat
 698:main.c        **** 	rotMat[0][2] = 2.0f * (qP.xz - -qP.wy);
 3255              		.loc 1 698 2 is_stmt 1 view .LVU756
 3256              	@ main.c:698: 	rotMat[0][1] = 2.0f * (qP.xy + -qP.wz);
 698:main.c        **** 	rotMat[0][2] = 2.0f * (qP.xz - -qP.wy);
 3257              		.loc 1 698 31 is_stmt 0 view .LVU757
 3258 09f0 5946     		mov	r1, fp	@, _8
 3259 09f2 4046     		mov	r0, r8	@, _7
 3260 09f4 FFF7FEFF 		bl	__aeabi_fsub		@
 3261              	.LVL174:
 3262 09f8 0146     		mov	r1, r0	@ tmp187,
 3263              	@ main.c:698: 	rotMat[0][1] = 2.0f * (qP.xy + -qP.wz);
 698:main.c        **** 	rotMat[0][2] = 2.0f * (qP.xz - -qP.wy);
 3264              		.loc 1 698 22 view .LVU758
 3265 09fa FFF7FEFF 		bl	__aeabi_fadd		@
 3266              	.LVL175:
 3267              	@ main.c:699: 	rotMat[0][2] = 2.0f * (qP.xz - -qP.wy);
 699:main.c        **** 
 3268              		.loc 1 699 27 view .LVU759
 3269 09fe D4F82090 		ldr	r9, [r4, #32]	@ float	@ _11, qP.xz
 3270              	@ main.c:699: 	rotMat[0][2] = 2.0f * (qP.xz - -qP.wy);
 699:main.c        **** 
 3271              		.loc 1 699 36 view .LVU760
 3272 0a02 D4F810A0 		ldr	r10, [r4, #16]	@ float	@ _12, qP.wy
 3273              	@ main.c:698: 	rotMat[0][1] = 2.0f * (qP.xy + -qP.wz);
 698:main.c        **** 	rotMat[0][2] = 2.0f * (qP.xz - -qP.wy);
 3274              		.loc 1 698 15 view .LVU761
 3275 0a06 6860     		str	r0, [r5, #4]	@ float	@ tmp188, rotMat
 699:main.c        **** 
 3276              		.loc 1 699 2 is_stmt 1 view .LVU762
 3277              	@ main.c:699: 	rotMat[0][2] = 2.0f * (qP.xz - -qP.wy);
 699:main.c        **** 
 3278              		.loc 1 699 31 is_stmt 0 view .LVU763
 3279 0a08 5146     		mov	r1, r10	@, _12
 3280 0a0a 4846     		mov	r0, r9	@, _11
 3281 0a0c FFF7FEFF 		bl	__aeabi_fadd		@
 3282              	.LVL176:
 3283 0a10 0146     		mov	r1, r0	@ tmp189,
 3284              	@ main.c:699: 	rotMat[0][2] = 2.0f * (qP.xz - -qP.wy);
 699:main.c        **** 
 3285              		.loc 1 699 22 view .LVU764
 3286 0a12 FFF7FEFF 		bl	__aeabi_fadd		@
 3287              	.LVL177:
 3288              	@ main.c:701: 	rotMat[1][0] = 2.0f * (qP.xy - -qP.wz);
 701:main.c        **** 	rotMat[1][1] = 1.0f - 2.0f * qP.xx - 2.0f * qP.zz;
 3289              		.loc 1 701 31 view .LVU765
 3290 0a16 5946     		mov	r1, fp	@, _8
 3291              	@ main.c:699: 	rotMat[0][2] = 2.0f * (qP.xz - -qP.wy);
 699:main.c        **** 
 3292              		.loc 1 699 15 view .LVU766
 3293 0a18 A860     		str	r0, [r5, #8]	@ float	@ tmp190, rotMat
 701:main.c        **** 	rotMat[1][1] = 1.0f - 2.0f * qP.xx - 2.0f * qP.zz;
 3294              		.loc 1 701 2 is_stmt 1 view .LVU767
 3295              	@ main.c:701: 	rotMat[1][0] = 2.0f * (qP.xy - -qP.wz);
