ARM GAS  /var/folders/_2/qbh2zpt918qcm2b_6mgyydnm0000gn/T//ccWw4yQb.s 			page 1


   1              		.cpu cortex-m4
   2              		.eabi_attribute 20, 1	@ Tag_ABI_FP_denormal
   3              		.eabi_attribute 21, 1	@ Tag_ABI_FP_exceptions
   4              		.eabi_attribute 23, 3	@ Tag_ABI_FP_number_model
   5              		.eabi_attribute 24, 1	@ Tag_ABI_align8_needed
   6              		.eabi_attribute 25, 1	@ Tag_ABI_align8_preserved
   7              		.eabi_attribute 26, 1	@ Tag_ABI_enum_size
   8              		.eabi_attribute 30, 4	@ Tag_ABI_optimization_goals
   9              		.eabi_attribute 34, 1	@ Tag_CPU_unaligned_access
  10              		.eabi_attribute 18, 4	@ Tag_ABI_PCS_wchar_t
  11              		.file	"scheduler.c"
  12              	@ GNU C17 (GNU Tools for Arm Embedded Processors 9-2019-q4-major) version 9.2.1 20191025 (release) 
  13              	@	compiled by GNU C version 4.2.1 Compatible Apple LLVM 9.0.0 (clang-900.0.39.2), GMP version 6.1.0
  14              	
  15              	@ GGC heuristics: --param ggc-min-expand=100 --param ggc-min-heapsize=131072
  16              	@ options passed:  -I .
  17              	@ -I /Users/rdaneel/Binary/Roaming/C-Code/StmProjects/stm32f3x/lib/STM32F30x_DSP_StdPeriph_Lib_V1.2
  18              	@ -I /Users/rdaneel/Binary/Roaming/C-Code/StmProjects/stm32f3x/lib/STM32F30x_DSP_StdPeriph_Lib_V1.2
  19              	@ -I /Users/rdaneel/Binary/Roaming/C-Code/StmProjects/stm32f3x/lib/STM32F30x_DSP_StdPeriph_Lib_V1.2
  20              	@ -imultilib thumb/v7e-m/nofp
  21              	@ -iprefix /usr/local/Cellar/arm-none-eabi-gcc/9-2019-q4-major/gcc/bin/../lib/gcc/arm-none-eabi/9.2
  22              	@ -isysroot /usr/local/Cellar/arm-none-eabi-gcc/9-2019-q4-major/gcc/bin/../arm-none-eabi
  23              	@ -D__USES_INITFINI__ -D STM32F30X_MD -D USE_STDPERIPH_DRIVER
  24              	@ -D HSE_VALUE=8000000 -D RUN_FROM_FLASH=1 scheduler.c -mcpu=cortex-m4
  25              	@ -mthumb -mfloat-abi=soft -march=armv7e-m -auxbase-strip scheduler.o -g
  26              	@ -gdwarf-2 -Os -Wall -fomit-frame-pointer -fverbose-asm
  27              	@ options enabled:  -faggressive-loop-optimizations -fassume-phsa
  28              	@ -fauto-inc-dec -fbranch-count-reg -fcaller-saves -fcode-hoisting
  29              	@ -fcombine-stack-adjustments -fcommon -fcompare-elim -fcprop-registers
  30              	@ -fcrossjumping -fcse-follow-jumps -fdefer-pop
  31              	@ -fdelete-null-pointer-checks -fdevirtualize -fdevirtualize-speculatively
  32              	@ -fdwarf2-cfi-asm -fearly-inlining -feliminate-unused-debug-types
  33              	@ -fexpensive-optimizations -fforward-propagate -ffp-int-builtin-inexact
  34              	@ -ffunction-cse -fgcse -fgcse-lm -fgnu-runtime -fgnu-unique
  35              	@ -fguess-branch-probability -fhoist-adjacent-loads -fident -fif-conversion
  36              	@ -fif-conversion2 -findirect-inlining -finline -finline-atomics
  37              	@ -finline-functions -finline-functions-called-once
  38              	@ -finline-small-functions -fipa-bit-cp -fipa-cp -fipa-icf
  39              	@ -fipa-icf-functions -fipa-icf-variables -fipa-profile -fipa-pure-const
  40              	@ -fipa-ra -fipa-reference -fipa-reference-addressable -fipa-sra
  41              	@ -fipa-stack-alignment -fipa-vrp -fira-hoist-pressure
  42              	@ -fira-share-save-slots -fira-share-spill-slots
  43              	@ -fisolate-erroneous-paths-dereference -fivopts -fkeep-static-consts
  44              	@ -fleading-underscore -flifetime-dse -flra-remat -flto-odr-type-merging
  45              	@ -fmath-errno -fmerge-constants -fmerge-debug-strings
  46              	@ -fmove-loop-invariants -fomit-frame-pointer -foptimize-sibling-calls
  47              	@ -fpartial-inlining -fpeephole -fpeephole2 -fplt -fprefetch-loop-arrays
  48              	@ -freg-struct-return -freorder-blocks -freorder-functions
  49              	@ -frerun-cse-after-loop -fsched-critical-path-heuristic
  50              	@ -fsched-dep-count-heuristic -fsched-group-heuristic -fsched-interblock
  51              	@ -fsched-last-insn-heuristic -fsched-pressure -fsched-rank-heuristic
  52              	@ -fsched-spec -fsched-spec-insn-heuristic -fsched-stalled-insns-dep
  53              	@ -fschedule-insns2 -fsection-anchors -fsemantic-interposition
  54              	@ -fshow-column -fshrink-wrap-separate -fsigned-zeros
  55              	@ -fsplit-ivs-in-unroller -fsplit-wide-types -fssa-backprop -fssa-phiopt
  56              	@ -fstdarg-opt -fstore-merging -fstrict-aliasing
  57              	@ -fstrict-volatile-bitfields -fsync-libcalls -fthread-jumps
ARM GAS  /var/folders/_2/qbh2zpt918qcm2b_6mgyydnm0000gn/T//ccWw4yQb.s 			page 2


  58              	@ -ftoplevel-reorder -ftrapping-math -ftree-bit-ccp -ftree-builtin-call-dce
  59              	@ -ftree-ccp -ftree-ch -ftree-coalesce-vars -ftree-copy-prop -ftree-cselim
  60              	@ -ftree-dce -ftree-dominator-opts -ftree-dse -ftree-forwprop -ftree-fre
  61              	@ -ftree-loop-if-convert -ftree-loop-im -ftree-loop-ivcanon
  62              	@ -ftree-loop-optimize -ftree-parallelize-loops= -ftree-phiprop -ftree-pre
  63              	@ -ftree-pta -ftree-reassoc -ftree-scev-cprop -ftree-sink -ftree-slsr
  64              	@ -ftree-sra -ftree-switch-conversion -ftree-tail-merge -ftree-ter
  65              	@ -ftree-vrp -funit-at-a-time -fvar-tracking -fvar-tracking-assignments
  66              	@ -fverbose-asm -fzero-initialized-in-bss -masm-syntax-unified -mbe32
  67              	@ -mlittle-endian -mpic-data-is-text-relative -msched-prolog -mthumb
  68              	@ -munaligned-access -mvectorize-with-neon-quad
  69              	
  70              		.text
  71              	.Ltext0:
  72              		.cfi_sections	.debug_frame
  73              		.align	1
  74              		.global	executeNextSubTask
  75              		.arch armv7e-m
  76              		.syntax unified
  77              		.thumb
  78              		.thumb_func
  79              		.fpu softvfp
  80              		.type	executeNextSubTask, %function
  81              	executeNextSubTask:
  82              	.LVL0:
  83              	.LFB126:
  84              		.file 1 "scheduler.c"
   1:scheduler.c   **** #include "scheduler.h" 
   2:scheduler.c   **** #define FRQ_TO_MISEK(frq) ((1/frq)*1e6)
   3:scheduler.c   **** 
   4:scheduler.c   **** task_t taskList[2] = {
   5:scheduler.c   ****   {ATTITUDE_UPDATE, subtaskUpdateAttitude, 10000, 1},
   6:scheduler.c   ****   {BUZZER_UPDATE, subtaskUpdateBuzzer, 10000, 1}
   7:scheduler.c   **** };
   8:scheduler.c   **** 
   9:scheduler.c   **** void executeNextSubTask(uint32_t currentCallingTime){ 
  85              		.loc 1 9 53 view -0
  86              		.cfi_startproc
  87              		@ args = 0, pretend = 0, frame = 0
  88              		@ frame_needed = 0, uses_anonymous_args = 0
  10:scheduler.c   ****   static int subTask = 0;
  89              		.loc 1 10 3 view .LVU1
  11:scheduler.c   ****   switch(subTask){
  90              		.loc 1 11 3 view .LVU2
  91              	@ scheduler.c:9: void executeNextSubTask(uint32_t currentCallingTime){ 
   9:scheduler.c   ****   static int subTask = 0;
  92              		.loc 1 9 53 is_stmt 0 view .LVU3
  93 0000 10B5     		push	{r4, lr}	@
  94              	.LCFI0:
  95              		.cfi_def_cfa_offset 8
  96              		.cfi_offset 4, -8
  97              		.cfi_offset 14, -4
  98              	@ scheduler.c:11:   switch(subTask){
  99              		.loc 1 11 3 view .LVU4
 100 0002 0F4C     		ldr	r4, .L6	@ tmp120,
 101 0004 2268     		ldr	r2, [r4]	@ subTask.0_1, subTask
 102              	@ scheduler.c:9: void executeNextSubTask(uint32_t currentCallingTime){ 
ARM GAS  /var/folders/_2/qbh2zpt918qcm2b_6mgyydnm0000gn/T//ccWw4yQb.s 			page 3


   9:scheduler.c   ****   static int subTask = 0;
 103              		.loc 1 9 53 view .LVU5
 104 0006 0346     		mov	r3, r0	@ currentCallingTime, tmp141
 105              	@ scheduler.c:11:   switch(subTask){
 106              		.loc 1 11 3 view .LVU6
 107 0008 12B1     		cbz	r2, .L2	@ subTask.0_1,
 108 000a 012A     		cmp	r2, #1	@ subTask.0_1,
 109 000c 0CD0     		beq	.L3		@,
 110              	.LVL1:
 111              	.L1:
 112              	@ scheduler.c:30: };
  12:scheduler.c   ****     case ATTITUDE_UPDATE:
  13:scheduler.c   ****       if(taskList[subTask].nextCallingTime <= currentCallingTime){
  14:scheduler.c   ****         taskList[subTask].nextCallingTime = currentCallingTime + taskList[subTask].taskUpdateFrq;
  15:scheduler.c   ****         taskList[subTask].subtaskFunction(currentCallingTime); //call the subTaskFunction
  16:scheduler.c   ****         subTask = BUZZER_UPDATE; //set next subTask
  17:scheduler.c   ****       };
  18:scheduler.c   ****       break;
  19:scheduler.c   **** 
  20:scheduler.c   ****     case BUZZER_UPDATE:
  21:scheduler.c   ****       if(taskList[subTask].nextCallingTime <= currentCallingTime){
  22:scheduler.c   ****         taskList[subTask].nextCallingTime = currentCallingTime + taskList[subTask].taskUpdateFrq;
  23:scheduler.c   ****         taskList[subTask].subtaskFunction(currentCallingTime); //call the subTaskFunction
  24:scheduler.c   ****         subTask = ATTITUDE_UPDATE; //set next subTask
  25:scheduler.c   ****       };
  26:scheduler.c   ****       break;
  27:scheduler.c   ****     default:
  28:scheduler.c   ****       break;
  29:scheduler.c   ****   };
  30:scheduler.c   **** };
 113              		.loc 1 30 1 view .LVU7
 114 000e 10BD     		pop	{r4, pc}	@
 115              	.LVL2:
 116              	.L2:
  13:scheduler.c   ****         taskList[subTask].nextCallingTime = currentCallingTime + taskList[subTask].taskUpdateFrq;
 117              		.loc 1 13 7 is_stmt 1 view .LVU8
 118              	@ scheduler.c:13:       if(taskList[subTask].nextCallingTime <= currentCallingTime){
  13:scheduler.c   ****         taskList[subTask].nextCallingTime = currentCallingTime + taskList[subTask].taskUpdateFrq;
 119              		.loc 1 13 27 is_stmt 0 view .LVU9
 120 0010 0C4A     		ldr	r2, .L6+4	@ tmp121,
 121              	@ scheduler.c:13:       if(taskList[subTask].nextCallingTime <= currentCallingTime){
  13:scheduler.c   ****         taskList[subTask].nextCallingTime = currentCallingTime + taskList[subTask].taskUpdateFrq;
 122              		.loc 1 13 9 view .LVU10
 123 0012 D168     		ldr	r1, [r2, #12]	@ taskList[0].nextCallingTime, taskList[0].nextCallingTime
 124 0014 8142     		cmp	r1, r0	@ taskList[0].nextCallingTime, currentCallingTime
 125 0016 FAD8     		bhi	.L1		@,
  14:scheduler.c   ****         taskList[subTask].subtaskFunction(currentCallingTime); //call the subTaskFunction
 126              		.loc 1 14 9 is_stmt 1 view .LVU11
 127              	@ scheduler.c:14:         taskList[subTask].nextCallingTime = currentCallingTime + taskList[subTask
  14:scheduler.c   ****         taskList[subTask].subtaskFunction(currentCallingTime); //call the subTaskFunction
 128              		.loc 1 14 64 is_stmt 0 view .LVU12
 129 0018 9168     		ldr	r1, [r2, #8]	@ taskList[0].taskUpdateFrq, taskList[0].taskUpdateFrq
 130 001a 0B44     		add	r3, r3, r1	@ tmp125, taskList[0].taskUpdateFrq
 131              	@ scheduler.c:14:         taskList[subTask].nextCallingTime = currentCallingTime + taskList[subTask
  14:scheduler.c   ****         taskList[subTask].subtaskFunction(currentCallingTime); //call the subTaskFunction
 132              		.loc 1 14 43 view .LVU13
 133 001c D360     		str	r3, [r2, #12]	@ tmp125, taskList[0].nextCallingTime
ARM GAS  /var/folders/_2/qbh2zpt918qcm2b_6mgyydnm0000gn/T//ccWw4yQb.s 			page 4


  15:scheduler.c   ****         subTask = BUZZER_UPDATE; //set next subTask
 134              		.loc 1 15 9 is_stmt 1 view .LVU14
 135 001e 5368     		ldr	r3, [r2, #4]	@ taskList[0].subtaskFunction, taskList[0].subtaskFunction
 136 0020 9847     		blx	r3		@ taskList[0].subtaskFunction
 137              	.LVL3:
  16:scheduler.c   ****       };
 138              		.loc 1 16 9 view .LVU15
 139              	@ scheduler.c:16:         subTask = BUZZER_UPDATE; //set next subTask
  16:scheduler.c   ****       };
 140              		.loc 1 16 17 is_stmt 0 view .LVU16
 141 0022 0123     		movs	r3, #1	@ tmp130,
 142              	.L5:
 143              	@ scheduler.c:24:         subTask = ATTITUDE_UPDATE; //set next subTask
  24:scheduler.c   ****       };
 144              		.loc 1 24 17 view .LVU17
 145 0024 2360     		str	r3, [r4]	@ tmp140, subTask
  29:scheduler.c   **** };
 146              		.loc 1 29 4 is_stmt 1 view .LVU18
 147              	@ scheduler.c:30: };
 148              		.loc 1 30 1 is_stmt 0 view .LVU19
 149 0026 F2E7     		b	.L1		@
 150              	.LVL4:
 151              	.L3:
  21:scheduler.c   ****         taskList[subTask].nextCallingTime = currentCallingTime + taskList[subTask].taskUpdateFrq;
 152              		.loc 1 21 7 is_stmt 1 view .LVU20
 153              	@ scheduler.c:21:       if(taskList[subTask].nextCallingTime <= currentCallingTime){
  21:scheduler.c   ****         taskList[subTask].nextCallingTime = currentCallingTime + taskList[subTask].taskUpdateFrq;
 154              		.loc 1 21 27 is_stmt 0 view .LVU21
 155 0028 064A     		ldr	r2, .L6+4	@ tmp131,
 156              	@ scheduler.c:21:       if(taskList[subTask].nextCallingTime <= currentCallingTime){
  21:scheduler.c   ****         taskList[subTask].nextCallingTime = currentCallingTime + taskList[subTask].taskUpdateFrq;
 157              		.loc 1 21 9 view .LVU22
 158 002a D169     		ldr	r1, [r2, #28]	@ taskList[1].nextCallingTime, taskList[1].nextCallingTime
 159 002c 8142     		cmp	r1, r0	@ taskList[1].nextCallingTime, currentCallingTime
 160 002e EED8     		bhi	.L1		@,
  22:scheduler.c   ****         taskList[subTask].subtaskFunction(currentCallingTime); //call the subTaskFunction
 161              		.loc 1 22 9 is_stmt 1 view .LVU23
 162              	@ scheduler.c:22:         taskList[subTask].nextCallingTime = currentCallingTime + taskList[subTask
  22:scheduler.c   ****         taskList[subTask].subtaskFunction(currentCallingTime); //call the subTaskFunction
 163              		.loc 1 22 64 is_stmt 0 view .LVU24
 164 0030 9169     		ldr	r1, [r2, #24]	@ taskList[1].taskUpdateFrq, taskList[1].taskUpdateFrq
 165 0032 0B44     		add	r3, r3, r1	@ tmp135, taskList[1].taskUpdateFrq
 166              	@ scheduler.c:22:         taskList[subTask].nextCallingTime = currentCallingTime + taskList[subTask
  22:scheduler.c   ****         taskList[subTask].subtaskFunction(currentCallingTime); //call the subTaskFunction
 167              		.loc 1 22 43 view .LVU25
 168 0034 D361     		str	r3, [r2, #28]	@ tmp135, taskList[1].nextCallingTime
  23:scheduler.c   ****         subTask = ATTITUDE_UPDATE; //set next subTask
 169              		.loc 1 23 9 is_stmt 1 view .LVU26
 170 0036 5369     		ldr	r3, [r2, #20]	@ taskList[1].subtaskFunction, taskList[1].subtaskFunction
 171 0038 9847     		blx	r3		@ taskList[1].subtaskFunction
 172              	.LVL5:
  24:scheduler.c   ****       };
 173              		.loc 1 24 9 view .LVU27
 174              	@ scheduler.c:24:         subTask = ATTITUDE_UPDATE; //set next subTask
  24:scheduler.c   ****       };
 175              		.loc 1 24 17 is_stmt 0 view .LVU28
 176 003a 0023     		movs	r3, #0	@ tmp140,
ARM GAS  /var/folders/_2/qbh2zpt918qcm2b_6mgyydnm0000gn/T//ccWw4yQb.s 			page 5


 177 003c F2E7     		b	.L5		@
 178              	.L7:
 179 003e 00BF     		.align	2
 180              	.L6:
 181 0040 00000000 		.word	.LANCHOR0
 182 0044 00000000 		.word	.LANCHOR1
 183              		.cfi_endproc
 184              	.LFE126:
 185              		.size	executeNextSubTask, .-executeNextSubTask
 186              		.global	taskList
 187              		.data
 188              		.align	2
 189              		.set	.LANCHOR1,. + 0
 190              		.type	taskList, %object
 191              		.size	taskList, 32
 192              	taskList:
 193              	@ taskName:
 194 0000 00       		.byte	0
 195              	@ subtaskFunction:
 196 0001 000000   		.space	3
 197 0004 00000000 		.word	subtaskUpdateAttitude
 198              	@ taskUpdateFrq:
 199 0008 10270000 		.word	10000
 200              	@ nextCallingTime:
 201 000c 01000000 		.word	1
 202              	@ taskName:
 203 0010 01       		.byte	1
 204              	@ subtaskFunction:
 205 0011 000000   		.space	3
 206 0014 00000000 		.word	subtaskUpdateBuzzer
 207              	@ taskUpdateFrq:
 208 0018 10270000 		.word	10000
 209              	@ nextCallingTime:
 210 001c 01000000 		.word	1
 211              		.bss
 212              		.align	2
 213              		.set	.LANCHOR0,. + 0
 214              		.type	subTask.8058, %object
 215              		.size	subTask.8058, 4
 216              	subTask.8058:
 217 0000 00000000 		.space	4
 218              		.text
 219              	.Letext0:
 220              		.file 2 "/usr/local/Cellar/arm-none-eabi-gcc/9-2019-q4-major/gcc/arm-none-eabi/include/machine/_de
 221              		.file 3 "/usr/local/Cellar/arm-none-eabi-gcc/9-2019-q4-major/gcc/arm-none-eabi/include/sys/_stdint
 222              		.file 4 "/Users/rdaneel/Binary/Roaming/C-Code/StmProjects/stm32f3x/lib/STM32F30x_DSP_StdPeriph_Lib
 223              		.file 5 "/Users/rdaneel/Binary/Roaming/C-Code/StmProjects/stm32f3x/lib/STM32F30x_DSP_StdPeriph_Lib
 224              		.file 6 "/usr/local/Cellar/arm-none-eabi-gcc/9-2019-q4-major/gcc/arm-none-eabi/include/sys/lock.h"
 225              		.file 7 "/usr/local/Cellar/arm-none-eabi-gcc/9-2019-q4-major/gcc/arm-none-eabi/include/sys/_types.
 226              		.file 8 "/usr/local/Cellar/arm-none-eabi-gcc/9-2019-q4-major/gcc/lib/gcc/arm-none-eabi/9.2.1/inclu
 227              		.file 9 "/usr/local/Cellar/arm-none-eabi-gcc/9-2019-q4-major/gcc/arm-none-eabi/include/sys/reent.h
 228              		.file 10 "/usr/local/Cellar/arm-none-eabi-gcc/9-2019-q4-major/gcc/arm-none-eabi/include/stdlib.h"
 229              		.file 11 "scheduler.h"
 230              		.section	.debug_info,"",%progbits
 231              	.Ldebug_info0:
 232 0000 6B0B0000 		.4byte	0xb6b
 233 0004 0200     		.2byte	0x2
ARM GAS  /var/folders/_2/qbh2zpt918qcm2b_6mgyydnm0000gn/T//ccWw4yQb.s 			page 6


 234 0006 00000000 		.4byte	.Ldebug_abbrev0
 235 000a 04       		.byte	0x4
 236 000b 01       		.uleb128 0x1
 237 000c D4040000 		.4byte	.LASF138
 238 0010 0C       		.byte	0xc
 239 0011 52000000 		.4byte	.LASF139
 240 0015 D7020000 		.4byte	.LASF140
 241 0019 00000000 		.4byte	.Ltext0
 242 001d 48000000 		.4byte	.Letext0
 243 0021 00000000 		.4byte	.Ldebug_line0
 244 0025 02       		.uleb128 0x2
 245 0026 01       		.byte	0x1
 246 0027 06       		.byte	0x6
 247 0028 FF000000 		.4byte	.LASF0
 248 002c 03       		.uleb128 0x3
 249 002d 31000000 		.4byte	.LASF4
 250 0031 02       		.byte	0x2
 251 0032 2B       		.byte	0x2b
 252 0033 18       		.byte	0x18
 253 0034 38000000 		.4byte	0x38
 254 0038 02       		.uleb128 0x2
 255 0039 01       		.byte	0x1
 256 003a 08       		.byte	0x8
 257 003b 74030000 		.4byte	.LASF1
 258 003f 02       		.uleb128 0x2
 259 0040 02       		.byte	0x2
 260 0041 05       		.byte	0x5
 261 0042 0C000000 		.4byte	.LASF2
 262 0046 02       		.uleb128 0x2
 263 0047 02       		.byte	0x2
 264 0048 07       		.byte	0x7
 265 0049 77050000 		.4byte	.LASF3
 266 004d 03       		.uleb128 0x3
 267 004e B1040000 		.4byte	.LASF5
 268 0052 02       		.byte	0x2
 269 0053 4D       		.byte	0x4d
 270 0054 18       		.byte	0x18
 271 0055 59000000 		.4byte	0x59
 272 0059 02       		.uleb128 0x2
 273 005a 04       		.byte	0x4
 274 005b 05       		.byte	0x5
 275 005c 44010000 		.4byte	.LASF6
 276 0060 03       		.uleb128 0x3
 277 0061 CE010000 		.4byte	.LASF7
 278 0065 02       		.byte	0x2
 279 0066 4F       		.byte	0x4f
 280 0067 19       		.byte	0x19
 281 0068 6C000000 		.4byte	0x6c
 282 006c 02       		.uleb128 0x2
 283 006d 04       		.byte	0x4
 284 006e 07       		.byte	0x7
 285 006f 4D020000 		.4byte	.LASF8
 286 0073 02       		.uleb128 0x2
 287 0074 08       		.byte	0x8
 288 0075 05       		.byte	0x5
 289 0076 6C010000 		.4byte	.LASF9
 290 007a 02       		.uleb128 0x2
ARM GAS  /var/folders/_2/qbh2zpt918qcm2b_6mgyydnm0000gn/T//ccWw4yQb.s 			page 7


 291 007b 08       		.byte	0x8
 292 007c 07       		.byte	0x7
 293 007d 8E000000 		.4byte	.LASF10
 294 0081 04       		.uleb128 0x4
 295 0082 04       		.byte	0x4
 296 0083 05       		.byte	0x5
 297 0084 696E7400 		.ascii	"int\000"
 298 0088 02       		.uleb128 0x2
 299 0089 04       		.byte	0x4
 300 008a 07       		.byte	0x7
 301 008b 8B040000 		.4byte	.LASF11
 302 008f 03       		.uleb128 0x3
 303 0090 D8050000 		.4byte	.LASF12
 304 0094 03       		.byte	0x3
 305 0095 18       		.byte	0x18
 306 0096 13       		.byte	0x13
 307 0097 2C000000 		.4byte	0x2c
 308 009b 03       		.uleb128 0x3
 309 009c 6C030000 		.4byte	.LASF13
 310 00a0 03       		.byte	0x3
 311 00a1 2C       		.byte	0x2c
 312 00a2 13       		.byte	0x13
 313 00a3 4D000000 		.4byte	0x4d
 314 00a7 05       		.uleb128 0x5
 315 00a8 9B000000 		.4byte	0x9b
 316 00ac 03       		.uleb128 0x3
 317 00ad B7050000 		.4byte	.LASF14
 318 00b1 03       		.byte	0x3
 319 00b2 30       		.byte	0x30
 320 00b3 14       		.byte	0x14
 321 00b4 60000000 		.4byte	0x60
 322 00b8 06       		.uleb128 0x6
 323 00b9 CC000000 		.4byte	.LASF15
 324 00bd 04       		.byte	0x4
 325 00be C206     		.2byte	0x6c2
 326 00c0 19       		.byte	0x19
 327 00c1 A7000000 		.4byte	0xa7
 328 00c5 01       		.byte	0x1
 329 00c6 01       		.byte	0x1
 330 00c7 07       		.uleb128 0x7
 331 00c8 2D020000 		.4byte	.LASF16
 332 00cc 05       		.byte	0x5
 333 00cd 2F       		.byte	0x2f
 334 00ce 11       		.byte	0x11
 335 00cf AC000000 		.4byte	0xac
 336 00d3 01       		.byte	0x1
 337 00d4 01       		.byte	0x1
 338 00d5 02       		.uleb128 0x2
 339 00d6 08       		.byte	0x8
 340 00d7 04       		.byte	0x4
 341 00d8 64040000 		.4byte	.LASF17
 342 00dc 03       		.uleb128 0x3
 343 00dd A4020000 		.4byte	.LASF18
 344 00e1 06       		.byte	0x6
 345 00e2 22       		.byte	0x22
 346 00e3 19       		.byte	0x19
 347 00e4 E8000000 		.4byte	0xe8
ARM GAS  /var/folders/_2/qbh2zpt918qcm2b_6mgyydnm0000gn/T//ccWw4yQb.s 			page 8


 348 00e8 08       		.uleb128 0x8
 349 00e9 04       		.byte	0x4
 350 00ea EE000000 		.4byte	0xee
 351 00ee 09       		.uleb128 0x9
 352 00ef 3D040000 		.4byte	.LASF125
 353 00f3 01       		.byte	0x1
 354 00f4 03       		.uleb128 0x3
 355 00f5 F1000000 		.4byte	.LASF19
 356 00f9 07       		.byte	0x7
 357 00fa 2C       		.byte	0x2c
 358 00fb 0E       		.byte	0xe
 359 00fc 59000000 		.4byte	0x59
 360 0100 03       		.uleb128 0x3
 361 0101 5C040000 		.4byte	.LASF20
 362 0105 07       		.byte	0x7
 363 0106 72       		.byte	0x72
 364 0107 0E       		.byte	0xe
 365 0108 59000000 		.4byte	0x59
 366 010c 0A       		.uleb128 0xa
 367 010d 4D030000 		.4byte	.LASF21
 368 0111 08       		.byte	0x8
 369 0112 5E01     		.2byte	0x15e
 370 0114 17       		.byte	0x17
 371 0115 88000000 		.4byte	0x88
 372 0119 0B       		.uleb128 0xb
 373 011a 04       		.byte	0x4
 374 011b 07       		.byte	0x7
 375 011c A6       		.byte	0xa6
 376 011d 03       		.byte	0x3
 377 011e 3B010000 		.4byte	0x13b
 378 0122 0C       		.uleb128 0xc
 379 0123 9E020000 		.4byte	.LASF22
 380 0127 07       		.byte	0x7
 381 0128 A8       		.byte	0xa8
 382 0129 0C       		.byte	0xc
 383 012a 0C010000 		.4byte	0x10c
 384 012e 0C       		.uleb128 0xc
 385 012f 26020000 		.4byte	.LASF23
 386 0133 07       		.byte	0x7
 387 0134 A9       		.byte	0xa9
 388 0135 13       		.byte	0x13
 389 0136 3B010000 		.4byte	0x13b
 390 013a 00       		.byte	0
 391 013b 0D       		.uleb128 0xd
 392 013c 38000000 		.4byte	0x38
 393 0140 4B010000 		.4byte	0x14b
 394 0144 0E       		.uleb128 0xe
 395 0145 88000000 		.4byte	0x88
 396 0149 03       		.byte	0x3
 397 014a 00       		.byte	0
 398 014b 0F       		.uleb128 0xf
 399 014c 08       		.byte	0x8
 400 014d 07       		.byte	0x7
 401 014e A3       		.byte	0xa3
 402 014f 09       		.byte	0x9
 403 0150 73010000 		.4byte	0x173
 404 0154 10       		.uleb128 0x10
ARM GAS  /var/folders/_2/qbh2zpt918qcm2b_6mgyydnm0000gn/T//ccWw4yQb.s 			page 9


 405 0155 35040000 		.4byte	.LASF24
 406 0159 07       		.byte	0x7
 407 015a A5       		.byte	0xa5
 408 015b 07       		.byte	0x7
 409 015c 81000000 		.4byte	0x81
 410 0160 02       		.byte	0x2
 411 0161 23       		.byte	0x23
 412 0162 00       		.uleb128 0
 413 0163 10       		.uleb128 0x10
 414 0164 44040000 		.4byte	.LASF25
 415 0168 07       		.byte	0x7
 416 0169 AA       		.byte	0xaa
 417 016a 05       		.byte	0x5
 418 016b 19010000 		.4byte	0x119
 419 016f 02       		.byte	0x2
 420 0170 23       		.byte	0x23
 421 0171 04       		.uleb128 0x4
 422 0172 00       		.byte	0
 423 0173 03       		.uleb128 0x3
 424 0174 BA030000 		.4byte	.LASF26
 425 0178 07       		.byte	0x7
 426 0179 AB       		.byte	0xab
 427 017a 03       		.byte	0x3
 428 017b 4B010000 		.4byte	0x14b
 429 017f 03       		.uleb128 0x3
 430 0180 91030000 		.4byte	.LASF27
 431 0184 07       		.byte	0x7
 432 0185 AF       		.byte	0xaf
 433 0186 1B       		.byte	0x1b
 434 0187 DC000000 		.4byte	0xdc
 435 018b 11       		.uleb128 0x11
 436 018c 04       		.byte	0x4
 437 018d 08       		.uleb128 0x8
 438 018e 04       		.byte	0x4
 439 018f 93010000 		.4byte	0x193
 440 0193 02       		.uleb128 0x2
 441 0194 01       		.byte	0x1
 442 0195 08       		.byte	0x8
 443 0196 77040000 		.4byte	.LASF28
 444 019a 12       		.uleb128 0x12
 445 019b 93010000 		.4byte	0x193
 446 019f 03       		.uleb128 0x3
 447 01a0 8F050000 		.4byte	.LASF29
 448 01a4 09       		.byte	0x9
 449 01a5 16       		.byte	0x16
 450 01a6 19       		.byte	0x19
 451 01a7 6C000000 		.4byte	0x6c
 452 01ab 13       		.uleb128 0x13
 453 01ac F3010000 		.4byte	.LASF34
 454 01b0 18       		.byte	0x18
 455 01b1 09       		.byte	0x9
 456 01b2 2F       		.byte	0x2f
 457 01b3 08       		.byte	0x8
 458 01b4 11020000 		.4byte	0x211
 459 01b8 10       		.uleb128 0x10
 460 01b9 FB010000 		.4byte	.LASF30
 461 01bd 09       		.byte	0x9
ARM GAS  /var/folders/_2/qbh2zpt918qcm2b_6mgyydnm0000gn/T//ccWw4yQb.s 			page 10


 462 01be 31       		.byte	0x31
 463 01bf 13       		.byte	0x13
 464 01c0 11020000 		.4byte	0x211
 465 01c4 02       		.byte	0x2
 466 01c5 23       		.byte	0x23
 467 01c6 00       		.uleb128 0
 468 01c7 14       		.uleb128 0x14
 469 01c8 5F6B00   		.ascii	"_k\000"
 470 01cb 09       		.byte	0x9
 471 01cc 32       		.byte	0x32
 472 01cd 07       		.byte	0x7
 473 01ce 81000000 		.4byte	0x81
 474 01d2 02       		.byte	0x2
 475 01d3 23       		.byte	0x23
 476 01d4 04       		.uleb128 0x4
 477 01d5 10       		.uleb128 0x10
 478 01d6 18040000 		.4byte	.LASF31
 479 01da 09       		.byte	0x9
 480 01db 32       		.byte	0x32
 481 01dc 0B       		.byte	0xb
 482 01dd 81000000 		.4byte	0x81
 483 01e1 02       		.byte	0x2
 484 01e2 23       		.byte	0x23
 485 01e3 08       		.uleb128 0x8
 486 01e4 10       		.uleb128 0x10
 487 01e5 D9010000 		.4byte	.LASF32
 488 01e9 09       		.byte	0x9
 489 01ea 32       		.byte	0x32
 490 01eb 14       		.byte	0x14
 491 01ec 81000000 		.4byte	0x81
 492 01f0 02       		.byte	0x2
 493 01f1 23       		.byte	0x23
 494 01f2 0C       		.uleb128 0xc
 495 01f3 10       		.uleb128 0x10
 496 01f4 CD050000 		.4byte	.LASF33
 497 01f8 09       		.byte	0x9
 498 01f9 32       		.byte	0x32
 499 01fa 1B       		.byte	0x1b
 500 01fb 81000000 		.4byte	0x81
 501 01ff 02       		.byte	0x2
 502 0200 23       		.byte	0x23
 503 0201 10       		.uleb128 0x10
 504 0202 14       		.uleb128 0x14
 505 0203 5F7800   		.ascii	"_x\000"
 506 0206 09       		.byte	0x9
 507 0207 33       		.byte	0x33
 508 0208 0B       		.byte	0xb
 509 0209 17020000 		.4byte	0x217
 510 020d 02       		.byte	0x2
 511 020e 23       		.byte	0x23
 512 020f 14       		.uleb128 0x14
 513 0210 00       		.byte	0
 514 0211 08       		.uleb128 0x8
 515 0212 04       		.byte	0x4
 516 0213 AB010000 		.4byte	0x1ab
 517 0217 0D       		.uleb128 0xd
 518 0218 9F010000 		.4byte	0x19f
ARM GAS  /var/folders/_2/qbh2zpt918qcm2b_6mgyydnm0000gn/T//ccWw4yQb.s 			page 11


 519 021c 27020000 		.4byte	0x227
 520 0220 0E       		.uleb128 0xe
 521 0221 88000000 		.4byte	0x88
 522 0225 00       		.byte	0
 523 0226 00       		.byte	0
 524 0227 13       		.uleb128 0x13
 525 0228 21020000 		.4byte	.LASF35
 526 022c 24       		.byte	0x24
 527 022d 09       		.byte	0x9
 528 022e 37       		.byte	0x37
 529 022f 08       		.byte	0x8
 530 0230 BC020000 		.4byte	0x2bc
 531 0234 10       		.uleb128 0x10
 532 0235 E8000000 		.4byte	.LASF36
 533 0239 09       		.byte	0x9
 534 023a 39       		.byte	0x39
 535 023b 09       		.byte	0x9
 536 023c 81000000 		.4byte	0x81
 537 0240 02       		.byte	0x2
 538 0241 23       		.byte	0x23
 539 0242 00       		.uleb128 0
 540 0243 10       		.uleb128 0x10
 541 0244 1C060000 		.4byte	.LASF37
 542 0248 09       		.byte	0x9
 543 0249 3A       		.byte	0x3a
 544 024a 09       		.byte	0x9
 545 024b 81000000 		.4byte	0x81
 546 024f 02       		.byte	0x2
 547 0250 23       		.byte	0x23
 548 0251 04       		.uleb128 0x4
 549 0252 10       		.uleb128 0x10
 550 0253 17010000 		.4byte	.LASF38
 551 0257 09       		.byte	0x9
 552 0258 3B       		.byte	0x3b
 553 0259 09       		.byte	0x9
 554 025a 81000000 		.4byte	0x81
 555 025e 02       		.byte	0x2
 556 025f 23       		.byte	0x23
 557 0260 08       		.uleb128 0x8
 558 0261 10       		.uleb128 0x10
 559 0262 3D060000 		.4byte	.LASF39
 560 0266 09       		.byte	0x9
 561 0267 3C       		.byte	0x3c
 562 0268 09       		.byte	0x9
 563 0269 81000000 		.4byte	0x81
 564 026d 02       		.byte	0x2
 565 026e 23       		.byte	0x23
 566 026f 0C       		.uleb128 0xc
 567 0270 10       		.uleb128 0x10
 568 0271 18030000 		.4byte	.LASF40
 569 0275 09       		.byte	0x9
 570 0276 3D       		.byte	0x3d
 571 0277 09       		.byte	0x9
 572 0278 81000000 		.4byte	0x81
 573 027c 02       		.byte	0x2
 574 027d 23       		.byte	0x23
 575 027e 10       		.uleb128 0x10
ARM GAS  /var/folders/_2/qbh2zpt918qcm2b_6mgyydnm0000gn/T//ccWw4yQb.s 			page 12


 576 027f 10       		.uleb128 0x10
 577 0280 C4020000 		.4byte	.LASF41
 578 0284 09       		.byte	0x9
 579 0285 3E       		.byte	0x3e
 580 0286 09       		.byte	0x9
 581 0287 81000000 		.4byte	0x81
 582 028b 02       		.byte	0x2
 583 028c 23       		.byte	0x23
 584 028d 14       		.uleb128 0x14
 585 028e 10       		.uleb128 0x10
 586 028f 52040000 		.4byte	.LASF42
 587 0293 09       		.byte	0x9
 588 0294 3F       		.byte	0x3f
 589 0295 09       		.byte	0x9
 590 0296 81000000 		.4byte	0x81
 591 029a 02       		.byte	0x2
 592 029b 23       		.byte	0x23
 593 029c 18       		.uleb128 0x18
 594 029d 10       		.uleb128 0x10
 595 029e 9A030000 		.4byte	.LASF43
 596 02a2 09       		.byte	0x9
 597 02a3 40       		.byte	0x40
 598 02a4 09       		.byte	0x9
 599 02a5 81000000 		.4byte	0x81
 600 02a9 02       		.byte	0x2
 601 02aa 23       		.byte	0x23
 602 02ab 1C       		.uleb128 0x1c
 603 02ac 10       		.uleb128 0x10
 604 02ad 02060000 		.4byte	.LASF44
 605 02b1 09       		.byte	0x9
 606 02b2 41       		.byte	0x41
 607 02b3 09       		.byte	0x9
 608 02b4 81000000 		.4byte	0x81
 609 02b8 02       		.byte	0x2
 610 02b9 23       		.byte	0x23
 611 02ba 20       		.uleb128 0x20
 612 02bb 00       		.byte	0
 613 02bc 15       		.uleb128 0x15
 614 02bd 26010000 		.4byte	.LASF45
 615 02c1 0801     		.2byte	0x108
 616 02c3 09       		.byte	0x9
 617 02c4 4A       		.byte	0x4a
 618 02c5 08       		.byte	0x8
 619 02c6 0A030000 		.4byte	0x30a
 620 02ca 10       		.uleb128 0x10
 621 02cb 16000000 		.4byte	.LASF46
 622 02cf 09       		.byte	0x9
 623 02d0 4B       		.byte	0x4b
 624 02d1 0A       		.byte	0xa
 625 02d2 0A030000 		.4byte	0x30a
 626 02d6 02       		.byte	0x2
 627 02d7 23       		.byte	0x23
 628 02d8 00       		.uleb128 0
 629 02d9 10       		.uleb128 0x10
 630 02da 00000000 		.4byte	.LASF47
 631 02de 09       		.byte	0x9
 632 02df 4C       		.byte	0x4c
ARM GAS  /var/folders/_2/qbh2zpt918qcm2b_6mgyydnm0000gn/T//ccWw4yQb.s 			page 13


 633 02e0 09       		.byte	0x9
 634 02e1 0A030000 		.4byte	0x30a
 635 02e5 03       		.byte	0x3
 636 02e6 23       		.byte	0x23
 637 02e7 8001     		.uleb128 0x80
 638 02e9 10       		.uleb128 0x10
 639 02ea CB040000 		.4byte	.LASF48
 640 02ee 09       		.byte	0x9
 641 02ef 4E       		.byte	0x4e
 642 02f0 0A       		.byte	0xa
 643 02f1 9F010000 		.4byte	0x19f
 644 02f5 03       		.byte	0x3
 645 02f6 23       		.byte	0x23
 646 02f7 8002     		.uleb128 0x100
 647 02f9 10       		.uleb128 0x10
 648 02fa 54010000 		.4byte	.LASF49
 649 02fe 09       		.byte	0x9
 650 02ff 51       		.byte	0x51
 651 0300 0A       		.byte	0xa
 652 0301 9F010000 		.4byte	0x19f
 653 0305 03       		.byte	0x3
 654 0306 23       		.byte	0x23
 655 0307 8402     		.uleb128 0x104
 656 0309 00       		.byte	0
 657 030a 0D       		.uleb128 0xd
 658 030b 8B010000 		.4byte	0x18b
 659 030f 1A030000 		.4byte	0x31a
 660 0313 0E       		.uleb128 0xe
 661 0314 88000000 		.4byte	0x88
 662 0318 1F       		.byte	0x1f
 663 0319 00       		.byte	0
 664 031a 15       		.uleb128 0x15
 665 031b 21030000 		.4byte	.LASF50
 666 031f 9001     		.2byte	0x190
 667 0321 09       		.byte	0x9
 668 0322 5D       		.byte	0x5d
 669 0323 08       		.byte	0x8
 670 0324 66030000 		.4byte	0x366
 671 0328 10       		.uleb128 0x10
 672 0329 FB010000 		.4byte	.LASF30
 673 032d 09       		.byte	0x9
 674 032e 5E       		.byte	0x5e
 675 032f 12       		.byte	0x12
 676 0330 66030000 		.4byte	0x366
 677 0334 02       		.byte	0x2
 678 0335 23       		.byte	0x23
 679 0336 00       		.uleb128 0
 680 0337 10       		.uleb128 0x10
 681 0338 E8030000 		.4byte	.LASF51
 682 033c 09       		.byte	0x9
 683 033d 5F       		.byte	0x5f
 684 033e 06       		.byte	0x6
 685 033f 81000000 		.4byte	0x81
 686 0343 02       		.byte	0x2
 687 0344 23       		.byte	0x23
 688 0345 04       		.uleb128 0x4
 689 0346 10       		.uleb128 0x10
ARM GAS  /var/folders/_2/qbh2zpt918qcm2b_6mgyydnm0000gn/T//ccWw4yQb.s 			page 14


 690 0347 C9010000 		.4byte	.LASF52
 691 034b 09       		.byte	0x9
 692 034c 61       		.byte	0x61
 693 034d 09       		.byte	0x9
 694 034e 6C030000 		.4byte	0x36c
 695 0352 02       		.byte	0x2
 696 0353 23       		.byte	0x23
 697 0354 08       		.uleb128 0x8
 698 0355 10       		.uleb128 0x10
 699 0356 26010000 		.4byte	.LASF45
 700 035a 09       		.byte	0x9
 701 035b 62       		.byte	0x62
 702 035c 1E       		.byte	0x1e
 703 035d BC020000 		.4byte	0x2bc
 704 0361 03       		.byte	0x3
 705 0362 23       		.byte	0x23
 706 0363 8801     		.uleb128 0x88
 707 0365 00       		.byte	0
 708 0366 08       		.uleb128 0x8
 709 0367 04       		.byte	0x4
 710 0368 1A030000 		.4byte	0x31a
 711 036c 0D       		.uleb128 0xd
 712 036d 7C030000 		.4byte	0x37c
 713 0371 7C030000 		.4byte	0x37c
 714 0375 0E       		.uleb128 0xe
 715 0376 88000000 		.4byte	0x88
 716 037a 1F       		.byte	0x1f
 717 037b 00       		.byte	0
 718 037c 08       		.uleb128 0x8
 719 037d 04       		.byte	0x4
 720 037e 82030000 		.4byte	0x382
 721 0382 16       		.uleb128 0x16
 722 0383 01       		.byte	0x1
 723 0384 13       		.uleb128 0x13
 724 0385 A4030000 		.4byte	.LASF53
 725 0389 08       		.byte	0x8
 726 038a 09       		.byte	0x9
 727 038b 75       		.byte	0x75
 728 038c 08       		.byte	0x8
 729 038d B0030000 		.4byte	0x3b0
 730 0391 10       		.uleb128 0x10
 731 0392 11010000 		.4byte	.LASF54
 732 0396 09       		.byte	0x9
 733 0397 76       		.byte	0x76
 734 0398 11       		.byte	0x11
 735 0399 B0030000 		.4byte	0x3b0
 736 039d 02       		.byte	0x2
 737 039e 23       		.byte	0x23
 738 039f 00       		.uleb128 0
 739 03a0 10       		.uleb128 0x10
 740 03a1 85040000 		.4byte	.LASF55
 741 03a5 09       		.byte	0x9
 742 03a6 77       		.byte	0x77
 743 03a7 06       		.byte	0x6
 744 03a8 81000000 		.4byte	0x81
 745 03ac 02       		.byte	0x2
 746 03ad 23       		.byte	0x23
ARM GAS  /var/folders/_2/qbh2zpt918qcm2b_6mgyydnm0000gn/T//ccWw4yQb.s 			page 15


 747 03ae 04       		.uleb128 0x4
 748 03af 00       		.byte	0
 749 03b0 08       		.uleb128 0x8
 750 03b1 04       		.byte	0x4
 751 03b2 38000000 		.4byte	0x38
 752 03b6 13       		.uleb128 0x13
 753 03b7 C5030000 		.4byte	.LASF56
 754 03bb 68       		.byte	0x68
 755 03bc 09       		.byte	0x9
 756 03bd B5       		.byte	0xb5
 757 03be 08       		.byte	0x8
 758 03bf 29050000 		.4byte	0x529
 759 03c3 14       		.uleb128 0x14
 760 03c4 5F7000   		.ascii	"_p\000"
 761 03c7 09       		.byte	0x9
 762 03c8 B6       		.byte	0xb6
 763 03c9 12       		.byte	0x12
 764 03ca B0030000 		.4byte	0x3b0
 765 03ce 02       		.byte	0x2
 766 03cf 23       		.byte	0x23
 767 03d0 00       		.uleb128 0
 768 03d1 14       		.uleb128 0x14
 769 03d2 5F7200   		.ascii	"_r\000"
 770 03d5 09       		.byte	0x9
 771 03d6 B7       		.byte	0xb7
 772 03d7 07       		.byte	0x7
 773 03d8 81000000 		.4byte	0x81
 774 03dc 02       		.byte	0x2
 775 03dd 23       		.byte	0x23
 776 03de 04       		.uleb128 0x4
 777 03df 14       		.uleb128 0x14
 778 03e0 5F7700   		.ascii	"_w\000"
 779 03e3 09       		.byte	0x9
 780 03e4 B8       		.byte	0xb8
 781 03e5 07       		.byte	0x7
 782 03e6 81000000 		.4byte	0x81
 783 03ea 02       		.byte	0x2
 784 03eb 23       		.byte	0x23
 785 03ec 08       		.uleb128 0x8
 786 03ed 10       		.uleb128 0x10
 787 03ee 4D010000 		.4byte	.LASF57
 788 03f2 09       		.byte	0x9
 789 03f3 B9       		.byte	0xb9
 790 03f4 09       		.byte	0x9
 791 03f5 3F000000 		.4byte	0x3f
 792 03f9 02       		.byte	0x2
 793 03fa 23       		.byte	0x23
 794 03fb 0C       		.uleb128 0xc
 795 03fc 10       		.uleb128 0x10
 796 03fd 5F020000 		.4byte	.LASF58
 797 0401 09       		.byte	0x9
 798 0402 BA       		.byte	0xba
 799 0403 09       		.byte	0x9
 800 0404 3F000000 		.4byte	0x3f
 801 0408 02       		.byte	0x2
 802 0409 23       		.byte	0x23
 803 040a 0E       		.uleb128 0xe
ARM GAS  /var/folders/_2/qbh2zpt918qcm2b_6mgyydnm0000gn/T//ccWw4yQb.s 			page 16


 804 040b 14       		.uleb128 0x14
 805 040c 5F626600 		.ascii	"_bf\000"
 806 0410 09       		.byte	0x9
 807 0411 BB       		.byte	0xbb
 808 0412 11       		.byte	0x11
 809 0413 84030000 		.4byte	0x384
 810 0417 02       		.byte	0x2
 811 0418 23       		.byte	0x23
 812 0419 10       		.uleb128 0x10
 813 041a 10       		.uleb128 0x10
 814 041b A5000000 		.4byte	.LASF59
 815 041f 09       		.byte	0x9
 816 0420 BC       		.byte	0xbc
 817 0421 07       		.byte	0x7
 818 0422 81000000 		.4byte	0x81
 819 0426 02       		.byte	0x2
 820 0427 23       		.byte	0x23
 821 0428 18       		.uleb128 0x18
 822 0429 10       		.uleb128 0x10
 823 042a 34010000 		.4byte	.LASF60
 824 042e 09       		.byte	0x9
 825 042f C3       		.byte	0xc3
 826 0430 0A       		.byte	0xa
 827 0431 8B010000 		.4byte	0x18b
 828 0435 02       		.byte	0x2
 829 0436 23       		.byte	0x23
 830 0437 1C       		.uleb128 0x1c
 831 0438 10       		.uleb128 0x10
 832 0439 01020000 		.4byte	.LASF61
 833 043d 09       		.byte	0x9
 834 043e C5       		.byte	0xc5
 835 043f 1D       		.byte	0x1d
 836 0440 C8060000 		.4byte	0x6c8
 837 0444 02       		.byte	0x2
 838 0445 23       		.byte	0x23
 839 0446 20       		.uleb128 0x20
 840 0447 10       		.uleb128 0x10
 841 0448 BD020000 		.4byte	.LASF62
 842 044c 09       		.byte	0x9
 843 044d C7       		.byte	0xc7
 844 044e 1D       		.byte	0x1d
 845 044f F3060000 		.4byte	0x6f3
 846 0453 02       		.byte	0x2
 847 0454 23       		.byte	0x23
 848 0455 24       		.uleb128 0x24
 849 0456 10       		.uleb128 0x10
 850 0457 4C040000 		.4byte	.LASF63
 851 045b 09       		.byte	0x9
 852 045c CA       		.byte	0xca
 853 045d 0D       		.byte	0xd
 854 045e 18070000 		.4byte	0x718
 855 0462 02       		.byte	0x2
 856 0463 23       		.byte	0x23
 857 0464 28       		.uleb128 0x28
 858 0465 10       		.uleb128 0x10
 859 0466 F8000000 		.4byte	.LASF64
 860 046a 09       		.byte	0x9
ARM GAS  /var/folders/_2/qbh2zpt918qcm2b_6mgyydnm0000gn/T//ccWw4yQb.s 			page 17


 861 046b CB       		.byte	0xcb
 862 046c 09       		.byte	0x9
 863 046d 33070000 		.4byte	0x733
 864 0471 02       		.byte	0x2
 865 0472 23       		.byte	0x23
 866 0473 2C       		.uleb128 0x2c
 867 0474 14       		.uleb128 0x14
 868 0475 5F756200 		.ascii	"_ub\000"
 869 0479 09       		.byte	0x9
 870 047a CE       		.byte	0xce
 871 047b 11       		.byte	0x11
 872 047c 84030000 		.4byte	0x384
 873 0480 02       		.byte	0x2
 874 0481 23       		.byte	0x23
 875 0482 30       		.uleb128 0x30
 876 0483 14       		.uleb128 0x14
 877 0484 5F757000 		.ascii	"_up\000"
 878 0488 09       		.byte	0x9
 879 0489 CF       		.byte	0xcf
 880 048a 12       		.byte	0x12
 881 048b B0030000 		.4byte	0x3b0
 882 048f 02       		.byte	0x2
 883 0490 23       		.byte	0x23
 884 0491 38       		.uleb128 0x38
 885 0492 14       		.uleb128 0x14
 886 0493 5F757200 		.ascii	"_ur\000"
 887 0497 09       		.byte	0x9
 888 0498 D0       		.byte	0xd0
 889 0499 07       		.byte	0x7
 890 049a 81000000 		.4byte	0x81
 891 049e 02       		.byte	0x2
 892 049f 23       		.byte	0x23
 893 04a0 3C       		.uleb128 0x3c
 894 04a1 10       		.uleb128 0x10
 895 04a2 0B010000 		.4byte	.LASF65
 896 04a6 09       		.byte	0x9
 897 04a7 D3       		.byte	0xd3
 898 04a8 11       		.byte	0x11
 899 04a9 39070000 		.4byte	0x739
 900 04ad 02       		.byte	0x2
 901 04ae 23       		.byte	0x23
 902 04af 40       		.uleb128 0x40
 903 04b0 10       		.uleb128 0x10
 904 04b1 F4050000 		.4byte	.LASF66
 905 04b5 09       		.byte	0x9
 906 04b6 D4       		.byte	0xd4
 907 04b7 11       		.byte	0x11
 908 04b8 49070000 		.4byte	0x749
 909 04bc 02       		.byte	0x2
 910 04bd 23       		.byte	0x23
 911 04be 43       		.uleb128 0x43
 912 04bf 14       		.uleb128 0x14
 913 04c0 5F6C6200 		.ascii	"_lb\000"
 914 04c4 09       		.byte	0x9
 915 04c5 D7       		.byte	0xd7
 916 04c6 11       		.byte	0x11
 917 04c7 84030000 		.4byte	0x384
ARM GAS  /var/folders/_2/qbh2zpt918qcm2b_6mgyydnm0000gn/T//ccWw4yQb.s 			page 18


 918 04cb 02       		.byte	0x2
 919 04cc 23       		.byte	0x23
 920 04cd 44       		.uleb128 0x44
 921 04ce 10       		.uleb128 0x10
 922 04cf 7C040000 		.4byte	.LASF67
 923 04d3 09       		.byte	0x9
 924 04d4 DA       		.byte	0xda
 925 04d5 07       		.byte	0x7
 926 04d6 81000000 		.4byte	0x81
 927 04da 02       		.byte	0x2
 928 04db 23       		.byte	0x23
 929 04dc 4C       		.uleb128 0x4c
 930 04dd 10       		.uleb128 0x10
 931 04de 82010000 		.4byte	.LASF68
 932 04e2 09       		.byte	0x9
 933 04e3 DB       		.byte	0xdb
 934 04e4 0A       		.byte	0xa
 935 04e5 F4000000 		.4byte	0xf4
 936 04e9 02       		.byte	0x2
 937 04ea 23       		.byte	0x23
 938 04eb 50       		.uleb128 0x50
 939 04ec 10       		.uleb128 0x10
 940 04ed 65020000 		.4byte	.LASF69
 941 04f1 09       		.byte	0x9
 942 04f2 DE       		.byte	0xde
 943 04f3 12       		.byte	0x12
 944 04f4 48050000 		.4byte	0x548
 945 04f8 02       		.byte	0x2
 946 04f9 23       		.byte	0x23
 947 04fa 54       		.uleb128 0x54
 948 04fb 10       		.uleb128 0x10
 949 04fc B1020000 		.4byte	.LASF70
 950 0500 09       		.byte	0x9
 951 0501 E2       		.byte	0xe2
 952 0502 0C       		.byte	0xc
 953 0503 7F010000 		.4byte	0x17f
 954 0507 02       		.byte	0x2
 955 0508 23       		.byte	0x23
 956 0509 58       		.uleb128 0x58
 957 050a 10       		.uleb128 0x10
 958 050b CD030000 		.4byte	.LASF71
 959 050f 09       		.byte	0x9
 960 0510 E4       		.byte	0xe4
 961 0511 0E       		.byte	0xe
 962 0512 73010000 		.4byte	0x173
 963 0516 02       		.byte	0x2
 964 0517 23       		.byte	0x23
 965 0518 5C       		.uleb128 0x5c
 966 0519 10       		.uleb128 0x10
 967 051a AB030000 		.4byte	.LASF72
 968 051e 09       		.byte	0x9
 969 051f E5       		.byte	0xe5
 970 0520 09       		.byte	0x9
 971 0521 81000000 		.4byte	0x81
 972 0525 02       		.byte	0x2
 973 0526 23       		.byte	0x23
 974 0527 64       		.uleb128 0x64
ARM GAS  /var/folders/_2/qbh2zpt918qcm2b_6mgyydnm0000gn/T//ccWw4yQb.s 			page 19


 975 0528 00       		.byte	0
 976 0529 17       		.uleb128 0x17
 977 052a 01       		.byte	0x1
 978 052b 81000000 		.4byte	0x81
 979 052f 48050000 		.4byte	0x548
 980 0533 18       		.uleb128 0x18
 981 0534 48050000 		.4byte	0x548
 982 0538 18       		.uleb128 0x18
 983 0539 8B010000 		.4byte	0x18b
 984 053d 18       		.uleb128 0x18
 985 053e 8D010000 		.4byte	0x18d
 986 0542 18       		.uleb128 0x18
 987 0543 81000000 		.4byte	0x81
 988 0547 00       		.byte	0
 989 0548 08       		.uleb128 0x8
 990 0549 04       		.byte	0x4
 991 054a 53050000 		.4byte	0x553
 992 054e 12       		.uleb128 0x12
 993 054f 48050000 		.4byte	0x548
 994 0553 19       		.uleb128 0x19
 995 0554 20040000 		.4byte	.LASF73
 996 0558 2804     		.2byte	0x428
 997 055a 09       		.byte	0x9
 998 055b 6002     		.2byte	0x260
 999 055d 08       		.byte	0x8
 1000 055e C8060000 		.4byte	0x6c8
 1001 0562 1A       		.uleb128 0x1a
 1002 0563 70040000 		.4byte	.LASF74
 1003 0567 09       		.byte	0x9
 1004 0568 6202     		.2byte	0x262
 1005 056a 07       		.byte	0x7
 1006 056b 81000000 		.4byte	0x81
 1007 056f 02       		.byte	0x2
 1008 0570 23       		.byte	0x23
 1009 0571 00       		.uleb128 0
 1010 0572 1A       		.uleb128 0x1a
 1011 0573 5C010000 		.4byte	.LASF75
 1012 0577 09       		.byte	0x9
 1013 0578 6702     		.2byte	0x267
 1014 057a 0B       		.byte	0xb
 1015 057b AB070000 		.4byte	0x7ab
 1016 057f 02       		.byte	0x2
 1017 0580 23       		.byte	0x23
 1018 0581 04       		.uleb128 0x4
 1019 0582 1A       		.uleb128 0x1a
 1020 0583 3D020000 		.4byte	.LASF76
 1021 0587 09       		.byte	0x9
 1022 0588 6702     		.2byte	0x267
 1023 058a 14       		.byte	0x14
 1024 058b AB070000 		.4byte	0x7ab
 1025 058f 02       		.byte	0x2
 1026 0590 23       		.byte	0x23
 1027 0591 08       		.uleb128 0x8
 1028 0592 1A       		.uleb128 0x1a
 1029 0593 EB010000 		.4byte	.LASF77
 1030 0597 09       		.byte	0x9
 1031 0598 6702     		.2byte	0x267
ARM GAS  /var/folders/_2/qbh2zpt918qcm2b_6mgyydnm0000gn/T//ccWw4yQb.s 			page 20


 1032 059a 1E       		.byte	0x1e
 1033 059b AB070000 		.4byte	0x7ab
 1034 059f 02       		.byte	0x2
 1035 05a0 23       		.byte	0x23
 1036 05a1 0C       		.uleb128 0xc
 1037 05a2 1A       		.uleb128 0x1a
 1038 05a3 E3030000 		.4byte	.LASF78
 1039 05a7 09       		.byte	0x9
 1040 05a8 6902     		.2byte	0x269
 1041 05aa 08       		.byte	0x8
 1042 05ab 81000000 		.4byte	0x81
 1043 05af 02       		.byte	0x2
 1044 05b0 23       		.byte	0x23
 1045 05b1 10       		.uleb128 0x10
 1046 05b2 1A       		.uleb128 0x1a
 1047 05b3 26000000 		.4byte	.LASF79
 1048 05b7 09       		.byte	0x9
 1049 05b8 6A02     		.2byte	0x26a
 1050 05ba 08       		.byte	0x8
 1051 05bb E4090000 		.4byte	0x9e4
 1052 05bf 02       		.byte	0x2
 1053 05c0 23       		.byte	0x23
 1054 05c1 14       		.uleb128 0x14
 1055 05c2 1A       		.uleb128 0x1a
 1056 05c3 FF030000 		.4byte	.LASF80
 1057 05c7 09       		.byte	0x9
 1058 05c8 6D02     		.2byte	0x26d
 1059 05ca 07       		.byte	0x7
 1060 05cb 81000000 		.4byte	0x81
 1061 05cf 02       		.byte	0x2
 1062 05d0 23       		.byte	0x23
 1063 05d1 30       		.uleb128 0x30
 1064 05d2 1A       		.uleb128 0x1a
 1065 05d3 ED030000 		.4byte	.LASF81
 1066 05d7 09       		.byte	0x9
 1067 05d8 6E02     		.2byte	0x26e
 1068 05da 16       		.byte	0x16
 1069 05db FA090000 		.4byte	0x9fa
 1070 05df 02       		.byte	0x2
 1071 05e0 23       		.byte	0x23
 1072 05e1 34       		.uleb128 0x34
 1073 05e2 1A       		.uleb128 0x1a
 1074 05e3 33030000 		.4byte	.LASF82
 1075 05e7 09       		.byte	0x9
 1076 05e8 7002     		.2byte	0x270
 1077 05ea 07       		.byte	0x7
 1078 05eb 81000000 		.4byte	0x81
 1079 05ef 02       		.byte	0x2
 1080 05f0 23       		.byte	0x23
 1081 05f1 38       		.uleb128 0x38
 1082 05f2 1A       		.uleb128 0x1a
 1083 05f3 F5030000 		.4byte	.LASF83
 1084 05f7 09       		.byte	0x9
 1085 05f8 7202     		.2byte	0x272
 1086 05fa 0A       		.byte	0xa
 1087 05fb 0C0A0000 		.4byte	0xa0c
 1088 05ff 02       		.byte	0x2
ARM GAS  /var/folders/_2/qbh2zpt918qcm2b_6mgyydnm0000gn/T//ccWw4yQb.s 			page 21


 1089 0600 23       		.byte	0x23
 1090 0601 3C       		.uleb128 0x3c
 1091 0602 1A       		.uleb128 0x1a
 1092 0603 96020000 		.4byte	.LASF84
 1093 0607 09       		.byte	0x9
 1094 0608 7502     		.2byte	0x275
 1095 060a 13       		.byte	0x13
 1096 060b 11020000 		.4byte	0x211
 1097 060f 02       		.byte	0x2
 1098 0610 23       		.byte	0x23
 1099 0611 40       		.uleb128 0x40
 1100 0612 1A       		.uleb128 0x1a
 1101 0613 07020000 		.4byte	.LASF85
 1102 0617 09       		.byte	0x9
 1103 0618 7602     		.2byte	0x276
 1104 061a 07       		.byte	0x7
 1105 061b 81000000 		.4byte	0x81
 1106 061f 02       		.byte	0x2
 1107 0620 23       		.byte	0x23
 1108 0621 44       		.uleb128 0x44
 1109 0622 1A       		.uleb128 0x1a
 1110 0623 38060000 		.4byte	.LASF86
 1111 0627 09       		.byte	0x9
 1112 0628 7702     		.2byte	0x277
 1113 062a 13       		.byte	0x13
 1114 062b 11020000 		.4byte	0x211
 1115 062f 02       		.byte	0x2
 1116 0630 23       		.byte	0x23
 1117 0631 48       		.uleb128 0x48
 1118 0632 1A       		.uleb128 0x1a
 1119 0633 54030000 		.4byte	.LASF87
 1120 0637 09       		.byte	0x9
 1121 0638 7802     		.2byte	0x278
 1122 063a 14       		.byte	0x14
 1123 063b 120A0000 		.4byte	0xa12
 1124 063f 02       		.byte	0x2
 1125 0640 23       		.byte	0x23
 1126 0641 4C       		.uleb128 0x4c
 1127 0642 1A       		.uleb128 0x1a
 1128 0643 45020000 		.4byte	.LASF88
 1129 0647 09       		.byte	0x9
 1130 0648 7B02     		.2byte	0x27b
 1131 064a 07       		.byte	0x7
 1132 064b 81000000 		.4byte	0x81
 1133 064f 02       		.byte	0x2
 1134 0650 23       		.byte	0x23
 1135 0651 50       		.uleb128 0x50
 1136 0652 1A       		.uleb128 0x1a
 1137 0653 7A010000 		.4byte	.LASF89
 1138 0657 09       		.byte	0x9
 1139 0658 7C02     		.2byte	0x27c
 1140 065a 09       		.byte	0x9
 1141 065b 8D010000 		.4byte	0x18d
 1142 065f 02       		.byte	0x2
 1143 0660 23       		.byte	0x23
 1144 0661 54       		.uleb128 0x54
 1145 0662 1A       		.uleb128 0x1a
ARM GAS  /var/folders/_2/qbh2zpt918qcm2b_6mgyydnm0000gn/T//ccWw4yQb.s 			page 22


 1146 0663 AC020000 		.4byte	.LASF90
 1147 0667 09       		.byte	0x9
 1148 0668 9F02     		.2byte	0x29f
 1149 066a 07       		.byte	0x7
 1150 066b BF090000 		.4byte	0x9bf
 1151 066f 02       		.byte	0x2
 1152 0670 23       		.byte	0x23
 1153 0671 58       		.uleb128 0x58
 1154 0672 1A       		.uleb128 0x1a
 1155 0673 21030000 		.4byte	.LASF50
 1156 0677 09       		.byte	0x9
 1157 0678 A302     		.2byte	0x2a3
 1158 067a 13       		.byte	0x13
 1159 067b 66030000 		.4byte	0x366
 1160 067f 03       		.byte	0x3
 1161 0680 23       		.byte	0x23
 1162 0681 C802     		.uleb128 0x148
 1163 0683 1A       		.uleb128 0x1a
 1164 0684 49000000 		.4byte	.LASF91
 1165 0688 09       		.byte	0x9
 1166 0689 A402     		.2byte	0x2a4
 1167 068b 12       		.byte	0x12
 1168 068c 1A030000 		.4byte	0x31a
 1169 0690 03       		.byte	0x3
 1170 0691 23       		.byte	0x23
 1171 0692 CC02     		.uleb128 0x14c
 1172 0694 1A       		.uleb128 0x1a
 1173 0695 EA050000 		.4byte	.LASF92
 1174 0699 09       		.byte	0x9
 1175 069a A802     		.2byte	0x2a8
 1176 069c 0C       		.byte	0xc
 1177 069d 240A0000 		.4byte	0xa24
 1178 06a1 03       		.byte	0x3
 1179 06a2 23       		.byte	0x23
 1180 06a3 DC05     		.uleb128 0x2dc
 1181 06a5 1A       		.uleb128 0x1a
 1182 06a6 3C010000 		.4byte	.LASF93
 1183 06aa 09       		.byte	0x9
 1184 06ab AD02     		.2byte	0x2ad
 1185 06ad 10       		.byte	0x10
 1186 06ae 66070000 		.4byte	0x766
 1187 06b2 03       		.byte	0x3
 1188 06b3 23       		.byte	0x23
 1189 06b4 E005     		.uleb128 0x2e0
 1190 06b6 1A       		.uleb128 0x1a
 1191 06b7 21010000 		.4byte	.LASF94
 1192 06bb 09       		.byte	0x9
 1193 06bc AF02     		.2byte	0x2af
 1194 06be 0A       		.byte	0xa
 1195 06bf 300A0000 		.4byte	0xa30
 1196 06c3 03       		.byte	0x3
 1197 06c4 23       		.byte	0x23
 1198 06c5 EC05     		.uleb128 0x2ec
 1199 06c7 00       		.byte	0
 1200 06c8 08       		.uleb128 0x8
 1201 06c9 04       		.byte	0x4
 1202 06ca 29050000 		.4byte	0x529
ARM GAS  /var/folders/_2/qbh2zpt918qcm2b_6mgyydnm0000gn/T//ccWw4yQb.s 			page 23


 1203 06ce 17       		.uleb128 0x17
 1204 06cf 01       		.byte	0x1
 1205 06d0 81000000 		.4byte	0x81
 1206 06d4 ED060000 		.4byte	0x6ed
 1207 06d8 18       		.uleb128 0x18
 1208 06d9 48050000 		.4byte	0x548
 1209 06dd 18       		.uleb128 0x18
 1210 06de 8B010000 		.4byte	0x18b
 1211 06e2 18       		.uleb128 0x18
 1212 06e3 ED060000 		.4byte	0x6ed
 1213 06e7 18       		.uleb128 0x18
 1214 06e8 81000000 		.4byte	0x81
 1215 06ec 00       		.byte	0
 1216 06ed 08       		.uleb128 0x8
 1217 06ee 04       		.byte	0x4
 1218 06ef 9A010000 		.4byte	0x19a
 1219 06f3 08       		.uleb128 0x8
 1220 06f4 04       		.byte	0x4
 1221 06f5 CE060000 		.4byte	0x6ce
 1222 06f9 17       		.uleb128 0x17
 1223 06fa 01       		.byte	0x1
 1224 06fb 00010000 		.4byte	0x100
 1225 06ff 18070000 		.4byte	0x718
 1226 0703 18       		.uleb128 0x18
 1227 0704 48050000 		.4byte	0x548
 1228 0708 18       		.uleb128 0x18
 1229 0709 8B010000 		.4byte	0x18b
 1230 070d 18       		.uleb128 0x18
 1231 070e 00010000 		.4byte	0x100
 1232 0712 18       		.uleb128 0x18
 1233 0713 81000000 		.4byte	0x81
 1234 0717 00       		.byte	0
 1235 0718 08       		.uleb128 0x8
 1236 0719 04       		.byte	0x4
 1237 071a F9060000 		.4byte	0x6f9
 1238 071e 17       		.uleb128 0x17
 1239 071f 01       		.byte	0x1
 1240 0720 81000000 		.4byte	0x81
 1241 0724 33070000 		.4byte	0x733
 1242 0728 18       		.uleb128 0x18
 1243 0729 48050000 		.4byte	0x548
 1244 072d 18       		.uleb128 0x18
 1245 072e 8B010000 		.4byte	0x18b
 1246 0732 00       		.byte	0
 1247 0733 08       		.uleb128 0x8
 1248 0734 04       		.byte	0x4
 1249 0735 1E070000 		.4byte	0x71e
 1250 0739 0D       		.uleb128 0xd
 1251 073a 38000000 		.4byte	0x38
 1252 073e 49070000 		.4byte	0x749
 1253 0742 0E       		.uleb128 0xe
 1254 0743 88000000 		.4byte	0x88
 1255 0747 02       		.byte	0x2
 1256 0748 00       		.byte	0
 1257 0749 0D       		.uleb128 0xd
 1258 074a 38000000 		.4byte	0x38
 1259 074e 59070000 		.4byte	0x759
ARM GAS  /var/folders/_2/qbh2zpt918qcm2b_6mgyydnm0000gn/T//ccWw4yQb.s 			page 24


 1260 0752 0E       		.uleb128 0xe
 1261 0753 88000000 		.4byte	0x88
 1262 0757 00       		.byte	0
 1263 0758 00       		.byte	0
 1264 0759 0A       		.uleb128 0xa
 1265 075a B3030000 		.4byte	.LASF95
 1266 075e 09       		.byte	0x9
 1267 075f 1F01     		.2byte	0x11f
 1268 0761 1A       		.byte	0x1a
 1269 0762 B6030000 		.4byte	0x3b6
 1270 0766 1B       		.uleb128 0x1b
 1271 0767 D2050000 		.4byte	.LASF96
 1272 076b 0C       		.byte	0xc
 1273 076c 09       		.byte	0x9
 1274 076d 2301     		.2byte	0x123
 1275 076f 08       		.byte	0x8
 1276 0770 A5070000 		.4byte	0x7a5
 1277 0774 1A       		.uleb128 0x1a
 1278 0775 FB010000 		.4byte	.LASF30
 1279 0779 09       		.byte	0x9
 1280 077a 2501     		.2byte	0x125
 1281 077c 11       		.byte	0x11
 1282 077d A5070000 		.4byte	0x7a5
 1283 0781 02       		.byte	0x2
 1284 0782 23       		.byte	0x23
 1285 0783 00       		.uleb128 0
 1286 0784 1A       		.uleb128 0x1a
 1287 0785 6B020000 		.4byte	.LASF97
 1288 0789 09       		.byte	0x9
 1289 078a 2601     		.2byte	0x126
 1290 078c 07       		.byte	0x7
 1291 078d 81000000 		.4byte	0x81
 1292 0791 02       		.byte	0x2
 1293 0792 23       		.byte	0x23
 1294 0793 04       		.uleb128 0x4
 1295 0794 1A       		.uleb128 0x1a
 1296 0795 82030000 		.4byte	.LASF98
 1297 0799 09       		.byte	0x9
 1298 079a 2701     		.2byte	0x127
 1299 079c 0B       		.byte	0xb
 1300 079d AB070000 		.4byte	0x7ab
 1301 07a1 02       		.byte	0x2
 1302 07a2 23       		.byte	0x23
 1303 07a3 08       		.uleb128 0x8
 1304 07a4 00       		.byte	0
 1305 07a5 08       		.uleb128 0x8
 1306 07a6 04       		.byte	0x4
 1307 07a7 66070000 		.4byte	0x766
 1308 07ab 08       		.uleb128 0x8
 1309 07ac 04       		.byte	0x4
 1310 07ad 59070000 		.4byte	0x759
 1311 07b1 1B       		.uleb128 0x1b
 1312 07b2 1E000000 		.4byte	.LASF99
 1313 07b6 0E       		.byte	0xe
 1314 07b7 09       		.byte	0x9
 1315 07b8 3F01     		.2byte	0x13f
 1316 07ba 08       		.byte	0x8
ARM GAS  /var/folders/_2/qbh2zpt918qcm2b_6mgyydnm0000gn/T//ccWw4yQb.s 			page 25


 1317 07bb F0070000 		.4byte	0x7f0
 1318 07bf 1A       		.uleb128 0x1a
 1319 07c0 2F040000 		.4byte	.LASF100
 1320 07c4 09       		.byte	0x9
 1321 07c5 4001     		.2byte	0x140
 1322 07c7 12       		.byte	0x12
 1323 07c8 F0070000 		.4byte	0x7f0
 1324 07cc 02       		.byte	0x2
 1325 07cd 23       		.byte	0x23
 1326 07ce 00       		.uleb128 0
 1327 07cf 1A       		.uleb128 0x1a
 1328 07d0 B7020000 		.4byte	.LASF101
 1329 07d4 09       		.byte	0x9
 1330 07d5 4101     		.2byte	0x141
 1331 07d7 12       		.byte	0x12
 1332 07d8 F0070000 		.4byte	0x7f0
 1333 07dc 02       		.byte	0x2
 1334 07dd 23       		.byte	0x23
 1335 07de 06       		.uleb128 0x6
 1336 07df 1A       		.uleb128 0x1a
 1337 07e0 8A050000 		.4byte	.LASF102
 1338 07e4 09       		.byte	0x9
 1339 07e5 4201     		.2byte	0x142
 1340 07e7 12       		.byte	0x12
 1341 07e8 46000000 		.4byte	0x46
 1342 07ec 02       		.byte	0x2
 1343 07ed 23       		.byte	0x23
 1344 07ee 0C       		.uleb128 0xc
 1345 07ef 00       		.byte	0
 1346 07f0 0D       		.uleb128 0xd
 1347 07f1 46000000 		.4byte	0x46
 1348 07f5 00080000 		.4byte	0x800
 1349 07f9 0E       		.uleb128 0xe
 1350 07fa 88000000 		.4byte	0x88
 1351 07fe 02       		.byte	0x2
 1352 07ff 00       		.byte	0
 1353 0800 1C       		.uleb128 0x1c
 1354 0801 D0       		.byte	0xd0
 1355 0802 09       		.byte	0x9
 1356 0803 8002     		.2byte	0x280
 1357 0805 07       		.byte	0x7
 1358 0806 44090000 		.4byte	0x944
 1359 080a 1A       		.uleb128 0x1a
 1360 080b C0050000 		.4byte	.LASF103
 1361 080f 09       		.byte	0x9
 1362 0810 8202     		.2byte	0x282
 1363 0812 18       		.byte	0x18
 1364 0813 88000000 		.4byte	0x88
 1365 0817 02       		.byte	0x2
 1366 0818 23       		.byte	0x23
 1367 0819 00       		.uleb128 0
 1368 081a 1A       		.uleb128 0x1a
 1369 081b 9B010000 		.4byte	.LASF104
 1370 081f 09       		.byte	0x9
 1371 0820 8302     		.2byte	0x283
 1372 0822 12       		.byte	0x12
 1373 0823 8D010000 		.4byte	0x18d
ARM GAS  /var/folders/_2/qbh2zpt918qcm2b_6mgyydnm0000gn/T//ccWw4yQb.s 			page 26


 1374 0827 02       		.byte	0x2
 1375 0828 23       		.byte	0x23
 1376 0829 04       		.uleb128 0x4
 1377 082a 1A       		.uleb128 0x1a
 1378 082b 89020000 		.4byte	.LASF105
 1379 082f 09       		.byte	0x9
 1380 0830 8402     		.2byte	0x284
 1381 0832 10       		.byte	0x10
 1382 0833 44090000 		.4byte	0x944
 1383 0837 02       		.byte	0x2
 1384 0838 23       		.byte	0x23
 1385 0839 08       		.uleb128 0x8
 1386 083a 1A       		.uleb128 0x1a
 1387 083b 0D060000 		.4byte	.LASF106
 1388 083f 09       		.byte	0x9
 1389 0840 8502     		.2byte	0x285
 1390 0842 17       		.byte	0x17
 1391 0843 27020000 		.4byte	0x227
 1392 0847 02       		.byte	0x2
 1393 0848 23       		.byte	0x23
 1394 0849 24       		.uleb128 0x24
 1395 084a 1A       		.uleb128 0x1a
 1396 084b 3E030000 		.4byte	.LASF107
 1397 084f 09       		.byte	0x9
 1398 0850 8602     		.2byte	0x286
 1399 0852 0F       		.byte	0xf
 1400 0853 81000000 		.4byte	0x81
 1401 0857 02       		.byte	0x2
 1402 0858 23       		.byte	0x23
 1403 0859 48       		.uleb128 0x48
 1404 085a 1A       		.uleb128 0x1a
 1405 085b 72020000 		.4byte	.LASF108
 1406 085f 09       		.byte	0x9
 1407 0860 8702     		.2byte	0x287
 1408 0862 2C       		.byte	0x2c
 1409 0863 7A000000 		.4byte	0x7a
 1410 0867 02       		.byte	0x2
 1411 0868 23       		.byte	0x23
 1412 0869 50       		.uleb128 0x50
 1413 086a 1A       		.uleb128 0x1a
 1414 086b 25060000 		.4byte	.LASF109
 1415 086f 09       		.byte	0x9
 1416 0870 8802     		.2byte	0x288
 1417 0872 1A       		.byte	0x1a
 1418 0873 B1070000 		.4byte	0x7b1
 1419 0877 02       		.byte	0x2
 1420 0878 23       		.byte	0x23
 1421 0879 58       		.uleb128 0x58
 1422 087a 1A       		.uleb128 0x1a
 1423 087b D6030000 		.4byte	.LASF110
 1424 087f 09       		.byte	0x9
 1425 0880 8902     		.2byte	0x289
 1426 0882 16       		.byte	0x16
 1427 0883 73010000 		.4byte	0x173
 1428 0887 02       		.byte	0x2
 1429 0888 23       		.byte	0x23
 1430 0889 68       		.uleb128 0x68
ARM GAS  /var/folders/_2/qbh2zpt918qcm2b_6mgyydnm0000gn/T//ccWw4yQb.s 			page 27


 1431 088a 1A       		.uleb128 0x1a
 1432 088b 2A060000 		.4byte	.LASF111
 1433 088f 09       		.byte	0x9
 1434 0890 8A02     		.2byte	0x28a
 1435 0892 16       		.byte	0x16
 1436 0893 73010000 		.4byte	0x173
 1437 0897 02       		.byte	0x2
 1438 0898 23       		.byte	0x23
 1439 0899 70       		.uleb128 0x70
 1440 089a 1A       		.uleb128 0x1a
 1441 089b 5E030000 		.4byte	.LASF112
 1442 089f 09       		.byte	0x9
 1443 08a0 8B02     		.2byte	0x28b
 1444 08a2 16       		.byte	0x16
 1445 08a3 73010000 		.4byte	0x173
 1446 08a7 02       		.byte	0x2
 1447 08a8 23       		.byte	0x23
 1448 08a9 78       		.uleb128 0x78
 1449 08aa 1A       		.uleb128 0x1a
 1450 08ab E0050000 		.4byte	.LASF113
 1451 08af 09       		.byte	0x9
 1452 08b0 8C02     		.2byte	0x28c
 1453 08b2 10       		.byte	0x10
 1454 08b3 54090000 		.4byte	0x954
 1455 08b7 03       		.byte	0x3
 1456 08b8 23       		.byte	0x23
 1457 08b9 8001     		.uleb128 0x80
 1458 08bb 1A       		.uleb128 0x1a
 1459 08bc 7D020000 		.4byte	.LASF114
 1460 08c0 09       		.byte	0x9
 1461 08c1 8D02     		.2byte	0x28d
 1462 08c3 10       		.byte	0x10
 1463 08c4 64090000 		.4byte	0x964
 1464 08c8 03       		.byte	0x3
 1465 08c9 23       		.byte	0x23
 1466 08ca 8801     		.uleb128 0x88
 1467 08cc 1A       		.uleb128 0x1a
 1468 08cd 97050000 		.4byte	.LASF115
 1469 08d1 09       		.byte	0x9
 1470 08d2 8E02     		.2byte	0x28e
 1471 08d4 0F       		.byte	0xf
 1472 08d5 81000000 		.4byte	0x81
 1473 08d9 03       		.byte	0x3
 1474 08da 23       		.byte	0x23
 1475 08db A001     		.uleb128 0xa0
 1476 08dd 1A       		.uleb128 0x1a
 1477 08de A8010000 		.4byte	.LASF116
 1478 08e2 09       		.byte	0x9
 1479 08e3 8F02     		.2byte	0x28f
 1480 08e5 16       		.byte	0x16
 1481 08e6 73010000 		.4byte	0x173
 1482 08ea 03       		.byte	0x3
 1483 08eb 23       		.byte	0x23
 1484 08ec A401     		.uleb128 0xa4
 1485 08ee 1A       		.uleb128 0x1a
 1486 08ef D9000000 		.4byte	.LASF117
 1487 08f3 09       		.byte	0x9
ARM GAS  /var/folders/_2/qbh2zpt918qcm2b_6mgyydnm0000gn/T//ccWw4yQb.s 			page 28


 1488 08f4 9002     		.2byte	0x290
 1489 08f6 16       		.byte	0x16
 1490 08f7 73010000 		.4byte	0x173
 1491 08fb 03       		.byte	0x3
 1492 08fc 23       		.byte	0x23
 1493 08fd AC01     		.uleb128 0xac
 1494 08ff 1A       		.uleb128 0x1a
 1495 0900 8A010000 		.4byte	.LASF118
 1496 0904 09       		.byte	0x9
 1497 0905 9102     		.2byte	0x291
 1498 0907 16       		.byte	0x16
 1499 0908 73010000 		.4byte	0x173
 1500 090c 03       		.byte	0x3
 1501 090d 23       		.byte	0x23
 1502 090e B401     		.uleb128 0xb4
 1503 0910 1A       		.uleb128 0x1a
 1504 0911 5E000000 		.4byte	.LASF119
 1505 0915 09       		.byte	0x9
 1506 0916 9202     		.2byte	0x292
 1507 0918 16       		.byte	0x16
 1508 0919 73010000 		.4byte	0x173
 1509 091d 03       		.byte	0x3
 1510 091e 23       		.byte	0x23
 1511 091f BC01     		.uleb128 0xbc
 1512 0921 1A       		.uleb128 0x1a
 1513 0922 6D000000 		.4byte	.LASF120
 1514 0926 09       		.byte	0x9
 1515 0927 9302     		.2byte	0x293
 1516 0929 16       		.byte	0x16
 1517 092a 73010000 		.4byte	0x173
 1518 092e 03       		.byte	0x3
 1519 092f 23       		.byte	0x23
 1520 0930 C401     		.uleb128 0xc4
 1521 0932 1A       		.uleb128 0x1a
 1522 0933 88030000 		.4byte	.LASF121
 1523 0937 09       		.byte	0x9
 1524 0938 9402     		.2byte	0x294
 1525 093a 08       		.byte	0x8
 1526 093b 81000000 		.4byte	0x81
 1527 093f 03       		.byte	0x3
 1528 0940 23       		.byte	0x23
 1529 0941 CC01     		.uleb128 0xcc
 1530 0943 00       		.byte	0
 1531 0944 0D       		.uleb128 0xd
 1532 0945 93010000 		.4byte	0x193
 1533 0949 54090000 		.4byte	0x954
 1534 094d 0E       		.uleb128 0xe
 1535 094e 88000000 		.4byte	0x88
 1536 0952 19       		.byte	0x19
 1537 0953 00       		.byte	0
 1538 0954 0D       		.uleb128 0xd
 1539 0955 93010000 		.4byte	0x193
 1540 0959 64090000 		.4byte	0x964
 1541 095d 0E       		.uleb128 0xe
 1542 095e 88000000 		.4byte	0x88
 1543 0962 07       		.byte	0x7
 1544 0963 00       		.byte	0
ARM GAS  /var/folders/_2/qbh2zpt918qcm2b_6mgyydnm0000gn/T//ccWw4yQb.s 			page 29


 1545 0964 0D       		.uleb128 0xd
 1546 0965 93010000 		.4byte	0x193
 1547 0969 74090000 		.4byte	0x974
 1548 096d 0E       		.uleb128 0xe
 1549 096e 88000000 		.4byte	0x88
 1550 0972 17       		.byte	0x17
 1551 0973 00       		.byte	0
 1552 0974 1C       		.uleb128 0x1c
 1553 0975 F0       		.byte	0xf0
 1554 0976 09       		.byte	0x9
 1555 0977 9902     		.2byte	0x299
 1556 0979 07       		.byte	0x7
 1557 097a 9F090000 		.4byte	0x99f
 1558 097e 1A       		.uleb128 0x1a
 1559 097f 11030000 		.4byte	.LASF122
 1560 0983 09       		.byte	0x9
 1561 0984 9C02     		.2byte	0x29c
 1562 0986 1B       		.byte	0x1b
 1563 0987 9F090000 		.4byte	0x99f
 1564 098b 02       		.byte	0x2
 1565 098c 23       		.byte	0x23
 1566 098d 00       		.uleb128 0
 1567 098e 1A       		.uleb128 0x1a
 1568 098f CE020000 		.4byte	.LASF123
 1569 0993 09       		.byte	0x9
 1570 0994 9D02     		.2byte	0x29d
 1571 0996 18       		.byte	0x18
 1572 0997 AF090000 		.4byte	0x9af
 1573 099b 02       		.byte	0x2
 1574 099c 23       		.byte	0x23
 1575 099d 78       		.uleb128 0x78
 1576 099e 00       		.byte	0
 1577 099f 0D       		.uleb128 0xd
 1578 09a0 B0030000 		.4byte	0x3b0
 1579 09a4 AF090000 		.4byte	0x9af
 1580 09a8 0E       		.uleb128 0xe
 1581 09a9 88000000 		.4byte	0x88
 1582 09ad 1D       		.byte	0x1d
 1583 09ae 00       		.byte	0
 1584 09af 0D       		.uleb128 0xd
 1585 09b0 88000000 		.4byte	0x88
 1586 09b4 BF090000 		.4byte	0x9bf
 1587 09b8 0E       		.uleb128 0xe
 1588 09b9 88000000 		.4byte	0x88
 1589 09bd 1D       		.byte	0x1d
 1590 09be 00       		.byte	0
 1591 09bf 1D       		.uleb128 0x1d
 1592 09c0 F0       		.byte	0xf0
 1593 09c1 09       		.byte	0x9
 1594 09c2 7E02     		.2byte	0x27e
 1595 09c4 03       		.byte	0x3
 1596 09c5 E4090000 		.4byte	0x9e4
 1597 09c9 1E       		.uleb128 0x1e
 1598 09ca 20040000 		.4byte	.LASF73
 1599 09ce 09       		.byte	0x9
 1600 09cf 9502     		.2byte	0x295
 1601 09d1 0B       		.byte	0xb
ARM GAS  /var/folders/_2/qbh2zpt918qcm2b_6mgyydnm0000gn/T//ccWw4yQb.s 			page 30


 1602 09d2 00080000 		.4byte	0x800
 1603 09d6 1E       		.uleb128 0x1e
 1604 09d7 FA050000 		.4byte	.LASF124
 1605 09db 09       		.byte	0x9
 1606 09dc 9E02     		.2byte	0x29e
 1607 09de 0B       		.byte	0xb
 1608 09df 74090000 		.4byte	0x974
 1609 09e3 00       		.byte	0
 1610 09e4 0D       		.uleb128 0xd
 1611 09e5 93010000 		.4byte	0x193
 1612 09e9 F4090000 		.4byte	0x9f4
 1613 09ed 0E       		.uleb128 0xe
 1614 09ee 88000000 		.4byte	0x88
 1615 09f2 18       		.byte	0x18
 1616 09f3 00       		.byte	0
 1617 09f4 09       		.uleb128 0x9
 1618 09f5 AE000000 		.4byte	.LASF126
 1619 09f9 01       		.byte	0x1
 1620 09fa 08       		.uleb128 0x8
 1621 09fb 04       		.byte	0x4
 1622 09fc F4090000 		.4byte	0x9f4
 1623 0a00 1F       		.uleb128 0x1f
 1624 0a01 01       		.byte	0x1
 1625 0a02 0C0A0000 		.4byte	0xa0c
 1626 0a06 18       		.uleb128 0x18
 1627 0a07 48050000 		.4byte	0x548
 1628 0a0b 00       		.byte	0
 1629 0a0c 08       		.uleb128 0x8
 1630 0a0d 04       		.byte	0x4
 1631 0a0e 000A0000 		.4byte	0xa00
 1632 0a12 08       		.uleb128 0x8
 1633 0a13 04       		.byte	0x4
 1634 0a14 11020000 		.4byte	0x211
 1635 0a18 1F       		.uleb128 0x1f
 1636 0a19 01       		.byte	0x1
 1637 0a1a 240A0000 		.4byte	0xa24
 1638 0a1e 18       		.uleb128 0x18
 1639 0a1f 81000000 		.4byte	0x81
 1640 0a23 00       		.byte	0
 1641 0a24 08       		.uleb128 0x8
 1642 0a25 04       		.byte	0x4
 1643 0a26 2A0A0000 		.4byte	0xa2a
 1644 0a2a 08       		.uleb128 0x8
 1645 0a2b 04       		.byte	0x4
 1646 0a2c 180A0000 		.4byte	0xa18
 1647 0a30 0D       		.uleb128 0xd
 1648 0a31 59070000 		.4byte	0x759
 1649 0a35 400A0000 		.4byte	0xa40
 1650 0a39 0E       		.uleb128 0xe
 1651 0a3a 88000000 		.4byte	0x88
 1652 0a3e 02       		.byte	0x2
 1653 0a3f 00       		.byte	0
 1654 0a40 06       		.uleb128 0x6
 1655 0a41 DF010000 		.4byte	.LASF127
 1656 0a45 09       		.byte	0x9
 1657 0a46 2E03     		.2byte	0x32e
 1658 0a48 17       		.byte	0x17
ARM GAS  /var/folders/_2/qbh2zpt918qcm2b_6mgyydnm0000gn/T//ccWw4yQb.s 			page 31


 1659 0a49 48050000 		.4byte	0x548
 1660 0a4d 01       		.byte	0x1
 1661 0a4e 01       		.byte	0x1
 1662 0a4f 06       		.uleb128 0x6
 1663 0a50 A4050000 		.4byte	.LASF128
 1664 0a54 09       		.byte	0x9
 1665 0a55 2F03     		.2byte	0x32f
 1666 0a57 1D       		.byte	0x1d
 1667 0a58 4E050000 		.4byte	0x54e
 1668 0a5c 01       		.byte	0x1
 1669 0a5d 01       		.byte	0x1
 1670 0a5e 07       		.uleb128 0x7
 1671 0a5f 29030000 		.4byte	.LASF129
 1672 0a63 0A       		.byte	0xa
 1673 0a64 64       		.byte	0x64
 1674 0a65 0E       		.byte	0xe
 1675 0a66 8D010000 		.4byte	0x18d
 1676 0a6a 01       		.byte	0x1
 1677 0a6b 01       		.byte	0x1
 1678 0a6c 20       		.uleb128 0x20
 1679 0a6d A6040000 		.4byte	.LASF141
 1680 0a71 07       		.byte	0x7
 1681 0a72 01       		.byte	0x1
 1682 0a73 38000000 		.4byte	0x38
 1683 0a77 0B       		.byte	0xb
 1684 0a78 05       		.byte	0x5
 1685 0a79 06       		.byte	0x6
 1686 0a7a 8B0A0000 		.4byte	0xa8b
 1687 0a7e 21       		.uleb128 0x21
 1688 0a7f 7E000000 		.4byte	.LASF130
 1689 0a83 00       		.byte	0
 1690 0a84 21       		.uleb128 0x21
 1691 0a85 98040000 		.4byte	.LASF131
 1692 0a89 01       		.byte	0x1
 1693 0a8a 00       		.byte	0
 1694 0a8b 0F       		.uleb128 0xf
 1695 0a8c 10       		.byte	0x10
 1696 0a8d 0B       		.byte	0xb
 1697 0a8e 0A       		.byte	0xa
 1698 0a8f 09       		.byte	0x9
 1699 0a90 D10A0000 		.4byte	0xad1
 1700 0a94 10       		.uleb128 0x10
 1701 0a95 63010000 		.4byte	.LASF132
 1702 0a99 0B       		.byte	0xb
 1703 0a9a 0B       		.byte	0xb
 1704 0a9b 0B       		.byte	0xb
 1705 0a9c 8F000000 		.4byte	0x8f
 1706 0aa0 02       		.byte	0x2
 1707 0aa1 23       		.byte	0x23
 1708 0aa2 00       		.uleb128 0
 1709 0aa3 10       		.uleb128 0x10
 1710 0aa4 11020000 		.4byte	.LASF133
 1711 0aa8 0B       		.byte	0xb
 1712 0aa9 0C       		.byte	0xc
 1713 0aaa 0A       		.byte	0xa
 1714 0aab DD0A0000 		.4byte	0xadd
 1715 0aaf 02       		.byte	0x2
ARM GAS  /var/folders/_2/qbh2zpt918qcm2b_6mgyydnm0000gn/T//ccWw4yQb.s 			page 32


 1716 0ab0 23       		.byte	0x23
 1717 0ab1 04       		.uleb128 0x4
 1718 0ab2 10       		.uleb128 0x10
 1719 0ab3 3B000000 		.4byte	.LASF134
 1720 0ab7 0B       		.byte	0xb
 1721 0ab8 0D       		.byte	0xd
 1722 0ab9 0C       		.byte	0xc
 1723 0aba AC000000 		.4byte	0xac
 1724 0abe 02       		.byte	0x2
 1725 0abf 23       		.byte	0x23
 1726 0ac0 08       		.uleb128 0x8
 1727 0ac1 10       		.uleb128 0x10
 1728 0ac2 01030000 		.4byte	.LASF135
 1729 0ac6 0B       		.byte	0xb
 1730 0ac7 0F       		.byte	0xf
 1731 0ac8 0C       		.byte	0xc
 1732 0ac9 AC000000 		.4byte	0xac
 1733 0acd 02       		.byte	0x2
 1734 0ace 23       		.byte	0x23
 1735 0acf 0C       		.uleb128 0xc
 1736 0ad0 00       		.byte	0
 1737 0ad1 1F       		.uleb128 0x1f
 1738 0ad2 01       		.byte	0x1
 1739 0ad3 DD0A0000 		.4byte	0xadd
 1740 0ad7 18       		.uleb128 0x18
 1741 0ad8 AC000000 		.4byte	0xac
 1742 0adc 00       		.byte	0
 1743 0add 08       		.uleb128 0x8
 1744 0ade 04       		.byte	0x4
 1745 0adf D10A0000 		.4byte	0xad1
 1746 0ae3 03       		.uleb128 0x3
 1747 0ae4 BB040000 		.4byte	.LASF136
 1748 0ae8 0B       		.byte	0xb
 1749 0ae9 10       		.byte	0x10
 1750 0aea 03       		.byte	0x3
 1751 0aeb 8B0A0000 		.4byte	0xa8b
 1752 0aef 0D       		.uleb128 0xd
 1753 0af0 E30A0000 		.4byte	0xae3
 1754 0af4 FF0A0000 		.4byte	0xaff
 1755 0af8 0E       		.uleb128 0xe
 1756 0af9 88000000 		.4byte	0x88
 1757 0afd 01       		.byte	0x1
 1758 0afe 00       		.byte	0
 1759 0aff 22       		.uleb128 0x22
 1760 0b00 C2040000 		.4byte	.LASF137
 1761 0b04 01       		.byte	0x1
 1762 0b05 04       		.byte	0x4
 1763 0b06 08       		.byte	0x8
 1764 0b07 EF0A0000 		.4byte	0xaef
 1765 0b0b 01       		.byte	0x1
 1766 0b0c 05       		.byte	0x5
 1767 0b0d 03       		.byte	0x3
 1768 0b0e 00000000 		.4byte	taskList
 1769 0b12 23       		.uleb128 0x23
 1770 0b13 01       		.byte	0x1
 1771 0b14 B9000000 		.4byte	.LASF142
 1772 0b18 01       		.byte	0x1
ARM GAS  /var/folders/_2/qbh2zpt918qcm2b_6mgyydnm0000gn/T//ccWw4yQb.s 			page 33


 1773 0b19 09       		.byte	0x9
 1774 0b1a 06       		.byte	0x6
 1775 0b1b 01       		.byte	0x1
 1776 0b1c 00000000 		.4byte	.LFB126
 1777 0b20 48000000 		.4byte	.LFE126
 1778 0b24 00000000 		.4byte	.LLST0
 1779 0b28 01       		.byte	0x1
 1780 0b29 24       		.uleb128 0x24
 1781 0b2a B6010000 		.4byte	.LASF143
 1782 0b2e 01       		.byte	0x1
 1783 0b2f 09       		.byte	0x9
 1784 0b30 22       		.byte	0x22
 1785 0b31 AC000000 		.4byte	0xac
 1786 0b35 2C000000 		.4byte	.LLST1
 1787 0b39 20000000 		.4byte	.LVUS1
 1788 0b3d 25       		.uleb128 0x25
 1789 0b3e 27040000 		.4byte	.LASF144
 1790 0b42 01       		.byte	0x1
 1791 0b43 0A       		.byte	0xa
 1792 0b44 0E       		.byte	0xe
 1793 0b45 81000000 		.4byte	0x81
 1794 0b49 05       		.byte	0x5
 1795 0b4a 03       		.byte	0x3
 1796 0b4b 00000000 		.4byte	subTask.8058
 1797 0b4f 26       		.uleb128 0x26
 1798 0b50 22000000 		.4byte	.LVL3
 1799 0b54 600B0000 		.4byte	0xb60
 1800 0b58 27       		.uleb128 0x27
 1801 0b59 01       		.byte	0x1
 1802 0b5a 50       		.byte	0x50
 1803 0b5b 03       		.byte	0x3
 1804 0b5c F3       		.byte	0xf3
 1805 0b5d 01       		.uleb128 0x1
 1806 0b5e 50       		.byte	0x50
 1807 0b5f 00       		.byte	0
 1808 0b60 28       		.uleb128 0x28
 1809 0b61 3A000000 		.4byte	.LVL5
 1810 0b65 27       		.uleb128 0x27
 1811 0b66 01       		.byte	0x1
 1812 0b67 50       		.byte	0x50
 1813 0b68 03       		.byte	0x3
 1814 0b69 F3       		.byte	0xf3
 1815 0b6a 01       		.uleb128 0x1
 1816 0b6b 50       		.byte	0x50
 1817 0b6c 00       		.byte	0
 1818 0b6d 00       		.byte	0
 1819 0b6e 00       		.byte	0
 1820              		.section	.debug_abbrev,"",%progbits
 1821              	.Ldebug_abbrev0:
 1822 0000 01       		.uleb128 0x1
 1823 0001 11       		.uleb128 0x11
 1824 0002 01       		.byte	0x1
 1825 0003 25       		.uleb128 0x25
 1826 0004 0E       		.uleb128 0xe
 1827 0005 13       		.uleb128 0x13
 1828 0006 0B       		.uleb128 0xb
 1829 0007 03       		.uleb128 0x3
ARM GAS  /var/folders/_2/qbh2zpt918qcm2b_6mgyydnm0000gn/T//ccWw4yQb.s 			page 34


 1830 0008 0E       		.uleb128 0xe
 1831 0009 1B       		.uleb128 0x1b
 1832 000a 0E       		.uleb128 0xe
 1833 000b 11       		.uleb128 0x11
 1834 000c 01       		.uleb128 0x1
 1835 000d 12       		.uleb128 0x12
 1836 000e 01       		.uleb128 0x1
 1837 000f 10       		.uleb128 0x10
 1838 0010 06       		.uleb128 0x6
 1839 0011 00       		.byte	0
 1840 0012 00       		.byte	0
 1841 0013 02       		.uleb128 0x2
 1842 0014 24       		.uleb128 0x24
 1843 0015 00       		.byte	0
 1844 0016 0B       		.uleb128 0xb
 1845 0017 0B       		.uleb128 0xb
 1846 0018 3E       		.uleb128 0x3e
 1847 0019 0B       		.uleb128 0xb
 1848 001a 03       		.uleb128 0x3
 1849 001b 0E       		.uleb128 0xe
 1850 001c 00       		.byte	0
 1851 001d 00       		.byte	0
 1852 001e 03       		.uleb128 0x3
 1853 001f 16       		.uleb128 0x16
 1854 0020 00       		.byte	0
 1855 0021 03       		.uleb128 0x3
 1856 0022 0E       		.uleb128 0xe
 1857 0023 3A       		.uleb128 0x3a
 1858 0024 0B       		.uleb128 0xb
 1859 0025 3B       		.uleb128 0x3b
 1860 0026 0B       		.uleb128 0xb
 1861 0027 39       		.uleb128 0x39
 1862 0028 0B       		.uleb128 0xb
 1863 0029 49       		.uleb128 0x49
 1864 002a 13       		.uleb128 0x13
 1865 002b 00       		.byte	0
 1866 002c 00       		.byte	0
 1867 002d 04       		.uleb128 0x4
 1868 002e 24       		.uleb128 0x24
 1869 002f 00       		.byte	0
 1870 0030 0B       		.uleb128 0xb
 1871 0031 0B       		.uleb128 0xb
 1872 0032 3E       		.uleb128 0x3e
 1873 0033 0B       		.uleb128 0xb
 1874 0034 03       		.uleb128 0x3
 1875 0035 08       		.uleb128 0x8
 1876 0036 00       		.byte	0
 1877 0037 00       		.byte	0
 1878 0038 05       		.uleb128 0x5
 1879 0039 35       		.uleb128 0x35
 1880 003a 00       		.byte	0
 1881 003b 49       		.uleb128 0x49
 1882 003c 13       		.uleb128 0x13
 1883 003d 00       		.byte	0
 1884 003e 00       		.byte	0
 1885 003f 06       		.uleb128 0x6
 1886 0040 34       		.uleb128 0x34
ARM GAS  /var/folders/_2/qbh2zpt918qcm2b_6mgyydnm0000gn/T//ccWw4yQb.s 			page 35


 1887 0041 00       		.byte	0
 1888 0042 03       		.uleb128 0x3
 1889 0043 0E       		.uleb128 0xe
 1890 0044 3A       		.uleb128 0x3a
 1891 0045 0B       		.uleb128 0xb
 1892 0046 3B       		.uleb128 0x3b
 1893 0047 05       		.uleb128 0x5
 1894 0048 39       		.uleb128 0x39
 1895 0049 0B       		.uleb128 0xb
 1896 004a 49       		.uleb128 0x49
 1897 004b 13       		.uleb128 0x13
 1898 004c 3F       		.uleb128 0x3f
 1899 004d 0C       		.uleb128 0xc
 1900 004e 3C       		.uleb128 0x3c
 1901 004f 0C       		.uleb128 0xc
 1902 0050 00       		.byte	0
 1903 0051 00       		.byte	0
 1904 0052 07       		.uleb128 0x7
 1905 0053 34       		.uleb128 0x34
 1906 0054 00       		.byte	0
 1907 0055 03       		.uleb128 0x3
 1908 0056 0E       		.uleb128 0xe
 1909 0057 3A       		.uleb128 0x3a
 1910 0058 0B       		.uleb128 0xb
 1911 0059 3B       		.uleb128 0x3b
 1912 005a 0B       		.uleb128 0xb
 1913 005b 39       		.uleb128 0x39
 1914 005c 0B       		.uleb128 0xb
 1915 005d 49       		.uleb128 0x49
 1916 005e 13       		.uleb128 0x13
 1917 005f 3F       		.uleb128 0x3f
 1918 0060 0C       		.uleb128 0xc
 1919 0061 3C       		.uleb128 0x3c
 1920 0062 0C       		.uleb128 0xc
 1921 0063 00       		.byte	0
 1922 0064 00       		.byte	0
 1923 0065 08       		.uleb128 0x8
 1924 0066 0F       		.uleb128 0xf
 1925 0067 00       		.byte	0
 1926 0068 0B       		.uleb128 0xb
 1927 0069 0B       		.uleb128 0xb
 1928 006a 49       		.uleb128 0x49
 1929 006b 13       		.uleb128 0x13
 1930 006c 00       		.byte	0
 1931 006d 00       		.byte	0
 1932 006e 09       		.uleb128 0x9
 1933 006f 13       		.uleb128 0x13
 1934 0070 00       		.byte	0
 1935 0071 03       		.uleb128 0x3
 1936 0072 0E       		.uleb128 0xe
 1937 0073 3C       		.uleb128 0x3c
 1938 0074 0C       		.uleb128 0xc
 1939 0075 00       		.byte	0
 1940 0076 00       		.byte	0
 1941 0077 0A       		.uleb128 0xa
 1942 0078 16       		.uleb128 0x16
 1943 0079 00       		.byte	0
ARM GAS  /var/folders/_2/qbh2zpt918qcm2b_6mgyydnm0000gn/T//ccWw4yQb.s 			page 36


 1944 007a 03       		.uleb128 0x3
 1945 007b 0E       		.uleb128 0xe
 1946 007c 3A       		.uleb128 0x3a
 1947 007d 0B       		.uleb128 0xb
 1948 007e 3B       		.uleb128 0x3b
 1949 007f 05       		.uleb128 0x5
 1950 0080 39       		.uleb128 0x39
 1951 0081 0B       		.uleb128 0xb
 1952 0082 49       		.uleb128 0x49
 1953 0083 13       		.uleb128 0x13
 1954 0084 00       		.byte	0
 1955 0085 00       		.byte	0
 1956 0086 0B       		.uleb128 0xb
 1957 0087 17       		.uleb128 0x17
 1958 0088 01       		.byte	0x1
 1959 0089 0B       		.uleb128 0xb
 1960 008a 0B       		.uleb128 0xb
 1961 008b 3A       		.uleb128 0x3a
 1962 008c 0B       		.uleb128 0xb
 1963 008d 3B       		.uleb128 0x3b
 1964 008e 0B       		.uleb128 0xb
 1965 008f 39       		.uleb128 0x39
 1966 0090 0B       		.uleb128 0xb
 1967 0091 01       		.uleb128 0x1
 1968 0092 13       		.uleb128 0x13
 1969 0093 00       		.byte	0
 1970 0094 00       		.byte	0
 1971 0095 0C       		.uleb128 0xc
 1972 0096 0D       		.uleb128 0xd
 1973 0097 00       		.byte	0
 1974 0098 03       		.uleb128 0x3
 1975 0099 0E       		.uleb128 0xe
 1976 009a 3A       		.uleb128 0x3a
 1977 009b 0B       		.uleb128 0xb
 1978 009c 3B       		.uleb128 0x3b
 1979 009d 0B       		.uleb128 0xb
 1980 009e 39       		.uleb128 0x39
 1981 009f 0B       		.uleb128 0xb
 1982 00a0 49       		.uleb128 0x49
 1983 00a1 13       		.uleb128 0x13
 1984 00a2 00       		.byte	0
 1985 00a3 00       		.byte	0
 1986 00a4 0D       		.uleb128 0xd
 1987 00a5 01       		.uleb128 0x1
 1988 00a6 01       		.byte	0x1
 1989 00a7 49       		.uleb128 0x49
 1990 00a8 13       		.uleb128 0x13
 1991 00a9 01       		.uleb128 0x1
 1992 00aa 13       		.uleb128 0x13
 1993 00ab 00       		.byte	0
 1994 00ac 00       		.byte	0
 1995 00ad 0E       		.uleb128 0xe
 1996 00ae 21       		.uleb128 0x21
 1997 00af 00       		.byte	0
 1998 00b0 49       		.uleb128 0x49
 1999 00b1 13       		.uleb128 0x13
 2000 00b2 2F       		.uleb128 0x2f
ARM GAS  /var/folders/_2/qbh2zpt918qcm2b_6mgyydnm0000gn/T//ccWw4yQb.s 			page 37


 2001 00b3 0B       		.uleb128 0xb
 2002 00b4 00       		.byte	0
 2003 00b5 00       		.byte	0
 2004 00b6 0F       		.uleb128 0xf
 2005 00b7 13       		.uleb128 0x13
 2006 00b8 01       		.byte	0x1
 2007 00b9 0B       		.uleb128 0xb
 2008 00ba 0B       		.uleb128 0xb
 2009 00bb 3A       		.uleb128 0x3a
 2010 00bc 0B       		.uleb128 0xb
 2011 00bd 3B       		.uleb128 0x3b
 2012 00be 0B       		.uleb128 0xb
 2013 00bf 39       		.uleb128 0x39
 2014 00c0 0B       		.uleb128 0xb
 2015 00c1 01       		.uleb128 0x1
 2016 00c2 13       		.uleb128 0x13
 2017 00c3 00       		.byte	0
 2018 00c4 00       		.byte	0
 2019 00c5 10       		.uleb128 0x10
 2020 00c6 0D       		.uleb128 0xd
 2021 00c7 00       		.byte	0
 2022 00c8 03       		.uleb128 0x3
 2023 00c9 0E       		.uleb128 0xe
 2024 00ca 3A       		.uleb128 0x3a
 2025 00cb 0B       		.uleb128 0xb
 2026 00cc 3B       		.uleb128 0x3b
 2027 00cd 0B       		.uleb128 0xb
 2028 00ce 39       		.uleb128 0x39
 2029 00cf 0B       		.uleb128 0xb
 2030 00d0 49       		.uleb128 0x49
 2031 00d1 13       		.uleb128 0x13
 2032 00d2 38       		.uleb128 0x38
 2033 00d3 0A       		.uleb128 0xa
 2034 00d4 00       		.byte	0
 2035 00d5 00       		.byte	0
 2036 00d6 11       		.uleb128 0x11
 2037 00d7 0F       		.uleb128 0xf
 2038 00d8 00       		.byte	0
 2039 00d9 0B       		.uleb128 0xb
 2040 00da 0B       		.uleb128 0xb
 2041 00db 00       		.byte	0
 2042 00dc 00       		.byte	0
 2043 00dd 12       		.uleb128 0x12
 2044 00de 26       		.uleb128 0x26
 2045 00df 00       		.byte	0
 2046 00e0 49       		.uleb128 0x49
 2047 00e1 13       		.uleb128 0x13
 2048 00e2 00       		.byte	0
 2049 00e3 00       		.byte	0
 2050 00e4 13       		.uleb128 0x13
 2051 00e5 13       		.uleb128 0x13
 2052 00e6 01       		.byte	0x1
 2053 00e7 03       		.uleb128 0x3
 2054 00e8 0E       		.uleb128 0xe
 2055 00e9 0B       		.uleb128 0xb
 2056 00ea 0B       		.uleb128 0xb
 2057 00eb 3A       		.uleb128 0x3a
ARM GAS  /var/folders/_2/qbh2zpt918qcm2b_6mgyydnm0000gn/T//ccWw4yQb.s 			page 38


 2058 00ec 0B       		.uleb128 0xb
 2059 00ed 3B       		.uleb128 0x3b
 2060 00ee 0B       		.uleb128 0xb
 2061 00ef 39       		.uleb128 0x39
 2062 00f0 0B       		.uleb128 0xb
 2063 00f1 01       		.uleb128 0x1
 2064 00f2 13       		.uleb128 0x13
 2065 00f3 00       		.byte	0
 2066 00f4 00       		.byte	0
 2067 00f5 14       		.uleb128 0x14
 2068 00f6 0D       		.uleb128 0xd
 2069 00f7 00       		.byte	0
 2070 00f8 03       		.uleb128 0x3
 2071 00f9 08       		.uleb128 0x8
 2072 00fa 3A       		.uleb128 0x3a
 2073 00fb 0B       		.uleb128 0xb
 2074 00fc 3B       		.uleb128 0x3b
 2075 00fd 0B       		.uleb128 0xb
 2076 00fe 39       		.uleb128 0x39
 2077 00ff 0B       		.uleb128 0xb
 2078 0100 49       		.uleb128 0x49
 2079 0101 13       		.uleb128 0x13
 2080 0102 38       		.uleb128 0x38
 2081 0103 0A       		.uleb128 0xa
 2082 0104 00       		.byte	0
 2083 0105 00       		.byte	0
 2084 0106 15       		.uleb128 0x15
 2085 0107 13       		.uleb128 0x13
 2086 0108 01       		.byte	0x1
 2087 0109 03       		.uleb128 0x3
 2088 010a 0E       		.uleb128 0xe
 2089 010b 0B       		.uleb128 0xb
 2090 010c 05       		.uleb128 0x5
 2091 010d 3A       		.uleb128 0x3a
 2092 010e 0B       		.uleb128 0xb
 2093 010f 3B       		.uleb128 0x3b
 2094 0110 0B       		.uleb128 0xb
 2095 0111 39       		.uleb128 0x39
 2096 0112 0B       		.uleb128 0xb
 2097 0113 01       		.uleb128 0x1
 2098 0114 13       		.uleb128 0x13
 2099 0115 00       		.byte	0
 2100 0116 00       		.byte	0
 2101 0117 16       		.uleb128 0x16
 2102 0118 15       		.uleb128 0x15
 2103 0119 00       		.byte	0
 2104 011a 27       		.uleb128 0x27
 2105 011b 0C       		.uleb128 0xc
 2106 011c 00       		.byte	0
 2107 011d 00       		.byte	0
 2108 011e 17       		.uleb128 0x17
 2109 011f 15       		.uleb128 0x15
 2110 0120 01       		.byte	0x1
 2111 0121 27       		.uleb128 0x27
 2112 0122 0C       		.uleb128 0xc
 2113 0123 49       		.uleb128 0x49
 2114 0124 13       		.uleb128 0x13
ARM GAS  /var/folders/_2/qbh2zpt918qcm2b_6mgyydnm0000gn/T//ccWw4yQb.s 			page 39


 2115 0125 01       		.uleb128 0x1
 2116 0126 13       		.uleb128 0x13
 2117 0127 00       		.byte	0
 2118 0128 00       		.byte	0
 2119 0129 18       		.uleb128 0x18
 2120 012a 05       		.uleb128 0x5
 2121 012b 00       		.byte	0
 2122 012c 49       		.uleb128 0x49
 2123 012d 13       		.uleb128 0x13
 2124 012e 00       		.byte	0
 2125 012f 00       		.byte	0
 2126 0130 19       		.uleb128 0x19
 2127 0131 13       		.uleb128 0x13
 2128 0132 01       		.byte	0x1
 2129 0133 03       		.uleb128 0x3
 2130 0134 0E       		.uleb128 0xe
 2131 0135 0B       		.uleb128 0xb
 2132 0136 05       		.uleb128 0x5
 2133 0137 3A       		.uleb128 0x3a
 2134 0138 0B       		.uleb128 0xb
 2135 0139 3B       		.uleb128 0x3b
 2136 013a 05       		.uleb128 0x5
 2137 013b 39       		.uleb128 0x39
 2138 013c 0B       		.uleb128 0xb
 2139 013d 01       		.uleb128 0x1
 2140 013e 13       		.uleb128 0x13
 2141 013f 00       		.byte	0
 2142 0140 00       		.byte	0
 2143 0141 1A       		.uleb128 0x1a
 2144 0142 0D       		.uleb128 0xd
 2145 0143 00       		.byte	0
 2146 0144 03       		.uleb128 0x3
 2147 0145 0E       		.uleb128 0xe
 2148 0146 3A       		.uleb128 0x3a
 2149 0147 0B       		.uleb128 0xb
 2150 0148 3B       		.uleb128 0x3b
 2151 0149 05       		.uleb128 0x5
 2152 014a 39       		.uleb128 0x39
 2153 014b 0B       		.uleb128 0xb
 2154 014c 49       		.uleb128 0x49
 2155 014d 13       		.uleb128 0x13
 2156 014e 38       		.uleb128 0x38
 2157 014f 0A       		.uleb128 0xa
 2158 0150 00       		.byte	0
 2159 0151 00       		.byte	0
 2160 0152 1B       		.uleb128 0x1b
 2161 0153 13       		.uleb128 0x13
 2162 0154 01       		.byte	0x1
 2163 0155 03       		.uleb128 0x3
 2164 0156 0E       		.uleb128 0xe
 2165 0157 0B       		.uleb128 0xb
 2166 0158 0B       		.uleb128 0xb
 2167 0159 3A       		.uleb128 0x3a
 2168 015a 0B       		.uleb128 0xb
 2169 015b 3B       		.uleb128 0x3b
 2170 015c 05       		.uleb128 0x5
 2171 015d 39       		.uleb128 0x39
ARM GAS  /var/folders/_2/qbh2zpt918qcm2b_6mgyydnm0000gn/T//ccWw4yQb.s 			page 40


 2172 015e 0B       		.uleb128 0xb
 2173 015f 01       		.uleb128 0x1
 2174 0160 13       		.uleb128 0x13
 2175 0161 00       		.byte	0
 2176 0162 00       		.byte	0
 2177 0163 1C       		.uleb128 0x1c
 2178 0164 13       		.uleb128 0x13
 2179 0165 01       		.byte	0x1
 2180 0166 0B       		.uleb128 0xb
 2181 0167 0B       		.uleb128 0xb
 2182 0168 3A       		.uleb128 0x3a
 2183 0169 0B       		.uleb128 0xb
 2184 016a 3B       		.uleb128 0x3b
 2185 016b 05       		.uleb128 0x5
 2186 016c 39       		.uleb128 0x39
 2187 016d 0B       		.uleb128 0xb
 2188 016e 01       		.uleb128 0x1
 2189 016f 13       		.uleb128 0x13
 2190 0170 00       		.byte	0
 2191 0171 00       		.byte	0
 2192 0172 1D       		.uleb128 0x1d
 2193 0173 17       		.uleb128 0x17
 2194 0174 01       		.byte	0x1
 2195 0175 0B       		.uleb128 0xb
 2196 0176 0B       		.uleb128 0xb
 2197 0177 3A       		.uleb128 0x3a
 2198 0178 0B       		.uleb128 0xb
 2199 0179 3B       		.uleb128 0x3b
 2200 017a 05       		.uleb128 0x5
 2201 017b 39       		.uleb128 0x39
 2202 017c 0B       		.uleb128 0xb
 2203 017d 01       		.uleb128 0x1
 2204 017e 13       		.uleb128 0x13
 2205 017f 00       		.byte	0
 2206 0180 00       		.byte	0
 2207 0181 1E       		.uleb128 0x1e
 2208 0182 0D       		.uleb128 0xd
 2209 0183 00       		.byte	0
 2210 0184 03       		.uleb128 0x3
 2211 0185 0E       		.uleb128 0xe
 2212 0186 3A       		.uleb128 0x3a
 2213 0187 0B       		.uleb128 0xb
 2214 0188 3B       		.uleb128 0x3b
 2215 0189 05       		.uleb128 0x5
 2216 018a 39       		.uleb128 0x39
 2217 018b 0B       		.uleb128 0xb
 2218 018c 49       		.uleb128 0x49
 2219 018d 13       		.uleb128 0x13
 2220 018e 00       		.byte	0
 2221 018f 00       		.byte	0
 2222 0190 1F       		.uleb128 0x1f
 2223 0191 15       		.uleb128 0x15
 2224 0192 01       		.byte	0x1
 2225 0193 27       		.uleb128 0x27
 2226 0194 0C       		.uleb128 0xc
 2227 0195 01       		.uleb128 0x1
 2228 0196 13       		.uleb128 0x13
ARM GAS  /var/folders/_2/qbh2zpt918qcm2b_6mgyydnm0000gn/T//ccWw4yQb.s 			page 41


 2229 0197 00       		.byte	0
 2230 0198 00       		.byte	0
 2231 0199 20       		.uleb128 0x20
 2232 019a 04       		.uleb128 0x4
 2233 019b 01       		.byte	0x1
 2234 019c 03       		.uleb128 0x3
 2235 019d 0E       		.uleb128 0xe
 2236 019e 3E       		.uleb128 0x3e
 2237 019f 0B       		.uleb128 0xb
 2238 01a0 0B       		.uleb128 0xb
 2239 01a1 0B       		.uleb128 0xb
 2240 01a2 49       		.uleb128 0x49
 2241 01a3 13       		.uleb128 0x13
 2242 01a4 3A       		.uleb128 0x3a
 2243 01a5 0B       		.uleb128 0xb
 2244 01a6 3B       		.uleb128 0x3b
 2245 01a7 0B       		.uleb128 0xb
 2246 01a8 39       		.uleb128 0x39
 2247 01a9 0B       		.uleb128 0xb
 2248 01aa 01       		.uleb128 0x1
 2249 01ab 13       		.uleb128 0x13
 2250 01ac 00       		.byte	0
 2251 01ad 00       		.byte	0
 2252 01ae 21       		.uleb128 0x21
 2253 01af 28       		.uleb128 0x28
 2254 01b0 00       		.byte	0
 2255 01b1 03       		.uleb128 0x3
 2256 01b2 0E       		.uleb128 0xe
 2257 01b3 1C       		.uleb128 0x1c
 2258 01b4 0B       		.uleb128 0xb
 2259 01b5 00       		.byte	0
 2260 01b6 00       		.byte	0
 2261 01b7 22       		.uleb128 0x22
 2262 01b8 34       		.uleb128 0x34
 2263 01b9 00       		.byte	0
 2264 01ba 03       		.uleb128 0x3
 2265 01bb 0E       		.uleb128 0xe
 2266 01bc 3A       		.uleb128 0x3a
 2267 01bd 0B       		.uleb128 0xb
 2268 01be 3B       		.uleb128 0x3b
 2269 01bf 0B       		.uleb128 0xb
 2270 01c0 39       		.uleb128 0x39
 2271 01c1 0B       		.uleb128 0xb
 2272 01c2 49       		.uleb128 0x49
 2273 01c3 13       		.uleb128 0x13
 2274 01c4 3F       		.uleb128 0x3f
 2275 01c5 0C       		.uleb128 0xc
 2276 01c6 02       		.uleb128 0x2
 2277 01c7 0A       		.uleb128 0xa
 2278 01c8 00       		.byte	0
 2279 01c9 00       		.byte	0
 2280 01ca 23       		.uleb128 0x23
 2281 01cb 2E       		.uleb128 0x2e
 2282 01cc 01       		.byte	0x1
 2283 01cd 3F       		.uleb128 0x3f
 2284 01ce 0C       		.uleb128 0xc
 2285 01cf 03       		.uleb128 0x3
ARM GAS  /var/folders/_2/qbh2zpt918qcm2b_6mgyydnm0000gn/T//ccWw4yQb.s 			page 42


 2286 01d0 0E       		.uleb128 0xe
 2287 01d1 3A       		.uleb128 0x3a
 2288 01d2 0B       		.uleb128 0xb
 2289 01d3 3B       		.uleb128 0x3b
 2290 01d4 0B       		.uleb128 0xb
 2291 01d5 39       		.uleb128 0x39
 2292 01d6 0B       		.uleb128 0xb
 2293 01d7 27       		.uleb128 0x27
 2294 01d8 0C       		.uleb128 0xc
 2295 01d9 11       		.uleb128 0x11
 2296 01da 01       		.uleb128 0x1
 2297 01db 12       		.uleb128 0x12
 2298 01dc 01       		.uleb128 0x1
 2299 01dd 40       		.uleb128 0x40
 2300 01de 06       		.uleb128 0x6
 2301 01df 9742     		.uleb128 0x2117
 2302 01e1 0C       		.uleb128 0xc
 2303 01e2 00       		.byte	0
 2304 01e3 00       		.byte	0
 2305 01e4 24       		.uleb128 0x24
 2306 01e5 05       		.uleb128 0x5
 2307 01e6 00       		.byte	0
 2308 01e7 03       		.uleb128 0x3
 2309 01e8 0E       		.uleb128 0xe
 2310 01e9 3A       		.uleb128 0x3a
 2311 01ea 0B       		.uleb128 0xb
 2312 01eb 3B       		.uleb128 0x3b
 2313 01ec 0B       		.uleb128 0xb
 2314 01ed 39       		.uleb128 0x39
 2315 01ee 0B       		.uleb128 0xb
 2316 01ef 49       		.uleb128 0x49
 2317 01f0 13       		.uleb128 0x13
 2318 01f1 02       		.uleb128 0x2
 2319 01f2 06       		.uleb128 0x6
 2320 01f3 B742     		.uleb128 0x2137
 2321 01f5 06       		.uleb128 0x6
 2322 01f6 00       		.byte	0
 2323 01f7 00       		.byte	0
 2324 01f8 25       		.uleb128 0x25
 2325 01f9 34       		.uleb128 0x34
 2326 01fa 00       		.byte	0
 2327 01fb 03       		.uleb128 0x3
 2328 01fc 0E       		.uleb128 0xe
 2329 01fd 3A       		.uleb128 0x3a
 2330 01fe 0B       		.uleb128 0xb
 2331 01ff 3B       		.uleb128 0x3b
 2332 0200 0B       		.uleb128 0xb
 2333 0201 39       		.uleb128 0x39
 2334 0202 0B       		.uleb128 0xb
 2335 0203 49       		.uleb128 0x49
 2336 0204 13       		.uleb128 0x13
 2337 0205 02       		.uleb128 0x2
 2338 0206 0A       		.uleb128 0xa
 2339 0207 00       		.byte	0
 2340 0208 00       		.byte	0
 2341 0209 26       		.uleb128 0x26
 2342 020a 898201   		.uleb128 0x4109
ARM GAS  /var/folders/_2/qbh2zpt918qcm2b_6mgyydnm0000gn/T//ccWw4yQb.s 			page 43


 2343 020d 01       		.byte	0x1
 2344 020e 11       		.uleb128 0x11
 2345 020f 01       		.uleb128 0x1
 2346 0210 01       		.uleb128 0x1
 2347 0211 13       		.uleb128 0x13
 2348 0212 00       		.byte	0
 2349 0213 00       		.byte	0
 2350 0214 27       		.uleb128 0x27
 2351 0215 8A8201   		.uleb128 0x410a
 2352 0218 00       		.byte	0
 2353 0219 02       		.uleb128 0x2
 2354 021a 0A       		.uleb128 0xa
 2355 021b 9142     		.uleb128 0x2111
 2356 021d 0A       		.uleb128 0xa
 2357 021e 00       		.byte	0
 2358 021f 00       		.byte	0
 2359 0220 28       		.uleb128 0x28
 2360 0221 898201   		.uleb128 0x4109
 2361 0224 01       		.byte	0x1
 2362 0225 11       		.uleb128 0x11
 2363 0226 01       		.uleb128 0x1
 2364 0227 00       		.byte	0
 2365 0228 00       		.byte	0
 2366 0229 00       		.byte	0
 2367              		.section	.debug_loc,"",%progbits
 2368              	.Ldebug_loc0:
 2369              	.LLST0:
 2370 0000 00000000 		.4byte	.LFB126-.Ltext0
 2371 0004 02000000 		.4byte	.LCFI0-.Ltext0
 2372 0008 0200     		.2byte	0x2
 2373 000a 7D       		.byte	0x7d
 2374 000b 00       		.sleb128 0
 2375 000c 02000000 		.4byte	.LCFI0-.Ltext0
 2376 0010 48000000 		.4byte	.LFE126-.Ltext0
 2377 0014 0200     		.2byte	0x2
 2378 0016 7D       		.byte	0x7d
 2379 0017 08       		.sleb128 8
 2380 0018 00000000 		.4byte	0
 2381 001c 00000000 		.4byte	0
 2382              	.LVUS1:
 2383 0020 00       		.uleb128 0
 2384 0021 00       		.uleb128 .LVU7
 2385 0022 00       		.uleb128 .LVU7
 2386 0023 00       		.uleb128 .LVU8
 2387 0024 00       		.uleb128 .LVU8
 2388 0025 00       		.uleb128 .LVU15
 2389 0026 00       		.uleb128 .LVU15
 2390 0027 00       		.uleb128 .LVU20
 2391 0028 00       		.uleb128 .LVU20
 2392 0029 00       		.uleb128 .LVU27
 2393 002a 00       		.uleb128 .LVU27
 2394 002b 00       		.uleb128 0
 2395              	.LLST1:
 2396 002c 00000000 		.4byte	.LVL0-.Ltext0
 2397 0030 0E000000 		.4byte	.LVL1-.Ltext0
 2398 0034 0100     		.2byte	0x1
 2399 0036 50       		.byte	0x50
ARM GAS  /var/folders/_2/qbh2zpt918qcm2b_6mgyydnm0000gn/T//ccWw4yQb.s 			page 44


 2400 0037 0E000000 		.4byte	.LVL1-.Ltext0
 2401 003b 10000000 		.4byte	.LVL2-.Ltext0
 2402 003f 0400     		.2byte	0x4
 2403 0041 F3       		.byte	0xf3
 2404 0042 01       		.uleb128 0x1
 2405 0043 50       		.byte	0x50
 2406 0044 9F       		.byte	0x9f
 2407 0045 10000000 		.4byte	.LVL2-.Ltext0
 2408 0049 21000000 		.4byte	.LVL3-1-.Ltext0
 2409 004d 0100     		.2byte	0x1
 2410 004f 50       		.byte	0x50
 2411 0050 21000000 		.4byte	.LVL3-1-.Ltext0
 2412 0054 28000000 		.4byte	.LVL4-.Ltext0
 2413 0058 0400     		.2byte	0x4
 2414 005a F3       		.byte	0xf3
 2415 005b 01       		.uleb128 0x1
 2416 005c 50       		.byte	0x50
 2417 005d 9F       		.byte	0x9f
 2418 005e 28000000 		.4byte	.LVL4-.Ltext0
 2419 0062 39000000 		.4byte	.LVL5-1-.Ltext0
 2420 0066 0100     		.2byte	0x1
 2421 0068 50       		.byte	0x50
 2422 0069 39000000 		.4byte	.LVL5-1-.Ltext0
 2423 006d 48000000 		.4byte	.LFE126-.Ltext0
 2424 0071 0400     		.2byte	0x4
 2425 0073 F3       		.byte	0xf3
 2426 0074 01       		.uleb128 0x1
 2427 0075 50       		.byte	0x50
 2428 0076 9F       		.byte	0x9f
 2429 0077 00000000 		.4byte	0
 2430 007b 00000000 		.4byte	0
 2431              		.section	.debug_aranges,"",%progbits
 2432 0000 1C000000 		.4byte	0x1c
 2433 0004 0200     		.2byte	0x2
 2434 0006 00000000 		.4byte	.Ldebug_info0
 2435 000a 04       		.byte	0x4
 2436 000b 00       		.byte	0
 2437 000c 0000     		.2byte	0
 2438 000e 0000     		.2byte	0
 2439 0010 00000000 		.4byte	.Ltext0
 2440 0014 48000000 		.4byte	.Letext0-.Ltext0
 2441 0018 00000000 		.4byte	0
 2442 001c 00000000 		.4byte	0
 2443              		.section	.debug_line,"",%progbits
 2444              	.Ldebug_line0:
 2445 0000 79030000 		.section	.debug_str,"MS",%progbits,1
 2445      03000703 
 2445      00000201 
 2445      FB0E0D00 
 2445      01010101 
 2446              	.LASF47:
 2447 0000 5F64736F 		.ascii	"_dso_handle\000"
 2447      5F68616E 
 2447      646C6500 
 2448              	.LASF2:
 2449 000c 73686F72 		.ascii	"short int\000"
 2449      7420696E 
ARM GAS  /var/folders/_2/qbh2zpt918qcm2b_6mgyydnm0000gn/T//ccWw4yQb.s 			page 45


 2449      7400
 2450              	.LASF46:
 2451 0016 5F666E61 		.ascii	"_fnargs\000"
 2451      72677300 
 2452              	.LASF99:
 2453 001e 5F72616E 		.ascii	"_rand48\000"
 2453      64343800 
 2454              	.LASF79:
 2455 0026 5F656D65 		.ascii	"_emergency\000"
 2455      7267656E 
 2455      637900
 2456              	.LASF4:
 2457 0031 5F5F7569 		.ascii	"__uint8_t\000"
 2457      6E74385F 
 2457      7400
 2458              	.LASF134:
 2459 003b 7461736B 		.ascii	"taskUpdateFrq\000"
 2459      55706461 
 2459      74654672 
 2459      7100
 2460              	.LASF91:
 2461 0049 5F617465 		.ascii	"_atexit0\000"
 2461      78697430 
 2461      00
 2462              	.LASF139:
 2463 0052 73636865 		.ascii	"scheduler.c\000"
 2463      64756C65 
 2463      722E6300 
 2464              	.LASF119:
 2465 005e 5F776372 		.ascii	"_wcrtomb_state\000"
 2465      746F6D62 
 2465      5F737461 
 2465      746500
 2466              	.LASF120:
 2467 006d 5F776373 		.ascii	"_wcsrtombs_state\000"
 2467      72746F6D 
 2467      62735F73 
 2467      74617465 
 2467      00
 2468              	.LASF130:
 2469 007e 41545449 		.ascii	"ATTITUDE_UPDATE\000"
 2469      54554445 
 2469      5F555044 
 2469      41544500 
 2470              	.LASF10:
 2471 008e 6C6F6E67 		.ascii	"long long unsigned int\000"
 2471      206C6F6E 
 2471      6720756E 
 2471      7369676E 
 2471      65642069 
 2472              	.LASF59:
 2473 00a5 5F6C6266 		.ascii	"_lbfsize\000"
 2473      73697A65 
 2473      00
 2474              	.LASF126:
 2475 00ae 5F5F6C6F 		.ascii	"__locale_t\000"
 2475      63616C65 
ARM GAS  /var/folders/_2/qbh2zpt918qcm2b_6mgyydnm0000gn/T//ccWw4yQb.s 			page 46


 2475      5F7400
 2476              	.LASF142:
 2477 00b9 65786563 		.ascii	"executeNextSubTask\000"
 2477      7574654E 
 2477      65787453 
 2477      75625461 
 2477      736B00
 2478              	.LASF15:
 2479 00cc 49544D5F 		.ascii	"ITM_RxBuffer\000"
 2479      52784275 
 2479      66666572 
 2479      00
 2480              	.LASF117:
 2481 00d9 5F6D6272 		.ascii	"_mbrtowc_state\000"
 2481      746F7763 
 2481      5F737461 
 2481      746500
 2482              	.LASF36:
 2483 00e8 5F5F746D 		.ascii	"__tm_sec\000"
 2483      5F736563 
 2483      00
 2484              	.LASF19:
 2485 00f1 5F6F6666 		.ascii	"_off_t\000"
 2485      5F7400
 2486              	.LASF64:
 2487 00f8 5F636C6F 		.ascii	"_close\000"
 2487      736500
 2488              	.LASF0:
 2489 00ff 7369676E 		.ascii	"signed char\000"
 2489      65642063 
 2489      68617200 
 2490              	.LASF65:
 2491 010b 5F756275 		.ascii	"_ubuf\000"
 2491      6600
 2492              	.LASF54:
 2493 0111 5F626173 		.ascii	"_base\000"
 2493      6500
 2494              	.LASF38:
 2495 0117 5F5F746D 		.ascii	"__tm_hour\000"
 2495      5F686F75 
 2495      7200
 2496              	.LASF94:
 2497 0121 5F5F7366 		.ascii	"__sf\000"
 2497      00
 2498              	.LASF45:
 2499 0126 5F6F6E5F 		.ascii	"_on_exit_args\000"
 2499      65786974 
 2499      5F617267 
 2499      7300
 2500              	.LASF60:
 2501 0134 5F636F6F 		.ascii	"_cookie\000"
 2501      6B696500 
 2502              	.LASF93:
 2503 013c 5F5F7367 		.ascii	"__sglue\000"
 2503      6C756500 
 2504              	.LASF6:
 2505 0144 6C6F6E67 		.ascii	"long int\000"
ARM GAS  /var/folders/_2/qbh2zpt918qcm2b_6mgyydnm0000gn/T//ccWw4yQb.s 			page 47


 2505      20696E74 
 2505      00
 2506              	.LASF57:
 2507 014d 5F666C61 		.ascii	"_flags\000"
 2507      677300
 2508              	.LASF49:
 2509 0154 5F69735F 		.ascii	"_is_cxa\000"
 2509      63786100 
 2510              	.LASF75:
 2511 015c 5F737464 		.ascii	"_stdin\000"
 2511      696E00
 2512              	.LASF132:
 2513 0163 7461736B 		.ascii	"taskName\000"
 2513      4E616D65 
 2513      00
 2514              	.LASF9:
 2515 016c 6C6F6E67 		.ascii	"long long int\000"
 2515      206C6F6E 
 2515      6720696E 
 2515      7400
 2516              	.LASF89:
 2517 017a 5F637674 		.ascii	"_cvtbuf\000"
 2517      62756600 
 2518              	.LASF68:
 2519 0182 5F6F6666 		.ascii	"_offset\000"
 2519      73657400 
 2520              	.LASF118:
 2521 018a 5F6D6273 		.ascii	"_mbsrtowcs_state\000"
 2521      72746F77 
 2521      63735F73 
 2521      74617465 
 2521      00
 2522              	.LASF104:
 2523 019b 5F737472 		.ascii	"_strtok_last\000"
 2523      746F6B5F 
 2523      6C617374 
 2523      00
 2524              	.LASF116:
 2525 01a8 5F6D6272 		.ascii	"_mbrlen_state\000"
 2525      6C656E5F 
 2525      73746174 
 2525      6500
 2526              	.LASF143:
 2527 01b6 63757272 		.ascii	"currentCallingTime\000"
 2527      656E7443 
 2527      616C6C69 
 2527      6E675469 
 2527      6D6500
 2528              	.LASF52:
 2529 01c9 5F666E73 		.ascii	"_fns\000"
 2529      00
 2530              	.LASF7:
 2531 01ce 5F5F7569 		.ascii	"__uint32_t\000"
 2531      6E743332 
 2531      5F7400
 2532              	.LASF32:
 2533 01d9 5F736967 		.ascii	"_sign\000"
ARM GAS  /var/folders/_2/qbh2zpt918qcm2b_6mgyydnm0000gn/T//ccWw4yQb.s 			page 48


 2533      6E00
 2534              	.LASF127:
 2535 01df 5F696D70 		.ascii	"_impure_ptr\000"
 2535      7572655F 
 2535      70747200 
 2536              	.LASF77:
 2537 01eb 5F737464 		.ascii	"_stderr\000"
 2537      65727200 
 2538              	.LASF34:
 2539 01f3 5F426967 		.ascii	"_Bigint\000"
 2539      696E7400 
 2540              	.LASF30:
 2541 01fb 5F6E6578 		.ascii	"_next\000"
 2541      7400
 2542              	.LASF61:
 2543 0201 5F726561 		.ascii	"_read\000"
 2543      6400
 2544              	.LASF85:
 2545 0207 5F726573 		.ascii	"_result_k\000"
 2545      756C745F 
 2545      6B00
 2546              	.LASF133:
 2547 0211 73756274 		.ascii	"subtaskFunction\000"
 2547      61736B46 
 2547      756E6374 
 2547      696F6E00 
 2548              	.LASF35:
 2549 0221 5F5F746D 		.ascii	"__tm\000"
 2549      00
 2550              	.LASF23:
 2551 0226 5F5F7763 		.ascii	"__wchb\000"
 2551      686200
 2552              	.LASF16:
 2553 022d 53797374 		.ascii	"SystemCoreClock\000"
 2553      656D436F 
 2553      7265436C 
 2553      6F636B00 
 2554              	.LASF76:
 2555 023d 5F737464 		.ascii	"_stdout\000"
 2555      6F757400 
 2556              	.LASF88:
 2557 0245 5F637674 		.ascii	"_cvtlen\000"
 2557      6C656E00 
 2558              	.LASF8:
 2559 024d 6C6F6E67 		.ascii	"long unsigned int\000"
 2559      20756E73 
 2559      69676E65 
 2559      6420696E 
 2559      7400
 2560              	.LASF58:
 2561 025f 5F66696C 		.ascii	"_file\000"
 2561      6500
 2562              	.LASF69:
 2563 0265 5F646174 		.ascii	"_data\000"
 2563      6100
 2564              	.LASF97:
 2565 026b 5F6E696F 		.ascii	"_niobs\000"
ARM GAS  /var/folders/_2/qbh2zpt918qcm2b_6mgyydnm0000gn/T//ccWw4yQb.s 			page 49


 2565      627300
 2566              	.LASF108:
 2567 0272 5F72616E 		.ascii	"_rand_next\000"
 2567      645F6E65 
 2567      787400
 2568              	.LASF114:
 2569 027d 5F736967 		.ascii	"_signal_buf\000"
 2569      6E616C5F 
 2569      62756600 
 2570              	.LASF105:
 2571 0289 5F617363 		.ascii	"_asctime_buf\000"
 2571      74696D65 
 2571      5F627566 
 2571      00
 2572              	.LASF84:
 2573 0296 5F726573 		.ascii	"_result\000"
 2573      756C7400 
 2574              	.LASF22:
 2575 029e 5F5F7763 		.ascii	"__wch\000"
 2575      6800
 2576              	.LASF18:
 2577 02a4 5F4C4F43 		.ascii	"_LOCK_T\000"
 2577      4B5F5400 
 2578              	.LASF90:
 2579 02ac 5F6E6577 		.ascii	"_new\000"
 2579      00
 2580              	.LASF70:
 2581 02b1 5F6C6F63 		.ascii	"_lock\000"
 2581      6B00
 2582              	.LASF101:
 2583 02b7 5F6D756C 		.ascii	"_mult\000"
 2583      7400
 2584              	.LASF62:
 2585 02bd 5F777269 		.ascii	"_write\000"
 2585      746500
 2586              	.LASF41:
 2587 02c4 5F5F746D 		.ascii	"__tm_year\000"
 2587      5F796561 
 2587      7200
 2588              	.LASF123:
 2589 02ce 5F6E6D61 		.ascii	"_nmalloc\000"
 2589      6C6C6F63 
 2589      00
 2590              	.LASF140:
 2591 02d7 2F557365 		.ascii	"/Users/rdaneel/Desktop/brightflight_015.4\000"
 2591      72732F72 
 2591      64616E65 
 2591      656C2F44 
 2591      65736B74 
 2592              	.LASF135:
 2593 0301 6E657874 		.ascii	"nextCallingTime\000"
 2593      43616C6C 
 2593      696E6754 
 2593      696D6500 
 2594              	.LASF122:
 2595 0311 5F6E6578 		.ascii	"_nextf\000"
 2595      746600
ARM GAS  /var/folders/_2/qbh2zpt918qcm2b_6mgyydnm0000gn/T//ccWw4yQb.s 			page 50


 2596              	.LASF40:
 2597 0318 5F5F746D 		.ascii	"__tm_mon\000"
 2597      5F6D6F6E 
 2597      00
 2598              	.LASF50:
 2599 0321 5F617465 		.ascii	"_atexit\000"
 2599      78697400 
 2600              	.LASF129:
 2601 0329 7375626F 		.ascii	"suboptarg\000"
 2601      70746172 
 2601      6700
 2602              	.LASF82:
 2603 0333 5F5F7364 		.ascii	"__sdidinit\000"
 2603      6964696E 
 2603      697400
 2604              	.LASF107:
 2605 033e 5F67616D 		.ascii	"_gamma_signgam\000"
 2605      6D615F73 
 2605      69676E67 
 2605      616D00
 2606              	.LASF21:
 2607 034d 77696E74 		.ascii	"wint_t\000"
 2607      5F7400
 2608              	.LASF87:
 2609 0354 5F667265 		.ascii	"_freelist\000"
 2609      656C6973 
 2609      7400
 2610              	.LASF112:
 2611 035e 5F776374 		.ascii	"_wctomb_state\000"
 2611      6F6D625F 
 2611      73746174 
 2611      6500
 2612              	.LASF13:
 2613 036c 696E7433 		.ascii	"int32_t\000"
 2613      325F7400 
 2614              	.LASF1:
 2615 0374 756E7369 		.ascii	"unsigned char\000"
 2615      676E6564 
 2615      20636861 
 2615      7200
 2616              	.LASF98:
 2617 0382 5F696F62 		.ascii	"_iobs\000"
 2617      7300
 2618              	.LASF121:
 2619 0388 5F685F65 		.ascii	"_h_errno\000"
 2619      72726E6F 
 2619      00
 2620              	.LASF27:
 2621 0391 5F666C6F 		.ascii	"_flock_t\000"
 2621      636B5F74 
 2621      00
 2622              	.LASF43:
 2623 039a 5F5F746D 		.ascii	"__tm_yday\000"
 2623      5F796461 
 2623      7900
 2624              	.LASF53:
 2625 03a4 5F5F7362 		.ascii	"__sbuf\000"
ARM GAS  /var/folders/_2/qbh2zpt918qcm2b_6mgyydnm0000gn/T//ccWw4yQb.s 			page 51


 2625      756600
 2626              	.LASF72:
 2627 03ab 5F666C61 		.ascii	"_flags2\000"
 2627      67733200 
 2628              	.LASF95:
 2629 03b3 5F5F4649 		.ascii	"__FILE\000"
 2629      4C4500
 2630              	.LASF26:
 2631 03ba 5F6D6273 		.ascii	"_mbstate_t\000"
 2631      74617465 
 2631      5F7400
 2632              	.LASF56:
 2633 03c5 5F5F7346 		.ascii	"__sFILE\000"
 2633      494C4500 
 2634              	.LASF71:
 2635 03cd 5F6D6273 		.ascii	"_mbstate\000"
 2635      74617465 
 2635      00
 2636              	.LASF110:
 2637 03d6 5F6D626C 		.ascii	"_mblen_state\000"
 2637      656E5F73 
 2637      74617465 
 2637      00
 2638              	.LASF78:
 2639 03e3 5F696E63 		.ascii	"_inc\000"
 2639      00
 2640              	.LASF51:
 2641 03e8 5F696E64 		.ascii	"_ind\000"
 2641      00
 2642              	.LASF81:
 2643 03ed 5F6C6F63 		.ascii	"_locale\000"
 2643      616C6500 
 2644              	.LASF83:
 2645 03f5 5F5F636C 		.ascii	"__cleanup\000"
 2645      65616E75 
 2645      7000
 2646              	.LASF80:
 2647 03ff 5F756E73 		.ascii	"_unspecified_locale_info\000"
 2647      70656369 
 2647      66696564 
 2647      5F6C6F63 
 2647      616C655F 
 2648              	.LASF31:
 2649 0418 5F6D6178 		.ascii	"_maxwds\000"
 2649      77647300 
 2650              	.LASF73:
 2651 0420 5F726565 		.ascii	"_reent\000"
 2651      6E7400
 2652              	.LASF144:
 2653 0427 73756254 		.ascii	"subTask\000"
 2653      61736B00 
 2654              	.LASF100:
 2655 042f 5F736565 		.ascii	"_seed\000"
 2655      6400
 2656              	.LASF24:
 2657 0435 5F5F636F 		.ascii	"__count\000"
 2657      756E7400 
ARM GAS  /var/folders/_2/qbh2zpt918qcm2b_6mgyydnm0000gn/T//ccWw4yQb.s 			page 52


 2658              	.LASF125:
 2659 043d 5F5F6C6F 		.ascii	"__lock\000"
 2659      636B00
 2660              	.LASF25:
 2661 0444 5F5F7661 		.ascii	"__value\000"
 2661      6C756500 
 2662              	.LASF63:
 2663 044c 5F736565 		.ascii	"_seek\000"
 2663      6B00
 2664              	.LASF42:
 2665 0452 5F5F746D 		.ascii	"__tm_wday\000"
 2665      5F776461 
 2665      7900
 2666              	.LASF20:
 2667 045c 5F66706F 		.ascii	"_fpos_t\000"
 2667      735F7400 
 2668              	.LASF17:
 2669 0464 6C6F6E67 		.ascii	"long double\000"
 2669      20646F75 
 2669      626C6500 
 2670              	.LASF74:
 2671 0470 5F657272 		.ascii	"_errno\000"
 2671      6E6F00
 2672              	.LASF28:
 2673 0477 63686172 		.ascii	"char\000"
 2673      00
 2674              	.LASF67:
 2675 047c 5F626C6B 		.ascii	"_blksize\000"
 2675      73697A65 
 2675      00
 2676              	.LASF55:
 2677 0485 5F73697A 		.ascii	"_size\000"
 2677      6500
 2678              	.LASF11:
 2679 048b 756E7369 		.ascii	"unsigned int\000"
 2679      676E6564 
 2679      20696E74 
 2679      00
 2680              	.LASF131:
 2681 0498 42555A5A 		.ascii	"BUZZER_UPDATE\000"
 2681      45525F55 
 2681      50444154 
 2681      4500
 2682              	.LASF141:
 2683 04a6 73756274 		.ascii	"subtasks_e\000"
 2683      61736B73 
 2683      5F6500
 2684              	.LASF5:
 2685 04b1 5F5F696E 		.ascii	"__int32_t\000"
 2685      7433325F 
 2685      7400
 2686              	.LASF136:
 2687 04bb 7461736B 		.ascii	"task_t\000"
 2687      5F7400
 2688              	.LASF137:
 2689 04c2 7461736B 		.ascii	"taskList\000"
 2689      4C697374 
ARM GAS  /var/folders/_2/qbh2zpt918qcm2b_6mgyydnm0000gn/T//ccWw4yQb.s 			page 53


 2689      00
 2690              	.LASF48:
 2691 04cb 5F666E74 		.ascii	"_fntypes\000"
 2691      79706573 
 2691      00
 2692              	.LASF138:
 2693 04d4 474E5520 		.ascii	"GNU C17 9.2.1 20191025 (release) [ARM/arm-9-branch "
 2693      43313720 
 2693      392E322E 
 2693      31203230 
 2693      31393130 
 2694 0507 72657669 		.ascii	"revision 277599] -mcpu=cortex-m4 -mthumb -mfloat-ab"
 2694      73696F6E 
 2694      20323737 
 2694      3539395D 
 2694      202D6D63 
 2695 053a 693D736F 		.ascii	"i=soft -march=armv7e-m -g -gdwarf-2 -Os -fomit-fram"
 2695      6674202D 
 2695      6D617263 
 2695      683D6172 
 2695      6D763765 
 2696 056d 652D706F 		.ascii	"e-pointer\000"
 2696      696E7465 
 2696      7200
 2697              	.LASF3:
 2698 0577 73686F72 		.ascii	"short unsigned int\000"
 2698      7420756E 
 2698      7369676E 
 2698      65642069 
 2698      6E7400
 2699              	.LASF102:
 2700 058a 5F616464 		.ascii	"_add\000"
 2700      00
 2701              	.LASF29:
 2702 058f 5F5F554C 		.ascii	"__ULong\000"
 2702      6F6E6700 
 2703              	.LASF115:
 2704 0597 5F676574 		.ascii	"_getdate_err\000"
 2704      64617465 
 2704      5F657272 
 2704      00
 2705              	.LASF128:
 2706 05a4 5F676C6F 		.ascii	"_global_impure_ptr\000"
 2706      62616C5F 
 2706      696D7075 
 2706      72655F70 
 2706      747200
 2707              	.LASF14:
 2708 05b7 75696E74 		.ascii	"uint32_t\000"
 2708      33325F74 
 2708      00
 2709              	.LASF103:
 2710 05c0 5F756E75 		.ascii	"_unused_rand\000"
 2710      7365645F 
 2710      72616E64 
 2710      00
 2711              	.LASF33:
ARM GAS  /var/folders/_2/qbh2zpt918qcm2b_6mgyydnm0000gn/T//ccWw4yQb.s 			page 54


 2712 05cd 5F776473 		.ascii	"_wds\000"
 2712      00
 2713              	.LASF96:
 2714 05d2 5F676C75 		.ascii	"_glue\000"
 2714      6500
 2715              	.LASF12:
 2716 05d8 75696E74 		.ascii	"uint8_t\000"
 2716      385F7400 
 2717              	.LASF113:
 2718 05e0 5F6C3634 		.ascii	"_l64a_buf\000"
 2718      615F6275 
 2718      6600
 2719              	.LASF92:
 2720 05ea 5F736967 		.ascii	"_sig_func\000"
 2720      5F66756E 
 2720      6300
 2721              	.LASF66:
 2722 05f4 5F6E6275 		.ascii	"_nbuf\000"
 2722      6600
 2723              	.LASF124:
 2724 05fa 5F756E75 		.ascii	"_unused\000"
 2724      73656400 
 2725              	.LASF44:
 2726 0602 5F5F746D 		.ascii	"__tm_isdst\000"
 2726      5F697364 
 2726      737400
 2727              	.LASF106:
 2728 060d 5F6C6F63 		.ascii	"_localtime_buf\000"
 2728      616C7469 
 2728      6D655F62 
 2728      756600
 2729              	.LASF37:
 2730 061c 5F5F746D 		.ascii	"__tm_min\000"
 2730      5F6D696E 
 2730      00
 2731              	.LASF109:
 2732 0625 5F723438 		.ascii	"_r48\000"
 2732      00
 2733              	.LASF111:
 2734 062a 5F6D6274 		.ascii	"_mbtowc_state\000"
 2734      6F77635F 
 2734      73746174 
 2734      6500
 2735              	.LASF86:
 2736 0638 5F703573 		.ascii	"_p5s\000"
 2736      00
 2737              	.LASF39:
 2738 063d 5F5F746D 		.ascii	"__tm_mday\000"
 2738      5F6D6461 
 2738      7900
 2739              		.ident	"GCC: (GNU Tools for Arm Embedded Processors 9-2019-q4-major) 9.2.1 20191025 (release) [ARM
ARM GAS  /var/folders/_2/qbh2zpt918qcm2b_6mgyydnm0000gn/T//ccWw4yQb.s 			page 55


DEFINED SYMBOLS
                            *ABS*:0000000000000000 scheduler.c
/var/folders/_2/qbh2zpt918qcm2b_6mgyydnm0000gn/T//ccWw4yQb.s:73     .text:0000000000000000 $t
/var/folders/_2/qbh2zpt918qcm2b_6mgyydnm0000gn/T//ccWw4yQb.s:81     .text:0000000000000000 executeNextSubTask
/var/folders/_2/qbh2zpt918qcm2b_6mgyydnm0000gn/T//ccWw4yQb.s:181    .text:0000000000000040 $d
/var/folders/_2/qbh2zpt918qcm2b_6mgyydnm0000gn/T//ccWw4yQb.s:192    .data:0000000000000000 taskList
/var/folders/_2/qbh2zpt918qcm2b_6mgyydnm0000gn/T//ccWw4yQb.s:188    .data:0000000000000000 $d
/var/folders/_2/qbh2zpt918qcm2b_6mgyydnm0000gn/T//ccWw4yQb.s:212    .bss:0000000000000000 $d
/var/folders/_2/qbh2zpt918qcm2b_6mgyydnm0000gn/T//ccWw4yQb.s:216    .bss:0000000000000000 subTask.8058

UNDEFINED SYMBOLS
subtaskUpdateAttitude
subtaskUpdateBuzzer
