ARM GAS  /var/folders/_2/qbh2zpt918qcm2b_6mgyydnm0000gn/T//ccOjgwl7.s 			page 1


   1              		.cpu cortex-m4
   2              		.eabi_attribute 20, 1	@ Tag_ABI_FP_denormal
   3              		.eabi_attribute 21, 1	@ Tag_ABI_FP_exceptions
   4              		.eabi_attribute 23, 3	@ Tag_ABI_FP_number_model
   5              		.eabi_attribute 24, 1	@ Tag_ABI_align8_needed
   6              		.eabi_attribute 25, 1	@ Tag_ABI_align8_preserved
   7              		.eabi_attribute 26, 1	@ Tag_ABI_enum_size
   8              		.eabi_attribute 30, 4	@ Tag_ABI_optimization_goals
   9              		.eabi_attribute 34, 1	@ Tag_CPU_unaligned_access
  10              		.eabi_attribute 18, 4	@ Tag_ABI_PCS_wchar_t
  11              		.file	"stm32f3x_system.c"
  12              	@ GNU C17 (GNU Tools for Arm Embedded Processors 9-2019-q4-major) version 9.2.1 20191025 (release) 
  13              	@	compiled by GNU C version 4.2.1 Compatible Apple LLVM 9.0.0 (clang-900.0.39.2), GMP version 6.1.0
  14              	
  15              	@ GGC heuristics: --param ggc-min-expand=100 --param ggc-min-heapsize=131072
  16              	@ options passed:  -I .
  17              	@ -I /Users/rdaneel/Binary/Roaming/C-Code/StmProjects/stm32f3x/lib/STM32F30x_DSP_StdPeriph_Lib_V1.2
  18              	@ -I /Users/rdaneel/Binary/Roaming/C-Code/StmProjects/stm32f3x/lib/STM32F30x_DSP_StdPeriph_Lib_V1.2
  19              	@ -I /Users/rdaneel/Binary/Roaming/C-Code/StmProjects/stm32f3x/lib/STM32F30x_DSP_StdPeriph_Lib_V1.2
  20              	@ -imultilib thumb/v7e-m/nofp
  21              	@ -iprefix /usr/local/Cellar/arm-none-eabi-gcc/9-2019-q4-major/gcc/bin/../lib/gcc/arm-none-eabi/9.2
  22              	@ -isysroot /usr/local/Cellar/arm-none-eabi-gcc/9-2019-q4-major/gcc/bin/../arm-none-eabi
  23              	@ -D__USES_INITFINI__ -D STM32F30X_MD -D USE_STDPERIPH_DRIVER
  24              	@ -D HSE_VALUE=8000000 -D RUN_FROM_FLASH=1 stm32f3x_system.c
  25              	@ -mcpu=cortex-m4 -mthumb -mfloat-abi=soft -march=armv7e-m
  26              	@ -auxbase-strip stm32f3x_system.o -g -gdwarf-2 -Os -Wall
  27              	@ -fomit-frame-pointer -fverbose-asm
  28              	@ options enabled:  -faggressive-loop-optimizations -fassume-phsa
  29              	@ -fauto-inc-dec -fbranch-count-reg -fcaller-saves -fcode-hoisting
  30              	@ -fcombine-stack-adjustments -fcommon -fcompare-elim -fcprop-registers
  31              	@ -fcrossjumping -fcse-follow-jumps -fdefer-pop
  32              	@ -fdelete-null-pointer-checks -fdevirtualize -fdevirtualize-speculatively
  33              	@ -fdwarf2-cfi-asm -fearly-inlining -feliminate-unused-debug-types
  34              	@ -fexpensive-optimizations -fforward-propagate -ffp-int-builtin-inexact
  35              	@ -ffunction-cse -fgcse -fgcse-lm -fgnu-runtime -fgnu-unique
  36              	@ -fguess-branch-probability -fhoist-adjacent-loads -fident -fif-conversion
  37              	@ -fif-conversion2 -findirect-inlining -finline -finline-atomics
  38              	@ -finline-functions -finline-functions-called-once
  39              	@ -finline-small-functions -fipa-bit-cp -fipa-cp -fipa-icf
  40              	@ -fipa-icf-functions -fipa-icf-variables -fipa-profile -fipa-pure-const
  41              	@ -fipa-ra -fipa-reference -fipa-reference-addressable -fipa-sra
  42              	@ -fipa-stack-alignment -fipa-vrp -fira-hoist-pressure
  43              	@ -fira-share-save-slots -fira-share-spill-slots
  44              	@ -fisolate-erroneous-paths-dereference -fivopts -fkeep-static-consts
  45              	@ -fleading-underscore -flifetime-dse -flra-remat -flto-odr-type-merging
  46              	@ -fmath-errno -fmerge-constants -fmerge-debug-strings
  47              	@ -fmove-loop-invariants -fomit-frame-pointer -foptimize-sibling-calls
  48              	@ -fpartial-inlining -fpeephole -fpeephole2 -fplt -fprefetch-loop-arrays
  49              	@ -freg-struct-return -freorder-blocks -freorder-functions
  50              	@ -frerun-cse-after-loop -fsched-critical-path-heuristic
  51              	@ -fsched-dep-count-heuristic -fsched-group-heuristic -fsched-interblock
  52              	@ -fsched-last-insn-heuristic -fsched-pressure -fsched-rank-heuristic
  53              	@ -fsched-spec -fsched-spec-insn-heuristic -fsched-stalled-insns-dep
  54              	@ -fschedule-insns2 -fsection-anchors -fsemantic-interposition
  55              	@ -fshow-column -fshrink-wrap-separate -fsigned-zeros
  56              	@ -fsplit-ivs-in-unroller -fsplit-wide-types -fssa-backprop -fssa-phiopt
  57              	@ -fstdarg-opt -fstore-merging -fstrict-aliasing
ARM GAS  /var/folders/_2/qbh2zpt918qcm2b_6mgyydnm0000gn/T//ccOjgwl7.s 			page 2


  58              	@ -fstrict-volatile-bitfields -fsync-libcalls -fthread-jumps
  59              	@ -ftoplevel-reorder -ftrapping-math -ftree-bit-ccp -ftree-builtin-call-dce
  60              	@ -ftree-ccp -ftree-ch -ftree-coalesce-vars -ftree-copy-prop -ftree-cselim
  61              	@ -ftree-dce -ftree-dominator-opts -ftree-dse -ftree-forwprop -ftree-fre
  62              	@ -ftree-loop-if-convert -ftree-loop-im -ftree-loop-ivcanon
  63              	@ -ftree-loop-optimize -ftree-parallelize-loops= -ftree-phiprop -ftree-pre
  64              	@ -ftree-pta -ftree-reassoc -ftree-scev-cprop -ftree-sink -ftree-slsr
  65              	@ -ftree-sra -ftree-switch-conversion -ftree-tail-merge -ftree-ter
  66              	@ -ftree-vrp -funit-at-a-time -fvar-tracking -fvar-tracking-assignments
  67              	@ -fverbose-asm -fzero-initialized-in-bss -masm-syntax-unified -mbe32
  68              	@ -mlittle-endian -mpic-data-is-text-relative -msched-prolog -mthumb
  69              	@ -munaligned-access -mvectorize-with-neon-quad
  70              	
  71              		.text
  72              	.Ltext0:
  73              		.cfi_sections	.debug_frame
  74              		.align	1
  75              		.global	init_timer_pwm
  76              		.arch armv7e-m
  77              		.syntax unified
  78              		.thumb
  79              		.thumb_func
  80              		.fpu softvfp
  81              		.type	init_timer_pwm, %function
  82              	init_timer_pwm:
  83              	.LFB123:
  84              		.file 1 "stm32f3x_system.c"
   1:stm32f3x_system.c **** #include <stm32f30x.h>
   2:stm32f3x_system.c **** #include "stm32f3x_system.h"
   3:stm32f3x_system.c **** 
   4:stm32f3x_system.c **** void init_timer_pwm(){
  85              		.loc 1 4 22 view -0
  86              		.cfi_startproc
  87              		@ args = 0, pretend = 0, frame = 24
  88              		@ frame_needed = 0, uses_anonymous_args = 0
   5:stm32f3x_system.c **** 	/**
   6:stm32f3x_system.c **** 	 * Clock for GPIO A is initialized in the usart.c
   7:stm32f3x_system.c **** 	 * Clock for GPIO B is initialized in initBoardLed
   8:stm32f3x_system.c **** 	 */
   9:stm32f3x_system.c ****   RCC_APB1PeriphClockCmd(RCC_APB1Periph_TIM3, ENABLE);
  89              		.loc 1 9 3 view .LVU1
  90              	@ stm32f3x_system.c:4: void init_timer_pwm(){
   4:stm32f3x_system.c **** 	/**
  91              		.loc 1 4 22 is_stmt 0 view .LVU2
  92 0000 2DE9F041 		push	{r4, r5, r6, r7, r8, lr}	@
  93              	.LCFI0:
  94              		.cfi_def_cfa_offset 24
  95              		.cfi_offset 4, -24
  96              		.cfi_offset 5, -20
  97              		.cfi_offset 6, -16
  98              		.cfi_offset 7, -12
  99              		.cfi_offset 8, -8
 100              		.cfi_offset 14, -4
 101              	@ stm32f3x_system.c:9:   RCC_APB1PeriphClockCmd(RCC_APB1Periph_TIM3, ENABLE);
 102              		.loc 1 9 3 view .LVU3
 103 0004 0121     		movs	r1, #1	@,
 104              	@ stm32f3x_system.c:4: void init_timer_pwm(){
ARM GAS  /var/folders/_2/qbh2zpt918qcm2b_6mgyydnm0000gn/T//ccOjgwl7.s 			page 3


   4:stm32f3x_system.c **** 	/**
 105              		.loc 1 4 22 view .LVU4
 106 0006 86B0     		sub	sp, sp, #24	@,,
 107              	.LCFI1:
 108              		.cfi_def_cfa_offset 48
 109              	@ stm32f3x_system.c:9:   RCC_APB1PeriphClockCmd(RCC_APB1Periph_TIM3, ENABLE);
 110              		.loc 1 9 3 view .LVU5
 111 0008 0220     		movs	r0, #2	@,
 112 000a FFF7FEFF 		bl	RCC_APB1PeriphClockCmd		@
 113              	.LVL0:
  10:stm32f3x_system.c ****   RCC_APB1PeriphClockCmd(RCC_APB1Periph_TIM4, ENABLE);
 114              		.loc 1 10 3 is_stmt 1 view .LVU6
 115 000e 0121     		movs	r1, #1	@,
 116 0010 0420     		movs	r0, #4	@,
 117 0012 FFF7FEFF 		bl	RCC_APB1PeriphClockCmd		@
 118              	.LVL1:
  11:stm32f3x_system.c ****   RCC_APB1PeriphClockCmd(RCC_APB1Periph_TIM7, ENABLE);
 119              		.loc 1 11 3 view .LVU7
 120 0016 0121     		movs	r1, #1	@,
 121 0018 2020     		movs	r0, #32	@,
 122 001a FFF7FEFF 		bl	RCC_APB1PeriphClockCmd		@
 123              	.LVL2:
  12:stm32f3x_system.c ****   RCC_APB2PeriphClockCmd(RCC_APB2Periph_TIM17, ENABLE);
 124              		.loc 1 12 3 view .LVU8
 125 001e 0121     		movs	r1, #1	@,
 126 0020 4FF48020 		mov	r0, #262144	@,
 127 0024 FFF7FEFF 		bl	RCC_APB2PeriphClockCmd		@
 128              	.LVL3:
  13:stm32f3x_system.c ****   RCC_APB2PeriphClockCmd(RCC_APB2Periph_TIM16, ENABLE);      
 129              		.loc 1 13 3 view .LVU9
 130 0028 0121     		movs	r1, #1	@,
 131 002a 4FF40030 		mov	r0, #131072	@,
 132 002e FFF7FEFF 		bl	RCC_APB2PeriphClockCmd		@
 133              	.LVL4:
  14:stm32f3x_system.c **** 
  15:stm32f3x_system.c ****   /**
  16:stm32f3x_system.c ****    * GPIOA Pin 6 and 7 for the PWM1 and2
  17:stm32f3x_system.c ****    */
  18:stm32f3x_system.c ****   GPIO_PinAFConfig(GPIOA, GPIO_PinSource6, GPIO_AF_2);
 134              		.loc 1 18 3 view .LVU10
 135 0032 0222     		movs	r2, #2	@,
 136 0034 0621     		movs	r1, #6	@,
 137 0036 4FF09040 		mov	r0, #1207959552	@,
 138 003a FFF7FEFF 		bl	GPIO_PinAFConfig		@
 139              	.LVL5:
  19:stm32f3x_system.c ****   GPIO_PinAFConfig(GPIOA, GPIO_PinSource7, GPIO_AF_2);
 140              		.loc 1 19 3 view .LVU11
 141 003e 0222     		movs	r2, #2	@,
 142 0040 0721     		movs	r1, #7	@,
 143 0042 4FF09040 		mov	r0, #1207959552	@,
 144 0046 FFF7FEFF 		bl	GPIO_PinAFConfig		@
 145              	.LVL6:
  20:stm32f3x_system.c **** 
  21:stm32f3x_system.c ****   /**
  22:stm32f3x_system.c ****    * GPIOA Pin 11 and 12 for PWM 3 and 4
  23:stm32f3x_system.c ****    */
  24:stm32f3x_system.c ****    
ARM GAS  /var/folders/_2/qbh2zpt918qcm2b_6mgyydnm0000gn/T//ccOjgwl7.s 			page 4


  25:stm32f3x_system.c ****   GPIO_PinAFConfig(GPIOA, GPIO_PinSource11, GPIO_AF_10);
 146              		.loc 1 25 3 view .LVU12
 147              	@ stm32f3x_system.c:31:   GPIO_PinAFConfig(GPIOB, GPIO_PinSource8, GPIO_AF_1);
  26:stm32f3x_system.c ****   GPIO_PinAFConfig(GPIOA, GPIO_PinSource12, GPIO_AF_10);
  27:stm32f3x_system.c ****   /**
  28:stm32f3x_system.c ****    * GIPOB Pin 8 and 9 for the Gimbal
  29:stm32f3x_system.c ****    */
  30:stm32f3x_system.c ****         
  31:stm32f3x_system.c ****   GPIO_PinAFConfig(GPIOB, GPIO_PinSource8, GPIO_AF_1);
 148              		.loc 1 31 3 is_stmt 0 view .LVU13
 149 004a 6A4C     		ldr	r4, .L2	@ tmp146,
 150              	@ stm32f3x_system.c:25:   GPIO_PinAFConfig(GPIOA, GPIO_PinSource11, GPIO_AF_10);
  25:stm32f3x_system.c ****   GPIO_PinAFConfig(GPIOA, GPIO_PinSource12, GPIO_AF_10);
 151              		.loc 1 25 3 view .LVU14
 152 004c 0A22     		movs	r2, #10	@,
 153 004e 0B21     		movs	r1, #11	@,
 154 0050 4FF09040 		mov	r0, #1207959552	@,
 155 0054 FFF7FEFF 		bl	GPIO_PinAFConfig		@
 156              	.LVL7:
  26:stm32f3x_system.c ****   GPIO_PinAFConfig(GPIOA, GPIO_PinSource12, GPIO_AF_10);
 157              		.loc 1 26 3 is_stmt 1 view .LVU15
 158 0058 0A22     		movs	r2, #10	@,
 159 005a 0C21     		movs	r1, #12	@,
 160 005c 4FF09040 		mov	r0, #1207959552	@,
 161 0060 FFF7FEFF 		bl	GPIO_PinAFConfig		@
 162              	.LVL8:
 163              		.loc 1 31 3 view .LVU16
 164 0064 2046     		mov	r0, r4	@, tmp146
 165 0066 0122     		movs	r2, #1	@,
 166 0068 0821     		movs	r1, #8	@,
 167 006a FFF7FEFF 		bl	GPIO_PinAFConfig		@
 168              	.LVL9:
  32:stm32f3x_system.c ****   GPIO_PinAFConfig(GPIOB, GPIO_PinSource9, GPIO_AF_1);
 169              		.loc 1 32 3 view .LVU17
 170 006e 0122     		movs	r2, #1	@,
 171 0070 2046     		mov	r0, r4	@, tmp146
 172 0072 0921     		movs	r1, #9	@,
 173 0074 FFF7FEFF 		bl	GPIO_PinAFConfig		@
 174              	.LVL10:
  33:stm32f3x_system.c **** 	
  34:stm32f3x_system.c ****   GPIO_InitTypeDef GPIOA_pwm_init;
 175              		.loc 1 34 3 view .LVU18
  35:stm32f3x_system.c ****   GPIOA_pwm_init.GPIO_Mode = GPIO_Mode_AF;
 176              		.loc 1 35 3 view .LVU19
  36:stm32f3x_system.c ****   GPIOA_pwm_init.GPIO_OType = GPIO_OType_PP;
 177              		.loc 1 36 3 view .LVU20
  37:stm32f3x_system.c ****   GPIOA_pwm_init.GPIO_Pin = (GPIO_Pin_6 | GPIO_Pin_7 | GPIO_Pin_11 | GPIO_Pin_12 );
 178              		.loc 1 37 3 view .LVU21
  38:stm32f3x_system.c ****   GPIOA_pwm_init.GPIO_PuPd = GPIO_PuPd_NOPULL;
 179              		.loc 1 38 3 view .LVU22
  39:stm32f3x_system.c ****   GPIOA_pwm_init.GPIO_Speed = GPIO_Speed_Level_3;	
 180              		.loc 1 39 3 view .LVU23
 181              	@ stm32f3x_system.c:35:   GPIOA_pwm_init.GPIO_Mode = GPIO_Mode_AF;
  35:stm32f3x_system.c ****   GPIOA_pwm_init.GPIO_OType = GPIO_OType_PP;
 182              		.loc 1 35 28 is_stmt 0 view .LVU24
 183 0078 40F20235 		movw	r5, #770	@ tmp149,
 184 007c 4FF4C653 		mov	r3, #6336	@ tmp148,
ARM GAS  /var/folders/_2/qbh2zpt918qcm2b_6mgyydnm0000gn/T//ccOjgwl7.s 			page 5


 185              	@ stm32f3x_system.c:40:   GPIO_Init(GPIOA, &GPIOA_pwm_init);
  40:stm32f3x_system.c ****   GPIO_Init(GPIOA, &GPIOA_pwm_init);
 186              		.loc 1 40 3 view .LVU25
 187 0080 02A9     		add	r1, sp, #8	@,,
 188 0082 4FF09040 		mov	r0, #1207959552	@,
 189              	@ stm32f3x_system.c:35:   GPIOA_pwm_init.GPIO_Mode = GPIO_Mode_AF;
  35:stm32f3x_system.c ****   GPIOA_pwm_init.GPIO_OType = GPIO_OType_PP;
 190              		.loc 1 35 28 view .LVU26
 191 0086 CDE90235 		strd	r3, r5, [sp, #8]	@ tmp148, tmp149,,
 192              		.loc 1 40 3 is_stmt 1 view .LVU27
 193 008a FFF7FEFF 		bl	GPIO_Init		@
 194              	.LVL11:
  41:stm32f3x_system.c **** 
  42:stm32f3x_system.c **** 
  43:stm32f3x_system.c ****   GPIO_InitTypeDef GPIOB_pwm_init;
 195              		.loc 1 43 3 view .LVU28
  44:stm32f3x_system.c ****   GPIOB_pwm_init.GPIO_Mode = GPIO_Mode_AF;
 196              		.loc 1 44 3 view .LVU29
  45:stm32f3x_system.c ****   GPIOB_pwm_init.GPIO_OType = GPIO_OType_PP;
 197              		.loc 1 45 3 view .LVU30
  46:stm32f3x_system.c ****   GPIOB_pwm_init.GPIO_Pin = (GPIO_Pin_8 | GPIO_Pin_9);
 198              		.loc 1 46 3 view .LVU31
  47:stm32f3x_system.c ****   GPIOB_pwm_init.GPIO_PuPd = GPIO_PuPd_NOPULL;
 199              		.loc 1 47 3 view .LVU32
  48:stm32f3x_system.c ****   GPIOB_pwm_init.GPIO_Speed = GPIO_Speed_Level_3;
 200              		.loc 1 48 3 view .LVU33
 201              	@ stm32f3x_system.c:46:   GPIOB_pwm_init.GPIO_Pin = (GPIO_Pin_8 | GPIO_Pin_9);
  46:stm32f3x_system.c ****   GPIOB_pwm_init.GPIO_Pin = (GPIO_Pin_8 | GPIO_Pin_9);
 202              		.loc 1 46 27 is_stmt 0 view .LVU34
 203 008e 4FF44073 		mov	r3, #768	@ tmp151,
 204              	@ stm32f3x_system.c:49:   GPIO_Init(GPIOB, &GPIOB_pwm_init);
  49:stm32f3x_system.c ****   GPIO_Init(GPIOB, &GPIOB_pwm_init);
 205              		.loc 1 49 3 view .LVU35
 206 0092 04A9     		add	r1, sp, #16	@,,
 207 0094 2046     		mov	r0, r4	@, tmp146
 208              	@ stm32f3x_system.c:55: 	TIM_DeInit(TIM3);
  50:stm32f3x_system.c ****    
  51:stm32f3x_system.c **** 	/**
  52:stm32f3x_system.c **** 	 * GPIOA 6 & 7 are using Timer 3 Channel 1 and 2
  53:stm32f3x_system.c **** 	 */	
  54:stm32f3x_system.c **** 
  55:stm32f3x_system.c **** 	TIM_DeInit(TIM3);
 209              		.loc 1 55 2 view .LVU36
 210 0096 04F17844 		add	r4, r4, #-134217728	@ tmp155, tmp155,
 211              	@ stm32f3x_system.c:44:   GPIOB_pwm_init.GPIO_Mode = GPIO_Mode_AF;
  44:stm32f3x_system.c ****   GPIOB_pwm_init.GPIO_OType = GPIO_OType_PP;
 212              		.loc 1 44 28 view .LVU37
 213 009a CDE90435 		strd	r3, r5, [sp, #16]	@ tmp151, tmp149,,
  49:stm32f3x_system.c ****   GPIO_Init(GPIOB, &GPIOB_pwm_init);
 214              		.loc 1 49 3 is_stmt 1 view .LVU38
 215 009e FFF7FEFF 		bl	GPIO_Init		@
 216              	.LVL12:
 217              		.loc 1 55 2 view .LVU39
 218 00a2 2046     		mov	r0, r4	@, tmp155
 219 00a4 FFF7FEFF 		bl	TIM_DeInit		@
 220              	.LVL13:
  56:stm32f3x_system.c **** 	TIM_CounterModeConfig(TIM3, TIM_CounterMode_Up); //CR1 DIR
ARM GAS  /var/folders/_2/qbh2zpt918qcm2b_6mgyydnm0000gn/T//ccOjgwl7.s 			page 6


 221              		.loc 1 56 2 view .LVU40
 222 00a8 2046     		mov	r0, r4	@, tmp155
 223 00aa 0021     		movs	r1, #0	@,
 224 00ac FFF7FEFF 		bl	TIM_CounterModeConfig		@
 225              	.LVL14:
  57:stm32f3x_system.c **** 	TIM3->CR1 |=(0x01 << 7); //Auto reload preload enable bit set --> TIM3 ARR Register is buffered
 226              		.loc 1 57 2 view .LVU41
 227              	@ stm32f3x_system.c:57: 	TIM3->CR1 |=(0x01 << 7); //Auto reload preload enable bit set --> TIM3 ARR
 228              		.loc 1 57 12 is_stmt 0 view .LVU42
 229 00b0 2388     		ldrh	r3, [r4]	@, MEM[(struct TIM_TypeDef *)1073742848B].CR1
 230 00b2 9BB2     		uxth	r3, r3	@ _1, MEM[(struct TIM_TypeDef *)1073742848B].CR1
 231 00b4 43F08003 		orr	r3, r3, #128	@ _2, _1,
 232 00b8 2380     		strh	r3, [r4]	@ movhi	@ _2, MEM[(struct TIM_TypeDef *)1073742848B].CR1
  58:stm32f3x_system.c **** 	TIM3->CCMR1 |= (0x06 << 4 ) | (0x01 << 3) | (0x06 << 12) | (0x01 << 11);
 233              		.loc 1 58 2 is_stmt 1 view .LVU43
 234              	@ stm32f3x_system.c:58: 	TIM3->CCMR1 |= (0x06 << 4 ) | (0x01 << 3) | (0x06 << 12) | (0x01 << 11);
 235              		.loc 1 58 14 is_stmt 0 view .LVU44
 236 00ba A369     		ldr	r3, [r4, #24]	@ _3, MEM[(struct TIM_TypeDef *)1073742848B].CCMR1
 237 00bc 46F66808 		movw	r8, #26728	@ tmp163,
 238 00c0 43EA0803 		orr	r3, r3, r8	@ _4, _3, tmp163
 239 00c4 A361     		str	r3, [r4, #24]	@ _4, MEM[(struct TIM_TypeDef *)1073742848B].CCMR1
  59:stm32f3x_system.c **** 	TIM3->CCER |= (0x01 ) | (0x01 << 4); 
 240              		.loc 1 59 2 is_stmt 1 view .LVU45
 241              	@ stm32f3x_system.c:59: 	TIM3->CCER |= (0x01 ) | (0x01 << 4); 
 242              		.loc 1 59 13 is_stmt 0 view .LVU46
 243 00c6 236A     		ldr	r3, [r4, #32]	@ _5, MEM[(struct TIM_TypeDef *)1073742848B].CCER
 244              	@ stm32f3x_system.c:61:     	TIM3->ARR = 2000; // Set the refresh rate to 1/2000 500Hz
  60:stm32f3x_system.c **** 	TIM3->PSC = 8; //72 / 8 - 1 for oneshot125
  61:stm32f3x_system.c ****     	TIM3->ARR = 2000; // Set the refresh rate to 1/2000 500Hz
 245              		.loc 1 61 16 view .LVU47
 246 00c8 4FF4FA65 		mov	r5, #2000	@ tmp171,
 247              	@ stm32f3x_system.c:59: 	TIM3->CCER |= (0x01 ) | (0x01 << 4); 
  59:stm32f3x_system.c **** 	TIM3->CCER |= (0x01 ) | (0x01 << 4); 
 248              		.loc 1 59 13 view .LVU48
 249 00cc 43F01103 		orr	r3, r3, #17	@ _6, _5,
 250              	@ stm32f3x_system.c:62: 	TIM3->CCR1 = 985;
  62:stm32f3x_system.c **** 	TIM3->CCR1 = 985;
 251              		.loc 1 62 13 view .LVU49
 252 00d0 40F2D936 		movw	r6, #985	@ tmp173,
 253              	@ stm32f3x_system.c:60: 	TIM3->PSC = 8; //72 / 8 - 1 for oneshot125
  60:stm32f3x_system.c **** 	TIM3->PSC = 8; //72 / 8 - 1 for oneshot125
 254              		.loc 1 60 12 view .LVU50
 255 00d4 0827     		movs	r7, #8	@ tmp169,
 256              	@ stm32f3x_system.c:59: 	TIM3->CCER |= (0x01 ) | (0x01 << 4); 
  59:stm32f3x_system.c **** 	TIM3->CCER |= (0x01 ) | (0x01 << 4); 
 257              		.loc 1 59 13 view .LVU51
 258 00d6 2362     		str	r3, [r4, #32]	@ _6, MEM[(struct TIM_TypeDef *)1073742848B].CCER
  60:stm32f3x_system.c **** 	TIM3->PSC = 8; //72 / 8 - 1 for oneshot125
 259              		.loc 1 60 2 is_stmt 1 view .LVU52
 260              	@ stm32f3x_system.c:65: 	TIM_Cmd(TIM3, ENABLE); //CEN Bit gets written
  63:stm32f3x_system.c **** 	TIM3->CCR2 = 985;
  64:stm32f3x_system.c **** 	//TIM3->EGR |= 0x01;	
  65:stm32f3x_system.c **** 	TIM_Cmd(TIM3, ENABLE); //CEN Bit gets written
 261              		.loc 1 65 2 is_stmt 0 view .LVU53
 262 00d8 2046     		mov	r0, r4	@, tmp155
 263              	@ stm32f3x_system.c:60: 	TIM3->PSC = 8; //72 / 8 - 1 for oneshot125
  60:stm32f3x_system.c ****     	TIM3->ARR = 2000; // Set the refresh rate to 1/2000 500Hz
ARM GAS  /var/folders/_2/qbh2zpt918qcm2b_6mgyydnm0000gn/T//ccOjgwl7.s 			page 7


 264              		.loc 1 60 12 view .LVU54
 265 00da 2785     		strh	r7, [r4, #40]	@ movhi	@ tmp169, MEM[(struct TIM_TypeDef *)1073742848B].PSC
  61:stm32f3x_system.c **** 	TIM3->CCR1 = 985;
 266              		.loc 1 61 6 is_stmt 1 view .LVU55
 267              	@ stm32f3x_system.c:65: 	TIM_Cmd(TIM3, ENABLE); //CEN Bit gets written
 268              		.loc 1 65 2 is_stmt 0 view .LVU56
 269 00dc 0121     		movs	r1, #1	@,
 270              	@ stm32f3x_system.c:61:     	TIM3->ARR = 2000; // Set the refresh rate to 1/2000 500Hz
  61:stm32f3x_system.c **** 	TIM3->CCR1 = 985;
 271              		.loc 1 61 16 view .LVU57
 272 00de E562     		str	r5, [r4, #44]	@ tmp171, MEM[(struct TIM_TypeDef *)1073742848B].ARR
  62:stm32f3x_system.c **** 	TIM3->CCR2 = 985;
 273              		.loc 1 62 2 is_stmt 1 view .LVU58
 274              	@ stm32f3x_system.c:62: 	TIM3->CCR1 = 985;
  62:stm32f3x_system.c **** 	TIM3->CCR2 = 985;
 275              		.loc 1 62 13 is_stmt 0 view .LVU59
 276 00e0 6663     		str	r6, [r4, #52]	@ tmp173, MEM[(struct TIM_TypeDef *)1073742848B].CCR1
  63:stm32f3x_system.c **** 	//TIM3->EGR |= 0x01;	
 277              		.loc 1 63 2 is_stmt 1 view .LVU60
 278              	@ stm32f3x_system.c:63: 	TIM3->CCR2 = 985;
  63:stm32f3x_system.c **** 	//TIM3->EGR |= 0x01;	
 279              		.loc 1 63 13 is_stmt 0 view .LVU61
 280 00e2 A663     		str	r6, [r4, #56]	@ tmp173, MEM[(struct TIM_TypeDef *)1073742848B].CCR2
 281              		.loc 1 65 2 is_stmt 1 view .LVU62
 282              	@ stm32f3x_system.c:70: 	TIM_DeInit(TIM4);
  66:stm32f3x_system.c **** 
  67:stm32f3x_system.c **** 	/**
  68:stm32f3x_system.c **** 	 * GPIOA 11 and 12 are using Timer 4 Channel 1 and 2
  69:stm32f3x_system.c ****  	 */
  70:stm32f3x_system.c **** 	TIM_DeInit(TIM4);
 283              		.loc 1 70 2 is_stmt 0 view .LVU63
 284 00e4 04F58064 		add	r4, r4, #1024	@ tmp177, tmp177,
 285              	@ stm32f3x_system.c:65: 	TIM_Cmd(TIM3, ENABLE); //CEN Bit gets written
  65:stm32f3x_system.c **** 
 286              		.loc 1 65 2 view .LVU64
 287 00e8 FFF7FEFF 		bl	TIM_Cmd		@
 288              	.LVL15:
 289              		.loc 1 70 2 is_stmt 1 view .LVU65
 290 00ec 2046     		mov	r0, r4	@, tmp177
 291 00ee FFF7FEFF 		bl	TIM_DeInit		@
 292              	.LVL16:
  71:stm32f3x_system.c **** 	TIM_CounterModeConfig(TIM4, TIM_CounterMode_Up); //CR1 DIR
 293              		.loc 1 71 2 view .LVU66
 294 00f2 2046     		mov	r0, r4	@, tmp177
 295 00f4 0021     		movs	r1, #0	@,
 296 00f6 FFF7FEFF 		bl	TIM_CounterModeConfig		@
 297              	.LVL17:
  72:stm32f3x_system.c **** 	TIM4->CR1 |=(0x01 << 7); //Auto reload preload enable bit set --> TIM3 ARR Register is buffered
 298              		.loc 1 72 2 view .LVU67
 299              	@ stm32f3x_system.c:72: 	TIM4->CR1 |=(0x01 << 7); //Auto reload preload enable bit set --> TIM3 ARR
 300              		.loc 1 72 12 is_stmt 0 view .LVU68
 301 00fa 2388     		ldrh	r3, [r4]	@, MEM[(struct TIM_TypeDef *)1073743872B].CR1
 302 00fc 9BB2     		uxth	r3, r3	@ _7, MEM[(struct TIM_TypeDef *)1073743872B].CR1
 303 00fe 43F08003 		orr	r3, r3, #128	@ _8, _7,
 304 0102 2380     		strh	r3, [r4]	@ movhi	@ _8, MEM[(struct TIM_TypeDef *)1073743872B].CR1
  73:stm32f3x_system.c **** 	TIM4->CCMR1 |= (0x06 << 4 ) | (0x01 << 3) | (0x06 << 12) | (0x01 << 11);
 305              		.loc 1 73 2 is_stmt 1 view .LVU69
ARM GAS  /var/folders/_2/qbh2zpt918qcm2b_6mgyydnm0000gn/T//ccOjgwl7.s 			page 8


 306              	@ stm32f3x_system.c:73: 	TIM4->CCMR1 |= (0x06 << 4 ) | (0x01 << 3) | (0x06 << 12) | (0x01 << 11);
 307              		.loc 1 73 14 is_stmt 0 view .LVU70
 308 0104 A369     		ldr	r3, [r4, #24]	@ _9, MEM[(struct TIM_TypeDef *)1073743872B].CCMR1
 309 0106 43EA0803 		orr	r3, r3, r8	@ _10, _9, tmp163
 310 010a A361     		str	r3, [r4, #24]	@ _10, MEM[(struct TIM_TypeDef *)1073743872B].CCMR1
  74:stm32f3x_system.c **** 	TIM4->CCMR2 |=  (0x06 << 4 ) | (0x01 << 3) | (0x06 << 12) | (0x01 << 11);
 311              		.loc 1 74 2 is_stmt 1 view .LVU71
 312              	@ stm32f3x_system.c:74: 	TIM4->CCMR2 |=  (0x06 << 4 ) | (0x01 << 3) | (0x06 << 12) | (0x01 << 11);
 313              		.loc 1 74 14 is_stmt 0 view .LVU72
 314 010c E369     		ldr	r3, [r4, #28]	@ _11, MEM[(struct TIM_TypeDef *)1073743872B].CCMR2
 315 010e 43EA0803 		orr	r3, r3, r8	@ _12, _11, tmp163
 316 0112 E361     		str	r3, [r4, #28]	@ _12, MEM[(struct TIM_TypeDef *)1073743872B].CCMR2
  75:stm32f3x_system.c **** 	TIM4->CCER |= (0x01 ) | (0x01 << 4) | (0x01 << 8) | (0x01 << 12); 
 317              		.loc 1 75 2 is_stmt 1 view .LVU73
 318              	@ stm32f3x_system.c:75: 	TIM4->CCER |= (0x01 ) | (0x01 << 4) | (0x01 << 8) | (0x01 << 12); 
 319              		.loc 1 75 13 is_stmt 0 view .LVU74
 320 0114 236A     		ldr	r3, [r4, #32]	@ _13, MEM[(struct TIM_TypeDef *)1073743872B].CCER
 321 0116 43F48853 		orr	r3, r3, #4352	@ _14, _13,
 322 011a 43F01103 		orr	r3, r3, #17	@ _14, _14,
 323 011e 2362     		str	r3, [r4, #32]	@ _14, MEM[(struct TIM_TypeDef *)1073743872B].CCER
  76:stm32f3x_system.c **** 	TIM4->PSC = 8;
 324              		.loc 1 76 2 is_stmt 1 view .LVU75
 325              	@ stm32f3x_system.c:80:         TIM_Cmd(TIM4, ENABLE); //CEN Bit gets written
  77:stm32f3x_system.c ****     	TIM4->ARR = 2000; // Set the refresh rate to 1/2000 500Hz
  78:stm32f3x_system.c **** 	TIM4->CCR1 = 985;
  79:stm32f3x_system.c **** 	TIM4->CCR2 = 985;
  80:stm32f3x_system.c ****         TIM_Cmd(TIM4, ENABLE); //CEN Bit gets written
 326              		.loc 1 80 9 is_stmt 0 view .LVU76
 327 0120 0121     		movs	r1, #1	@,
 328              	@ stm32f3x_system.c:76: 	TIM4->PSC = 8;
  76:stm32f3x_system.c **** 	TIM4->PSC = 8;
 329              		.loc 1 76 12 view .LVU77
 330 0122 2785     		strh	r7, [r4, #40]	@ movhi	@ tmp169, MEM[(struct TIM_TypeDef *)1073743872B].PSC
  77:stm32f3x_system.c ****     	TIM4->ARR = 2000; // Set the refresh rate to 1/2000 500Hz
 331              		.loc 1 77 6 is_stmt 1 view .LVU78
 332              	@ stm32f3x_system.c:80:         TIM_Cmd(TIM4, ENABLE); //CEN Bit gets written
 333              		.loc 1 80 9 is_stmt 0 view .LVU79
 334 0124 2046     		mov	r0, r4	@, tmp177
 335              	@ stm32f3x_system.c:77:     	TIM4->ARR = 2000; // Set the refresh rate to 1/2000 500Hz
  77:stm32f3x_system.c ****     	TIM4->ARR = 2000; // Set the refresh rate to 1/2000 500Hz
 336              		.loc 1 77 16 view .LVU80
 337 0126 E562     		str	r5, [r4, #44]	@ tmp171, MEM[(struct TIM_TypeDef *)1073743872B].ARR
  78:stm32f3x_system.c **** 	TIM4->CCR2 = 985;
 338              		.loc 1 78 2 is_stmt 1 view .LVU81
 339              	@ stm32f3x_system.c:78: 	TIM4->CCR1 = 985;
  78:stm32f3x_system.c **** 	TIM4->CCR2 = 985;
 340              		.loc 1 78 13 is_stmt 0 view .LVU82
 341 0128 6663     		str	r6, [r4, #52]	@ tmp173, MEM[(struct TIM_TypeDef *)1073743872B].CCR1
  79:stm32f3x_system.c ****         TIM_Cmd(TIM4, ENABLE); //CEN Bit gets written
 342              		.loc 1 79 2 is_stmt 1 view .LVU83
 343              	@ stm32f3x_system.c:79: 	TIM4->CCR2 = 985;
  79:stm32f3x_system.c ****         TIM_Cmd(TIM4, ENABLE); //CEN Bit gets written
 344              		.loc 1 79 13 is_stmt 0 view .LVU84
 345 012a A663     		str	r6, [r4, #56]	@ tmp173, MEM[(struct TIM_TypeDef *)1073743872B].CCR2
 346              		.loc 1 80 9 is_stmt 1 view .LVU85
 347              	@ stm32f3x_system.c:82:         TIM_DeInit(TIM16);
  81:stm32f3x_system.c **** 
ARM GAS  /var/folders/_2/qbh2zpt918qcm2b_6mgyydnm0000gn/T//ccOjgwl7.s 			page 9


  82:stm32f3x_system.c ****         TIM_DeInit(TIM16);
 348              		.loc 1 82 9 is_stmt 0 view .LVU86
 349 012c 04F59E34 		add	r4, r4, #80896	@ tmp203, tmp203,
 350              	@ stm32f3x_system.c:80:         TIM_Cmd(TIM4, ENABLE); //CEN Bit gets written
  80:stm32f3x_system.c **** 
 351              		.loc 1 80 9 view .LVU87
 352 0130 FFF7FEFF 		bl	TIM_Cmd		@
 353              	.LVL18:
 354              		.loc 1 82 9 is_stmt 1 view .LVU88
 355 0134 2046     		mov	r0, r4	@, tmp203
 356 0136 FFF7FEFF 		bl	TIM_DeInit		@
 357              	.LVL19:
  83:stm32f3x_system.c ****         TIM16->CR1 |= (0x01 << 7);
 358              		.loc 1 83 9 view .LVU89
 359              	@ stm32f3x_system.c:83:         TIM16->CR1 |= (0x01 << 7);
 360              		.loc 1 83 20 is_stmt 0 view .LVU90
 361 013a 2388     		ldrh	r3, [r4]	@, MEM[(struct TIM_TypeDef *)1073824768B].CR1
 362 013c 9BB2     		uxth	r3, r3	@ _15, MEM[(struct TIM_TypeDef *)1073824768B].CR1
 363 013e 43F08003 		orr	r3, r3, #128	@ _16, _15,
 364 0142 2380     		strh	r3, [r4]	@ movhi	@ _16, MEM[(struct TIM_TypeDef *)1073824768B].CR1
  84:stm32f3x_system.c ****         TIM16->CCMR1 |= (0x06 << 4 ) | (0x01 << 3);
 365              		.loc 1 84 9 is_stmt 1 view .LVU91
 366              	@ stm32f3x_system.c:84:         TIM16->CCMR1 |= (0x06 << 4 ) | (0x01 << 3);
 367              		.loc 1 84 22 is_stmt 0 view .LVU92
 368 0144 A369     		ldr	r3, [r4, #24]	@ _17, MEM[(struct TIM_TypeDef *)1073824768B].CCMR1
 369 0146 43F06803 		orr	r3, r3, #104	@ _18, _17,
 370 014a A361     		str	r3, [r4, #24]	@ _18, MEM[(struct TIM_TypeDef *)1073824768B].CCMR1
  85:stm32f3x_system.c ****         TIM16->CCER |= (0x01);
 371              		.loc 1 85 9 is_stmt 1 view .LVU93
 372              	@ stm32f3x_system.c:85:         TIM16->CCER |= (0x01);
 373              		.loc 1 85 21 is_stmt 0 view .LVU94
 374 014c 236A     		ldr	r3, [r4, #32]	@ _19, MEM[(struct TIM_TypeDef *)1073824768B].CCER
 375              	@ stm32f3x_system.c:86:         TIM16->PSC = 71; 
  86:stm32f3x_system.c ****         TIM16->PSC = 71; 
 376              		.loc 1 86 20 view .LVU95
 377 014e 4726     		movs	r6, #71	@ tmp215,
 378              	@ stm32f3x_system.c:87:         TIM16->ARR = 3999;
  87:stm32f3x_system.c ****         TIM16->ARR = 3999;
 379              		.loc 1 87 20 view .LVU96
 380 0150 40F69F77 		movw	r7, #3999	@ tmp217,
 381              	@ stm32f3x_system.c:85:         TIM16->CCER |= (0x01);
  85:stm32f3x_system.c ****         TIM16->CCER |= (0x01);
 382              		.loc 1 85 21 view .LVU97
 383 0154 43F00103 		orr	r3, r3, #1	@ _20, _19,
 384 0158 2362     		str	r3, [r4, #32]	@ _20, MEM[(struct TIM_TypeDef *)1073824768B].CCER
  86:stm32f3x_system.c ****         TIM16->PSC = 71; 
 385              		.loc 1 86 9 is_stmt 1 view .LVU98
 386              	@ stm32f3x_system.c:86:         TIM16->PSC = 71; 
  86:stm32f3x_system.c ****         TIM16->PSC = 71; 
 387              		.loc 1 86 20 is_stmt 0 view .LVU99
 388 015a 2685     		strh	r6, [r4, #40]	@ movhi	@ tmp215, MEM[(struct TIM_TypeDef *)1073824768B].PSC
 389              		.loc 1 87 9 is_stmt 1 view .LVU100
 390              	@ stm32f3x_system.c:87:         TIM16->ARR = 3999;
 391              		.loc 1 87 20 is_stmt 0 view .LVU101
 392 015c E762     		str	r7, [r4, #44]	@ tmp217, MEM[(struct TIM_TypeDef *)1073824768B].ARR
  88:stm32f3x_system.c ****         TIM16->CCR1 = 2000;
 393              		.loc 1 88 9 is_stmt 1 view .LVU102
ARM GAS  /var/folders/_2/qbh2zpt918qcm2b_6mgyydnm0000gn/T//ccOjgwl7.s 			page 10


 394              	@ stm32f3x_system.c:88:         TIM16->CCR1 = 2000;
 395              		.loc 1 88 21 is_stmt 0 view .LVU103
 396 015e 6563     		str	r5, [r4, #52]	@ tmp171, MEM[(struct TIM_TypeDef *)1073824768B].CCR1
  89:stm32f3x_system.c ****         TIM16->BDTR |= TIM_BDTR_MOE;
 397              		.loc 1 89 9 is_stmt 1 view .LVU104
 398              	@ stm32f3x_system.c:89:         TIM16->BDTR |= TIM_BDTR_MOE;
 399              		.loc 1 89 21 is_stmt 0 view .LVU105
 400 0160 636C     		ldr	r3, [r4, #68]	@ _21, MEM[(struct TIM_TypeDef *)1073824768B].BDTR
 401 0162 43F40043 		orr	r3, r3, #32768	@ _22, _21,
 402 0166 6364     		str	r3, [r4, #68]	@ _22, MEM[(struct TIM_TypeDef *)1073824768B].BDTR
  90:stm32f3x_system.c ****         TIM16->EGR |= 0x01;
 403              		.loc 1 90 9 is_stmt 1 view .LVU106
 404              	@ stm32f3x_system.c:90:         TIM16->EGR |= 0x01;
 405              		.loc 1 90 20 is_stmt 0 view .LVU107
 406 0168 6369     		ldr	r3, [r4, #20]	@ _23, MEM[(struct TIM_TypeDef *)1073824768B].EGR
 407 016a 43F00103 		orr	r3, r3, #1	@ _24, _23,
 408 016e 6361     		str	r3, [r4, #20]	@ _24, MEM[(struct TIM_TypeDef *)1073824768B].EGR
  91:stm32f3x_system.c ****         TIM_Cmd(TIM16, ENABLE); 
 409              		.loc 1 91 9 is_stmt 1 view .LVU108
 410 0170 2046     		mov	r0, r4	@, tmp203
 411 0172 0121     		movs	r1, #1	@,
 412              	@ stm32f3x_system.c:93:         TIM_DeInit(TIM17);
  92:stm32f3x_system.c ****  
  93:stm32f3x_system.c ****         TIM_DeInit(TIM17);
 413              		.loc 1 93 9 is_stmt 0 view .LVU109
 414 0174 04F58064 		add	r4, r4, #1024	@ tmp225, tmp225,
 415              	@ stm32f3x_system.c:91:         TIM_Cmd(TIM16, ENABLE); 
  91:stm32f3x_system.c ****         TIM_Cmd(TIM16, ENABLE); 
 416              		.loc 1 91 9 view .LVU110
 417 0178 FFF7FEFF 		bl	TIM_Cmd		@
 418              	.LVL20:
 419              		.loc 1 93 9 is_stmt 1 view .LVU111
 420 017c 2046     		mov	r0, r4	@, tmp225
 421 017e FFF7FEFF 		bl	TIM_DeInit		@
 422              	.LVL21:
  94:stm32f3x_system.c ****         TIM17->CR1 |= (0x01 << 7);
 423              		.loc 1 94 9 view .LVU112
 424              	@ stm32f3x_system.c:94:         TIM17->CR1 |= (0x01 << 7);
 425              		.loc 1 94 20 is_stmt 0 view .LVU113
 426 0182 2388     		ldrh	r3, [r4]	@, MEM[(struct TIM_TypeDef *)1073825792B].CR1
 427 0184 9BB2     		uxth	r3, r3	@ _25, MEM[(struct TIM_TypeDef *)1073825792B].CR1
 428 0186 43F08003 		orr	r3, r3, #128	@ _26, _25,
 429 018a 2380     		strh	r3, [r4]	@ movhi	@ _26, MEM[(struct TIM_TypeDef *)1073825792B].CR1
  95:stm32f3x_system.c ****   	TIM17->CCMR1 |= (0x06 << 4 ) | (0x01 << 3);
 430              		.loc 1 95 4 is_stmt 1 view .LVU114
 431              	@ stm32f3x_system.c:95:   	TIM17->CCMR1 |= (0x06 << 4 ) | (0x01 << 3);
 432              		.loc 1 95 17 is_stmt 0 view .LVU115
 433 018c A369     		ldr	r3, [r4, #24]	@ _27, MEM[(struct TIM_TypeDef *)1073825792B].CCMR1
 434 018e 43F06803 		orr	r3, r3, #104	@ _28, _27,
 435 0192 A361     		str	r3, [r4, #24]	@ _28, MEM[(struct TIM_TypeDef *)1073825792B].CCMR1
  96:stm32f3x_system.c ****         TIM17->CCER |= (0x01);
 436              		.loc 1 96 9 is_stmt 1 view .LVU116
 437              	@ stm32f3x_system.c:96:         TIM17->CCER |= (0x01);
 438              		.loc 1 96 21 is_stmt 0 view .LVU117
 439 0194 236A     		ldr	r3, [r4, #32]	@ _29, MEM[(struct TIM_TypeDef *)1073825792B].CCER
 440 0196 43F00103 		orr	r3, r3, #1	@ _30, _29,
 441 019a 2362     		str	r3, [r4, #32]	@ _30, MEM[(struct TIM_TypeDef *)1073825792B].CCER
ARM GAS  /var/folders/_2/qbh2zpt918qcm2b_6mgyydnm0000gn/T//ccOjgwl7.s 			page 11


  97:stm32f3x_system.c ****         TIM17->PSC = 71; 
 442              		.loc 1 97 9 is_stmt 1 view .LVU118
 443              	@ stm32f3x_system.c:97:         TIM17->PSC = 71; 
 444              		.loc 1 97 20 is_stmt 0 view .LVU119
 445 019c 2685     		strh	r6, [r4, #40]	@ movhi	@ tmp215, MEM[(struct TIM_TypeDef *)1073825792B].PSC
  98:stm32f3x_system.c ****         TIM17->ARR = 3999;
 446              		.loc 1 98 9 is_stmt 1 view .LVU120
 447              	@ stm32f3x_system.c:98:         TIM17->ARR = 3999;
 448              		.loc 1 98 20 is_stmt 0 view .LVU121
 449 019e E762     		str	r7, [r4, #44]	@ tmp217, MEM[(struct TIM_TypeDef *)1073825792B].ARR
  99:stm32f3x_system.c ****         TIM17->CCR1 = 2000;
 450              		.loc 1 99 9 is_stmt 1 view .LVU122
 451              	@ stm32f3x_system.c:99:         TIM17->CCR1 = 2000;
 452              		.loc 1 99 21 is_stmt 0 view .LVU123
 453 01a0 6563     		str	r5, [r4, #52]	@ tmp171, MEM[(struct TIM_TypeDef *)1073825792B].CCR1
 100:stm32f3x_system.c ****         TIM17->BDTR |= TIM_BDTR_MOE;
 454              		.loc 1 100 9 is_stmt 1 view .LVU124
 455              	@ stm32f3x_system.c:100:         TIM17->BDTR |= TIM_BDTR_MOE;
 456              		.loc 1 100 21 is_stmt 0 view .LVU125
 457 01a2 636C     		ldr	r3, [r4, #68]	@ _31, MEM[(struct TIM_TypeDef *)1073825792B].BDTR
 458 01a4 43F40043 		orr	r3, r3, #32768	@ _32, _31,
 459 01a8 6364     		str	r3, [r4, #68]	@ _32, MEM[(struct TIM_TypeDef *)1073825792B].BDTR
 101:stm32f3x_system.c ****         TIM17->EGR |= 0x01;
 460              		.loc 1 101 9 is_stmt 1 view .LVU126
 461              	@ stm32f3x_system.c:101:         TIM17->EGR |= 0x01;
 462              		.loc 1 101 20 is_stmt 0 view .LVU127
 463 01aa 6369     		ldr	r3, [r4, #20]	@ _33, MEM[(struct TIM_TypeDef *)1073825792B].EGR
 464 01ac 43F00103 		orr	r3, r3, #1	@ _34, _33,
 465              	@ stm32f3x_system.c:102:         TIM_Cmd(TIM17, ENABLE); 
 102:stm32f3x_system.c ****         TIM_Cmd(TIM17, ENABLE); 
 466              		.loc 1 102 9 view .LVU128
 467 01b0 0121     		movs	r1, #1	@,
 468              	@ stm32f3x_system.c:101:         TIM17->EGR |= 0x01;
 101:stm32f3x_system.c ****         TIM17->EGR |= 0x01;
 469              		.loc 1 101 20 view .LVU129
 470 01b2 6361     		str	r3, [r4, #20]	@ _34, MEM[(struct TIM_TypeDef *)1073825792B].EGR
 471              		.loc 1 102 9 is_stmt 1 view .LVU130
 472 01b4 2046     		mov	r0, r4	@, tmp225
 473 01b6 FFF7FEFF 		bl	TIM_Cmd		@
 474              	.LVL22:
 103:stm32f3x_system.c ****  
 104:stm32f3x_system.c **** 
 105:stm32f3x_system.c ****   NVIC_InitTypeDef nvic_tim7;
 475              		.loc 1 105 3 view .LVU131
 106:stm32f3x_system.c ****   nvic_tim7.NVIC_IRQChannel = TIM7_IRQn;
 476              		.loc 1 106 3 view .LVU132
 107:stm32f3x_system.c ****   nvic_tim7.NVIC_IRQChannelCmd = ENABLE;
 477              		.loc 1 107 3 view .LVU133
 108:stm32f3x_system.c ****   nvic_tim7.NVIC_IRQChannelPreemptionPriority = 0x05;
 478              		.loc 1 108 3 view .LVU134
 109:stm32f3x_system.c ****   nvic_tim7.NVIC_IRQChannelSubPriority = 0x05;
 479              		.loc 1 109 3 view .LVU135
 480              	@ stm32f3x_system.c:112:   TIM_DeInit(TIM7);
 110:stm32f3x_system.c ****   NVIC_Init(&nvic_tim7);
 111:stm32f3x_system.c **** 
 112:stm32f3x_system.c ****   TIM_DeInit(TIM7);
 481              		.loc 1 112 3 is_stmt 0 view .LVU136
ARM GAS  /var/folders/_2/qbh2zpt918qcm2b_6mgyydnm0000gn/T//ccOjgwl7.s 			page 12


 482 01ba A4F59A34 		sub	r4, r4, #78848	@ tmp249, tmp249,
 483              	@ stm32f3x_system.c:106:   nvic_tim7.NVIC_IRQChannel = TIM7_IRQn;
 106:stm32f3x_system.c ****   nvic_tim7.NVIC_IRQChannelCmd = ENABLE;
 484              		.loc 1 106 29 view .LVU137
 485 01be 0E4B     		ldr	r3, .L2+4	@ tmp247,
 486 01c0 0193     		str	r3, [sp, #4]	@ tmp247, MEM[(void *)&nvic_tim7]
 110:stm32f3x_system.c ****   NVIC_Init(&nvic_tim7);
 487              		.loc 1 110 3 is_stmt 1 view .LVU138
 488 01c2 01A8     		add	r0, sp, #4	@,,
 489 01c4 FFF7FEFF 		bl	NVIC_Init		@
 490              	.LVL23:
 491              		.loc 1 112 3 view .LVU139
 492 01c8 2046     		mov	r0, r4	@, tmp249
 493 01ca FFF7FEFF 		bl	TIM_DeInit		@
 494              	.LVL24:
 113:stm32f3x_system.c ****   TIM7->CR1 |= (0x01 << 7) ;
 495              		.loc 1 113 3 view .LVU140
 496              	@ stm32f3x_system.c:113:   TIM7->CR1 |= (0x01 << 7) ;
 497              		.loc 1 113 13 is_stmt 0 view .LVU141
 498 01ce 2388     		ldrh	r3, [r4]	@, MEM[(struct TIM_TypeDef *)1073746944B].CR1
 499 01d0 9BB2     		uxth	r3, r3	@ _35, MEM[(struct TIM_TypeDef *)1073746944B].CR1
 500 01d2 43F08003 		orr	r3, r3, #128	@ _36, _35,
 501 01d6 2380     		strh	r3, [r4]	@ movhi	@ _36, MEM[(struct TIM_TypeDef *)1073746944B].CR1
 114:stm32f3x_system.c ****  // TIM7->DIER |= (0x01 << 0);
 115:stm32f3x_system.c ****   TIM7->PSC = 71; 
 502              		.loc 1 115 3 is_stmt 1 view .LVU142
 503              	@ stm32f3x_system.c:116:   TIM7->ARR = 0xFFFF;
 116:stm32f3x_system.c ****   TIM7->ARR = 0xFFFF;
 504              		.loc 1 116 13 is_stmt 0 view .LVU143
 505 01d8 4FF6FF73 		movw	r3, #65535	@ tmp259,
 506              	@ stm32f3x_system.c:115:   TIM7->PSC = 71; 
 115:stm32f3x_system.c ****   TIM7->ARR = 0xFFFF;
 507              		.loc 1 115 13 view .LVU144
 508 01dc 2685     		strh	r6, [r4, #40]	@ movhi	@ tmp215, MEM[(struct TIM_TypeDef *)1073746944B].PSC
 509              		.loc 1 116 3 is_stmt 1 view .LVU145
 510              	@ stm32f3x_system.c:116:   TIM7->ARR = 0xFFFF;
 511              		.loc 1 116 13 is_stmt 0 view .LVU146
 512 01de E362     		str	r3, [r4, #44]	@ tmp259, MEM[(struct TIM_TypeDef *)1073746944B].ARR
 117:stm32f3x_system.c ****   TIM7->SR = 0x00; 
 513              		.loc 1 117 3 is_stmt 1 view .LVU147
 514              	@ stm32f3x_system.c:117:   TIM7->SR = 0x00; 
 515              		.loc 1 117 12 is_stmt 0 view .LVU148
 516 01e0 0023     		movs	r3, #0	@ tmp261,
 517 01e2 2361     		str	r3, [r4, #16]	@ tmp261, MEM[(struct TIM_TypeDef *)1073746944B].SR
 118:stm32f3x_system.c ****   TIM_Cmd(TIM7, ENABLE); 
 518              		.loc 1 118 3 is_stmt 1 view .LVU149
 519 01e4 0121     		movs	r1, #1	@,
 520 01e6 2046     		mov	r0, r4	@, tmp249
 521 01e8 FFF7FEFF 		bl	TIM_Cmd		@
 522              	.LVL25:
 523              	@ stm32f3x_system.c:119: };
 119:stm32f3x_system.c **** };
 524              		.loc 1 119 1 is_stmt 0 view .LVU150
 525 01ec 06B0     		add	sp, sp, #24	@,,
 526              	.LCFI2:
 527              		.cfi_def_cfa_offset 24
 528              		@ sp needed	@
ARM GAS  /var/folders/_2/qbh2zpt918qcm2b_6mgyydnm0000gn/T//ccOjgwl7.s 			page 13


 529 01ee BDE8F081 		pop	{r4, r5, r6, r7, r8, pc}	@
 530              	.L3:
 531 01f2 00BF     		.align	2
 532              	.L2:
 533 01f4 00040048 		.word	1207960576
 534 01f8 37050501 		.word	17106231
 535              		.cfi_endproc
 536              	.LFE123:
 537              		.size	init_timer_pwm, .-init_timer_pwm
 538              		.align	1
 539              		.global	init_timer_ppm
 540              		.syntax unified
 541              		.thumb
 542              		.thumb_func
 543              		.fpu softvfp
 544              		.type	init_timer_ppm, %function
 545              	init_timer_ppm:
 546              	.LFB124:
 120:stm32f3x_system.c **** 
 121:stm32f3x_system.c **** void init_timer_ppm(){	
 547              		.loc 1 121 22 is_stmt 1 view -0
 548              		.cfi_startproc
 549              		@ args = 0, pretend = 0, frame = 16
 550              		@ frame_needed = 0, uses_anonymous_args = 0
 122:stm32f3x_system.c **** 	
 123:stm32f3x_system.c **** 	RCC_APB1PeriphClockCmd(RCC_APB1Periph_TIM2, ENABLE);
 551              		.loc 1 123 2 view .LVU152
 552              	@ stm32f3x_system.c:121: void init_timer_ppm(){	
 121:stm32f3x_system.c **** 	
 553              		.loc 1 121 22 is_stmt 0 view .LVU153
 554 01fc 1FB5     		push	{r0, r1, r2, r3, r4, lr}	@
 555              	.LCFI3:
 556              		.cfi_def_cfa_offset 24
 557              		.cfi_offset 4, -8
 558              		.cfi_offset 14, -4
 559              	@ stm32f3x_system.c:125: 	GPIO_PinAFConfig(GPIOB, GPIO_PinSource11, GPIO_AF_1); //TIM2_CH1_ETR
 124:stm32f3x_system.c **** 	
 125:stm32f3x_system.c **** 	GPIO_PinAFConfig(GPIOB, GPIO_PinSource11, GPIO_AF_1); //TIM2_CH1_ETR
 560              		.loc 1 125 2 view .LVU154
 561 01fe 234C     		ldr	r4, .L5	@ tmp117,
 562              	@ stm32f3x_system.c:123: 	RCC_APB1PeriphClockCmd(RCC_APB1Periph_TIM2, ENABLE);
 123:stm32f3x_system.c **** 	
 563              		.loc 1 123 2 view .LVU155
 564 0200 0121     		movs	r1, #1	@,
 565 0202 0846     		mov	r0, r1	@,
 566 0204 FFF7FEFF 		bl	RCC_APB1PeriphClockCmd		@
 567              	.LVL26:
 568              		.loc 1 125 2 is_stmt 1 view .LVU156
 569 0208 2046     		mov	r0, r4	@, tmp117
 570 020a 0122     		movs	r2, #1	@,
 571 020c 0B21     		movs	r1, #11	@,
 572 020e FFF7FEFF 		bl	GPIO_PinAFConfig		@
 573              	.LVL27:
 126:stm32f3x_system.c **** 	
 127:stm32f3x_system.c **** 	GPIO_InitTypeDef GPIOB_ppm_init;
 574              		.loc 1 127 2 view .LVU157
 128:stm32f3x_system.c **** 	GPIOB_ppm_init.GPIO_Mode = GPIO_Mode_AF;
ARM GAS  /var/folders/_2/qbh2zpt918qcm2b_6mgyydnm0000gn/T//ccOjgwl7.s 			page 14


 575              		.loc 1 128 2 view .LVU158
 129:stm32f3x_system.c **** 	GPIOB_ppm_init.GPIO_OType = GPIO_OType_PP;
 576              		.loc 1 129 2 view .LVU159
 130:stm32f3x_system.c **** 	GPIOB_ppm_init.GPIO_Pin = GPIO_Pin_11;
 577              		.loc 1 130 2 view .LVU160
 131:stm32f3x_system.c **** 	GPIOB_ppm_init.GPIO_PuPd = GPIO_PuPd_NOPULL;
 578              		.loc 1 131 2 view .LVU161
 132:stm32f3x_system.c **** 	GPIOB_ppm_init.GPIO_Speed = GPIO_Speed_Level_3;	
 579              		.loc 1 132 2 view .LVU162
 580              	@ stm32f3x_system.c:128: 	GPIOB_ppm_init.GPIO_Mode = GPIO_Mode_AF;
 128:stm32f3x_system.c **** 	GPIOB_ppm_init.GPIO_OType = GPIO_OType_PP;
 581              		.loc 1 128 27 is_stmt 0 view .LVU163
 582 0212 4FF40062 		mov	r2, #2048	@,
 583              	@ stm32f3x_system.c:133: 	GPIO_Init(GPIOB, &GPIOB_ppm_init);
 133:stm32f3x_system.c **** 	GPIO_Init(GPIOB, &GPIOB_ppm_init);
 584              		.loc 1 133 2 view .LVU164
 585 0216 02A9     		add	r1, sp, #8	@,,
 586              	@ stm32f3x_system.c:128: 	GPIOB_ppm_init.GPIO_Mode = GPIO_Mode_AF;
 128:stm32f3x_system.c **** 	GPIOB_ppm_init.GPIO_OType = GPIO_OType_PP;
 587              		.loc 1 128 27 view .LVU165
 588 0218 40F20233 		movw	r3, #770	@ tmp119,
 589              	@ stm32f3x_system.c:133: 	GPIO_Init(GPIOB, &GPIOB_ppm_init);
 590              		.loc 1 133 2 view .LVU166
 591 021c 2046     		mov	r0, r4	@, tmp117
 592              	@ stm32f3x_system.c:128: 	GPIOB_ppm_init.GPIO_Mode = GPIO_Mode_AF;
 128:stm32f3x_system.c **** 	GPIOB_ppm_init.GPIO_OType = GPIO_OType_PP;
 593              		.loc 1 128 27 view .LVU167
 594 021e CDE90223 		strd	r2, r3, [sp, #8]	@, tmp119,,
 595              		.loc 1 133 2 is_stmt 1 view .LVU168
 596 0222 FFF7FEFF 		bl	GPIO_Init		@
 597              	.LVL28:
 134:stm32f3x_system.c **** 
 135:stm32f3x_system.c **** 
 136:stm32f3x_system.c **** 	//MISC of the standard library
 137:stm32f3x_system.c **** 	NVIC_InitTypeDef nvic_tim2;
 598              		.loc 1 137 2 view .LVU169
 138:stm32f3x_system.c **** 	nvic_tim2.NVIC_IRQChannel = TIM2_IRQn;
 599              		.loc 1 138 2 view .LVU170
 139:stm32f3x_system.c **** 	nvic_tim2.NVIC_IRQChannelCmd = ENABLE;
 600              		.loc 1 139 2 view .LVU171
 140:stm32f3x_system.c **** 	nvic_tim2.NVIC_IRQChannelPreemptionPriority = 0x05;
 601              		.loc 1 140 2 view .LVU172
 141:stm32f3x_system.c **** 	nvic_tim2.NVIC_IRQChannelSubPriority = 0x05;
 602              		.loc 1 141 2 view .LVU173
 603              	@ stm32f3x_system.c:138: 	nvic_tim2.NVIC_IRQChannel = TIM2_IRQn;
 138:stm32f3x_system.c **** 	nvic_tim2.NVIC_IRQChannelCmd = ENABLE;
 604              		.loc 1 138 28 is_stmt 0 view .LVU174
 605 0226 1A4B     		ldr	r3, .L5+4	@ tmp122,
 606 0228 0193     		str	r3, [sp, #4]	@ tmp122, MEM[(void *)&nvic_tim2]
 142:stm32f3x_system.c **** 	NVIC_Init(&nvic_tim2);
 607              		.loc 1 142 2 is_stmt 1 view .LVU175
 608 022a 01A8     		add	r0, sp, #4	@,,
 609              	@ stm32f3x_system.c:146: 	TIM2->CCMR2 |= (0x01 << 8); //Setting CC4S to 01 to conect the CCR4 is li
 143:stm32f3x_system.c **** 
 144:stm32f3x_system.c **** 	TIM_DeInit(TIM2);
 145:stm32f3x_system.c **** 	TIM_CounterModeConfig(TIM2, TIM_CounterMode_Up);	
 146:stm32f3x_system.c **** 	TIM2->CCMR2 |= (0x01 << 8); //Setting CC4S to 01 to conect the CCR4 is linked to TI1;
ARM GAS  /var/folders/_2/qbh2zpt918qcm2b_6mgyydnm0000gn/T//ccOjgwl7.s 			page 15


 610              		.loc 1 146 14 is_stmt 0 view .LVU176
 611 022c 4FF08044 		mov	r4, #1073741824	@ tmp124,
 612              	@ stm32f3x_system.c:142: 	NVIC_Init(&nvic_tim2);
 142:stm32f3x_system.c **** 	NVIC_Init(&nvic_tim2);
 613              		.loc 1 142 2 view .LVU177
 614 0230 FFF7FEFF 		bl	NVIC_Init		@
 615              	.LVL29:
 144:stm32f3x_system.c **** 	TIM_CounterModeConfig(TIM2, TIM_CounterMode_Up);	
 616              		.loc 1 144 2 is_stmt 1 view .LVU178
 617 0234 4FF08040 		mov	r0, #1073741824	@,
 618 0238 FFF7FEFF 		bl	TIM_DeInit		@
 619              	.LVL30:
 145:stm32f3x_system.c **** 	TIM2->CCMR2 |= (0x01 << 8); //Setting CC4S to 01 to conect the CCR4 is linked to TI1;
 620              		.loc 1 145 2 view .LVU179
 621 023c 0021     		movs	r1, #0	@,
 622 023e 4FF08040 		mov	r0, #1073741824	@,
 623 0242 FFF7FEFF 		bl	TIM_CounterModeConfig		@
 624              	.LVL31:
 625              		.loc 1 146 2 view .LVU180
 626              	@ stm32f3x_system.c:146: 	TIM2->CCMR2 |= (0x01 << 8); //Setting CC4S to 01 to conect the CCR4 is li
 627              		.loc 1 146 14 is_stmt 0 view .LVU181
 628 0246 E369     		ldr	r3, [r4, #28]	@ _1, MEM[(struct TIM_TypeDef *)1073741824B].CCMR2
 629 0248 43F48073 		orr	r3, r3, #256	@ _2, _1,
 630 024c E361     		str	r3, [r4, #28]	@ _2, MEM[(struct TIM_TypeDef *)1073741824B].CCMR2
 147:stm32f3x_system.c **** 	TIM2->CCMR2 |= (0x1 << 12); // setting the filter to 8 consecutive clock cycles with stable signal
 631              		.loc 1 147 2 is_stmt 1 view .LVU182
 632              	@ stm32f3x_system.c:147: 	TIM2->CCMR2 |= (0x1 << 12); // setting the filter to 8 consecutive clock 
 633              		.loc 1 147 14 is_stmt 0 view .LVU183
 634 024e E369     		ldr	r3, [r4, #28]	@ _3, MEM[(struct TIM_TypeDef *)1073741824B].CCMR2
 635 0250 43F48053 		orr	r3, r3, #4096	@ _4, _3,
 636 0254 E361     		str	r3, [r4, #28]	@ _4, MEM[(struct TIM_TypeDef *)1073741824B].CCMR2
 148:stm32f3x_system.c **** 	TIM2->CCER |= (0x01 << 12); // Seeting the Capture enable CC4E
 637              		.loc 1 148 2 is_stmt 1 view .LVU184
 638              	@ stm32f3x_system.c:148: 	TIM2->CCER |= (0x01 << 12); // Seeting the Capture enable CC4E
 639              		.loc 1 148 13 is_stmt 0 view .LVU185
 640 0256 236A     		ldr	r3, [r4, #32]	@ _5, MEM[(struct TIM_TypeDef *)1073741824B].CCER
 641 0258 43F48053 		orr	r3, r3, #4096	@ _6, _5,
 642 025c 2362     		str	r3, [r4, #32]	@ _6, MEM[(struct TIM_TypeDef *)1073741824B].CCER
 149:stm32f3x_system.c ****     	TIM2->CCER |= (0x00 << 13 ); // Detect the falling edge CC4P
 643              		.loc 1 149 6 is_stmt 1 view .LVU186
 644              	@ stm32f3x_system.c:149:     	TIM2->CCER |= (0x00 << 13 ); // Detect the falling edge CC4P
 645              		.loc 1 149 17 is_stmt 0 view .LVU187
 646 025e 236A     		ldr	r3, [r4, #32]	@ _7, MEM[(struct TIM_TypeDef *)1073741824B].CCER
 647 0260 2362     		str	r3, [r4, #32]	@ _7, MEM[(struct TIM_TypeDef *)1073741824B].CCER
 150:stm32f3x_system.c **** 
 151:stm32f3x_system.c **** 	//TIM2->DIER |= (0x01 << 1);
 152:stm32f3x_system.c **** 	TIM_PrescalerConfig(TIM2, 71, TIM_PSCReloadMode_Update); // Prescaler will be equal to fCK_PSC / (
 648              		.loc 1 152 2 is_stmt 1 view .LVU188
 649 0262 0022     		movs	r2, #0	@,
 650 0264 2046     		mov	r0, r4	@, tmp124
 651 0266 4721     		movs	r1, #71	@,
 652 0268 FFF7FEFF 		bl	TIM_PrescalerConfig		@
 653              	.LVL32:
 153:stm32f3x_system.c ****     	TIM_SetAutoreload(TIM2, 0xFFFF);//TIM2->ARR = 0xFFFF;
 654              		.loc 1 153 6 view .LVU189
 655 026c 2046     		mov	r0, r4	@, tmp124
 656 026e 4FF6FF71 		movw	r1, #65535	@,
ARM GAS  /var/folders/_2/qbh2zpt918qcm2b_6mgyydnm0000gn/T//ccOjgwl7.s 			page 16


 657 0272 FFF7FEFF 		bl	TIM_SetAutoreload		@
 658              	.LVL33:
 154:stm32f3x_system.c ****     	TIM_ITConfig(TIM2, TIM_IT_CC4, ENABLE); // Eable the Input Compare Interrupt.
 659              		.loc 1 154 6 view .LVU190
 660 0276 0122     		movs	r2, #1	@,
 661 0278 2046     		mov	r0, r4	@, tmp124
 662 027a 1021     		movs	r1, #16	@,
 663 027c FFF7FEFF 		bl	TIM_ITConfig		@
 664              	.LVL34:
 155:stm32f3x_system.c **** 	TIM_Cmd(TIM2, ENABLE); //TIM2->CR1 |= 0x01; Enable the TIMER 1 
 665              		.loc 1 155 2 view .LVU191
 666 0280 0121     		movs	r1, #1	@,
 667 0282 2046     		mov	r0, r4	@, tmp124
 668 0284 FFF7FEFF 		bl	TIM_Cmd		@
 669              	.LVL35:
 670              	@ stm32f3x_system.c:163: };
 156:stm32f3x_system.c ****     
 157:stm32f3x_system.c **** 	/**TI2_Config(TIM2, TIM_ICPolarity_Rising, TIM_ICSelection_DirectTI, 0x00); 
 158:stm32f3x_system.c **** 	 * TIMx_CCR1 must be linked to the TI1 input, so write the CC1S bits to 01 in the TIMx_CCMR1 regis
 159:stm32f3x_system.c **** 	 * As soon as CC1S becomes different from 00, the channel is configured in input and the TIMx_CCR1
 160:stm32f3x_system.c **** 	 * register becomes read-only. Set the CCER register to CC1P or CC1E
 161:stm32f3x_system.c **** 	 */
 162:stm32f3x_system.c ****     
 163:stm32f3x_system.c **** };
 671              		.loc 1 163 1 is_stmt 0 view .LVU192
 672 0288 04B0     		add	sp, sp, #16	@,,
 673              	.LCFI4:
 674              		.cfi_def_cfa_offset 8
 675              		@ sp needed	@
 676 028a 10BD     		pop	{r4, pc}	@
 677              	.L6:
 678              		.align	2
 679              	.L5:
 680 028c 00040048 		.word	1207960576
 681 0290 1C050501 		.word	17106204
 682              		.cfi_endproc
 683              	.LFE124:
 684              		.size	init_timer_ppm, .-init_timer_ppm
 685              		.align	1
 686              		.global	stm32f3x_init
 687              		.syntax unified
 688              		.thumb
 689              		.thumb_func
 690              		.fpu softvfp
 691              		.type	stm32f3x_init, %function
 692              	stm32f3x_init:
 693              	.LFB125:
 164:stm32f3x_system.c **** 
 165:stm32f3x_system.c **** void stm32f3x_init(void){
 694              		.loc 1 165 25 is_stmt 1 view -0
 695              		.cfi_startproc
 696              		@ args = 0, pretend = 0, frame = 0
 697              		@ frame_needed = 0, uses_anonymous_args = 0
 698              		@ link register save eliminated.
 166:stm32f3x_system.c **** 	SysTick_Config(SystemCoreClock / 1000);
 699              		.loc 1 166 2 view .LVU194
 700              	.LVL36:
ARM GAS  /var/folders/_2/qbh2zpt918qcm2b_6mgyydnm0000gn/T//ccOjgwl7.s 			page 17


 701              	.LBB14:
 702              	.LBI14:
 703              		.file 2 "/Users/rdaneel/Binary/Roaming/C-Code/StmProjects/stm32f3x/lib/STM32F30x_DSP_StdPeriph_Lib
   1:/Users/rdaneel/Binary/Roaming/C-Code/StmProjects/stm32f3x/lib/STM32F30x_DSP_StdPeriph_Lib_V1.2.3/Libraries/CMSIS/Include/core_cm4.h **** /**************************************************************************//**
   2:/Users/rdaneel/Binary/Roaming/C-Code/StmProjects/stm32f3x/lib/STM32F30x_DSP_StdPeriph_Lib_V1.2.3/Libraries/CMSIS/Include/core_cm4.h ****  * @file     core_cm4.h
   3:/Users/rdaneel/Binary/Roaming/C-Code/StmProjects/stm32f3x/lib/STM32F30x_DSP_StdPeriph_Lib_V1.2.3/Libraries/CMSIS/Include/core_cm4.h ****  * @brief    CMSIS Cortex-M4 Core Peripheral Access Layer Header File
   4:/Users/rdaneel/Binary/Roaming/C-Code/StmProjects/stm32f3x/lib/STM32F30x_DSP_StdPeriph_Lib_V1.2.3/Libraries/CMSIS/Include/core_cm4.h ****  * @version  V4.00
   5:/Users/rdaneel/Binary/Roaming/C-Code/StmProjects/stm32f3x/lib/STM32F30x_DSP_StdPeriph_Lib_V1.2.3/Libraries/CMSIS/Include/core_cm4.h ****  * @date     22. August 2014
   6:/Users/rdaneel/Binary/Roaming/C-Code/StmProjects/stm32f3x/lib/STM32F30x_DSP_StdPeriph_Lib_V1.2.3/Libraries/CMSIS/Include/core_cm4.h ****  *
   7:/Users/rdaneel/Binary/Roaming/C-Code/StmProjects/stm32f3x/lib/STM32F30x_DSP_StdPeriph_Lib_V1.2.3/Libraries/CMSIS/Include/core_cm4.h ****  * @note
   8:/Users/rdaneel/Binary/Roaming/C-Code/StmProjects/stm32f3x/lib/STM32F30x_DSP_StdPeriph_Lib_V1.2.3/Libraries/CMSIS/Include/core_cm4.h ****  *
   9:/Users/rdaneel/Binary/Roaming/C-Code/StmProjects/stm32f3x/lib/STM32F30x_DSP_StdPeriph_Lib_V1.2.3/Libraries/CMSIS/Include/core_cm4.h ****  ******************************************************************************/
  10:/Users/rdaneel/Binary/Roaming/C-Code/StmProjects/stm32f3x/lib/STM32F30x_DSP_StdPeriph_Lib_V1.2.3/Libraries/CMSIS/Include/core_cm4.h **** /* Copyright (c) 2009 - 2014 ARM LIMITED
  11:/Users/rdaneel/Binary/Roaming/C-Code/StmProjects/stm32f3x/lib/STM32F30x_DSP_StdPeriph_Lib_V1.2.3/Libraries/CMSIS/Include/core_cm4.h **** 
  12:/Users/rdaneel/Binary/Roaming/C-Code/StmProjects/stm32f3x/lib/STM32F30x_DSP_StdPeriph_Lib_V1.2.3/Libraries/CMSIS/Include/core_cm4.h ****    All rights reserved.
  13:/Users/rdaneel/Binary/Roaming/C-Code/StmProjects/stm32f3x/lib/STM32F30x_DSP_StdPeriph_Lib_V1.2.3/Libraries/CMSIS/Include/core_cm4.h ****    Redistribution and use in source and binary forms, with or without
  14:/Users/rdaneel/Binary/Roaming/C-Code/StmProjects/stm32f3x/lib/STM32F30x_DSP_StdPeriph_Lib_V1.2.3/Libraries/CMSIS/Include/core_cm4.h ****    modification, are permitted provided that the following conditions are met:
  15:/Users/rdaneel/Binary/Roaming/C-Code/StmProjects/stm32f3x/lib/STM32F30x_DSP_StdPeriph_Lib_V1.2.3/Libraries/CMSIS/Include/core_cm4.h ****    - Redistributions of source code must retain the above copyright
  16:/Users/rdaneel/Binary/Roaming/C-Code/StmProjects/stm32f3x/lib/STM32F30x_DSP_StdPeriph_Lib_V1.2.3/Libraries/CMSIS/Include/core_cm4.h ****      notice, this list of conditions and the following disclaimer.
  17:/Users/rdaneel/Binary/Roaming/C-Code/StmProjects/stm32f3x/lib/STM32F30x_DSP_StdPeriph_Lib_V1.2.3/Libraries/CMSIS/Include/core_cm4.h ****    - Redistributions in binary form must reproduce the above copyright
  18:/Users/rdaneel/Binary/Roaming/C-Code/StmProjects/stm32f3x/lib/STM32F30x_DSP_StdPeriph_Lib_V1.2.3/Libraries/CMSIS/Include/core_cm4.h ****      notice, this list of conditions and the following disclaimer in the
  19:/Users/rdaneel/Binary/Roaming/C-Code/StmProjects/stm32f3x/lib/STM32F30x_DSP_StdPeriph_Lib_V1.2.3/Libraries/CMSIS/Include/core_cm4.h ****      documentation and/or other materials provided with the distribution.
  20:/Users/rdaneel/Binary/Roaming/C-Code/StmProjects/stm32f3x/lib/STM32F30x_DSP_StdPeriph_Lib_V1.2.3/Libraries/CMSIS/Include/core_cm4.h ****    - Neither the name of ARM nor the names of its contributors may be used
  21:/Users/rdaneel/Binary/Roaming/C-Code/StmProjects/stm32f3x/lib/STM32F30x_DSP_StdPeriph_Lib_V1.2.3/Libraries/CMSIS/Include/core_cm4.h ****      to endorse or promote products derived from this software without
  22:/Users/rdaneel/Binary/Roaming/C-Code/StmProjects/stm32f3x/lib/STM32F30x_DSP_StdPeriph_Lib_V1.2.3/Libraries/CMSIS/Include/core_cm4.h ****      specific prior written permission.
  23:/Users/rdaneel/Binary/Roaming/C-Code/StmProjects/stm32f3x/lib/STM32F30x_DSP_StdPeriph_Lib_V1.2.3/Libraries/CMSIS/Include/core_cm4.h ****    *
  24:/Users/rdaneel/Binary/Roaming/C-Code/StmProjects/stm32f3x/lib/STM32F30x_DSP_StdPeriph_Lib_V1.2.3/Libraries/CMSIS/Include/core_cm4.h ****    THIS SOFTWARE IS PROVIDED BY THE COPYRIGHT HOLDERS AND CONTRIBUTORS "AS IS"
  25:/Users/rdaneel/Binary/Roaming/C-Code/StmProjects/stm32f3x/lib/STM32F30x_DSP_StdPeriph_Lib_V1.2.3/Libraries/CMSIS/Include/core_cm4.h ****    AND ANY EXPRESS OR IMPLIED WARRANTIES, INCLUDING, BUT NOT LIMITED TO, THE
  26:/Users/rdaneel/Binary/Roaming/C-Code/StmProjects/stm32f3x/lib/STM32F30x_DSP_StdPeriph_Lib_V1.2.3/Libraries/CMSIS/Include/core_cm4.h ****    IMPLIED WARRANTIES OF MERCHANTABILITY AND FITNESS FOR A PARTICULAR PURPOSE
  27:/Users/rdaneel/Binary/Roaming/C-Code/StmProjects/stm32f3x/lib/STM32F30x_DSP_StdPeriph_Lib_V1.2.3/Libraries/CMSIS/Include/core_cm4.h ****    ARE DISCLAIMED. IN NO EVENT SHALL COPYRIGHT HOLDERS AND CONTRIBUTORS BE
  28:/Users/rdaneel/Binary/Roaming/C-Code/StmProjects/stm32f3x/lib/STM32F30x_DSP_StdPeriph_Lib_V1.2.3/Libraries/CMSIS/Include/core_cm4.h ****    LIABLE FOR ANY DIRECT, INDIRECT, INCIDENTAL, SPECIAL, EXEMPLARY, OR
  29:/Users/rdaneel/Binary/Roaming/C-Code/StmProjects/stm32f3x/lib/STM32F30x_DSP_StdPeriph_Lib_V1.2.3/Libraries/CMSIS/Include/core_cm4.h ****    CONSEQUENTIAL DAMAGES (INCLUDING, BUT NOT LIMITED TO, PROCUREMENT OF
  30:/Users/rdaneel/Binary/Roaming/C-Code/StmProjects/stm32f3x/lib/STM32F30x_DSP_StdPeriph_Lib_V1.2.3/Libraries/CMSIS/Include/core_cm4.h ****    SUBSTITUTE GOODS OR SERVICES; LOSS OF USE, DATA, OR PROFITS; OR BUSINESS
  31:/Users/rdaneel/Binary/Roaming/C-Code/StmProjects/stm32f3x/lib/STM32F30x_DSP_StdPeriph_Lib_V1.2.3/Libraries/CMSIS/Include/core_cm4.h ****    INTERRUPTION) HOWEVER CAUSED AND ON ANY THEORY OF LIABILITY, WHETHER IN
  32:/Users/rdaneel/Binary/Roaming/C-Code/StmProjects/stm32f3x/lib/STM32F30x_DSP_StdPeriph_Lib_V1.2.3/Libraries/CMSIS/Include/core_cm4.h ****    CONTRACT, STRICT LIABILITY, OR TORT (INCLUDING NEGLIGENCE OR OTHERWISE)
  33:/Users/rdaneel/Binary/Roaming/C-Code/StmProjects/stm32f3x/lib/STM32F30x_DSP_StdPeriph_Lib_V1.2.3/Libraries/CMSIS/Include/core_cm4.h ****    ARISING IN ANY WAY OUT OF THE USE OF THIS SOFTWARE, EVEN IF ADVISED OF THE
  34:/Users/rdaneel/Binary/Roaming/C-Code/StmProjects/stm32f3x/lib/STM32F30x_DSP_StdPeriph_Lib_V1.2.3/Libraries/CMSIS/Include/core_cm4.h ****    POSSIBILITY OF SUCH DAMAGE.
  35:/Users/rdaneel/Binary/Roaming/C-Code/StmProjects/stm32f3x/lib/STM32F30x_DSP_StdPeriph_Lib_V1.2.3/Libraries/CMSIS/Include/core_cm4.h ****    ---------------------------------------------------------------------------*/
  36:/Users/rdaneel/Binary/Roaming/C-Code/StmProjects/stm32f3x/lib/STM32F30x_DSP_StdPeriph_Lib_V1.2.3/Libraries/CMSIS/Include/core_cm4.h **** 
  37:/Users/rdaneel/Binary/Roaming/C-Code/StmProjects/stm32f3x/lib/STM32F30x_DSP_StdPeriph_Lib_V1.2.3/Libraries/CMSIS/Include/core_cm4.h **** 
  38:/Users/rdaneel/Binary/Roaming/C-Code/StmProjects/stm32f3x/lib/STM32F30x_DSP_StdPeriph_Lib_V1.2.3/Libraries/CMSIS/Include/core_cm4.h **** #if defined ( __ICCARM__ )
  39:/Users/rdaneel/Binary/Roaming/C-Code/StmProjects/stm32f3x/lib/STM32F30x_DSP_StdPeriph_Lib_V1.2.3/Libraries/CMSIS/Include/core_cm4.h ****  #pragma system_include  /* treat file as system include file for MISRA check */
  40:/Users/rdaneel/Binary/Roaming/C-Code/StmProjects/stm32f3x/lib/STM32F30x_DSP_StdPeriph_Lib_V1.2.3/Libraries/CMSIS/Include/core_cm4.h **** #endif
  41:/Users/rdaneel/Binary/Roaming/C-Code/StmProjects/stm32f3x/lib/STM32F30x_DSP_StdPeriph_Lib_V1.2.3/Libraries/CMSIS/Include/core_cm4.h **** 
  42:/Users/rdaneel/Binary/Roaming/C-Code/StmProjects/stm32f3x/lib/STM32F30x_DSP_StdPeriph_Lib_V1.2.3/Libraries/CMSIS/Include/core_cm4.h **** #ifndef __CORE_CM4_H_GENERIC
  43:/Users/rdaneel/Binary/Roaming/C-Code/StmProjects/stm32f3x/lib/STM32F30x_DSP_StdPeriph_Lib_V1.2.3/Libraries/CMSIS/Include/core_cm4.h **** #define __CORE_CM4_H_GENERIC
  44:/Users/rdaneel/Binary/Roaming/C-Code/StmProjects/stm32f3x/lib/STM32F30x_DSP_StdPeriph_Lib_V1.2.3/Libraries/CMSIS/Include/core_cm4.h **** 
  45:/Users/rdaneel/Binary/Roaming/C-Code/StmProjects/stm32f3x/lib/STM32F30x_DSP_StdPeriph_Lib_V1.2.3/Libraries/CMSIS/Include/core_cm4.h **** #ifdef __cplusplus
  46:/Users/rdaneel/Binary/Roaming/C-Code/StmProjects/stm32f3x/lib/STM32F30x_DSP_StdPeriph_Lib_V1.2.3/Libraries/CMSIS/Include/core_cm4.h ****  extern "C" {
  47:/Users/rdaneel/Binary/Roaming/C-Code/StmProjects/stm32f3x/lib/STM32F30x_DSP_StdPeriph_Lib_V1.2.3/Libraries/CMSIS/Include/core_cm4.h **** #endif
  48:/Users/rdaneel/Binary/Roaming/C-Code/StmProjects/stm32f3x/lib/STM32F30x_DSP_StdPeriph_Lib_V1.2.3/Libraries/CMSIS/Include/core_cm4.h **** 
  49:/Users/rdaneel/Binary/Roaming/C-Code/StmProjects/stm32f3x/lib/STM32F30x_DSP_StdPeriph_Lib_V1.2.3/Libraries/CMSIS/Include/core_cm4.h **** /** \page CMSIS_MISRA_Exceptions  MISRA-C:2004 Compliance Exceptions
  50:/Users/rdaneel/Binary/Roaming/C-Code/StmProjects/stm32f3x/lib/STM32F30x_DSP_StdPeriph_Lib_V1.2.3/Libraries/CMSIS/Include/core_cm4.h ****   CMSIS violates the following MISRA-C:2004 rules:
  51:/Users/rdaneel/Binary/Roaming/C-Code/StmProjects/stm32f3x/lib/STM32F30x_DSP_StdPeriph_Lib_V1.2.3/Libraries/CMSIS/Include/core_cm4.h **** 
  52:/Users/rdaneel/Binary/Roaming/C-Code/StmProjects/stm32f3x/lib/STM32F30x_DSP_StdPeriph_Lib_V1.2.3/Libraries/CMSIS/Include/core_cm4.h ****    \li Required Rule 8.5, object/function definition in header file.<br>
  53:/Users/rdaneel/Binary/Roaming/C-Code/StmProjects/stm32f3x/lib/STM32F30x_DSP_StdPeriph_Lib_V1.2.3/Libraries/CMSIS/Include/core_cm4.h ****      Function definitions in header files are used to allow 'inlining'.
  54:/Users/rdaneel/Binary/Roaming/C-Code/StmProjects/stm32f3x/lib/STM32F30x_DSP_StdPeriph_Lib_V1.2.3/Libraries/CMSIS/Include/core_cm4.h **** 
ARM GAS  /var/folders/_2/qbh2zpt918qcm2b_6mgyydnm0000gn/T//ccOjgwl7.s 			page 18


  55:/Users/rdaneel/Binary/Roaming/C-Code/StmProjects/stm32f3x/lib/STM32F30x_DSP_StdPeriph_Lib_V1.2.3/Libraries/CMSIS/Include/core_cm4.h ****    \li Required Rule 18.4, declaration of union type or object of union type: '{...}'.<br>
  56:/Users/rdaneel/Binary/Roaming/C-Code/StmProjects/stm32f3x/lib/STM32F30x_DSP_StdPeriph_Lib_V1.2.3/Libraries/CMSIS/Include/core_cm4.h ****      Unions are used for effective representation of core registers.
  57:/Users/rdaneel/Binary/Roaming/C-Code/StmProjects/stm32f3x/lib/STM32F30x_DSP_StdPeriph_Lib_V1.2.3/Libraries/CMSIS/Include/core_cm4.h **** 
  58:/Users/rdaneel/Binary/Roaming/C-Code/StmProjects/stm32f3x/lib/STM32F30x_DSP_StdPeriph_Lib_V1.2.3/Libraries/CMSIS/Include/core_cm4.h ****    \li Advisory Rule 19.7, Function-like macro defined.<br>
  59:/Users/rdaneel/Binary/Roaming/C-Code/StmProjects/stm32f3x/lib/STM32F30x_DSP_StdPeriph_Lib_V1.2.3/Libraries/CMSIS/Include/core_cm4.h ****      Function-like macros are used to allow more efficient code.
  60:/Users/rdaneel/Binary/Roaming/C-Code/StmProjects/stm32f3x/lib/STM32F30x_DSP_StdPeriph_Lib_V1.2.3/Libraries/CMSIS/Include/core_cm4.h ****  */
  61:/Users/rdaneel/Binary/Roaming/C-Code/StmProjects/stm32f3x/lib/STM32F30x_DSP_StdPeriph_Lib_V1.2.3/Libraries/CMSIS/Include/core_cm4.h **** 
  62:/Users/rdaneel/Binary/Roaming/C-Code/StmProjects/stm32f3x/lib/STM32F30x_DSP_StdPeriph_Lib_V1.2.3/Libraries/CMSIS/Include/core_cm4.h **** 
  63:/Users/rdaneel/Binary/Roaming/C-Code/StmProjects/stm32f3x/lib/STM32F30x_DSP_StdPeriph_Lib_V1.2.3/Libraries/CMSIS/Include/core_cm4.h **** /*******************************************************************************
  64:/Users/rdaneel/Binary/Roaming/C-Code/StmProjects/stm32f3x/lib/STM32F30x_DSP_StdPeriph_Lib_V1.2.3/Libraries/CMSIS/Include/core_cm4.h ****  *                 CMSIS definitions
  65:/Users/rdaneel/Binary/Roaming/C-Code/StmProjects/stm32f3x/lib/STM32F30x_DSP_StdPeriph_Lib_V1.2.3/Libraries/CMSIS/Include/core_cm4.h ****  ******************************************************************************/
  66:/Users/rdaneel/Binary/Roaming/C-Code/StmProjects/stm32f3x/lib/STM32F30x_DSP_StdPeriph_Lib_V1.2.3/Libraries/CMSIS/Include/core_cm4.h **** /** \ingroup Cortex_M4
  67:/Users/rdaneel/Binary/Roaming/C-Code/StmProjects/stm32f3x/lib/STM32F30x_DSP_StdPeriph_Lib_V1.2.3/Libraries/CMSIS/Include/core_cm4.h ****   @{
  68:/Users/rdaneel/Binary/Roaming/C-Code/StmProjects/stm32f3x/lib/STM32F30x_DSP_StdPeriph_Lib_V1.2.3/Libraries/CMSIS/Include/core_cm4.h ****  */
  69:/Users/rdaneel/Binary/Roaming/C-Code/StmProjects/stm32f3x/lib/STM32F30x_DSP_StdPeriph_Lib_V1.2.3/Libraries/CMSIS/Include/core_cm4.h **** 
  70:/Users/rdaneel/Binary/Roaming/C-Code/StmProjects/stm32f3x/lib/STM32F30x_DSP_StdPeriph_Lib_V1.2.3/Libraries/CMSIS/Include/core_cm4.h **** /*  CMSIS CM4 definitions */
  71:/Users/rdaneel/Binary/Roaming/C-Code/StmProjects/stm32f3x/lib/STM32F30x_DSP_StdPeriph_Lib_V1.2.3/Libraries/CMSIS/Include/core_cm4.h **** #define __CM4_CMSIS_VERSION_MAIN  (0x04)                                   /*!< [31:16] CMSIS HAL m
  72:/Users/rdaneel/Binary/Roaming/C-Code/StmProjects/stm32f3x/lib/STM32F30x_DSP_StdPeriph_Lib_V1.2.3/Libraries/CMSIS/Include/core_cm4.h **** #define __CM4_CMSIS_VERSION_SUB   (0x00)                                   /*!< [15:0]  CMSIS HAL s
  73:/Users/rdaneel/Binary/Roaming/C-Code/StmProjects/stm32f3x/lib/STM32F30x_DSP_StdPeriph_Lib_V1.2.3/Libraries/CMSIS/Include/core_cm4.h **** #define __CM4_CMSIS_VERSION       ((__CM4_CMSIS_VERSION_MAIN << 16) | \
  74:/Users/rdaneel/Binary/Roaming/C-Code/StmProjects/stm32f3x/lib/STM32F30x_DSP_StdPeriph_Lib_V1.2.3/Libraries/CMSIS/Include/core_cm4.h ****                                     __CM4_CMSIS_VERSION_SUB          )     /*!< CMSIS HAL version n
  75:/Users/rdaneel/Binary/Roaming/C-Code/StmProjects/stm32f3x/lib/STM32F30x_DSP_StdPeriph_Lib_V1.2.3/Libraries/CMSIS/Include/core_cm4.h **** 
  76:/Users/rdaneel/Binary/Roaming/C-Code/StmProjects/stm32f3x/lib/STM32F30x_DSP_StdPeriph_Lib_V1.2.3/Libraries/CMSIS/Include/core_cm4.h **** #define __CORTEX_M                (0x04)                                   /*!< Cortex-M Core      
  77:/Users/rdaneel/Binary/Roaming/C-Code/StmProjects/stm32f3x/lib/STM32F30x_DSP_StdPeriph_Lib_V1.2.3/Libraries/CMSIS/Include/core_cm4.h **** 
  78:/Users/rdaneel/Binary/Roaming/C-Code/StmProjects/stm32f3x/lib/STM32F30x_DSP_StdPeriph_Lib_V1.2.3/Libraries/CMSIS/Include/core_cm4.h **** 
  79:/Users/rdaneel/Binary/Roaming/C-Code/StmProjects/stm32f3x/lib/STM32F30x_DSP_StdPeriph_Lib_V1.2.3/Libraries/CMSIS/Include/core_cm4.h **** #if   defined ( __CC_ARM )
  80:/Users/rdaneel/Binary/Roaming/C-Code/StmProjects/stm32f3x/lib/STM32F30x_DSP_StdPeriph_Lib_V1.2.3/Libraries/CMSIS/Include/core_cm4.h ****   #define __ASM            __asm                                      /*!< asm keyword for ARM Comp
  81:/Users/rdaneel/Binary/Roaming/C-Code/StmProjects/stm32f3x/lib/STM32F30x_DSP_StdPeriph_Lib_V1.2.3/Libraries/CMSIS/Include/core_cm4.h ****   #define __INLINE         __inline                                   /*!< inline keyword for ARM C
  82:/Users/rdaneel/Binary/Roaming/C-Code/StmProjects/stm32f3x/lib/STM32F30x_DSP_StdPeriph_Lib_V1.2.3/Libraries/CMSIS/Include/core_cm4.h ****   #define __STATIC_INLINE  static __inline
  83:/Users/rdaneel/Binary/Roaming/C-Code/StmProjects/stm32f3x/lib/STM32F30x_DSP_StdPeriph_Lib_V1.2.3/Libraries/CMSIS/Include/core_cm4.h **** 
  84:/Users/rdaneel/Binary/Roaming/C-Code/StmProjects/stm32f3x/lib/STM32F30x_DSP_StdPeriph_Lib_V1.2.3/Libraries/CMSIS/Include/core_cm4.h **** #elif defined ( __GNUC__ )
  85:/Users/rdaneel/Binary/Roaming/C-Code/StmProjects/stm32f3x/lib/STM32F30x_DSP_StdPeriph_Lib_V1.2.3/Libraries/CMSIS/Include/core_cm4.h ****   #define __ASM            __asm                                      /*!< asm keyword for GNU Comp
  86:/Users/rdaneel/Binary/Roaming/C-Code/StmProjects/stm32f3x/lib/STM32F30x_DSP_StdPeriph_Lib_V1.2.3/Libraries/CMSIS/Include/core_cm4.h ****   #define __INLINE         inline                                     /*!< inline keyword for GNU C
  87:/Users/rdaneel/Binary/Roaming/C-Code/StmProjects/stm32f3x/lib/STM32F30x_DSP_StdPeriph_Lib_V1.2.3/Libraries/CMSIS/Include/core_cm4.h ****   #define __STATIC_INLINE  static inline
  88:/Users/rdaneel/Binary/Roaming/C-Code/StmProjects/stm32f3x/lib/STM32F30x_DSP_StdPeriph_Lib_V1.2.3/Libraries/CMSIS/Include/core_cm4.h **** 
  89:/Users/rdaneel/Binary/Roaming/C-Code/StmProjects/stm32f3x/lib/STM32F30x_DSP_StdPeriph_Lib_V1.2.3/Libraries/CMSIS/Include/core_cm4.h **** #elif defined ( __ICCARM__ )
  90:/Users/rdaneel/Binary/Roaming/C-Code/StmProjects/stm32f3x/lib/STM32F30x_DSP_StdPeriph_Lib_V1.2.3/Libraries/CMSIS/Include/core_cm4.h ****   #define __ASM            __asm                                      /*!< asm keyword for IAR Comp
  91:/Users/rdaneel/Binary/Roaming/C-Code/StmProjects/stm32f3x/lib/STM32F30x_DSP_StdPeriph_Lib_V1.2.3/Libraries/CMSIS/Include/core_cm4.h ****   #define __INLINE         inline                                     /*!< inline keyword for IAR C
  92:/Users/rdaneel/Binary/Roaming/C-Code/StmProjects/stm32f3x/lib/STM32F30x_DSP_StdPeriph_Lib_V1.2.3/Libraries/CMSIS/Include/core_cm4.h ****   #define __STATIC_INLINE  static inline
  93:/Users/rdaneel/Binary/Roaming/C-Code/StmProjects/stm32f3x/lib/STM32F30x_DSP_StdPeriph_Lib_V1.2.3/Libraries/CMSIS/Include/core_cm4.h **** 
  94:/Users/rdaneel/Binary/Roaming/C-Code/StmProjects/stm32f3x/lib/STM32F30x_DSP_StdPeriph_Lib_V1.2.3/Libraries/CMSIS/Include/core_cm4.h **** #elif defined ( __TMS470__ )
  95:/Users/rdaneel/Binary/Roaming/C-Code/StmProjects/stm32f3x/lib/STM32F30x_DSP_StdPeriph_Lib_V1.2.3/Libraries/CMSIS/Include/core_cm4.h ****   #define __ASM            __asm                                      /*!< asm keyword for TI CCS C
  96:/Users/rdaneel/Binary/Roaming/C-Code/StmProjects/stm32f3x/lib/STM32F30x_DSP_StdPeriph_Lib_V1.2.3/Libraries/CMSIS/Include/core_cm4.h ****   #define __STATIC_INLINE  static inline
  97:/Users/rdaneel/Binary/Roaming/C-Code/StmProjects/stm32f3x/lib/STM32F30x_DSP_StdPeriph_Lib_V1.2.3/Libraries/CMSIS/Include/core_cm4.h **** 
  98:/Users/rdaneel/Binary/Roaming/C-Code/StmProjects/stm32f3x/lib/STM32F30x_DSP_StdPeriph_Lib_V1.2.3/Libraries/CMSIS/Include/core_cm4.h **** #elif defined ( __TASKING__ )
  99:/Users/rdaneel/Binary/Roaming/C-Code/StmProjects/stm32f3x/lib/STM32F30x_DSP_StdPeriph_Lib_V1.2.3/Libraries/CMSIS/Include/core_cm4.h ****   #define __ASM            __asm                                      /*!< asm keyword for TASKING 
 100:/Users/rdaneel/Binary/Roaming/C-Code/StmProjects/stm32f3x/lib/STM32F30x_DSP_StdPeriph_Lib_V1.2.3/Libraries/CMSIS/Include/core_cm4.h ****   #define __INLINE         inline                                     /*!< inline keyword for TASKI
 101:/Users/rdaneel/Binary/Roaming/C-Code/StmProjects/stm32f3x/lib/STM32F30x_DSP_StdPeriph_Lib_V1.2.3/Libraries/CMSIS/Include/core_cm4.h ****   #define __STATIC_INLINE  static inline
 102:/Users/rdaneel/Binary/Roaming/C-Code/StmProjects/stm32f3x/lib/STM32F30x_DSP_StdPeriph_Lib_V1.2.3/Libraries/CMSIS/Include/core_cm4.h **** 
 103:/Users/rdaneel/Binary/Roaming/C-Code/StmProjects/stm32f3x/lib/STM32F30x_DSP_StdPeriph_Lib_V1.2.3/Libraries/CMSIS/Include/core_cm4.h **** #elif defined ( __CSMC__ )
 104:/Users/rdaneel/Binary/Roaming/C-Code/StmProjects/stm32f3x/lib/STM32F30x_DSP_StdPeriph_Lib_V1.2.3/Libraries/CMSIS/Include/core_cm4.h ****   #define __packed
 105:/Users/rdaneel/Binary/Roaming/C-Code/StmProjects/stm32f3x/lib/STM32F30x_DSP_StdPeriph_Lib_V1.2.3/Libraries/CMSIS/Include/core_cm4.h ****   #define __ASM            _asm                                      /*!< asm keyword for COSMIC Co
 106:/Users/rdaneel/Binary/Roaming/C-Code/StmProjects/stm32f3x/lib/STM32F30x_DSP_StdPeriph_Lib_V1.2.3/Libraries/CMSIS/Include/core_cm4.h ****   #define __INLINE         inline                                    /*use -pc99 on compile line !<
 107:/Users/rdaneel/Binary/Roaming/C-Code/StmProjects/stm32f3x/lib/STM32F30x_DSP_StdPeriph_Lib_V1.2.3/Libraries/CMSIS/Include/core_cm4.h ****   #define __STATIC_INLINE  static inline
 108:/Users/rdaneel/Binary/Roaming/C-Code/StmProjects/stm32f3x/lib/STM32F30x_DSP_StdPeriph_Lib_V1.2.3/Libraries/CMSIS/Include/core_cm4.h **** 
 109:/Users/rdaneel/Binary/Roaming/C-Code/StmProjects/stm32f3x/lib/STM32F30x_DSP_StdPeriph_Lib_V1.2.3/Libraries/CMSIS/Include/core_cm4.h **** #endif
 110:/Users/rdaneel/Binary/Roaming/C-Code/StmProjects/stm32f3x/lib/STM32F30x_DSP_StdPeriph_Lib_V1.2.3/Libraries/CMSIS/Include/core_cm4.h **** 
 111:/Users/rdaneel/Binary/Roaming/C-Code/StmProjects/stm32f3x/lib/STM32F30x_DSP_StdPeriph_Lib_V1.2.3/Libraries/CMSIS/Include/core_cm4.h **** /** __FPU_USED indicates whether an FPU is used or not.
ARM GAS  /var/folders/_2/qbh2zpt918qcm2b_6mgyydnm0000gn/T//ccOjgwl7.s 			page 19


 112:/Users/rdaneel/Binary/Roaming/C-Code/StmProjects/stm32f3x/lib/STM32F30x_DSP_StdPeriph_Lib_V1.2.3/Libraries/CMSIS/Include/core_cm4.h ****     For this, __FPU_PRESENT has to be checked prior to making use of FPU specific registers and fun
 113:/Users/rdaneel/Binary/Roaming/C-Code/StmProjects/stm32f3x/lib/STM32F30x_DSP_StdPeriph_Lib_V1.2.3/Libraries/CMSIS/Include/core_cm4.h **** */
 114:/Users/rdaneel/Binary/Roaming/C-Code/StmProjects/stm32f3x/lib/STM32F30x_DSP_StdPeriph_Lib_V1.2.3/Libraries/CMSIS/Include/core_cm4.h **** #if defined ( __CC_ARM )
 115:/Users/rdaneel/Binary/Roaming/C-Code/StmProjects/stm32f3x/lib/STM32F30x_DSP_StdPeriph_Lib_V1.2.3/Libraries/CMSIS/Include/core_cm4.h ****   #if defined __TARGET_FPU_VFP
 116:/Users/rdaneel/Binary/Roaming/C-Code/StmProjects/stm32f3x/lib/STM32F30x_DSP_StdPeriph_Lib_V1.2.3/Libraries/CMSIS/Include/core_cm4.h ****     #if (__FPU_PRESENT == 1)
 117:/Users/rdaneel/Binary/Roaming/C-Code/StmProjects/stm32f3x/lib/STM32F30x_DSP_StdPeriph_Lib_V1.2.3/Libraries/CMSIS/Include/core_cm4.h ****       #define __FPU_USED       1
 118:/Users/rdaneel/Binary/Roaming/C-Code/StmProjects/stm32f3x/lib/STM32F30x_DSP_StdPeriph_Lib_V1.2.3/Libraries/CMSIS/Include/core_cm4.h ****     #else
 119:/Users/rdaneel/Binary/Roaming/C-Code/StmProjects/stm32f3x/lib/STM32F30x_DSP_StdPeriph_Lib_V1.2.3/Libraries/CMSIS/Include/core_cm4.h ****       #warning "Compiler generates FPU instructions for a device without an FPU (check __FPU_PRESEN
 120:/Users/rdaneel/Binary/Roaming/C-Code/StmProjects/stm32f3x/lib/STM32F30x_DSP_StdPeriph_Lib_V1.2.3/Libraries/CMSIS/Include/core_cm4.h ****       #define __FPU_USED       0
 121:/Users/rdaneel/Binary/Roaming/C-Code/StmProjects/stm32f3x/lib/STM32F30x_DSP_StdPeriph_Lib_V1.2.3/Libraries/CMSIS/Include/core_cm4.h ****     #endif
 122:/Users/rdaneel/Binary/Roaming/C-Code/StmProjects/stm32f3x/lib/STM32F30x_DSP_StdPeriph_Lib_V1.2.3/Libraries/CMSIS/Include/core_cm4.h ****   #else
 123:/Users/rdaneel/Binary/Roaming/C-Code/StmProjects/stm32f3x/lib/STM32F30x_DSP_StdPeriph_Lib_V1.2.3/Libraries/CMSIS/Include/core_cm4.h ****     #define __FPU_USED         0
 124:/Users/rdaneel/Binary/Roaming/C-Code/StmProjects/stm32f3x/lib/STM32F30x_DSP_StdPeriph_Lib_V1.2.3/Libraries/CMSIS/Include/core_cm4.h ****   #endif
 125:/Users/rdaneel/Binary/Roaming/C-Code/StmProjects/stm32f3x/lib/STM32F30x_DSP_StdPeriph_Lib_V1.2.3/Libraries/CMSIS/Include/core_cm4.h **** 
 126:/Users/rdaneel/Binary/Roaming/C-Code/StmProjects/stm32f3x/lib/STM32F30x_DSP_StdPeriph_Lib_V1.2.3/Libraries/CMSIS/Include/core_cm4.h **** #elif defined ( __GNUC__ )
 127:/Users/rdaneel/Binary/Roaming/C-Code/StmProjects/stm32f3x/lib/STM32F30x_DSP_StdPeriph_Lib_V1.2.3/Libraries/CMSIS/Include/core_cm4.h ****   #if defined (__VFP_FP__) && !defined(__SOFTFP__)
 128:/Users/rdaneel/Binary/Roaming/C-Code/StmProjects/stm32f3x/lib/STM32F30x_DSP_StdPeriph_Lib_V1.2.3/Libraries/CMSIS/Include/core_cm4.h ****     #if (__FPU_PRESENT == 1)
 129:/Users/rdaneel/Binary/Roaming/C-Code/StmProjects/stm32f3x/lib/STM32F30x_DSP_StdPeriph_Lib_V1.2.3/Libraries/CMSIS/Include/core_cm4.h ****       #define __FPU_USED       1
 130:/Users/rdaneel/Binary/Roaming/C-Code/StmProjects/stm32f3x/lib/STM32F30x_DSP_StdPeriph_Lib_V1.2.3/Libraries/CMSIS/Include/core_cm4.h ****     #else
 131:/Users/rdaneel/Binary/Roaming/C-Code/StmProjects/stm32f3x/lib/STM32F30x_DSP_StdPeriph_Lib_V1.2.3/Libraries/CMSIS/Include/core_cm4.h ****       #warning "Compiler generates FPU instructions for a device without an FPU (check __FPU_PRESEN
 132:/Users/rdaneel/Binary/Roaming/C-Code/StmProjects/stm32f3x/lib/STM32F30x_DSP_StdPeriph_Lib_V1.2.3/Libraries/CMSIS/Include/core_cm4.h ****       #define __FPU_USED       0
 133:/Users/rdaneel/Binary/Roaming/C-Code/StmProjects/stm32f3x/lib/STM32F30x_DSP_StdPeriph_Lib_V1.2.3/Libraries/CMSIS/Include/core_cm4.h ****     #endif
 134:/Users/rdaneel/Binary/Roaming/C-Code/StmProjects/stm32f3x/lib/STM32F30x_DSP_StdPeriph_Lib_V1.2.3/Libraries/CMSIS/Include/core_cm4.h ****   #else
 135:/Users/rdaneel/Binary/Roaming/C-Code/StmProjects/stm32f3x/lib/STM32F30x_DSP_StdPeriph_Lib_V1.2.3/Libraries/CMSIS/Include/core_cm4.h ****     #define __FPU_USED         0
 136:/Users/rdaneel/Binary/Roaming/C-Code/StmProjects/stm32f3x/lib/STM32F30x_DSP_StdPeriph_Lib_V1.2.3/Libraries/CMSIS/Include/core_cm4.h ****   #endif
 137:/Users/rdaneel/Binary/Roaming/C-Code/StmProjects/stm32f3x/lib/STM32F30x_DSP_StdPeriph_Lib_V1.2.3/Libraries/CMSIS/Include/core_cm4.h **** 
 138:/Users/rdaneel/Binary/Roaming/C-Code/StmProjects/stm32f3x/lib/STM32F30x_DSP_StdPeriph_Lib_V1.2.3/Libraries/CMSIS/Include/core_cm4.h **** #elif defined ( __ICCARM__ )
 139:/Users/rdaneel/Binary/Roaming/C-Code/StmProjects/stm32f3x/lib/STM32F30x_DSP_StdPeriph_Lib_V1.2.3/Libraries/CMSIS/Include/core_cm4.h ****   #if defined __ARMVFP__
 140:/Users/rdaneel/Binary/Roaming/C-Code/StmProjects/stm32f3x/lib/STM32F30x_DSP_StdPeriph_Lib_V1.2.3/Libraries/CMSIS/Include/core_cm4.h ****     #if (__FPU_PRESENT == 1)
 141:/Users/rdaneel/Binary/Roaming/C-Code/StmProjects/stm32f3x/lib/STM32F30x_DSP_StdPeriph_Lib_V1.2.3/Libraries/CMSIS/Include/core_cm4.h ****       #define __FPU_USED       1
 142:/Users/rdaneel/Binary/Roaming/C-Code/StmProjects/stm32f3x/lib/STM32F30x_DSP_StdPeriph_Lib_V1.2.3/Libraries/CMSIS/Include/core_cm4.h ****     #else
 143:/Users/rdaneel/Binary/Roaming/C-Code/StmProjects/stm32f3x/lib/STM32F30x_DSP_StdPeriph_Lib_V1.2.3/Libraries/CMSIS/Include/core_cm4.h ****       #warning "Compiler generates FPU instructions for a device without an FPU (check __FPU_PRESEN
 144:/Users/rdaneel/Binary/Roaming/C-Code/StmProjects/stm32f3x/lib/STM32F30x_DSP_StdPeriph_Lib_V1.2.3/Libraries/CMSIS/Include/core_cm4.h ****       #define __FPU_USED       0
 145:/Users/rdaneel/Binary/Roaming/C-Code/StmProjects/stm32f3x/lib/STM32F30x_DSP_StdPeriph_Lib_V1.2.3/Libraries/CMSIS/Include/core_cm4.h ****     #endif
 146:/Users/rdaneel/Binary/Roaming/C-Code/StmProjects/stm32f3x/lib/STM32F30x_DSP_StdPeriph_Lib_V1.2.3/Libraries/CMSIS/Include/core_cm4.h ****   #else
 147:/Users/rdaneel/Binary/Roaming/C-Code/StmProjects/stm32f3x/lib/STM32F30x_DSP_StdPeriph_Lib_V1.2.3/Libraries/CMSIS/Include/core_cm4.h ****     #define __FPU_USED         0
 148:/Users/rdaneel/Binary/Roaming/C-Code/StmProjects/stm32f3x/lib/STM32F30x_DSP_StdPeriph_Lib_V1.2.3/Libraries/CMSIS/Include/core_cm4.h ****   #endif
 149:/Users/rdaneel/Binary/Roaming/C-Code/StmProjects/stm32f3x/lib/STM32F30x_DSP_StdPeriph_Lib_V1.2.3/Libraries/CMSIS/Include/core_cm4.h **** 
 150:/Users/rdaneel/Binary/Roaming/C-Code/StmProjects/stm32f3x/lib/STM32F30x_DSP_StdPeriph_Lib_V1.2.3/Libraries/CMSIS/Include/core_cm4.h **** #elif defined ( __TMS470__ )
 151:/Users/rdaneel/Binary/Roaming/C-Code/StmProjects/stm32f3x/lib/STM32F30x_DSP_StdPeriph_Lib_V1.2.3/Libraries/CMSIS/Include/core_cm4.h ****   #if defined __TI_VFP_SUPPORT__
 152:/Users/rdaneel/Binary/Roaming/C-Code/StmProjects/stm32f3x/lib/STM32F30x_DSP_StdPeriph_Lib_V1.2.3/Libraries/CMSIS/Include/core_cm4.h ****     #if (__FPU_PRESENT == 1)
 153:/Users/rdaneel/Binary/Roaming/C-Code/StmProjects/stm32f3x/lib/STM32F30x_DSP_StdPeriph_Lib_V1.2.3/Libraries/CMSIS/Include/core_cm4.h ****       #define __FPU_USED       1
 154:/Users/rdaneel/Binary/Roaming/C-Code/StmProjects/stm32f3x/lib/STM32F30x_DSP_StdPeriph_Lib_V1.2.3/Libraries/CMSIS/Include/core_cm4.h ****     #else
 155:/Users/rdaneel/Binary/Roaming/C-Code/StmProjects/stm32f3x/lib/STM32F30x_DSP_StdPeriph_Lib_V1.2.3/Libraries/CMSIS/Include/core_cm4.h ****       #warning "Compiler generates FPU instructions for a device without an FPU (check __FPU_PRESEN
 156:/Users/rdaneel/Binary/Roaming/C-Code/StmProjects/stm32f3x/lib/STM32F30x_DSP_StdPeriph_Lib_V1.2.3/Libraries/CMSIS/Include/core_cm4.h ****       #define __FPU_USED       0
 157:/Users/rdaneel/Binary/Roaming/C-Code/StmProjects/stm32f3x/lib/STM32F30x_DSP_StdPeriph_Lib_V1.2.3/Libraries/CMSIS/Include/core_cm4.h ****     #endif
 158:/Users/rdaneel/Binary/Roaming/C-Code/StmProjects/stm32f3x/lib/STM32F30x_DSP_StdPeriph_Lib_V1.2.3/Libraries/CMSIS/Include/core_cm4.h ****   #else
 159:/Users/rdaneel/Binary/Roaming/C-Code/StmProjects/stm32f3x/lib/STM32F30x_DSP_StdPeriph_Lib_V1.2.3/Libraries/CMSIS/Include/core_cm4.h ****     #define __FPU_USED         0
 160:/Users/rdaneel/Binary/Roaming/C-Code/StmProjects/stm32f3x/lib/STM32F30x_DSP_StdPeriph_Lib_V1.2.3/Libraries/CMSIS/Include/core_cm4.h ****   #endif
 161:/Users/rdaneel/Binary/Roaming/C-Code/StmProjects/stm32f3x/lib/STM32F30x_DSP_StdPeriph_Lib_V1.2.3/Libraries/CMSIS/Include/core_cm4.h **** 
 162:/Users/rdaneel/Binary/Roaming/C-Code/StmProjects/stm32f3x/lib/STM32F30x_DSP_StdPeriph_Lib_V1.2.3/Libraries/CMSIS/Include/core_cm4.h **** #elif defined ( __TASKING__ )
 163:/Users/rdaneel/Binary/Roaming/C-Code/StmProjects/stm32f3x/lib/STM32F30x_DSP_StdPeriph_Lib_V1.2.3/Libraries/CMSIS/Include/core_cm4.h ****   #if defined __FPU_VFP__
 164:/Users/rdaneel/Binary/Roaming/C-Code/StmProjects/stm32f3x/lib/STM32F30x_DSP_StdPeriph_Lib_V1.2.3/Libraries/CMSIS/Include/core_cm4.h ****     #if (__FPU_PRESENT == 1)
 165:/Users/rdaneel/Binary/Roaming/C-Code/StmProjects/stm32f3x/lib/STM32F30x_DSP_StdPeriph_Lib_V1.2.3/Libraries/CMSIS/Include/core_cm4.h ****       #define __FPU_USED       1
 166:/Users/rdaneel/Binary/Roaming/C-Code/StmProjects/stm32f3x/lib/STM32F30x_DSP_StdPeriph_Lib_V1.2.3/Libraries/CMSIS/Include/core_cm4.h ****     #else
 167:/Users/rdaneel/Binary/Roaming/C-Code/StmProjects/stm32f3x/lib/STM32F30x_DSP_StdPeriph_Lib_V1.2.3/Libraries/CMSIS/Include/core_cm4.h ****       #error "Compiler generates FPU instructions for a device without an FPU (check __FPU_PRESENT)
 168:/Users/rdaneel/Binary/Roaming/C-Code/StmProjects/stm32f3x/lib/STM32F30x_DSP_StdPeriph_Lib_V1.2.3/Libraries/CMSIS/Include/core_cm4.h ****       #define __FPU_USED       0
ARM GAS  /var/folders/_2/qbh2zpt918qcm2b_6mgyydnm0000gn/T//ccOjgwl7.s 			page 20


 169:/Users/rdaneel/Binary/Roaming/C-Code/StmProjects/stm32f3x/lib/STM32F30x_DSP_StdPeriph_Lib_V1.2.3/Libraries/CMSIS/Include/core_cm4.h ****     #endif
 170:/Users/rdaneel/Binary/Roaming/C-Code/StmProjects/stm32f3x/lib/STM32F30x_DSP_StdPeriph_Lib_V1.2.3/Libraries/CMSIS/Include/core_cm4.h ****   #else
 171:/Users/rdaneel/Binary/Roaming/C-Code/StmProjects/stm32f3x/lib/STM32F30x_DSP_StdPeriph_Lib_V1.2.3/Libraries/CMSIS/Include/core_cm4.h ****     #define __FPU_USED         0
 172:/Users/rdaneel/Binary/Roaming/C-Code/StmProjects/stm32f3x/lib/STM32F30x_DSP_StdPeriph_Lib_V1.2.3/Libraries/CMSIS/Include/core_cm4.h ****   #endif
 173:/Users/rdaneel/Binary/Roaming/C-Code/StmProjects/stm32f3x/lib/STM32F30x_DSP_StdPeriph_Lib_V1.2.3/Libraries/CMSIS/Include/core_cm4.h **** 
 174:/Users/rdaneel/Binary/Roaming/C-Code/StmProjects/stm32f3x/lib/STM32F30x_DSP_StdPeriph_Lib_V1.2.3/Libraries/CMSIS/Include/core_cm4.h **** #elif defined ( __CSMC__ )		/* Cosmic */
 175:/Users/rdaneel/Binary/Roaming/C-Code/StmProjects/stm32f3x/lib/STM32F30x_DSP_StdPeriph_Lib_V1.2.3/Libraries/CMSIS/Include/core_cm4.h ****   #if ( __CSMC__ & 0x400)		// FPU present for parser
 176:/Users/rdaneel/Binary/Roaming/C-Code/StmProjects/stm32f3x/lib/STM32F30x_DSP_StdPeriph_Lib_V1.2.3/Libraries/CMSIS/Include/core_cm4.h ****     #if (__FPU_PRESENT == 1)
 177:/Users/rdaneel/Binary/Roaming/C-Code/StmProjects/stm32f3x/lib/STM32F30x_DSP_StdPeriph_Lib_V1.2.3/Libraries/CMSIS/Include/core_cm4.h ****       #define __FPU_USED       1
 178:/Users/rdaneel/Binary/Roaming/C-Code/StmProjects/stm32f3x/lib/STM32F30x_DSP_StdPeriph_Lib_V1.2.3/Libraries/CMSIS/Include/core_cm4.h ****     #else
 179:/Users/rdaneel/Binary/Roaming/C-Code/StmProjects/stm32f3x/lib/STM32F30x_DSP_StdPeriph_Lib_V1.2.3/Libraries/CMSIS/Include/core_cm4.h ****       #error "Compiler generates FPU instructions for a device without an FPU (check __FPU_PRESENT)
 180:/Users/rdaneel/Binary/Roaming/C-Code/StmProjects/stm32f3x/lib/STM32F30x_DSP_StdPeriph_Lib_V1.2.3/Libraries/CMSIS/Include/core_cm4.h ****       #define __FPU_USED       0
 181:/Users/rdaneel/Binary/Roaming/C-Code/StmProjects/stm32f3x/lib/STM32F30x_DSP_StdPeriph_Lib_V1.2.3/Libraries/CMSIS/Include/core_cm4.h ****     #endif
 182:/Users/rdaneel/Binary/Roaming/C-Code/StmProjects/stm32f3x/lib/STM32F30x_DSP_StdPeriph_Lib_V1.2.3/Libraries/CMSIS/Include/core_cm4.h ****   #else
 183:/Users/rdaneel/Binary/Roaming/C-Code/StmProjects/stm32f3x/lib/STM32F30x_DSP_StdPeriph_Lib_V1.2.3/Libraries/CMSIS/Include/core_cm4.h ****     #define __FPU_USED         0
 184:/Users/rdaneel/Binary/Roaming/C-Code/StmProjects/stm32f3x/lib/STM32F30x_DSP_StdPeriph_Lib_V1.2.3/Libraries/CMSIS/Include/core_cm4.h ****   #endif
 185:/Users/rdaneel/Binary/Roaming/C-Code/StmProjects/stm32f3x/lib/STM32F30x_DSP_StdPeriph_Lib_V1.2.3/Libraries/CMSIS/Include/core_cm4.h **** #endif
 186:/Users/rdaneel/Binary/Roaming/C-Code/StmProjects/stm32f3x/lib/STM32F30x_DSP_StdPeriph_Lib_V1.2.3/Libraries/CMSIS/Include/core_cm4.h **** 
 187:/Users/rdaneel/Binary/Roaming/C-Code/StmProjects/stm32f3x/lib/STM32F30x_DSP_StdPeriph_Lib_V1.2.3/Libraries/CMSIS/Include/core_cm4.h **** #include <stdint.h>                      /* standard types definitions                      */
 188:/Users/rdaneel/Binary/Roaming/C-Code/StmProjects/stm32f3x/lib/STM32F30x_DSP_StdPeriph_Lib_V1.2.3/Libraries/CMSIS/Include/core_cm4.h **** #include <core_cmInstr.h>                /* Core Instruction Access                         */
 189:/Users/rdaneel/Binary/Roaming/C-Code/StmProjects/stm32f3x/lib/STM32F30x_DSP_StdPeriph_Lib_V1.2.3/Libraries/CMSIS/Include/core_cm4.h **** #include <core_cmFunc.h>                 /* Core Function Access                            */
 190:/Users/rdaneel/Binary/Roaming/C-Code/StmProjects/stm32f3x/lib/STM32F30x_DSP_StdPeriph_Lib_V1.2.3/Libraries/CMSIS/Include/core_cm4.h **** #include <core_cmSimd.h>                 /* Compiler specific SIMD Intrinsics               */
 191:/Users/rdaneel/Binary/Roaming/C-Code/StmProjects/stm32f3x/lib/STM32F30x_DSP_StdPeriph_Lib_V1.2.3/Libraries/CMSIS/Include/core_cm4.h **** 
 192:/Users/rdaneel/Binary/Roaming/C-Code/StmProjects/stm32f3x/lib/STM32F30x_DSP_StdPeriph_Lib_V1.2.3/Libraries/CMSIS/Include/core_cm4.h **** #ifdef __cplusplus
 193:/Users/rdaneel/Binary/Roaming/C-Code/StmProjects/stm32f3x/lib/STM32F30x_DSP_StdPeriph_Lib_V1.2.3/Libraries/CMSIS/Include/core_cm4.h **** }
 194:/Users/rdaneel/Binary/Roaming/C-Code/StmProjects/stm32f3x/lib/STM32F30x_DSP_StdPeriph_Lib_V1.2.3/Libraries/CMSIS/Include/core_cm4.h **** #endif
 195:/Users/rdaneel/Binary/Roaming/C-Code/StmProjects/stm32f3x/lib/STM32F30x_DSP_StdPeriph_Lib_V1.2.3/Libraries/CMSIS/Include/core_cm4.h **** 
 196:/Users/rdaneel/Binary/Roaming/C-Code/StmProjects/stm32f3x/lib/STM32F30x_DSP_StdPeriph_Lib_V1.2.3/Libraries/CMSIS/Include/core_cm4.h **** #endif /* __CORE_CM4_H_GENERIC */
 197:/Users/rdaneel/Binary/Roaming/C-Code/StmProjects/stm32f3x/lib/STM32F30x_DSP_StdPeriph_Lib_V1.2.3/Libraries/CMSIS/Include/core_cm4.h **** 
 198:/Users/rdaneel/Binary/Roaming/C-Code/StmProjects/stm32f3x/lib/STM32F30x_DSP_StdPeriph_Lib_V1.2.3/Libraries/CMSIS/Include/core_cm4.h **** #ifndef __CMSIS_GENERIC
 199:/Users/rdaneel/Binary/Roaming/C-Code/StmProjects/stm32f3x/lib/STM32F30x_DSP_StdPeriph_Lib_V1.2.3/Libraries/CMSIS/Include/core_cm4.h **** 
 200:/Users/rdaneel/Binary/Roaming/C-Code/StmProjects/stm32f3x/lib/STM32F30x_DSP_StdPeriph_Lib_V1.2.3/Libraries/CMSIS/Include/core_cm4.h **** #ifndef __CORE_CM4_H_DEPENDANT
 201:/Users/rdaneel/Binary/Roaming/C-Code/StmProjects/stm32f3x/lib/STM32F30x_DSP_StdPeriph_Lib_V1.2.3/Libraries/CMSIS/Include/core_cm4.h **** #define __CORE_CM4_H_DEPENDANT
 202:/Users/rdaneel/Binary/Roaming/C-Code/StmProjects/stm32f3x/lib/STM32F30x_DSP_StdPeriph_Lib_V1.2.3/Libraries/CMSIS/Include/core_cm4.h **** 
 203:/Users/rdaneel/Binary/Roaming/C-Code/StmProjects/stm32f3x/lib/STM32F30x_DSP_StdPeriph_Lib_V1.2.3/Libraries/CMSIS/Include/core_cm4.h **** #ifdef __cplusplus
 204:/Users/rdaneel/Binary/Roaming/C-Code/StmProjects/stm32f3x/lib/STM32F30x_DSP_StdPeriph_Lib_V1.2.3/Libraries/CMSIS/Include/core_cm4.h ****  extern "C" {
 205:/Users/rdaneel/Binary/Roaming/C-Code/StmProjects/stm32f3x/lib/STM32F30x_DSP_StdPeriph_Lib_V1.2.3/Libraries/CMSIS/Include/core_cm4.h **** #endif
 206:/Users/rdaneel/Binary/Roaming/C-Code/StmProjects/stm32f3x/lib/STM32F30x_DSP_StdPeriph_Lib_V1.2.3/Libraries/CMSIS/Include/core_cm4.h **** 
 207:/Users/rdaneel/Binary/Roaming/C-Code/StmProjects/stm32f3x/lib/STM32F30x_DSP_StdPeriph_Lib_V1.2.3/Libraries/CMSIS/Include/core_cm4.h **** /* check device defines and use defaults */
 208:/Users/rdaneel/Binary/Roaming/C-Code/StmProjects/stm32f3x/lib/STM32F30x_DSP_StdPeriph_Lib_V1.2.3/Libraries/CMSIS/Include/core_cm4.h **** #if defined __CHECK_DEVICE_DEFINES
 209:/Users/rdaneel/Binary/Roaming/C-Code/StmProjects/stm32f3x/lib/STM32F30x_DSP_StdPeriph_Lib_V1.2.3/Libraries/CMSIS/Include/core_cm4.h ****   #ifndef __CM4_REV
 210:/Users/rdaneel/Binary/Roaming/C-Code/StmProjects/stm32f3x/lib/STM32F30x_DSP_StdPeriph_Lib_V1.2.3/Libraries/CMSIS/Include/core_cm4.h ****     #define __CM4_REV               0x0000
 211:/Users/rdaneel/Binary/Roaming/C-Code/StmProjects/stm32f3x/lib/STM32F30x_DSP_StdPeriph_Lib_V1.2.3/Libraries/CMSIS/Include/core_cm4.h ****     #warning "__CM4_REV not defined in device header file; using default!"
 212:/Users/rdaneel/Binary/Roaming/C-Code/StmProjects/stm32f3x/lib/STM32F30x_DSP_StdPeriph_Lib_V1.2.3/Libraries/CMSIS/Include/core_cm4.h ****   #endif
 213:/Users/rdaneel/Binary/Roaming/C-Code/StmProjects/stm32f3x/lib/STM32F30x_DSP_StdPeriph_Lib_V1.2.3/Libraries/CMSIS/Include/core_cm4.h **** 
 214:/Users/rdaneel/Binary/Roaming/C-Code/StmProjects/stm32f3x/lib/STM32F30x_DSP_StdPeriph_Lib_V1.2.3/Libraries/CMSIS/Include/core_cm4.h ****   #ifndef __FPU_PRESENT
 215:/Users/rdaneel/Binary/Roaming/C-Code/StmProjects/stm32f3x/lib/STM32F30x_DSP_StdPeriph_Lib_V1.2.3/Libraries/CMSIS/Include/core_cm4.h ****     #define __FPU_PRESENT             0
 216:/Users/rdaneel/Binary/Roaming/C-Code/StmProjects/stm32f3x/lib/STM32F30x_DSP_StdPeriph_Lib_V1.2.3/Libraries/CMSIS/Include/core_cm4.h ****     #warning "__FPU_PRESENT not defined in device header file; using default!"
 217:/Users/rdaneel/Binary/Roaming/C-Code/StmProjects/stm32f3x/lib/STM32F30x_DSP_StdPeriph_Lib_V1.2.3/Libraries/CMSIS/Include/core_cm4.h ****   #endif
 218:/Users/rdaneel/Binary/Roaming/C-Code/StmProjects/stm32f3x/lib/STM32F30x_DSP_StdPeriph_Lib_V1.2.3/Libraries/CMSIS/Include/core_cm4.h **** 
 219:/Users/rdaneel/Binary/Roaming/C-Code/StmProjects/stm32f3x/lib/STM32F30x_DSP_StdPeriph_Lib_V1.2.3/Libraries/CMSIS/Include/core_cm4.h ****   #ifndef __MPU_PRESENT
 220:/Users/rdaneel/Binary/Roaming/C-Code/StmProjects/stm32f3x/lib/STM32F30x_DSP_StdPeriph_Lib_V1.2.3/Libraries/CMSIS/Include/core_cm4.h ****     #define __MPU_PRESENT             0
 221:/Users/rdaneel/Binary/Roaming/C-Code/StmProjects/stm32f3x/lib/STM32F30x_DSP_StdPeriph_Lib_V1.2.3/Libraries/CMSIS/Include/core_cm4.h ****     #warning "__MPU_PRESENT not defined in device header file; using default!"
 222:/Users/rdaneel/Binary/Roaming/C-Code/StmProjects/stm32f3x/lib/STM32F30x_DSP_StdPeriph_Lib_V1.2.3/Libraries/CMSIS/Include/core_cm4.h ****   #endif
 223:/Users/rdaneel/Binary/Roaming/C-Code/StmProjects/stm32f3x/lib/STM32F30x_DSP_StdPeriph_Lib_V1.2.3/Libraries/CMSIS/Include/core_cm4.h **** 
 224:/Users/rdaneel/Binary/Roaming/C-Code/StmProjects/stm32f3x/lib/STM32F30x_DSP_StdPeriph_Lib_V1.2.3/Libraries/CMSIS/Include/core_cm4.h ****   #ifndef __NVIC_PRIO_BITS
 225:/Users/rdaneel/Binary/Roaming/C-Code/StmProjects/stm32f3x/lib/STM32F30x_DSP_StdPeriph_Lib_V1.2.3/Libraries/CMSIS/Include/core_cm4.h ****     #define __NVIC_PRIO_BITS          4
ARM GAS  /var/folders/_2/qbh2zpt918qcm2b_6mgyydnm0000gn/T//ccOjgwl7.s 			page 21


 226:/Users/rdaneel/Binary/Roaming/C-Code/StmProjects/stm32f3x/lib/STM32F30x_DSP_StdPeriph_Lib_V1.2.3/Libraries/CMSIS/Include/core_cm4.h ****     #warning "__NVIC_PRIO_BITS not defined in device header file; using default!"
 227:/Users/rdaneel/Binary/Roaming/C-Code/StmProjects/stm32f3x/lib/STM32F30x_DSP_StdPeriph_Lib_V1.2.3/Libraries/CMSIS/Include/core_cm4.h ****   #endif
 228:/Users/rdaneel/Binary/Roaming/C-Code/StmProjects/stm32f3x/lib/STM32F30x_DSP_StdPeriph_Lib_V1.2.3/Libraries/CMSIS/Include/core_cm4.h **** 
 229:/Users/rdaneel/Binary/Roaming/C-Code/StmProjects/stm32f3x/lib/STM32F30x_DSP_StdPeriph_Lib_V1.2.3/Libraries/CMSIS/Include/core_cm4.h ****   #ifndef __Vendor_SysTickConfig
 230:/Users/rdaneel/Binary/Roaming/C-Code/StmProjects/stm32f3x/lib/STM32F30x_DSP_StdPeriph_Lib_V1.2.3/Libraries/CMSIS/Include/core_cm4.h ****     #define __Vendor_SysTickConfig    0
 231:/Users/rdaneel/Binary/Roaming/C-Code/StmProjects/stm32f3x/lib/STM32F30x_DSP_StdPeriph_Lib_V1.2.3/Libraries/CMSIS/Include/core_cm4.h ****     #warning "__Vendor_SysTickConfig not defined in device header file; using default!"
 232:/Users/rdaneel/Binary/Roaming/C-Code/StmProjects/stm32f3x/lib/STM32F30x_DSP_StdPeriph_Lib_V1.2.3/Libraries/CMSIS/Include/core_cm4.h ****   #endif
 233:/Users/rdaneel/Binary/Roaming/C-Code/StmProjects/stm32f3x/lib/STM32F30x_DSP_StdPeriph_Lib_V1.2.3/Libraries/CMSIS/Include/core_cm4.h **** #endif
 234:/Users/rdaneel/Binary/Roaming/C-Code/StmProjects/stm32f3x/lib/STM32F30x_DSP_StdPeriph_Lib_V1.2.3/Libraries/CMSIS/Include/core_cm4.h **** 
 235:/Users/rdaneel/Binary/Roaming/C-Code/StmProjects/stm32f3x/lib/STM32F30x_DSP_StdPeriph_Lib_V1.2.3/Libraries/CMSIS/Include/core_cm4.h **** /* IO definitions (access restrictions to peripheral registers) */
 236:/Users/rdaneel/Binary/Roaming/C-Code/StmProjects/stm32f3x/lib/STM32F30x_DSP_StdPeriph_Lib_V1.2.3/Libraries/CMSIS/Include/core_cm4.h **** /**
 237:/Users/rdaneel/Binary/Roaming/C-Code/StmProjects/stm32f3x/lib/STM32F30x_DSP_StdPeriph_Lib_V1.2.3/Libraries/CMSIS/Include/core_cm4.h ****     \defgroup CMSIS_glob_defs CMSIS Global Defines
 238:/Users/rdaneel/Binary/Roaming/C-Code/StmProjects/stm32f3x/lib/STM32F30x_DSP_StdPeriph_Lib_V1.2.3/Libraries/CMSIS/Include/core_cm4.h **** 
 239:/Users/rdaneel/Binary/Roaming/C-Code/StmProjects/stm32f3x/lib/STM32F30x_DSP_StdPeriph_Lib_V1.2.3/Libraries/CMSIS/Include/core_cm4.h ****     <strong>IO Type Qualifiers</strong> are used
 240:/Users/rdaneel/Binary/Roaming/C-Code/StmProjects/stm32f3x/lib/STM32F30x_DSP_StdPeriph_Lib_V1.2.3/Libraries/CMSIS/Include/core_cm4.h ****     \li to specify the access to peripheral variables.
 241:/Users/rdaneel/Binary/Roaming/C-Code/StmProjects/stm32f3x/lib/STM32F30x_DSP_StdPeriph_Lib_V1.2.3/Libraries/CMSIS/Include/core_cm4.h ****     \li for automatic generation of peripheral register debug information.
 242:/Users/rdaneel/Binary/Roaming/C-Code/StmProjects/stm32f3x/lib/STM32F30x_DSP_StdPeriph_Lib_V1.2.3/Libraries/CMSIS/Include/core_cm4.h **** */
 243:/Users/rdaneel/Binary/Roaming/C-Code/StmProjects/stm32f3x/lib/STM32F30x_DSP_StdPeriph_Lib_V1.2.3/Libraries/CMSIS/Include/core_cm4.h **** #ifdef __cplusplus
 244:/Users/rdaneel/Binary/Roaming/C-Code/StmProjects/stm32f3x/lib/STM32F30x_DSP_StdPeriph_Lib_V1.2.3/Libraries/CMSIS/Include/core_cm4.h ****   #define   __I     volatile             /*!< Defines 'read only' permissions                 */
 245:/Users/rdaneel/Binary/Roaming/C-Code/StmProjects/stm32f3x/lib/STM32F30x_DSP_StdPeriph_Lib_V1.2.3/Libraries/CMSIS/Include/core_cm4.h **** #else
 246:/Users/rdaneel/Binary/Roaming/C-Code/StmProjects/stm32f3x/lib/STM32F30x_DSP_StdPeriph_Lib_V1.2.3/Libraries/CMSIS/Include/core_cm4.h ****   #define   __I     volatile const       /*!< Defines 'read only' permissions                 */
 247:/Users/rdaneel/Binary/Roaming/C-Code/StmProjects/stm32f3x/lib/STM32F30x_DSP_StdPeriph_Lib_V1.2.3/Libraries/CMSIS/Include/core_cm4.h **** #endif
 248:/Users/rdaneel/Binary/Roaming/C-Code/StmProjects/stm32f3x/lib/STM32F30x_DSP_StdPeriph_Lib_V1.2.3/Libraries/CMSIS/Include/core_cm4.h **** #define     __O     volatile             /*!< Defines 'write only' permissions                */
 249:/Users/rdaneel/Binary/Roaming/C-Code/StmProjects/stm32f3x/lib/STM32F30x_DSP_StdPeriph_Lib_V1.2.3/Libraries/CMSIS/Include/core_cm4.h **** #define     __IO    volatile             /*!< Defines 'read / write' permissions              */
 250:/Users/rdaneel/Binary/Roaming/C-Code/StmProjects/stm32f3x/lib/STM32F30x_DSP_StdPeriph_Lib_V1.2.3/Libraries/CMSIS/Include/core_cm4.h **** 
 251:/Users/rdaneel/Binary/Roaming/C-Code/StmProjects/stm32f3x/lib/STM32F30x_DSP_StdPeriph_Lib_V1.2.3/Libraries/CMSIS/Include/core_cm4.h **** /*@} end of group Cortex_M4 */
 252:/Users/rdaneel/Binary/Roaming/C-Code/StmProjects/stm32f3x/lib/STM32F30x_DSP_StdPeriph_Lib_V1.2.3/Libraries/CMSIS/Include/core_cm4.h **** 
 253:/Users/rdaneel/Binary/Roaming/C-Code/StmProjects/stm32f3x/lib/STM32F30x_DSP_StdPeriph_Lib_V1.2.3/Libraries/CMSIS/Include/core_cm4.h **** 
 254:/Users/rdaneel/Binary/Roaming/C-Code/StmProjects/stm32f3x/lib/STM32F30x_DSP_StdPeriph_Lib_V1.2.3/Libraries/CMSIS/Include/core_cm4.h **** 
 255:/Users/rdaneel/Binary/Roaming/C-Code/StmProjects/stm32f3x/lib/STM32F30x_DSP_StdPeriph_Lib_V1.2.3/Libraries/CMSIS/Include/core_cm4.h **** /*******************************************************************************
 256:/Users/rdaneel/Binary/Roaming/C-Code/StmProjects/stm32f3x/lib/STM32F30x_DSP_StdPeriph_Lib_V1.2.3/Libraries/CMSIS/Include/core_cm4.h ****  *                 Register Abstraction
 257:/Users/rdaneel/Binary/Roaming/C-Code/StmProjects/stm32f3x/lib/STM32F30x_DSP_StdPeriph_Lib_V1.2.3/Libraries/CMSIS/Include/core_cm4.h ****   Core Register contain:
 258:/Users/rdaneel/Binary/Roaming/C-Code/StmProjects/stm32f3x/lib/STM32F30x_DSP_StdPeriph_Lib_V1.2.3/Libraries/CMSIS/Include/core_cm4.h ****   - Core Register
 259:/Users/rdaneel/Binary/Roaming/C-Code/StmProjects/stm32f3x/lib/STM32F30x_DSP_StdPeriph_Lib_V1.2.3/Libraries/CMSIS/Include/core_cm4.h ****   - Core NVIC Register
 260:/Users/rdaneel/Binary/Roaming/C-Code/StmProjects/stm32f3x/lib/STM32F30x_DSP_StdPeriph_Lib_V1.2.3/Libraries/CMSIS/Include/core_cm4.h ****   - Core SCB Register
 261:/Users/rdaneel/Binary/Roaming/C-Code/StmProjects/stm32f3x/lib/STM32F30x_DSP_StdPeriph_Lib_V1.2.3/Libraries/CMSIS/Include/core_cm4.h ****   - Core SysTick Register
 262:/Users/rdaneel/Binary/Roaming/C-Code/StmProjects/stm32f3x/lib/STM32F30x_DSP_StdPeriph_Lib_V1.2.3/Libraries/CMSIS/Include/core_cm4.h ****   - Core Debug Register
 263:/Users/rdaneel/Binary/Roaming/C-Code/StmProjects/stm32f3x/lib/STM32F30x_DSP_StdPeriph_Lib_V1.2.3/Libraries/CMSIS/Include/core_cm4.h ****   - Core MPU Register
 264:/Users/rdaneel/Binary/Roaming/C-Code/StmProjects/stm32f3x/lib/STM32F30x_DSP_StdPeriph_Lib_V1.2.3/Libraries/CMSIS/Include/core_cm4.h ****   - Core FPU Register
 265:/Users/rdaneel/Binary/Roaming/C-Code/StmProjects/stm32f3x/lib/STM32F30x_DSP_StdPeriph_Lib_V1.2.3/Libraries/CMSIS/Include/core_cm4.h ****  ******************************************************************************/
 266:/Users/rdaneel/Binary/Roaming/C-Code/StmProjects/stm32f3x/lib/STM32F30x_DSP_StdPeriph_Lib_V1.2.3/Libraries/CMSIS/Include/core_cm4.h **** /** \defgroup CMSIS_core_register Defines and Type Definitions
 267:/Users/rdaneel/Binary/Roaming/C-Code/StmProjects/stm32f3x/lib/STM32F30x_DSP_StdPeriph_Lib_V1.2.3/Libraries/CMSIS/Include/core_cm4.h ****     \brief Type definitions and defines for Cortex-M processor based devices.
 268:/Users/rdaneel/Binary/Roaming/C-Code/StmProjects/stm32f3x/lib/STM32F30x_DSP_StdPeriph_Lib_V1.2.3/Libraries/CMSIS/Include/core_cm4.h **** */
 269:/Users/rdaneel/Binary/Roaming/C-Code/StmProjects/stm32f3x/lib/STM32F30x_DSP_StdPeriph_Lib_V1.2.3/Libraries/CMSIS/Include/core_cm4.h **** 
 270:/Users/rdaneel/Binary/Roaming/C-Code/StmProjects/stm32f3x/lib/STM32F30x_DSP_StdPeriph_Lib_V1.2.3/Libraries/CMSIS/Include/core_cm4.h **** /** \ingroup    CMSIS_core_register
 271:/Users/rdaneel/Binary/Roaming/C-Code/StmProjects/stm32f3x/lib/STM32F30x_DSP_StdPeriph_Lib_V1.2.3/Libraries/CMSIS/Include/core_cm4.h ****     \defgroup   CMSIS_CORE  Status and Control Registers
 272:/Users/rdaneel/Binary/Roaming/C-Code/StmProjects/stm32f3x/lib/STM32F30x_DSP_StdPeriph_Lib_V1.2.3/Libraries/CMSIS/Include/core_cm4.h ****     \brief  Core Register type definitions.
 273:/Users/rdaneel/Binary/Roaming/C-Code/StmProjects/stm32f3x/lib/STM32F30x_DSP_StdPeriph_Lib_V1.2.3/Libraries/CMSIS/Include/core_cm4.h ****   @{
 274:/Users/rdaneel/Binary/Roaming/C-Code/StmProjects/stm32f3x/lib/STM32F30x_DSP_StdPeriph_Lib_V1.2.3/Libraries/CMSIS/Include/core_cm4.h ****  */
 275:/Users/rdaneel/Binary/Roaming/C-Code/StmProjects/stm32f3x/lib/STM32F30x_DSP_StdPeriph_Lib_V1.2.3/Libraries/CMSIS/Include/core_cm4.h **** 
 276:/Users/rdaneel/Binary/Roaming/C-Code/StmProjects/stm32f3x/lib/STM32F30x_DSP_StdPeriph_Lib_V1.2.3/Libraries/CMSIS/Include/core_cm4.h **** /** \brief  Union type to access the Application Program Status Register (APSR).
 277:/Users/rdaneel/Binary/Roaming/C-Code/StmProjects/stm32f3x/lib/STM32F30x_DSP_StdPeriph_Lib_V1.2.3/Libraries/CMSIS/Include/core_cm4.h ****  */
 278:/Users/rdaneel/Binary/Roaming/C-Code/StmProjects/stm32f3x/lib/STM32F30x_DSP_StdPeriph_Lib_V1.2.3/Libraries/CMSIS/Include/core_cm4.h **** typedef union
 279:/Users/rdaneel/Binary/Roaming/C-Code/StmProjects/stm32f3x/lib/STM32F30x_DSP_StdPeriph_Lib_V1.2.3/Libraries/CMSIS/Include/core_cm4.h **** {
 280:/Users/rdaneel/Binary/Roaming/C-Code/StmProjects/stm32f3x/lib/STM32F30x_DSP_StdPeriph_Lib_V1.2.3/Libraries/CMSIS/Include/core_cm4.h ****   struct
 281:/Users/rdaneel/Binary/Roaming/C-Code/StmProjects/stm32f3x/lib/STM32F30x_DSP_StdPeriph_Lib_V1.2.3/Libraries/CMSIS/Include/core_cm4.h ****   {
 282:/Users/rdaneel/Binary/Roaming/C-Code/StmProjects/stm32f3x/lib/STM32F30x_DSP_StdPeriph_Lib_V1.2.3/Libraries/CMSIS/Include/core_cm4.h **** #if (__CORTEX_M != 0x04)
ARM GAS  /var/folders/_2/qbh2zpt918qcm2b_6mgyydnm0000gn/T//ccOjgwl7.s 			page 22


 283:/Users/rdaneel/Binary/Roaming/C-Code/StmProjects/stm32f3x/lib/STM32F30x_DSP_StdPeriph_Lib_V1.2.3/Libraries/CMSIS/Include/core_cm4.h ****     uint32_t _reserved0:27;              /*!< bit:  0..26  Reserved                           */
 284:/Users/rdaneel/Binary/Roaming/C-Code/StmProjects/stm32f3x/lib/STM32F30x_DSP_StdPeriph_Lib_V1.2.3/Libraries/CMSIS/Include/core_cm4.h **** #else
 285:/Users/rdaneel/Binary/Roaming/C-Code/StmProjects/stm32f3x/lib/STM32F30x_DSP_StdPeriph_Lib_V1.2.3/Libraries/CMSIS/Include/core_cm4.h ****     uint32_t _reserved0:16;              /*!< bit:  0..15  Reserved                           */
 286:/Users/rdaneel/Binary/Roaming/C-Code/StmProjects/stm32f3x/lib/STM32F30x_DSP_StdPeriph_Lib_V1.2.3/Libraries/CMSIS/Include/core_cm4.h ****     uint32_t GE:4;                       /*!< bit: 16..19  Greater than or Equal flags        */
 287:/Users/rdaneel/Binary/Roaming/C-Code/StmProjects/stm32f3x/lib/STM32F30x_DSP_StdPeriph_Lib_V1.2.3/Libraries/CMSIS/Include/core_cm4.h ****     uint32_t _reserved1:7;               /*!< bit: 20..26  Reserved                           */
 288:/Users/rdaneel/Binary/Roaming/C-Code/StmProjects/stm32f3x/lib/STM32F30x_DSP_StdPeriph_Lib_V1.2.3/Libraries/CMSIS/Include/core_cm4.h **** #endif
 289:/Users/rdaneel/Binary/Roaming/C-Code/StmProjects/stm32f3x/lib/STM32F30x_DSP_StdPeriph_Lib_V1.2.3/Libraries/CMSIS/Include/core_cm4.h ****     uint32_t Q:1;                        /*!< bit:     27  Saturation condition flag          */
 290:/Users/rdaneel/Binary/Roaming/C-Code/StmProjects/stm32f3x/lib/STM32F30x_DSP_StdPeriph_Lib_V1.2.3/Libraries/CMSIS/Include/core_cm4.h ****     uint32_t V:1;                        /*!< bit:     28  Overflow condition code flag       */
 291:/Users/rdaneel/Binary/Roaming/C-Code/StmProjects/stm32f3x/lib/STM32F30x_DSP_StdPeriph_Lib_V1.2.3/Libraries/CMSIS/Include/core_cm4.h ****     uint32_t C:1;                        /*!< bit:     29  Carry condition code flag          */
 292:/Users/rdaneel/Binary/Roaming/C-Code/StmProjects/stm32f3x/lib/STM32F30x_DSP_StdPeriph_Lib_V1.2.3/Libraries/CMSIS/Include/core_cm4.h ****     uint32_t Z:1;                        /*!< bit:     30  Zero condition code flag           */
 293:/Users/rdaneel/Binary/Roaming/C-Code/StmProjects/stm32f3x/lib/STM32F30x_DSP_StdPeriph_Lib_V1.2.3/Libraries/CMSIS/Include/core_cm4.h ****     uint32_t N:1;                        /*!< bit:     31  Negative condition code flag       */
 294:/Users/rdaneel/Binary/Roaming/C-Code/StmProjects/stm32f3x/lib/STM32F30x_DSP_StdPeriph_Lib_V1.2.3/Libraries/CMSIS/Include/core_cm4.h ****   } b;                                   /*!< Structure used for bit  access                  */
 295:/Users/rdaneel/Binary/Roaming/C-Code/StmProjects/stm32f3x/lib/STM32F30x_DSP_StdPeriph_Lib_V1.2.3/Libraries/CMSIS/Include/core_cm4.h ****   uint32_t w;                            /*!< Type      used for word access                  */
 296:/Users/rdaneel/Binary/Roaming/C-Code/StmProjects/stm32f3x/lib/STM32F30x_DSP_StdPeriph_Lib_V1.2.3/Libraries/CMSIS/Include/core_cm4.h **** } APSR_Type;
 297:/Users/rdaneel/Binary/Roaming/C-Code/StmProjects/stm32f3x/lib/STM32F30x_DSP_StdPeriph_Lib_V1.2.3/Libraries/CMSIS/Include/core_cm4.h **** 
 298:/Users/rdaneel/Binary/Roaming/C-Code/StmProjects/stm32f3x/lib/STM32F30x_DSP_StdPeriph_Lib_V1.2.3/Libraries/CMSIS/Include/core_cm4.h **** 
 299:/Users/rdaneel/Binary/Roaming/C-Code/StmProjects/stm32f3x/lib/STM32F30x_DSP_StdPeriph_Lib_V1.2.3/Libraries/CMSIS/Include/core_cm4.h **** /** \brief  Union type to access the Interrupt Program Status Register (IPSR).
 300:/Users/rdaneel/Binary/Roaming/C-Code/StmProjects/stm32f3x/lib/STM32F30x_DSP_StdPeriph_Lib_V1.2.3/Libraries/CMSIS/Include/core_cm4.h ****  */
 301:/Users/rdaneel/Binary/Roaming/C-Code/StmProjects/stm32f3x/lib/STM32F30x_DSP_StdPeriph_Lib_V1.2.3/Libraries/CMSIS/Include/core_cm4.h **** typedef union
 302:/Users/rdaneel/Binary/Roaming/C-Code/StmProjects/stm32f3x/lib/STM32F30x_DSP_StdPeriph_Lib_V1.2.3/Libraries/CMSIS/Include/core_cm4.h **** {
 303:/Users/rdaneel/Binary/Roaming/C-Code/StmProjects/stm32f3x/lib/STM32F30x_DSP_StdPeriph_Lib_V1.2.3/Libraries/CMSIS/Include/core_cm4.h ****   struct
 304:/Users/rdaneel/Binary/Roaming/C-Code/StmProjects/stm32f3x/lib/STM32F30x_DSP_StdPeriph_Lib_V1.2.3/Libraries/CMSIS/Include/core_cm4.h ****   {
 305:/Users/rdaneel/Binary/Roaming/C-Code/StmProjects/stm32f3x/lib/STM32F30x_DSP_StdPeriph_Lib_V1.2.3/Libraries/CMSIS/Include/core_cm4.h ****     uint32_t ISR:9;                      /*!< bit:  0.. 8  Exception number                   */
 306:/Users/rdaneel/Binary/Roaming/C-Code/StmProjects/stm32f3x/lib/STM32F30x_DSP_StdPeriph_Lib_V1.2.3/Libraries/CMSIS/Include/core_cm4.h ****     uint32_t _reserved0:23;              /*!< bit:  9..31  Reserved                           */
 307:/Users/rdaneel/Binary/Roaming/C-Code/StmProjects/stm32f3x/lib/STM32F30x_DSP_StdPeriph_Lib_V1.2.3/Libraries/CMSIS/Include/core_cm4.h ****   } b;                                   /*!< Structure used for bit  access                  */
 308:/Users/rdaneel/Binary/Roaming/C-Code/StmProjects/stm32f3x/lib/STM32F30x_DSP_StdPeriph_Lib_V1.2.3/Libraries/CMSIS/Include/core_cm4.h ****   uint32_t w;                            /*!< Type      used for word access                  */
 309:/Users/rdaneel/Binary/Roaming/C-Code/StmProjects/stm32f3x/lib/STM32F30x_DSP_StdPeriph_Lib_V1.2.3/Libraries/CMSIS/Include/core_cm4.h **** } IPSR_Type;
 310:/Users/rdaneel/Binary/Roaming/C-Code/StmProjects/stm32f3x/lib/STM32F30x_DSP_StdPeriph_Lib_V1.2.3/Libraries/CMSIS/Include/core_cm4.h **** 
 311:/Users/rdaneel/Binary/Roaming/C-Code/StmProjects/stm32f3x/lib/STM32F30x_DSP_StdPeriph_Lib_V1.2.3/Libraries/CMSIS/Include/core_cm4.h **** 
 312:/Users/rdaneel/Binary/Roaming/C-Code/StmProjects/stm32f3x/lib/STM32F30x_DSP_StdPeriph_Lib_V1.2.3/Libraries/CMSIS/Include/core_cm4.h **** /** \brief  Union type to access the Special-Purpose Program Status Registers (xPSR).
 313:/Users/rdaneel/Binary/Roaming/C-Code/StmProjects/stm32f3x/lib/STM32F30x_DSP_StdPeriph_Lib_V1.2.3/Libraries/CMSIS/Include/core_cm4.h ****  */
 314:/Users/rdaneel/Binary/Roaming/C-Code/StmProjects/stm32f3x/lib/STM32F30x_DSP_StdPeriph_Lib_V1.2.3/Libraries/CMSIS/Include/core_cm4.h **** typedef union
 315:/Users/rdaneel/Binary/Roaming/C-Code/StmProjects/stm32f3x/lib/STM32F30x_DSP_StdPeriph_Lib_V1.2.3/Libraries/CMSIS/Include/core_cm4.h **** {
 316:/Users/rdaneel/Binary/Roaming/C-Code/StmProjects/stm32f3x/lib/STM32F30x_DSP_StdPeriph_Lib_V1.2.3/Libraries/CMSIS/Include/core_cm4.h ****   struct
 317:/Users/rdaneel/Binary/Roaming/C-Code/StmProjects/stm32f3x/lib/STM32F30x_DSP_StdPeriph_Lib_V1.2.3/Libraries/CMSIS/Include/core_cm4.h ****   {
 318:/Users/rdaneel/Binary/Roaming/C-Code/StmProjects/stm32f3x/lib/STM32F30x_DSP_StdPeriph_Lib_V1.2.3/Libraries/CMSIS/Include/core_cm4.h ****     uint32_t ISR:9;                      /*!< bit:  0.. 8  Exception number                   */
 319:/Users/rdaneel/Binary/Roaming/C-Code/StmProjects/stm32f3x/lib/STM32F30x_DSP_StdPeriph_Lib_V1.2.3/Libraries/CMSIS/Include/core_cm4.h **** #if (__CORTEX_M != 0x04)
 320:/Users/rdaneel/Binary/Roaming/C-Code/StmProjects/stm32f3x/lib/STM32F30x_DSP_StdPeriph_Lib_V1.2.3/Libraries/CMSIS/Include/core_cm4.h ****     uint32_t _reserved0:15;              /*!< bit:  9..23  Reserved                           */
 321:/Users/rdaneel/Binary/Roaming/C-Code/StmProjects/stm32f3x/lib/STM32F30x_DSP_StdPeriph_Lib_V1.2.3/Libraries/CMSIS/Include/core_cm4.h **** #else
 322:/Users/rdaneel/Binary/Roaming/C-Code/StmProjects/stm32f3x/lib/STM32F30x_DSP_StdPeriph_Lib_V1.2.3/Libraries/CMSIS/Include/core_cm4.h ****     uint32_t _reserved0:7;               /*!< bit:  9..15  Reserved                           */
 323:/Users/rdaneel/Binary/Roaming/C-Code/StmProjects/stm32f3x/lib/STM32F30x_DSP_StdPeriph_Lib_V1.2.3/Libraries/CMSIS/Include/core_cm4.h ****     uint32_t GE:4;                       /*!< bit: 16..19  Greater than or Equal flags        */
 324:/Users/rdaneel/Binary/Roaming/C-Code/StmProjects/stm32f3x/lib/STM32F30x_DSP_StdPeriph_Lib_V1.2.3/Libraries/CMSIS/Include/core_cm4.h ****     uint32_t _reserved1:4;               /*!< bit: 20..23  Reserved                           */
 325:/Users/rdaneel/Binary/Roaming/C-Code/StmProjects/stm32f3x/lib/STM32F30x_DSP_StdPeriph_Lib_V1.2.3/Libraries/CMSIS/Include/core_cm4.h **** #endif
 326:/Users/rdaneel/Binary/Roaming/C-Code/StmProjects/stm32f3x/lib/STM32F30x_DSP_StdPeriph_Lib_V1.2.3/Libraries/CMSIS/Include/core_cm4.h ****     uint32_t T:1;                        /*!< bit:     24  Thumb bit        (read 0)          */
 327:/Users/rdaneel/Binary/Roaming/C-Code/StmProjects/stm32f3x/lib/STM32F30x_DSP_StdPeriph_Lib_V1.2.3/Libraries/CMSIS/Include/core_cm4.h ****     uint32_t IT:2;                       /*!< bit: 25..26  saved IT state   (read 0)          */
 328:/Users/rdaneel/Binary/Roaming/C-Code/StmProjects/stm32f3x/lib/STM32F30x_DSP_StdPeriph_Lib_V1.2.3/Libraries/CMSIS/Include/core_cm4.h ****     uint32_t Q:1;                        /*!< bit:     27  Saturation condition flag          */
 329:/Users/rdaneel/Binary/Roaming/C-Code/StmProjects/stm32f3x/lib/STM32F30x_DSP_StdPeriph_Lib_V1.2.3/Libraries/CMSIS/Include/core_cm4.h ****     uint32_t V:1;                        /*!< bit:     28  Overflow condition code flag       */
 330:/Users/rdaneel/Binary/Roaming/C-Code/StmProjects/stm32f3x/lib/STM32F30x_DSP_StdPeriph_Lib_V1.2.3/Libraries/CMSIS/Include/core_cm4.h ****     uint32_t C:1;                        /*!< bit:     29  Carry condition code flag          */
 331:/Users/rdaneel/Binary/Roaming/C-Code/StmProjects/stm32f3x/lib/STM32F30x_DSP_StdPeriph_Lib_V1.2.3/Libraries/CMSIS/Include/core_cm4.h ****     uint32_t Z:1;                        /*!< bit:     30  Zero condition code flag           */
 332:/Users/rdaneel/Binary/Roaming/C-Code/StmProjects/stm32f3x/lib/STM32F30x_DSP_StdPeriph_Lib_V1.2.3/Libraries/CMSIS/Include/core_cm4.h ****     uint32_t N:1;                        /*!< bit:     31  Negative condition code flag       */
 333:/Users/rdaneel/Binary/Roaming/C-Code/StmProjects/stm32f3x/lib/STM32F30x_DSP_StdPeriph_Lib_V1.2.3/Libraries/CMSIS/Include/core_cm4.h ****   } b;                                   /*!< Structure used for bit  access                  */
 334:/Users/rdaneel/Binary/Roaming/C-Code/StmProjects/stm32f3x/lib/STM32F30x_DSP_StdPeriph_Lib_V1.2.3/Libraries/CMSIS/Include/core_cm4.h ****   uint32_t w;                            /*!< Type      used for word access                  */
 335:/Users/rdaneel/Binary/Roaming/C-Code/StmProjects/stm32f3x/lib/STM32F30x_DSP_StdPeriph_Lib_V1.2.3/Libraries/CMSIS/Include/core_cm4.h **** } xPSR_Type;
 336:/Users/rdaneel/Binary/Roaming/C-Code/StmProjects/stm32f3x/lib/STM32F30x_DSP_StdPeriph_Lib_V1.2.3/Libraries/CMSIS/Include/core_cm4.h **** 
 337:/Users/rdaneel/Binary/Roaming/C-Code/StmProjects/stm32f3x/lib/STM32F30x_DSP_StdPeriph_Lib_V1.2.3/Libraries/CMSIS/Include/core_cm4.h **** 
 338:/Users/rdaneel/Binary/Roaming/C-Code/StmProjects/stm32f3x/lib/STM32F30x_DSP_StdPeriph_Lib_V1.2.3/Libraries/CMSIS/Include/core_cm4.h **** /** \brief  Union type to access the Control Registers (CONTROL).
 339:/Users/rdaneel/Binary/Roaming/C-Code/StmProjects/stm32f3x/lib/STM32F30x_DSP_StdPeriph_Lib_V1.2.3/Libraries/CMSIS/Include/core_cm4.h ****  */
ARM GAS  /var/folders/_2/qbh2zpt918qcm2b_6mgyydnm0000gn/T//ccOjgwl7.s 			page 23


 340:/Users/rdaneel/Binary/Roaming/C-Code/StmProjects/stm32f3x/lib/STM32F30x_DSP_StdPeriph_Lib_V1.2.3/Libraries/CMSIS/Include/core_cm4.h **** typedef union
 341:/Users/rdaneel/Binary/Roaming/C-Code/StmProjects/stm32f3x/lib/STM32F30x_DSP_StdPeriph_Lib_V1.2.3/Libraries/CMSIS/Include/core_cm4.h **** {
 342:/Users/rdaneel/Binary/Roaming/C-Code/StmProjects/stm32f3x/lib/STM32F30x_DSP_StdPeriph_Lib_V1.2.3/Libraries/CMSIS/Include/core_cm4.h ****   struct
 343:/Users/rdaneel/Binary/Roaming/C-Code/StmProjects/stm32f3x/lib/STM32F30x_DSP_StdPeriph_Lib_V1.2.3/Libraries/CMSIS/Include/core_cm4.h ****   {
 344:/Users/rdaneel/Binary/Roaming/C-Code/StmProjects/stm32f3x/lib/STM32F30x_DSP_StdPeriph_Lib_V1.2.3/Libraries/CMSIS/Include/core_cm4.h ****     uint32_t nPRIV:1;                    /*!< bit:      0  Execution privilege in Thread mode */
 345:/Users/rdaneel/Binary/Roaming/C-Code/StmProjects/stm32f3x/lib/STM32F30x_DSP_StdPeriph_Lib_V1.2.3/Libraries/CMSIS/Include/core_cm4.h ****     uint32_t SPSEL:1;                    /*!< bit:      1  Stack to be used                   */
 346:/Users/rdaneel/Binary/Roaming/C-Code/StmProjects/stm32f3x/lib/STM32F30x_DSP_StdPeriph_Lib_V1.2.3/Libraries/CMSIS/Include/core_cm4.h ****     uint32_t FPCA:1;                     /*!< bit:      2  FP extension active flag           */
 347:/Users/rdaneel/Binary/Roaming/C-Code/StmProjects/stm32f3x/lib/STM32F30x_DSP_StdPeriph_Lib_V1.2.3/Libraries/CMSIS/Include/core_cm4.h ****     uint32_t _reserved0:29;              /*!< bit:  3..31  Reserved                           */
 348:/Users/rdaneel/Binary/Roaming/C-Code/StmProjects/stm32f3x/lib/STM32F30x_DSP_StdPeriph_Lib_V1.2.3/Libraries/CMSIS/Include/core_cm4.h ****   } b;                                   /*!< Structure used for bit  access                  */
 349:/Users/rdaneel/Binary/Roaming/C-Code/StmProjects/stm32f3x/lib/STM32F30x_DSP_StdPeriph_Lib_V1.2.3/Libraries/CMSIS/Include/core_cm4.h ****   uint32_t w;                            /*!< Type      used for word access                  */
 350:/Users/rdaneel/Binary/Roaming/C-Code/StmProjects/stm32f3x/lib/STM32F30x_DSP_StdPeriph_Lib_V1.2.3/Libraries/CMSIS/Include/core_cm4.h **** } CONTROL_Type;
 351:/Users/rdaneel/Binary/Roaming/C-Code/StmProjects/stm32f3x/lib/STM32F30x_DSP_StdPeriph_Lib_V1.2.3/Libraries/CMSIS/Include/core_cm4.h **** 
 352:/Users/rdaneel/Binary/Roaming/C-Code/StmProjects/stm32f3x/lib/STM32F30x_DSP_StdPeriph_Lib_V1.2.3/Libraries/CMSIS/Include/core_cm4.h **** /*@} end of group CMSIS_CORE */
 353:/Users/rdaneel/Binary/Roaming/C-Code/StmProjects/stm32f3x/lib/STM32F30x_DSP_StdPeriph_Lib_V1.2.3/Libraries/CMSIS/Include/core_cm4.h **** 
 354:/Users/rdaneel/Binary/Roaming/C-Code/StmProjects/stm32f3x/lib/STM32F30x_DSP_StdPeriph_Lib_V1.2.3/Libraries/CMSIS/Include/core_cm4.h **** 
 355:/Users/rdaneel/Binary/Roaming/C-Code/StmProjects/stm32f3x/lib/STM32F30x_DSP_StdPeriph_Lib_V1.2.3/Libraries/CMSIS/Include/core_cm4.h **** /** \ingroup    CMSIS_core_register
 356:/Users/rdaneel/Binary/Roaming/C-Code/StmProjects/stm32f3x/lib/STM32F30x_DSP_StdPeriph_Lib_V1.2.3/Libraries/CMSIS/Include/core_cm4.h ****     \defgroup   CMSIS_NVIC  Nested Vectored Interrupt Controller (NVIC)
 357:/Users/rdaneel/Binary/Roaming/C-Code/StmProjects/stm32f3x/lib/STM32F30x_DSP_StdPeriph_Lib_V1.2.3/Libraries/CMSIS/Include/core_cm4.h ****     \brief      Type definitions for the NVIC Registers
 358:/Users/rdaneel/Binary/Roaming/C-Code/StmProjects/stm32f3x/lib/STM32F30x_DSP_StdPeriph_Lib_V1.2.3/Libraries/CMSIS/Include/core_cm4.h ****   @{
 359:/Users/rdaneel/Binary/Roaming/C-Code/StmProjects/stm32f3x/lib/STM32F30x_DSP_StdPeriph_Lib_V1.2.3/Libraries/CMSIS/Include/core_cm4.h ****  */
 360:/Users/rdaneel/Binary/Roaming/C-Code/StmProjects/stm32f3x/lib/STM32F30x_DSP_StdPeriph_Lib_V1.2.3/Libraries/CMSIS/Include/core_cm4.h **** 
 361:/Users/rdaneel/Binary/Roaming/C-Code/StmProjects/stm32f3x/lib/STM32F30x_DSP_StdPeriph_Lib_V1.2.3/Libraries/CMSIS/Include/core_cm4.h **** /** \brief  Structure type to access the Nested Vectored Interrupt Controller (NVIC).
 362:/Users/rdaneel/Binary/Roaming/C-Code/StmProjects/stm32f3x/lib/STM32F30x_DSP_StdPeriph_Lib_V1.2.3/Libraries/CMSIS/Include/core_cm4.h ****  */
 363:/Users/rdaneel/Binary/Roaming/C-Code/StmProjects/stm32f3x/lib/STM32F30x_DSP_StdPeriph_Lib_V1.2.3/Libraries/CMSIS/Include/core_cm4.h **** typedef struct
 364:/Users/rdaneel/Binary/Roaming/C-Code/StmProjects/stm32f3x/lib/STM32F30x_DSP_StdPeriph_Lib_V1.2.3/Libraries/CMSIS/Include/core_cm4.h **** {
 365:/Users/rdaneel/Binary/Roaming/C-Code/StmProjects/stm32f3x/lib/STM32F30x_DSP_StdPeriph_Lib_V1.2.3/Libraries/CMSIS/Include/core_cm4.h ****   __IO uint32_t ISER[8];                 /*!< Offset: 0x000 (R/W)  Interrupt Set Enable Register   
 366:/Users/rdaneel/Binary/Roaming/C-Code/StmProjects/stm32f3x/lib/STM32F30x_DSP_StdPeriph_Lib_V1.2.3/Libraries/CMSIS/Include/core_cm4.h ****        uint32_t RESERVED0[24];
 367:/Users/rdaneel/Binary/Roaming/C-Code/StmProjects/stm32f3x/lib/STM32F30x_DSP_StdPeriph_Lib_V1.2.3/Libraries/CMSIS/Include/core_cm4.h ****   __IO uint32_t ICER[8];                 /*!< Offset: 0x080 (R/W)  Interrupt Clear Enable Register 
 368:/Users/rdaneel/Binary/Roaming/C-Code/StmProjects/stm32f3x/lib/STM32F30x_DSP_StdPeriph_Lib_V1.2.3/Libraries/CMSIS/Include/core_cm4.h ****        uint32_t RSERVED1[24];
 369:/Users/rdaneel/Binary/Roaming/C-Code/StmProjects/stm32f3x/lib/STM32F30x_DSP_StdPeriph_Lib_V1.2.3/Libraries/CMSIS/Include/core_cm4.h ****   __IO uint32_t ISPR[8];                 /*!< Offset: 0x100 (R/W)  Interrupt Set Pending Register  
 370:/Users/rdaneel/Binary/Roaming/C-Code/StmProjects/stm32f3x/lib/STM32F30x_DSP_StdPeriph_Lib_V1.2.3/Libraries/CMSIS/Include/core_cm4.h ****        uint32_t RESERVED2[24];
 371:/Users/rdaneel/Binary/Roaming/C-Code/StmProjects/stm32f3x/lib/STM32F30x_DSP_StdPeriph_Lib_V1.2.3/Libraries/CMSIS/Include/core_cm4.h ****   __IO uint32_t ICPR[8];                 /*!< Offset: 0x180 (R/W)  Interrupt Clear Pending Register
 372:/Users/rdaneel/Binary/Roaming/C-Code/StmProjects/stm32f3x/lib/STM32F30x_DSP_StdPeriph_Lib_V1.2.3/Libraries/CMSIS/Include/core_cm4.h ****        uint32_t RESERVED3[24];
 373:/Users/rdaneel/Binary/Roaming/C-Code/StmProjects/stm32f3x/lib/STM32F30x_DSP_StdPeriph_Lib_V1.2.3/Libraries/CMSIS/Include/core_cm4.h ****   __IO uint32_t IABR[8];                 /*!< Offset: 0x200 (R/W)  Interrupt Active bit Register   
 374:/Users/rdaneel/Binary/Roaming/C-Code/StmProjects/stm32f3x/lib/STM32F30x_DSP_StdPeriph_Lib_V1.2.3/Libraries/CMSIS/Include/core_cm4.h ****        uint32_t RESERVED4[56];
 375:/Users/rdaneel/Binary/Roaming/C-Code/StmProjects/stm32f3x/lib/STM32F30x_DSP_StdPeriph_Lib_V1.2.3/Libraries/CMSIS/Include/core_cm4.h ****   __IO uint8_t  IP[240];                 /*!< Offset: 0x300 (R/W)  Interrupt Priority Register (8Bi
 376:/Users/rdaneel/Binary/Roaming/C-Code/StmProjects/stm32f3x/lib/STM32F30x_DSP_StdPeriph_Lib_V1.2.3/Libraries/CMSIS/Include/core_cm4.h ****        uint32_t RESERVED5[644];
 377:/Users/rdaneel/Binary/Roaming/C-Code/StmProjects/stm32f3x/lib/STM32F30x_DSP_StdPeriph_Lib_V1.2.3/Libraries/CMSIS/Include/core_cm4.h ****   __O  uint32_t STIR;                    /*!< Offset: 0xE00 ( /W)  Software Trigger Interrupt Regis
 378:/Users/rdaneel/Binary/Roaming/C-Code/StmProjects/stm32f3x/lib/STM32F30x_DSP_StdPeriph_Lib_V1.2.3/Libraries/CMSIS/Include/core_cm4.h **** }  NVIC_Type;
 379:/Users/rdaneel/Binary/Roaming/C-Code/StmProjects/stm32f3x/lib/STM32F30x_DSP_StdPeriph_Lib_V1.2.3/Libraries/CMSIS/Include/core_cm4.h **** 
 380:/Users/rdaneel/Binary/Roaming/C-Code/StmProjects/stm32f3x/lib/STM32F30x_DSP_StdPeriph_Lib_V1.2.3/Libraries/CMSIS/Include/core_cm4.h **** /* Software Triggered Interrupt Register Definitions */
 381:/Users/rdaneel/Binary/Roaming/C-Code/StmProjects/stm32f3x/lib/STM32F30x_DSP_StdPeriph_Lib_V1.2.3/Libraries/CMSIS/Include/core_cm4.h **** #define NVIC_STIR_INTID_Pos                 0                                          /*!< STIR: I
 382:/Users/rdaneel/Binary/Roaming/C-Code/StmProjects/stm32f3x/lib/STM32F30x_DSP_StdPeriph_Lib_V1.2.3/Libraries/CMSIS/Include/core_cm4.h **** #define NVIC_STIR_INTID_Msk                (0x1FFUL << NVIC_STIR_INTID_Pos)            /*!< STIR: I
 383:/Users/rdaneel/Binary/Roaming/C-Code/StmProjects/stm32f3x/lib/STM32F30x_DSP_StdPeriph_Lib_V1.2.3/Libraries/CMSIS/Include/core_cm4.h **** 
 384:/Users/rdaneel/Binary/Roaming/C-Code/StmProjects/stm32f3x/lib/STM32F30x_DSP_StdPeriph_Lib_V1.2.3/Libraries/CMSIS/Include/core_cm4.h **** /*@} end of group CMSIS_NVIC */
 385:/Users/rdaneel/Binary/Roaming/C-Code/StmProjects/stm32f3x/lib/STM32F30x_DSP_StdPeriph_Lib_V1.2.3/Libraries/CMSIS/Include/core_cm4.h **** 
 386:/Users/rdaneel/Binary/Roaming/C-Code/StmProjects/stm32f3x/lib/STM32F30x_DSP_StdPeriph_Lib_V1.2.3/Libraries/CMSIS/Include/core_cm4.h **** 
 387:/Users/rdaneel/Binary/Roaming/C-Code/StmProjects/stm32f3x/lib/STM32F30x_DSP_StdPeriph_Lib_V1.2.3/Libraries/CMSIS/Include/core_cm4.h **** /** \ingroup  CMSIS_core_register
 388:/Users/rdaneel/Binary/Roaming/C-Code/StmProjects/stm32f3x/lib/STM32F30x_DSP_StdPeriph_Lib_V1.2.3/Libraries/CMSIS/Include/core_cm4.h ****     \defgroup CMSIS_SCB     System Control Block (SCB)
 389:/Users/rdaneel/Binary/Roaming/C-Code/StmProjects/stm32f3x/lib/STM32F30x_DSP_StdPeriph_Lib_V1.2.3/Libraries/CMSIS/Include/core_cm4.h ****     \brief      Type definitions for the System Control Block Registers
 390:/Users/rdaneel/Binary/Roaming/C-Code/StmProjects/stm32f3x/lib/STM32F30x_DSP_StdPeriph_Lib_V1.2.3/Libraries/CMSIS/Include/core_cm4.h ****   @{
 391:/Users/rdaneel/Binary/Roaming/C-Code/StmProjects/stm32f3x/lib/STM32F30x_DSP_StdPeriph_Lib_V1.2.3/Libraries/CMSIS/Include/core_cm4.h ****  */
 392:/Users/rdaneel/Binary/Roaming/C-Code/StmProjects/stm32f3x/lib/STM32F30x_DSP_StdPeriph_Lib_V1.2.3/Libraries/CMSIS/Include/core_cm4.h **** 
 393:/Users/rdaneel/Binary/Roaming/C-Code/StmProjects/stm32f3x/lib/STM32F30x_DSP_StdPeriph_Lib_V1.2.3/Libraries/CMSIS/Include/core_cm4.h **** /** \brief  Structure type to access the System Control Block (SCB).
 394:/Users/rdaneel/Binary/Roaming/C-Code/StmProjects/stm32f3x/lib/STM32F30x_DSP_StdPeriph_Lib_V1.2.3/Libraries/CMSIS/Include/core_cm4.h ****  */
 395:/Users/rdaneel/Binary/Roaming/C-Code/StmProjects/stm32f3x/lib/STM32F30x_DSP_StdPeriph_Lib_V1.2.3/Libraries/CMSIS/Include/core_cm4.h **** typedef struct
 396:/Users/rdaneel/Binary/Roaming/C-Code/StmProjects/stm32f3x/lib/STM32F30x_DSP_StdPeriph_Lib_V1.2.3/Libraries/CMSIS/Include/core_cm4.h **** {
ARM GAS  /var/folders/_2/qbh2zpt918qcm2b_6mgyydnm0000gn/T//ccOjgwl7.s 			page 24


 397:/Users/rdaneel/Binary/Roaming/C-Code/StmProjects/stm32f3x/lib/STM32F30x_DSP_StdPeriph_Lib_V1.2.3/Libraries/CMSIS/Include/core_cm4.h ****   __I  uint32_t CPUID;                   /*!< Offset: 0x000 (R/ )  CPUID Base Register             
 398:/Users/rdaneel/Binary/Roaming/C-Code/StmProjects/stm32f3x/lib/STM32F30x_DSP_StdPeriph_Lib_V1.2.3/Libraries/CMSIS/Include/core_cm4.h ****   __IO uint32_t ICSR;                    /*!< Offset: 0x004 (R/W)  Interrupt Control and State Regi
 399:/Users/rdaneel/Binary/Roaming/C-Code/StmProjects/stm32f3x/lib/STM32F30x_DSP_StdPeriph_Lib_V1.2.3/Libraries/CMSIS/Include/core_cm4.h ****   __IO uint32_t VTOR;                    /*!< Offset: 0x008 (R/W)  Vector Table Offset Register    
 400:/Users/rdaneel/Binary/Roaming/C-Code/StmProjects/stm32f3x/lib/STM32F30x_DSP_StdPeriph_Lib_V1.2.3/Libraries/CMSIS/Include/core_cm4.h ****   __IO uint32_t AIRCR;                   /*!< Offset: 0x00C (R/W)  Application Interrupt and Reset 
 401:/Users/rdaneel/Binary/Roaming/C-Code/StmProjects/stm32f3x/lib/STM32F30x_DSP_StdPeriph_Lib_V1.2.3/Libraries/CMSIS/Include/core_cm4.h ****   __IO uint32_t SCR;                     /*!< Offset: 0x010 (R/W)  System Control Register         
 402:/Users/rdaneel/Binary/Roaming/C-Code/StmProjects/stm32f3x/lib/STM32F30x_DSP_StdPeriph_Lib_V1.2.3/Libraries/CMSIS/Include/core_cm4.h ****   __IO uint32_t CCR;                     /*!< Offset: 0x014 (R/W)  Configuration Control Register  
 403:/Users/rdaneel/Binary/Roaming/C-Code/StmProjects/stm32f3x/lib/STM32F30x_DSP_StdPeriph_Lib_V1.2.3/Libraries/CMSIS/Include/core_cm4.h ****   __IO uint8_t  SHP[12];                 /*!< Offset: 0x018 (R/W)  System Handlers Priority Registe
 404:/Users/rdaneel/Binary/Roaming/C-Code/StmProjects/stm32f3x/lib/STM32F30x_DSP_StdPeriph_Lib_V1.2.3/Libraries/CMSIS/Include/core_cm4.h ****   __IO uint32_t SHCSR;                   /*!< Offset: 0x024 (R/W)  System Handler Control and State
 405:/Users/rdaneel/Binary/Roaming/C-Code/StmProjects/stm32f3x/lib/STM32F30x_DSP_StdPeriph_Lib_V1.2.3/Libraries/CMSIS/Include/core_cm4.h ****   __IO uint32_t CFSR;                    /*!< Offset: 0x028 (R/W)  Configurable Fault Status Regist
 406:/Users/rdaneel/Binary/Roaming/C-Code/StmProjects/stm32f3x/lib/STM32F30x_DSP_StdPeriph_Lib_V1.2.3/Libraries/CMSIS/Include/core_cm4.h ****   __IO uint32_t HFSR;                    /*!< Offset: 0x02C (R/W)  HardFault Status Register       
 407:/Users/rdaneel/Binary/Roaming/C-Code/StmProjects/stm32f3x/lib/STM32F30x_DSP_StdPeriph_Lib_V1.2.3/Libraries/CMSIS/Include/core_cm4.h ****   __IO uint32_t DFSR;                    /*!< Offset: 0x030 (R/W)  Debug Fault Status Register     
 408:/Users/rdaneel/Binary/Roaming/C-Code/StmProjects/stm32f3x/lib/STM32F30x_DSP_StdPeriph_Lib_V1.2.3/Libraries/CMSIS/Include/core_cm4.h ****   __IO uint32_t MMFAR;                   /*!< Offset: 0x034 (R/W)  MemManage Fault Address Register
 409:/Users/rdaneel/Binary/Roaming/C-Code/StmProjects/stm32f3x/lib/STM32F30x_DSP_StdPeriph_Lib_V1.2.3/Libraries/CMSIS/Include/core_cm4.h ****   __IO uint32_t BFAR;                    /*!< Offset: 0x038 (R/W)  BusFault Address Register       
 410:/Users/rdaneel/Binary/Roaming/C-Code/StmProjects/stm32f3x/lib/STM32F30x_DSP_StdPeriph_Lib_V1.2.3/Libraries/CMSIS/Include/core_cm4.h ****   __IO uint32_t AFSR;                    /*!< Offset: 0x03C (R/W)  Auxiliary Fault Status Register 
 411:/Users/rdaneel/Binary/Roaming/C-Code/StmProjects/stm32f3x/lib/STM32F30x_DSP_StdPeriph_Lib_V1.2.3/Libraries/CMSIS/Include/core_cm4.h ****   __I  uint32_t PFR[2];                  /*!< Offset: 0x040 (R/ )  Processor Feature Register      
 412:/Users/rdaneel/Binary/Roaming/C-Code/StmProjects/stm32f3x/lib/STM32F30x_DSP_StdPeriph_Lib_V1.2.3/Libraries/CMSIS/Include/core_cm4.h ****   __I  uint32_t DFR;                     /*!< Offset: 0x048 (R/ )  Debug Feature Register          
 413:/Users/rdaneel/Binary/Roaming/C-Code/StmProjects/stm32f3x/lib/STM32F30x_DSP_StdPeriph_Lib_V1.2.3/Libraries/CMSIS/Include/core_cm4.h ****   __I  uint32_t ADR;                     /*!< Offset: 0x04C (R/ )  Auxiliary Feature Register      
 414:/Users/rdaneel/Binary/Roaming/C-Code/StmProjects/stm32f3x/lib/STM32F30x_DSP_StdPeriph_Lib_V1.2.3/Libraries/CMSIS/Include/core_cm4.h ****   __I  uint32_t MMFR[4];                 /*!< Offset: 0x050 (R/ )  Memory Model Feature Register   
 415:/Users/rdaneel/Binary/Roaming/C-Code/StmProjects/stm32f3x/lib/STM32F30x_DSP_StdPeriph_Lib_V1.2.3/Libraries/CMSIS/Include/core_cm4.h ****   __I  uint32_t ISAR[5];                 /*!< Offset: 0x060 (R/ )  Instruction Set Attributes Regis
 416:/Users/rdaneel/Binary/Roaming/C-Code/StmProjects/stm32f3x/lib/STM32F30x_DSP_StdPeriph_Lib_V1.2.3/Libraries/CMSIS/Include/core_cm4.h ****        uint32_t RESERVED0[5];
 417:/Users/rdaneel/Binary/Roaming/C-Code/StmProjects/stm32f3x/lib/STM32F30x_DSP_StdPeriph_Lib_V1.2.3/Libraries/CMSIS/Include/core_cm4.h ****   __IO uint32_t CPACR;                   /*!< Offset: 0x088 (R/W)  Coprocessor Access Control Regis
 418:/Users/rdaneel/Binary/Roaming/C-Code/StmProjects/stm32f3x/lib/STM32F30x_DSP_StdPeriph_Lib_V1.2.3/Libraries/CMSIS/Include/core_cm4.h **** } SCB_Type;
 419:/Users/rdaneel/Binary/Roaming/C-Code/StmProjects/stm32f3x/lib/STM32F30x_DSP_StdPeriph_Lib_V1.2.3/Libraries/CMSIS/Include/core_cm4.h **** 
 420:/Users/rdaneel/Binary/Roaming/C-Code/StmProjects/stm32f3x/lib/STM32F30x_DSP_StdPeriph_Lib_V1.2.3/Libraries/CMSIS/Include/core_cm4.h **** /* SCB CPUID Register Definitions */
 421:/Users/rdaneel/Binary/Roaming/C-Code/StmProjects/stm32f3x/lib/STM32F30x_DSP_StdPeriph_Lib_V1.2.3/Libraries/CMSIS/Include/core_cm4.h **** #define SCB_CPUID_IMPLEMENTER_Pos          24                                             /*!< SCB 
 422:/Users/rdaneel/Binary/Roaming/C-Code/StmProjects/stm32f3x/lib/STM32F30x_DSP_StdPeriph_Lib_V1.2.3/Libraries/CMSIS/Include/core_cm4.h **** #define SCB_CPUID_IMPLEMENTER_Msk          (0xFFUL << SCB_CPUID_IMPLEMENTER_Pos)          /*!< SCB 
 423:/Users/rdaneel/Binary/Roaming/C-Code/StmProjects/stm32f3x/lib/STM32F30x_DSP_StdPeriph_Lib_V1.2.3/Libraries/CMSIS/Include/core_cm4.h **** 
 424:/Users/rdaneel/Binary/Roaming/C-Code/StmProjects/stm32f3x/lib/STM32F30x_DSP_StdPeriph_Lib_V1.2.3/Libraries/CMSIS/Include/core_cm4.h **** #define SCB_CPUID_VARIANT_Pos              20                                             /*!< SCB 
 425:/Users/rdaneel/Binary/Roaming/C-Code/StmProjects/stm32f3x/lib/STM32F30x_DSP_StdPeriph_Lib_V1.2.3/Libraries/CMSIS/Include/core_cm4.h **** #define SCB_CPUID_VARIANT_Msk              (0xFUL << SCB_CPUID_VARIANT_Pos)               /*!< SCB 
 426:/Users/rdaneel/Binary/Roaming/C-Code/StmProjects/stm32f3x/lib/STM32F30x_DSP_StdPeriph_Lib_V1.2.3/Libraries/CMSIS/Include/core_cm4.h **** 
 427:/Users/rdaneel/Binary/Roaming/C-Code/StmProjects/stm32f3x/lib/STM32F30x_DSP_StdPeriph_Lib_V1.2.3/Libraries/CMSIS/Include/core_cm4.h **** #define SCB_CPUID_ARCHITECTURE_Pos         16                                             /*!< SCB 
 428:/Users/rdaneel/Binary/Roaming/C-Code/StmProjects/stm32f3x/lib/STM32F30x_DSP_StdPeriph_Lib_V1.2.3/Libraries/CMSIS/Include/core_cm4.h **** #define SCB_CPUID_ARCHITECTURE_Msk         (0xFUL << SCB_CPUID_ARCHITECTURE_Pos)          /*!< SCB 
 429:/Users/rdaneel/Binary/Roaming/C-Code/StmProjects/stm32f3x/lib/STM32F30x_DSP_StdPeriph_Lib_V1.2.3/Libraries/CMSIS/Include/core_cm4.h **** 
 430:/Users/rdaneel/Binary/Roaming/C-Code/StmProjects/stm32f3x/lib/STM32F30x_DSP_StdPeriph_Lib_V1.2.3/Libraries/CMSIS/Include/core_cm4.h **** #define SCB_CPUID_PARTNO_Pos                4                                             /*!< SCB 
 431:/Users/rdaneel/Binary/Roaming/C-Code/StmProjects/stm32f3x/lib/STM32F30x_DSP_StdPeriph_Lib_V1.2.3/Libraries/CMSIS/Include/core_cm4.h **** #define SCB_CPUID_PARTNO_Msk               (0xFFFUL << SCB_CPUID_PARTNO_Pos)              /*!< SCB 
 432:/Users/rdaneel/Binary/Roaming/C-Code/StmProjects/stm32f3x/lib/STM32F30x_DSP_StdPeriph_Lib_V1.2.3/Libraries/CMSIS/Include/core_cm4.h **** 
 433:/Users/rdaneel/Binary/Roaming/C-Code/StmProjects/stm32f3x/lib/STM32F30x_DSP_StdPeriph_Lib_V1.2.3/Libraries/CMSIS/Include/core_cm4.h **** #define SCB_CPUID_REVISION_Pos              0                                             /*!< SCB 
 434:/Users/rdaneel/Binary/Roaming/C-Code/StmProjects/stm32f3x/lib/STM32F30x_DSP_StdPeriph_Lib_V1.2.3/Libraries/CMSIS/Include/core_cm4.h **** #define SCB_CPUID_REVISION_Msk             (0xFUL << SCB_CPUID_REVISION_Pos)              /*!< SCB 
 435:/Users/rdaneel/Binary/Roaming/C-Code/StmProjects/stm32f3x/lib/STM32F30x_DSP_StdPeriph_Lib_V1.2.3/Libraries/CMSIS/Include/core_cm4.h **** 
 436:/Users/rdaneel/Binary/Roaming/C-Code/StmProjects/stm32f3x/lib/STM32F30x_DSP_StdPeriph_Lib_V1.2.3/Libraries/CMSIS/Include/core_cm4.h **** /* SCB Interrupt Control State Register Definitions */
 437:/Users/rdaneel/Binary/Roaming/C-Code/StmProjects/stm32f3x/lib/STM32F30x_DSP_StdPeriph_Lib_V1.2.3/Libraries/CMSIS/Include/core_cm4.h **** #define SCB_ICSR_NMIPENDSET_Pos            31                                             /*!< SCB 
 438:/Users/rdaneel/Binary/Roaming/C-Code/StmProjects/stm32f3x/lib/STM32F30x_DSP_StdPeriph_Lib_V1.2.3/Libraries/CMSIS/Include/core_cm4.h **** #define SCB_ICSR_NMIPENDSET_Msk            (1UL << SCB_ICSR_NMIPENDSET_Pos)               /*!< SCB 
 439:/Users/rdaneel/Binary/Roaming/C-Code/StmProjects/stm32f3x/lib/STM32F30x_DSP_StdPeriph_Lib_V1.2.3/Libraries/CMSIS/Include/core_cm4.h **** 
 440:/Users/rdaneel/Binary/Roaming/C-Code/StmProjects/stm32f3x/lib/STM32F30x_DSP_StdPeriph_Lib_V1.2.3/Libraries/CMSIS/Include/core_cm4.h **** #define SCB_ICSR_PENDSVSET_Pos             28                                             /*!< SCB 
 441:/Users/rdaneel/Binary/Roaming/C-Code/StmProjects/stm32f3x/lib/STM32F30x_DSP_StdPeriph_Lib_V1.2.3/Libraries/CMSIS/Include/core_cm4.h **** #define SCB_ICSR_PENDSVSET_Msk             (1UL << SCB_ICSR_PENDSVSET_Pos)                /*!< SCB 
 442:/Users/rdaneel/Binary/Roaming/C-Code/StmProjects/stm32f3x/lib/STM32F30x_DSP_StdPeriph_Lib_V1.2.3/Libraries/CMSIS/Include/core_cm4.h **** 
 443:/Users/rdaneel/Binary/Roaming/C-Code/StmProjects/stm32f3x/lib/STM32F30x_DSP_StdPeriph_Lib_V1.2.3/Libraries/CMSIS/Include/core_cm4.h **** #define SCB_ICSR_PENDSVCLR_Pos             27                                             /*!< SCB 
 444:/Users/rdaneel/Binary/Roaming/C-Code/StmProjects/stm32f3x/lib/STM32F30x_DSP_StdPeriph_Lib_V1.2.3/Libraries/CMSIS/Include/core_cm4.h **** #define SCB_ICSR_PENDSVCLR_Msk             (1UL << SCB_ICSR_PENDSVCLR_Pos)                /*!< SCB 
 445:/Users/rdaneel/Binary/Roaming/C-Code/StmProjects/stm32f3x/lib/STM32F30x_DSP_StdPeriph_Lib_V1.2.3/Libraries/CMSIS/Include/core_cm4.h **** 
 446:/Users/rdaneel/Binary/Roaming/C-Code/StmProjects/stm32f3x/lib/STM32F30x_DSP_StdPeriph_Lib_V1.2.3/Libraries/CMSIS/Include/core_cm4.h **** #define SCB_ICSR_PENDSTSET_Pos             26                                             /*!< SCB 
 447:/Users/rdaneel/Binary/Roaming/C-Code/StmProjects/stm32f3x/lib/STM32F30x_DSP_StdPeriph_Lib_V1.2.3/Libraries/CMSIS/Include/core_cm4.h **** #define SCB_ICSR_PENDSTSET_Msk             (1UL << SCB_ICSR_PENDSTSET_Pos)                /*!< SCB 
 448:/Users/rdaneel/Binary/Roaming/C-Code/StmProjects/stm32f3x/lib/STM32F30x_DSP_StdPeriph_Lib_V1.2.3/Libraries/CMSIS/Include/core_cm4.h **** 
 449:/Users/rdaneel/Binary/Roaming/C-Code/StmProjects/stm32f3x/lib/STM32F30x_DSP_StdPeriph_Lib_V1.2.3/Libraries/CMSIS/Include/core_cm4.h **** #define SCB_ICSR_PENDSTCLR_Pos             25                                             /*!< SCB 
 450:/Users/rdaneel/Binary/Roaming/C-Code/StmProjects/stm32f3x/lib/STM32F30x_DSP_StdPeriph_Lib_V1.2.3/Libraries/CMSIS/Include/core_cm4.h **** #define SCB_ICSR_PENDSTCLR_Msk             (1UL << SCB_ICSR_PENDSTCLR_Pos)                /*!< SCB 
 451:/Users/rdaneel/Binary/Roaming/C-Code/StmProjects/stm32f3x/lib/STM32F30x_DSP_StdPeriph_Lib_V1.2.3/Libraries/CMSIS/Include/core_cm4.h **** 
 452:/Users/rdaneel/Binary/Roaming/C-Code/StmProjects/stm32f3x/lib/STM32F30x_DSP_StdPeriph_Lib_V1.2.3/Libraries/CMSIS/Include/core_cm4.h **** #define SCB_ICSR_ISRPREEMPT_Pos            23                                             /*!< SCB 
 453:/Users/rdaneel/Binary/Roaming/C-Code/StmProjects/stm32f3x/lib/STM32F30x_DSP_StdPeriph_Lib_V1.2.3/Libraries/CMSIS/Include/core_cm4.h **** #define SCB_ICSR_ISRPREEMPT_Msk            (1UL << SCB_ICSR_ISRPREEMPT_Pos)               /*!< SCB 
ARM GAS  /var/folders/_2/qbh2zpt918qcm2b_6mgyydnm0000gn/T//ccOjgwl7.s 			page 25


 454:/Users/rdaneel/Binary/Roaming/C-Code/StmProjects/stm32f3x/lib/STM32F30x_DSP_StdPeriph_Lib_V1.2.3/Libraries/CMSIS/Include/core_cm4.h **** 
 455:/Users/rdaneel/Binary/Roaming/C-Code/StmProjects/stm32f3x/lib/STM32F30x_DSP_StdPeriph_Lib_V1.2.3/Libraries/CMSIS/Include/core_cm4.h **** #define SCB_ICSR_ISRPENDING_Pos            22                                             /*!< SCB 
 456:/Users/rdaneel/Binary/Roaming/C-Code/StmProjects/stm32f3x/lib/STM32F30x_DSP_StdPeriph_Lib_V1.2.3/Libraries/CMSIS/Include/core_cm4.h **** #define SCB_ICSR_ISRPENDING_Msk            (1UL << SCB_ICSR_ISRPENDING_Pos)               /*!< SCB 
 457:/Users/rdaneel/Binary/Roaming/C-Code/StmProjects/stm32f3x/lib/STM32F30x_DSP_StdPeriph_Lib_V1.2.3/Libraries/CMSIS/Include/core_cm4.h **** 
 458:/Users/rdaneel/Binary/Roaming/C-Code/StmProjects/stm32f3x/lib/STM32F30x_DSP_StdPeriph_Lib_V1.2.3/Libraries/CMSIS/Include/core_cm4.h **** #define SCB_ICSR_VECTPENDING_Pos           12                                             /*!< SCB 
 459:/Users/rdaneel/Binary/Roaming/C-Code/StmProjects/stm32f3x/lib/STM32F30x_DSP_StdPeriph_Lib_V1.2.3/Libraries/CMSIS/Include/core_cm4.h **** #define SCB_ICSR_VECTPENDING_Msk           (0x1FFUL << SCB_ICSR_VECTPENDING_Pos)          /*!< SCB 
 460:/Users/rdaneel/Binary/Roaming/C-Code/StmProjects/stm32f3x/lib/STM32F30x_DSP_StdPeriph_Lib_V1.2.3/Libraries/CMSIS/Include/core_cm4.h **** 
 461:/Users/rdaneel/Binary/Roaming/C-Code/StmProjects/stm32f3x/lib/STM32F30x_DSP_StdPeriph_Lib_V1.2.3/Libraries/CMSIS/Include/core_cm4.h **** #define SCB_ICSR_RETTOBASE_Pos             11                                             /*!< SCB 
 462:/Users/rdaneel/Binary/Roaming/C-Code/StmProjects/stm32f3x/lib/STM32F30x_DSP_StdPeriph_Lib_V1.2.3/Libraries/CMSIS/Include/core_cm4.h **** #define SCB_ICSR_RETTOBASE_Msk             (1UL << SCB_ICSR_RETTOBASE_Pos)                /*!< SCB 
 463:/Users/rdaneel/Binary/Roaming/C-Code/StmProjects/stm32f3x/lib/STM32F30x_DSP_StdPeriph_Lib_V1.2.3/Libraries/CMSIS/Include/core_cm4.h **** 
 464:/Users/rdaneel/Binary/Roaming/C-Code/StmProjects/stm32f3x/lib/STM32F30x_DSP_StdPeriph_Lib_V1.2.3/Libraries/CMSIS/Include/core_cm4.h **** #define SCB_ICSR_VECTACTIVE_Pos             0                                             /*!< SCB 
 465:/Users/rdaneel/Binary/Roaming/C-Code/StmProjects/stm32f3x/lib/STM32F30x_DSP_StdPeriph_Lib_V1.2.3/Libraries/CMSIS/Include/core_cm4.h **** #define SCB_ICSR_VECTACTIVE_Msk            (0x1FFUL << SCB_ICSR_VECTACTIVE_Pos)           /*!< SCB 
 466:/Users/rdaneel/Binary/Roaming/C-Code/StmProjects/stm32f3x/lib/STM32F30x_DSP_StdPeriph_Lib_V1.2.3/Libraries/CMSIS/Include/core_cm4.h **** 
 467:/Users/rdaneel/Binary/Roaming/C-Code/StmProjects/stm32f3x/lib/STM32F30x_DSP_StdPeriph_Lib_V1.2.3/Libraries/CMSIS/Include/core_cm4.h **** /* SCB Vector Table Offset Register Definitions */
 468:/Users/rdaneel/Binary/Roaming/C-Code/StmProjects/stm32f3x/lib/STM32F30x_DSP_StdPeriph_Lib_V1.2.3/Libraries/CMSIS/Include/core_cm4.h **** #define SCB_VTOR_TBLOFF_Pos                 7                                             /*!< SCB 
 469:/Users/rdaneel/Binary/Roaming/C-Code/StmProjects/stm32f3x/lib/STM32F30x_DSP_StdPeriph_Lib_V1.2.3/Libraries/CMSIS/Include/core_cm4.h **** #define SCB_VTOR_TBLOFF_Msk                (0x1FFFFFFUL << SCB_VTOR_TBLOFF_Pos)           /*!< SCB 
 470:/Users/rdaneel/Binary/Roaming/C-Code/StmProjects/stm32f3x/lib/STM32F30x_DSP_StdPeriph_Lib_V1.2.3/Libraries/CMSIS/Include/core_cm4.h **** 
 471:/Users/rdaneel/Binary/Roaming/C-Code/StmProjects/stm32f3x/lib/STM32F30x_DSP_StdPeriph_Lib_V1.2.3/Libraries/CMSIS/Include/core_cm4.h **** /* SCB Application Interrupt and Reset Control Register Definitions */
 472:/Users/rdaneel/Binary/Roaming/C-Code/StmProjects/stm32f3x/lib/STM32F30x_DSP_StdPeriph_Lib_V1.2.3/Libraries/CMSIS/Include/core_cm4.h **** #define SCB_AIRCR_VECTKEY_Pos              16                                             /*!< SCB 
 473:/Users/rdaneel/Binary/Roaming/C-Code/StmProjects/stm32f3x/lib/STM32F30x_DSP_StdPeriph_Lib_V1.2.3/Libraries/CMSIS/Include/core_cm4.h **** #define SCB_AIRCR_VECTKEY_Msk              (0xFFFFUL << SCB_AIRCR_VECTKEY_Pos)            /*!< SCB 
 474:/Users/rdaneel/Binary/Roaming/C-Code/StmProjects/stm32f3x/lib/STM32F30x_DSP_StdPeriph_Lib_V1.2.3/Libraries/CMSIS/Include/core_cm4.h **** 
 475:/Users/rdaneel/Binary/Roaming/C-Code/StmProjects/stm32f3x/lib/STM32F30x_DSP_StdPeriph_Lib_V1.2.3/Libraries/CMSIS/Include/core_cm4.h **** #define SCB_AIRCR_VECTKEYSTAT_Pos          16                                             /*!< SCB 
 476:/Users/rdaneel/Binary/Roaming/C-Code/StmProjects/stm32f3x/lib/STM32F30x_DSP_StdPeriph_Lib_V1.2.3/Libraries/CMSIS/Include/core_cm4.h **** #define SCB_AIRCR_VECTKEYSTAT_Msk          (0xFFFFUL << SCB_AIRCR_VECTKEYSTAT_Pos)        /*!< SCB 
 477:/Users/rdaneel/Binary/Roaming/C-Code/StmProjects/stm32f3x/lib/STM32F30x_DSP_StdPeriph_Lib_V1.2.3/Libraries/CMSIS/Include/core_cm4.h **** 
 478:/Users/rdaneel/Binary/Roaming/C-Code/StmProjects/stm32f3x/lib/STM32F30x_DSP_StdPeriph_Lib_V1.2.3/Libraries/CMSIS/Include/core_cm4.h **** #define SCB_AIRCR_ENDIANESS_Pos            15                                             /*!< SCB 
 479:/Users/rdaneel/Binary/Roaming/C-Code/StmProjects/stm32f3x/lib/STM32F30x_DSP_StdPeriph_Lib_V1.2.3/Libraries/CMSIS/Include/core_cm4.h **** #define SCB_AIRCR_ENDIANESS_Msk            (1UL << SCB_AIRCR_ENDIANESS_Pos)               /*!< SCB 
 480:/Users/rdaneel/Binary/Roaming/C-Code/StmProjects/stm32f3x/lib/STM32F30x_DSP_StdPeriph_Lib_V1.2.3/Libraries/CMSIS/Include/core_cm4.h **** 
 481:/Users/rdaneel/Binary/Roaming/C-Code/StmProjects/stm32f3x/lib/STM32F30x_DSP_StdPeriph_Lib_V1.2.3/Libraries/CMSIS/Include/core_cm4.h **** #define SCB_AIRCR_PRIGROUP_Pos              8                                             /*!< SCB 
 482:/Users/rdaneel/Binary/Roaming/C-Code/StmProjects/stm32f3x/lib/STM32F30x_DSP_StdPeriph_Lib_V1.2.3/Libraries/CMSIS/Include/core_cm4.h **** #define SCB_AIRCR_PRIGROUP_Msk             (7UL << SCB_AIRCR_PRIGROUP_Pos)                /*!< SCB 
 483:/Users/rdaneel/Binary/Roaming/C-Code/StmProjects/stm32f3x/lib/STM32F30x_DSP_StdPeriph_Lib_V1.2.3/Libraries/CMSIS/Include/core_cm4.h **** 
 484:/Users/rdaneel/Binary/Roaming/C-Code/StmProjects/stm32f3x/lib/STM32F30x_DSP_StdPeriph_Lib_V1.2.3/Libraries/CMSIS/Include/core_cm4.h **** #define SCB_AIRCR_SYSRESETREQ_Pos           2                                             /*!< SCB 
 485:/Users/rdaneel/Binary/Roaming/C-Code/StmProjects/stm32f3x/lib/STM32F30x_DSP_StdPeriph_Lib_V1.2.3/Libraries/CMSIS/Include/core_cm4.h **** #define SCB_AIRCR_SYSRESETREQ_Msk          (1UL << SCB_AIRCR_SYSRESETREQ_Pos)             /*!< SCB 
 486:/Users/rdaneel/Binary/Roaming/C-Code/StmProjects/stm32f3x/lib/STM32F30x_DSP_StdPeriph_Lib_V1.2.3/Libraries/CMSIS/Include/core_cm4.h **** 
 487:/Users/rdaneel/Binary/Roaming/C-Code/StmProjects/stm32f3x/lib/STM32F30x_DSP_StdPeriph_Lib_V1.2.3/Libraries/CMSIS/Include/core_cm4.h **** #define SCB_AIRCR_VECTCLRACTIVE_Pos         1                                             /*!< SCB 
 488:/Users/rdaneel/Binary/Roaming/C-Code/StmProjects/stm32f3x/lib/STM32F30x_DSP_StdPeriph_Lib_V1.2.3/Libraries/CMSIS/Include/core_cm4.h **** #define SCB_AIRCR_VECTCLRACTIVE_Msk        (1UL << SCB_AIRCR_VECTCLRACTIVE_Pos)           /*!< SCB 
 489:/Users/rdaneel/Binary/Roaming/C-Code/StmProjects/stm32f3x/lib/STM32F30x_DSP_StdPeriph_Lib_V1.2.3/Libraries/CMSIS/Include/core_cm4.h **** 
 490:/Users/rdaneel/Binary/Roaming/C-Code/StmProjects/stm32f3x/lib/STM32F30x_DSP_StdPeriph_Lib_V1.2.3/Libraries/CMSIS/Include/core_cm4.h **** #define SCB_AIRCR_VECTRESET_Pos             0                                             /*!< SCB 
 491:/Users/rdaneel/Binary/Roaming/C-Code/StmProjects/stm32f3x/lib/STM32F30x_DSP_StdPeriph_Lib_V1.2.3/Libraries/CMSIS/Include/core_cm4.h **** #define SCB_AIRCR_VECTRESET_Msk            (1UL << SCB_AIRCR_VECTRESET_Pos)               /*!< SCB 
 492:/Users/rdaneel/Binary/Roaming/C-Code/StmProjects/stm32f3x/lib/STM32F30x_DSP_StdPeriph_Lib_V1.2.3/Libraries/CMSIS/Include/core_cm4.h **** 
 493:/Users/rdaneel/Binary/Roaming/C-Code/StmProjects/stm32f3x/lib/STM32F30x_DSP_StdPeriph_Lib_V1.2.3/Libraries/CMSIS/Include/core_cm4.h **** /* SCB System Control Register Definitions */
 494:/Users/rdaneel/Binary/Roaming/C-Code/StmProjects/stm32f3x/lib/STM32F30x_DSP_StdPeriph_Lib_V1.2.3/Libraries/CMSIS/Include/core_cm4.h **** #define SCB_SCR_SEVONPEND_Pos               4                                             /*!< SCB 
 495:/Users/rdaneel/Binary/Roaming/C-Code/StmProjects/stm32f3x/lib/STM32F30x_DSP_StdPeriph_Lib_V1.2.3/Libraries/CMSIS/Include/core_cm4.h **** #define SCB_SCR_SEVONPEND_Msk              (1UL << SCB_SCR_SEVONPEND_Pos)                 /*!< SCB 
 496:/Users/rdaneel/Binary/Roaming/C-Code/StmProjects/stm32f3x/lib/STM32F30x_DSP_StdPeriph_Lib_V1.2.3/Libraries/CMSIS/Include/core_cm4.h **** 
 497:/Users/rdaneel/Binary/Roaming/C-Code/StmProjects/stm32f3x/lib/STM32F30x_DSP_StdPeriph_Lib_V1.2.3/Libraries/CMSIS/Include/core_cm4.h **** #define SCB_SCR_SLEEPDEEP_Pos               2                                             /*!< SCB 
 498:/Users/rdaneel/Binary/Roaming/C-Code/StmProjects/stm32f3x/lib/STM32F30x_DSP_StdPeriph_Lib_V1.2.3/Libraries/CMSIS/Include/core_cm4.h **** #define SCB_SCR_SLEEPDEEP_Msk              (1UL << SCB_SCR_SLEEPDEEP_Pos)                 /*!< SCB 
 499:/Users/rdaneel/Binary/Roaming/C-Code/StmProjects/stm32f3x/lib/STM32F30x_DSP_StdPeriph_Lib_V1.2.3/Libraries/CMSIS/Include/core_cm4.h **** 
 500:/Users/rdaneel/Binary/Roaming/C-Code/StmProjects/stm32f3x/lib/STM32F30x_DSP_StdPeriph_Lib_V1.2.3/Libraries/CMSIS/Include/core_cm4.h **** #define SCB_SCR_SLEEPONEXIT_Pos             1                                             /*!< SCB 
 501:/Users/rdaneel/Binary/Roaming/C-Code/StmProjects/stm32f3x/lib/STM32F30x_DSP_StdPeriph_Lib_V1.2.3/Libraries/CMSIS/Include/core_cm4.h **** #define SCB_SCR_SLEEPONEXIT_Msk            (1UL << SCB_SCR_SLEEPONEXIT_Pos)               /*!< SCB 
 502:/Users/rdaneel/Binary/Roaming/C-Code/StmProjects/stm32f3x/lib/STM32F30x_DSP_StdPeriph_Lib_V1.2.3/Libraries/CMSIS/Include/core_cm4.h **** 
 503:/Users/rdaneel/Binary/Roaming/C-Code/StmProjects/stm32f3x/lib/STM32F30x_DSP_StdPeriph_Lib_V1.2.3/Libraries/CMSIS/Include/core_cm4.h **** /* SCB Configuration Control Register Definitions */
 504:/Users/rdaneel/Binary/Roaming/C-Code/StmProjects/stm32f3x/lib/STM32F30x_DSP_StdPeriph_Lib_V1.2.3/Libraries/CMSIS/Include/core_cm4.h **** #define SCB_CCR_STKALIGN_Pos                9                                             /*!< SCB 
 505:/Users/rdaneel/Binary/Roaming/C-Code/StmProjects/stm32f3x/lib/STM32F30x_DSP_StdPeriph_Lib_V1.2.3/Libraries/CMSIS/Include/core_cm4.h **** #define SCB_CCR_STKALIGN_Msk               (1UL << SCB_CCR_STKALIGN_Pos)                  /*!< SCB 
 506:/Users/rdaneel/Binary/Roaming/C-Code/StmProjects/stm32f3x/lib/STM32F30x_DSP_StdPeriph_Lib_V1.2.3/Libraries/CMSIS/Include/core_cm4.h **** 
 507:/Users/rdaneel/Binary/Roaming/C-Code/StmProjects/stm32f3x/lib/STM32F30x_DSP_StdPeriph_Lib_V1.2.3/Libraries/CMSIS/Include/core_cm4.h **** #define SCB_CCR_BFHFNMIGN_Pos               8                                             /*!< SCB 
 508:/Users/rdaneel/Binary/Roaming/C-Code/StmProjects/stm32f3x/lib/STM32F30x_DSP_StdPeriph_Lib_V1.2.3/Libraries/CMSIS/Include/core_cm4.h **** #define SCB_CCR_BFHFNMIGN_Msk              (1UL << SCB_CCR_BFHFNMIGN_Pos)                 /*!< SCB 
 509:/Users/rdaneel/Binary/Roaming/C-Code/StmProjects/stm32f3x/lib/STM32F30x_DSP_StdPeriph_Lib_V1.2.3/Libraries/CMSIS/Include/core_cm4.h **** 
 510:/Users/rdaneel/Binary/Roaming/C-Code/StmProjects/stm32f3x/lib/STM32F30x_DSP_StdPeriph_Lib_V1.2.3/Libraries/CMSIS/Include/core_cm4.h **** #define SCB_CCR_DIV_0_TRP_Pos               4                                             /*!< SCB 
ARM GAS  /var/folders/_2/qbh2zpt918qcm2b_6mgyydnm0000gn/T//ccOjgwl7.s 			page 26


 511:/Users/rdaneel/Binary/Roaming/C-Code/StmProjects/stm32f3x/lib/STM32F30x_DSP_StdPeriph_Lib_V1.2.3/Libraries/CMSIS/Include/core_cm4.h **** #define SCB_CCR_DIV_0_TRP_Msk              (1UL << SCB_CCR_DIV_0_TRP_Pos)                 /*!< SCB 
 512:/Users/rdaneel/Binary/Roaming/C-Code/StmProjects/stm32f3x/lib/STM32F30x_DSP_StdPeriph_Lib_V1.2.3/Libraries/CMSIS/Include/core_cm4.h **** 
 513:/Users/rdaneel/Binary/Roaming/C-Code/StmProjects/stm32f3x/lib/STM32F30x_DSP_StdPeriph_Lib_V1.2.3/Libraries/CMSIS/Include/core_cm4.h **** #define SCB_CCR_UNALIGN_TRP_Pos             3                                             /*!< SCB 
 514:/Users/rdaneel/Binary/Roaming/C-Code/StmProjects/stm32f3x/lib/STM32F30x_DSP_StdPeriph_Lib_V1.2.3/Libraries/CMSIS/Include/core_cm4.h **** #define SCB_CCR_UNALIGN_TRP_Msk            (1UL << SCB_CCR_UNALIGN_TRP_Pos)               /*!< SCB 
 515:/Users/rdaneel/Binary/Roaming/C-Code/StmProjects/stm32f3x/lib/STM32F30x_DSP_StdPeriph_Lib_V1.2.3/Libraries/CMSIS/Include/core_cm4.h **** 
 516:/Users/rdaneel/Binary/Roaming/C-Code/StmProjects/stm32f3x/lib/STM32F30x_DSP_StdPeriph_Lib_V1.2.3/Libraries/CMSIS/Include/core_cm4.h **** #define SCB_CCR_USERSETMPEND_Pos            1                                             /*!< SCB 
 517:/Users/rdaneel/Binary/Roaming/C-Code/StmProjects/stm32f3x/lib/STM32F30x_DSP_StdPeriph_Lib_V1.2.3/Libraries/CMSIS/Include/core_cm4.h **** #define SCB_CCR_USERSETMPEND_Msk           (1UL << SCB_CCR_USERSETMPEND_Pos)              /*!< SCB 
 518:/Users/rdaneel/Binary/Roaming/C-Code/StmProjects/stm32f3x/lib/STM32F30x_DSP_StdPeriph_Lib_V1.2.3/Libraries/CMSIS/Include/core_cm4.h **** 
 519:/Users/rdaneel/Binary/Roaming/C-Code/StmProjects/stm32f3x/lib/STM32F30x_DSP_StdPeriph_Lib_V1.2.3/Libraries/CMSIS/Include/core_cm4.h **** #define SCB_CCR_NONBASETHRDENA_Pos          0                                             /*!< SCB 
 520:/Users/rdaneel/Binary/Roaming/C-Code/StmProjects/stm32f3x/lib/STM32F30x_DSP_StdPeriph_Lib_V1.2.3/Libraries/CMSIS/Include/core_cm4.h **** #define SCB_CCR_NONBASETHRDENA_Msk         (1UL << SCB_CCR_NONBASETHRDENA_Pos)            /*!< SCB 
 521:/Users/rdaneel/Binary/Roaming/C-Code/StmProjects/stm32f3x/lib/STM32F30x_DSP_StdPeriph_Lib_V1.2.3/Libraries/CMSIS/Include/core_cm4.h **** 
 522:/Users/rdaneel/Binary/Roaming/C-Code/StmProjects/stm32f3x/lib/STM32F30x_DSP_StdPeriph_Lib_V1.2.3/Libraries/CMSIS/Include/core_cm4.h **** /* SCB System Handler Control and State Register Definitions */
 523:/Users/rdaneel/Binary/Roaming/C-Code/StmProjects/stm32f3x/lib/STM32F30x_DSP_StdPeriph_Lib_V1.2.3/Libraries/CMSIS/Include/core_cm4.h **** #define SCB_SHCSR_USGFAULTENA_Pos          18                                             /*!< SCB 
 524:/Users/rdaneel/Binary/Roaming/C-Code/StmProjects/stm32f3x/lib/STM32F30x_DSP_StdPeriph_Lib_V1.2.3/Libraries/CMSIS/Include/core_cm4.h **** #define SCB_SHCSR_USGFAULTENA_Msk          (1UL << SCB_SHCSR_USGFAULTENA_Pos)             /*!< SCB 
 525:/Users/rdaneel/Binary/Roaming/C-Code/StmProjects/stm32f3x/lib/STM32F30x_DSP_StdPeriph_Lib_V1.2.3/Libraries/CMSIS/Include/core_cm4.h **** 
 526:/Users/rdaneel/Binary/Roaming/C-Code/StmProjects/stm32f3x/lib/STM32F30x_DSP_StdPeriph_Lib_V1.2.3/Libraries/CMSIS/Include/core_cm4.h **** #define SCB_SHCSR_BUSFAULTENA_Pos          17                                             /*!< SCB 
 527:/Users/rdaneel/Binary/Roaming/C-Code/StmProjects/stm32f3x/lib/STM32F30x_DSP_StdPeriph_Lib_V1.2.3/Libraries/CMSIS/Include/core_cm4.h **** #define SCB_SHCSR_BUSFAULTENA_Msk          (1UL << SCB_SHCSR_BUSFAULTENA_Pos)             /*!< SCB 
 528:/Users/rdaneel/Binary/Roaming/C-Code/StmProjects/stm32f3x/lib/STM32F30x_DSP_StdPeriph_Lib_V1.2.3/Libraries/CMSIS/Include/core_cm4.h **** 
 529:/Users/rdaneel/Binary/Roaming/C-Code/StmProjects/stm32f3x/lib/STM32F30x_DSP_StdPeriph_Lib_V1.2.3/Libraries/CMSIS/Include/core_cm4.h **** #define SCB_SHCSR_MEMFAULTENA_Pos          16                                             /*!< SCB 
 530:/Users/rdaneel/Binary/Roaming/C-Code/StmProjects/stm32f3x/lib/STM32F30x_DSP_StdPeriph_Lib_V1.2.3/Libraries/CMSIS/Include/core_cm4.h **** #define SCB_SHCSR_MEMFAULTENA_Msk          (1UL << SCB_SHCSR_MEMFAULTENA_Pos)             /*!< SCB 
 531:/Users/rdaneel/Binary/Roaming/C-Code/StmProjects/stm32f3x/lib/STM32F30x_DSP_StdPeriph_Lib_V1.2.3/Libraries/CMSIS/Include/core_cm4.h **** 
 532:/Users/rdaneel/Binary/Roaming/C-Code/StmProjects/stm32f3x/lib/STM32F30x_DSP_StdPeriph_Lib_V1.2.3/Libraries/CMSIS/Include/core_cm4.h **** #define SCB_SHCSR_SVCALLPENDED_Pos         15                                             /*!< SCB 
 533:/Users/rdaneel/Binary/Roaming/C-Code/StmProjects/stm32f3x/lib/STM32F30x_DSP_StdPeriph_Lib_V1.2.3/Libraries/CMSIS/Include/core_cm4.h **** #define SCB_SHCSR_SVCALLPENDED_Msk         (1UL << SCB_SHCSR_SVCALLPENDED_Pos)            /*!< SCB 
 534:/Users/rdaneel/Binary/Roaming/C-Code/StmProjects/stm32f3x/lib/STM32F30x_DSP_StdPeriph_Lib_V1.2.3/Libraries/CMSIS/Include/core_cm4.h **** 
 535:/Users/rdaneel/Binary/Roaming/C-Code/StmProjects/stm32f3x/lib/STM32F30x_DSP_StdPeriph_Lib_V1.2.3/Libraries/CMSIS/Include/core_cm4.h **** #define SCB_SHCSR_BUSFAULTPENDED_Pos       14                                             /*!< SCB 
 536:/Users/rdaneel/Binary/Roaming/C-Code/StmProjects/stm32f3x/lib/STM32F30x_DSP_StdPeriph_Lib_V1.2.3/Libraries/CMSIS/Include/core_cm4.h **** #define SCB_SHCSR_BUSFAULTPENDED_Msk       (1UL << SCB_SHCSR_BUSFAULTPENDED_Pos)          /*!< SCB 
 537:/Users/rdaneel/Binary/Roaming/C-Code/StmProjects/stm32f3x/lib/STM32F30x_DSP_StdPeriph_Lib_V1.2.3/Libraries/CMSIS/Include/core_cm4.h **** 
 538:/Users/rdaneel/Binary/Roaming/C-Code/StmProjects/stm32f3x/lib/STM32F30x_DSP_StdPeriph_Lib_V1.2.3/Libraries/CMSIS/Include/core_cm4.h **** #define SCB_SHCSR_MEMFAULTPENDED_Pos       13                                             /*!< SCB 
 539:/Users/rdaneel/Binary/Roaming/C-Code/StmProjects/stm32f3x/lib/STM32F30x_DSP_StdPeriph_Lib_V1.2.3/Libraries/CMSIS/Include/core_cm4.h **** #define SCB_SHCSR_MEMFAULTPENDED_Msk       (1UL << SCB_SHCSR_MEMFAULTPENDED_Pos)          /*!< SCB 
 540:/Users/rdaneel/Binary/Roaming/C-Code/StmProjects/stm32f3x/lib/STM32F30x_DSP_StdPeriph_Lib_V1.2.3/Libraries/CMSIS/Include/core_cm4.h **** 
 541:/Users/rdaneel/Binary/Roaming/C-Code/StmProjects/stm32f3x/lib/STM32F30x_DSP_StdPeriph_Lib_V1.2.3/Libraries/CMSIS/Include/core_cm4.h **** #define SCB_SHCSR_USGFAULTPENDED_Pos       12                                             /*!< SCB 
 542:/Users/rdaneel/Binary/Roaming/C-Code/StmProjects/stm32f3x/lib/STM32F30x_DSP_StdPeriph_Lib_V1.2.3/Libraries/CMSIS/Include/core_cm4.h **** #define SCB_SHCSR_USGFAULTPENDED_Msk       (1UL << SCB_SHCSR_USGFAULTPENDED_Pos)          /*!< SCB 
 543:/Users/rdaneel/Binary/Roaming/C-Code/StmProjects/stm32f3x/lib/STM32F30x_DSP_StdPeriph_Lib_V1.2.3/Libraries/CMSIS/Include/core_cm4.h **** 
 544:/Users/rdaneel/Binary/Roaming/C-Code/StmProjects/stm32f3x/lib/STM32F30x_DSP_StdPeriph_Lib_V1.2.3/Libraries/CMSIS/Include/core_cm4.h **** #define SCB_SHCSR_SYSTICKACT_Pos           11                                             /*!< SCB 
 545:/Users/rdaneel/Binary/Roaming/C-Code/StmProjects/stm32f3x/lib/STM32F30x_DSP_StdPeriph_Lib_V1.2.3/Libraries/CMSIS/Include/core_cm4.h **** #define SCB_SHCSR_SYSTICKACT_Msk           (1UL << SCB_SHCSR_SYSTICKACT_Pos)              /*!< SCB 
 546:/Users/rdaneel/Binary/Roaming/C-Code/StmProjects/stm32f3x/lib/STM32F30x_DSP_StdPeriph_Lib_V1.2.3/Libraries/CMSIS/Include/core_cm4.h **** 
 547:/Users/rdaneel/Binary/Roaming/C-Code/StmProjects/stm32f3x/lib/STM32F30x_DSP_StdPeriph_Lib_V1.2.3/Libraries/CMSIS/Include/core_cm4.h **** #define SCB_SHCSR_PENDSVACT_Pos            10                                             /*!< SCB 
 548:/Users/rdaneel/Binary/Roaming/C-Code/StmProjects/stm32f3x/lib/STM32F30x_DSP_StdPeriph_Lib_V1.2.3/Libraries/CMSIS/Include/core_cm4.h **** #define SCB_SHCSR_PENDSVACT_Msk            (1UL << SCB_SHCSR_PENDSVACT_Pos)               /*!< SCB 
 549:/Users/rdaneel/Binary/Roaming/C-Code/StmProjects/stm32f3x/lib/STM32F30x_DSP_StdPeriph_Lib_V1.2.3/Libraries/CMSIS/Include/core_cm4.h **** 
 550:/Users/rdaneel/Binary/Roaming/C-Code/StmProjects/stm32f3x/lib/STM32F30x_DSP_StdPeriph_Lib_V1.2.3/Libraries/CMSIS/Include/core_cm4.h **** #define SCB_SHCSR_MONITORACT_Pos            8                                             /*!< SCB 
 551:/Users/rdaneel/Binary/Roaming/C-Code/StmProjects/stm32f3x/lib/STM32F30x_DSP_StdPeriph_Lib_V1.2.3/Libraries/CMSIS/Include/core_cm4.h **** #define SCB_SHCSR_MONITORACT_Msk           (1UL << SCB_SHCSR_MONITORACT_Pos)              /*!< SCB 
 552:/Users/rdaneel/Binary/Roaming/C-Code/StmProjects/stm32f3x/lib/STM32F30x_DSP_StdPeriph_Lib_V1.2.3/Libraries/CMSIS/Include/core_cm4.h **** 
 553:/Users/rdaneel/Binary/Roaming/C-Code/StmProjects/stm32f3x/lib/STM32F30x_DSP_StdPeriph_Lib_V1.2.3/Libraries/CMSIS/Include/core_cm4.h **** #define SCB_SHCSR_SVCALLACT_Pos             7                                             /*!< SCB 
 554:/Users/rdaneel/Binary/Roaming/C-Code/StmProjects/stm32f3x/lib/STM32F30x_DSP_StdPeriph_Lib_V1.2.3/Libraries/CMSIS/Include/core_cm4.h **** #define SCB_SHCSR_SVCALLACT_Msk            (1UL << SCB_SHCSR_SVCALLACT_Pos)               /*!< SCB 
 555:/Users/rdaneel/Binary/Roaming/C-Code/StmProjects/stm32f3x/lib/STM32F30x_DSP_StdPeriph_Lib_V1.2.3/Libraries/CMSIS/Include/core_cm4.h **** 
 556:/Users/rdaneel/Binary/Roaming/C-Code/StmProjects/stm32f3x/lib/STM32F30x_DSP_StdPeriph_Lib_V1.2.3/Libraries/CMSIS/Include/core_cm4.h **** #define SCB_SHCSR_USGFAULTACT_Pos           3                                             /*!< SCB 
 557:/Users/rdaneel/Binary/Roaming/C-Code/StmProjects/stm32f3x/lib/STM32F30x_DSP_StdPeriph_Lib_V1.2.3/Libraries/CMSIS/Include/core_cm4.h **** #define SCB_SHCSR_USGFAULTACT_Msk          (1UL << SCB_SHCSR_USGFAULTACT_Pos)             /*!< SCB 
 558:/Users/rdaneel/Binary/Roaming/C-Code/StmProjects/stm32f3x/lib/STM32F30x_DSP_StdPeriph_Lib_V1.2.3/Libraries/CMSIS/Include/core_cm4.h **** 
 559:/Users/rdaneel/Binary/Roaming/C-Code/StmProjects/stm32f3x/lib/STM32F30x_DSP_StdPeriph_Lib_V1.2.3/Libraries/CMSIS/Include/core_cm4.h **** #define SCB_SHCSR_BUSFAULTACT_Pos           1                                             /*!< SCB 
 560:/Users/rdaneel/Binary/Roaming/C-Code/StmProjects/stm32f3x/lib/STM32F30x_DSP_StdPeriph_Lib_V1.2.3/Libraries/CMSIS/Include/core_cm4.h **** #define SCB_SHCSR_BUSFAULTACT_Msk          (1UL << SCB_SHCSR_BUSFAULTACT_Pos)             /*!< SCB 
 561:/Users/rdaneel/Binary/Roaming/C-Code/StmProjects/stm32f3x/lib/STM32F30x_DSP_StdPeriph_Lib_V1.2.3/Libraries/CMSIS/Include/core_cm4.h **** 
 562:/Users/rdaneel/Binary/Roaming/C-Code/StmProjects/stm32f3x/lib/STM32F30x_DSP_StdPeriph_Lib_V1.2.3/Libraries/CMSIS/Include/core_cm4.h **** #define SCB_SHCSR_MEMFAULTACT_Pos           0                                             /*!< SCB 
 563:/Users/rdaneel/Binary/Roaming/C-Code/StmProjects/stm32f3x/lib/STM32F30x_DSP_StdPeriph_Lib_V1.2.3/Libraries/CMSIS/Include/core_cm4.h **** #define SCB_SHCSR_MEMFAULTACT_Msk          (1UL << SCB_SHCSR_MEMFAULTACT_Pos)             /*!< SCB 
 564:/Users/rdaneel/Binary/Roaming/C-Code/StmProjects/stm32f3x/lib/STM32F30x_DSP_StdPeriph_Lib_V1.2.3/Libraries/CMSIS/Include/core_cm4.h **** 
 565:/Users/rdaneel/Binary/Roaming/C-Code/StmProjects/stm32f3x/lib/STM32F30x_DSP_StdPeriph_Lib_V1.2.3/Libraries/CMSIS/Include/core_cm4.h **** /* SCB Configurable Fault Status Registers Definitions */
 566:/Users/rdaneel/Binary/Roaming/C-Code/StmProjects/stm32f3x/lib/STM32F30x_DSP_StdPeriph_Lib_V1.2.3/Libraries/CMSIS/Include/core_cm4.h **** #define SCB_CFSR_USGFAULTSR_Pos            16                                             /*!< SCB 
 567:/Users/rdaneel/Binary/Roaming/C-Code/StmProjects/stm32f3x/lib/STM32F30x_DSP_StdPeriph_Lib_V1.2.3/Libraries/CMSIS/Include/core_cm4.h **** #define SCB_CFSR_USGFAULTSR_Msk            (0xFFFFUL << SCB_CFSR_USGFAULTSR_Pos)          /*!< SCB 
ARM GAS  /var/folders/_2/qbh2zpt918qcm2b_6mgyydnm0000gn/T//ccOjgwl7.s 			page 27


 568:/Users/rdaneel/Binary/Roaming/C-Code/StmProjects/stm32f3x/lib/STM32F30x_DSP_StdPeriph_Lib_V1.2.3/Libraries/CMSIS/Include/core_cm4.h **** 
 569:/Users/rdaneel/Binary/Roaming/C-Code/StmProjects/stm32f3x/lib/STM32F30x_DSP_StdPeriph_Lib_V1.2.3/Libraries/CMSIS/Include/core_cm4.h **** #define SCB_CFSR_BUSFAULTSR_Pos             8                                             /*!< SCB 
 570:/Users/rdaneel/Binary/Roaming/C-Code/StmProjects/stm32f3x/lib/STM32F30x_DSP_StdPeriph_Lib_V1.2.3/Libraries/CMSIS/Include/core_cm4.h **** #define SCB_CFSR_BUSFAULTSR_Msk            (0xFFUL << SCB_CFSR_BUSFAULTSR_Pos)            /*!< SCB 
 571:/Users/rdaneel/Binary/Roaming/C-Code/StmProjects/stm32f3x/lib/STM32F30x_DSP_StdPeriph_Lib_V1.2.3/Libraries/CMSIS/Include/core_cm4.h **** 
 572:/Users/rdaneel/Binary/Roaming/C-Code/StmProjects/stm32f3x/lib/STM32F30x_DSP_StdPeriph_Lib_V1.2.3/Libraries/CMSIS/Include/core_cm4.h **** #define SCB_CFSR_MEMFAULTSR_Pos             0                                             /*!< SCB 
 573:/Users/rdaneel/Binary/Roaming/C-Code/StmProjects/stm32f3x/lib/STM32F30x_DSP_StdPeriph_Lib_V1.2.3/Libraries/CMSIS/Include/core_cm4.h **** #define SCB_CFSR_MEMFAULTSR_Msk            (0xFFUL << SCB_CFSR_MEMFAULTSR_Pos)            /*!< SCB 
 574:/Users/rdaneel/Binary/Roaming/C-Code/StmProjects/stm32f3x/lib/STM32F30x_DSP_StdPeriph_Lib_V1.2.3/Libraries/CMSIS/Include/core_cm4.h **** 
 575:/Users/rdaneel/Binary/Roaming/C-Code/StmProjects/stm32f3x/lib/STM32F30x_DSP_StdPeriph_Lib_V1.2.3/Libraries/CMSIS/Include/core_cm4.h **** /* SCB Hard Fault Status Registers Definitions */
 576:/Users/rdaneel/Binary/Roaming/C-Code/StmProjects/stm32f3x/lib/STM32F30x_DSP_StdPeriph_Lib_V1.2.3/Libraries/CMSIS/Include/core_cm4.h **** #define SCB_HFSR_DEBUGEVT_Pos              31                                             /*!< SCB 
 577:/Users/rdaneel/Binary/Roaming/C-Code/StmProjects/stm32f3x/lib/STM32F30x_DSP_StdPeriph_Lib_V1.2.3/Libraries/CMSIS/Include/core_cm4.h **** #define SCB_HFSR_DEBUGEVT_Msk              (1UL << SCB_HFSR_DEBUGEVT_Pos)                 /*!< SCB 
 578:/Users/rdaneel/Binary/Roaming/C-Code/StmProjects/stm32f3x/lib/STM32F30x_DSP_StdPeriph_Lib_V1.2.3/Libraries/CMSIS/Include/core_cm4.h **** 
 579:/Users/rdaneel/Binary/Roaming/C-Code/StmProjects/stm32f3x/lib/STM32F30x_DSP_StdPeriph_Lib_V1.2.3/Libraries/CMSIS/Include/core_cm4.h **** #define SCB_HFSR_FORCED_Pos                30                                             /*!< SCB 
 580:/Users/rdaneel/Binary/Roaming/C-Code/StmProjects/stm32f3x/lib/STM32F30x_DSP_StdPeriph_Lib_V1.2.3/Libraries/CMSIS/Include/core_cm4.h **** #define SCB_HFSR_FORCED_Msk                (1UL << SCB_HFSR_FORCED_Pos)                   /*!< SCB 
 581:/Users/rdaneel/Binary/Roaming/C-Code/StmProjects/stm32f3x/lib/STM32F30x_DSP_StdPeriph_Lib_V1.2.3/Libraries/CMSIS/Include/core_cm4.h **** 
 582:/Users/rdaneel/Binary/Roaming/C-Code/StmProjects/stm32f3x/lib/STM32F30x_DSP_StdPeriph_Lib_V1.2.3/Libraries/CMSIS/Include/core_cm4.h **** #define SCB_HFSR_VECTTBL_Pos                1                                             /*!< SCB 
 583:/Users/rdaneel/Binary/Roaming/C-Code/StmProjects/stm32f3x/lib/STM32F30x_DSP_StdPeriph_Lib_V1.2.3/Libraries/CMSIS/Include/core_cm4.h **** #define SCB_HFSR_VECTTBL_Msk               (1UL << SCB_HFSR_VECTTBL_Pos)                  /*!< SCB 
 584:/Users/rdaneel/Binary/Roaming/C-Code/StmProjects/stm32f3x/lib/STM32F30x_DSP_StdPeriph_Lib_V1.2.3/Libraries/CMSIS/Include/core_cm4.h **** 
 585:/Users/rdaneel/Binary/Roaming/C-Code/StmProjects/stm32f3x/lib/STM32F30x_DSP_StdPeriph_Lib_V1.2.3/Libraries/CMSIS/Include/core_cm4.h **** /* SCB Debug Fault Status Register Definitions */
 586:/Users/rdaneel/Binary/Roaming/C-Code/StmProjects/stm32f3x/lib/STM32F30x_DSP_StdPeriph_Lib_V1.2.3/Libraries/CMSIS/Include/core_cm4.h **** #define SCB_DFSR_EXTERNAL_Pos               4                                             /*!< SCB 
 587:/Users/rdaneel/Binary/Roaming/C-Code/StmProjects/stm32f3x/lib/STM32F30x_DSP_StdPeriph_Lib_V1.2.3/Libraries/CMSIS/Include/core_cm4.h **** #define SCB_DFSR_EXTERNAL_Msk              (1UL << SCB_DFSR_EXTERNAL_Pos)                 /*!< SCB 
 588:/Users/rdaneel/Binary/Roaming/C-Code/StmProjects/stm32f3x/lib/STM32F30x_DSP_StdPeriph_Lib_V1.2.3/Libraries/CMSIS/Include/core_cm4.h **** 
 589:/Users/rdaneel/Binary/Roaming/C-Code/StmProjects/stm32f3x/lib/STM32F30x_DSP_StdPeriph_Lib_V1.2.3/Libraries/CMSIS/Include/core_cm4.h **** #define SCB_DFSR_VCATCH_Pos                 3                                             /*!< SCB 
 590:/Users/rdaneel/Binary/Roaming/C-Code/StmProjects/stm32f3x/lib/STM32F30x_DSP_StdPeriph_Lib_V1.2.3/Libraries/CMSIS/Include/core_cm4.h **** #define SCB_DFSR_VCATCH_Msk                (1UL << SCB_DFSR_VCATCH_Pos)                   /*!< SCB 
 591:/Users/rdaneel/Binary/Roaming/C-Code/StmProjects/stm32f3x/lib/STM32F30x_DSP_StdPeriph_Lib_V1.2.3/Libraries/CMSIS/Include/core_cm4.h **** 
 592:/Users/rdaneel/Binary/Roaming/C-Code/StmProjects/stm32f3x/lib/STM32F30x_DSP_StdPeriph_Lib_V1.2.3/Libraries/CMSIS/Include/core_cm4.h **** #define SCB_DFSR_DWTTRAP_Pos                2                                             /*!< SCB 
 593:/Users/rdaneel/Binary/Roaming/C-Code/StmProjects/stm32f3x/lib/STM32F30x_DSP_StdPeriph_Lib_V1.2.3/Libraries/CMSIS/Include/core_cm4.h **** #define SCB_DFSR_DWTTRAP_Msk               (1UL << SCB_DFSR_DWTTRAP_Pos)                  /*!< SCB 
 594:/Users/rdaneel/Binary/Roaming/C-Code/StmProjects/stm32f3x/lib/STM32F30x_DSP_StdPeriph_Lib_V1.2.3/Libraries/CMSIS/Include/core_cm4.h **** 
 595:/Users/rdaneel/Binary/Roaming/C-Code/StmProjects/stm32f3x/lib/STM32F30x_DSP_StdPeriph_Lib_V1.2.3/Libraries/CMSIS/Include/core_cm4.h **** #define SCB_DFSR_BKPT_Pos                   1                                             /*!< SCB 
 596:/Users/rdaneel/Binary/Roaming/C-Code/StmProjects/stm32f3x/lib/STM32F30x_DSP_StdPeriph_Lib_V1.2.3/Libraries/CMSIS/Include/core_cm4.h **** #define SCB_DFSR_BKPT_Msk                  (1UL << SCB_DFSR_BKPT_Pos)                     /*!< SCB 
 597:/Users/rdaneel/Binary/Roaming/C-Code/StmProjects/stm32f3x/lib/STM32F30x_DSP_StdPeriph_Lib_V1.2.3/Libraries/CMSIS/Include/core_cm4.h **** 
 598:/Users/rdaneel/Binary/Roaming/C-Code/StmProjects/stm32f3x/lib/STM32F30x_DSP_StdPeriph_Lib_V1.2.3/Libraries/CMSIS/Include/core_cm4.h **** #define SCB_DFSR_HALTED_Pos                 0                                             /*!< SCB 
 599:/Users/rdaneel/Binary/Roaming/C-Code/StmProjects/stm32f3x/lib/STM32F30x_DSP_StdPeriph_Lib_V1.2.3/Libraries/CMSIS/Include/core_cm4.h **** #define SCB_DFSR_HALTED_Msk                (1UL << SCB_DFSR_HALTED_Pos)                   /*!< SCB 
 600:/Users/rdaneel/Binary/Roaming/C-Code/StmProjects/stm32f3x/lib/STM32F30x_DSP_StdPeriph_Lib_V1.2.3/Libraries/CMSIS/Include/core_cm4.h **** 
 601:/Users/rdaneel/Binary/Roaming/C-Code/StmProjects/stm32f3x/lib/STM32F30x_DSP_StdPeriph_Lib_V1.2.3/Libraries/CMSIS/Include/core_cm4.h **** /*@} end of group CMSIS_SCB */
 602:/Users/rdaneel/Binary/Roaming/C-Code/StmProjects/stm32f3x/lib/STM32F30x_DSP_StdPeriph_Lib_V1.2.3/Libraries/CMSIS/Include/core_cm4.h **** 
 603:/Users/rdaneel/Binary/Roaming/C-Code/StmProjects/stm32f3x/lib/STM32F30x_DSP_StdPeriph_Lib_V1.2.3/Libraries/CMSIS/Include/core_cm4.h **** 
 604:/Users/rdaneel/Binary/Roaming/C-Code/StmProjects/stm32f3x/lib/STM32F30x_DSP_StdPeriph_Lib_V1.2.3/Libraries/CMSIS/Include/core_cm4.h **** /** \ingroup  CMSIS_core_register
 605:/Users/rdaneel/Binary/Roaming/C-Code/StmProjects/stm32f3x/lib/STM32F30x_DSP_StdPeriph_Lib_V1.2.3/Libraries/CMSIS/Include/core_cm4.h ****     \defgroup CMSIS_SCnSCB System Controls not in SCB (SCnSCB)
 606:/Users/rdaneel/Binary/Roaming/C-Code/StmProjects/stm32f3x/lib/STM32F30x_DSP_StdPeriph_Lib_V1.2.3/Libraries/CMSIS/Include/core_cm4.h ****     \brief      Type definitions for the System Control and ID Register not in the SCB
 607:/Users/rdaneel/Binary/Roaming/C-Code/StmProjects/stm32f3x/lib/STM32F30x_DSP_StdPeriph_Lib_V1.2.3/Libraries/CMSIS/Include/core_cm4.h ****   @{
 608:/Users/rdaneel/Binary/Roaming/C-Code/StmProjects/stm32f3x/lib/STM32F30x_DSP_StdPeriph_Lib_V1.2.3/Libraries/CMSIS/Include/core_cm4.h ****  */
 609:/Users/rdaneel/Binary/Roaming/C-Code/StmProjects/stm32f3x/lib/STM32F30x_DSP_StdPeriph_Lib_V1.2.3/Libraries/CMSIS/Include/core_cm4.h **** 
 610:/Users/rdaneel/Binary/Roaming/C-Code/StmProjects/stm32f3x/lib/STM32F30x_DSP_StdPeriph_Lib_V1.2.3/Libraries/CMSIS/Include/core_cm4.h **** /** \brief  Structure type to access the System Control and ID Register not in the SCB.
 611:/Users/rdaneel/Binary/Roaming/C-Code/StmProjects/stm32f3x/lib/STM32F30x_DSP_StdPeriph_Lib_V1.2.3/Libraries/CMSIS/Include/core_cm4.h ****  */
 612:/Users/rdaneel/Binary/Roaming/C-Code/StmProjects/stm32f3x/lib/STM32F30x_DSP_StdPeriph_Lib_V1.2.3/Libraries/CMSIS/Include/core_cm4.h **** typedef struct
 613:/Users/rdaneel/Binary/Roaming/C-Code/StmProjects/stm32f3x/lib/STM32F30x_DSP_StdPeriph_Lib_V1.2.3/Libraries/CMSIS/Include/core_cm4.h **** {
 614:/Users/rdaneel/Binary/Roaming/C-Code/StmProjects/stm32f3x/lib/STM32F30x_DSP_StdPeriph_Lib_V1.2.3/Libraries/CMSIS/Include/core_cm4.h ****        uint32_t RESERVED0[1];
 615:/Users/rdaneel/Binary/Roaming/C-Code/StmProjects/stm32f3x/lib/STM32F30x_DSP_StdPeriph_Lib_V1.2.3/Libraries/CMSIS/Include/core_cm4.h ****   __I  uint32_t ICTR;                    /*!< Offset: 0x004 (R/ )  Interrupt Controller Type Regist
 616:/Users/rdaneel/Binary/Roaming/C-Code/StmProjects/stm32f3x/lib/STM32F30x_DSP_StdPeriph_Lib_V1.2.3/Libraries/CMSIS/Include/core_cm4.h ****   __IO uint32_t ACTLR;                   /*!< Offset: 0x008 (R/W)  Auxiliary Control Register      
 617:/Users/rdaneel/Binary/Roaming/C-Code/StmProjects/stm32f3x/lib/STM32F30x_DSP_StdPeriph_Lib_V1.2.3/Libraries/CMSIS/Include/core_cm4.h **** } SCnSCB_Type;
 618:/Users/rdaneel/Binary/Roaming/C-Code/StmProjects/stm32f3x/lib/STM32F30x_DSP_StdPeriph_Lib_V1.2.3/Libraries/CMSIS/Include/core_cm4.h **** 
 619:/Users/rdaneel/Binary/Roaming/C-Code/StmProjects/stm32f3x/lib/STM32F30x_DSP_StdPeriph_Lib_V1.2.3/Libraries/CMSIS/Include/core_cm4.h **** /* Interrupt Controller Type Register Definitions */
 620:/Users/rdaneel/Binary/Roaming/C-Code/StmProjects/stm32f3x/lib/STM32F30x_DSP_StdPeriph_Lib_V1.2.3/Libraries/CMSIS/Include/core_cm4.h **** #define SCnSCB_ICTR_INTLINESNUM_Pos         0                                          /*!< ICTR: I
 621:/Users/rdaneel/Binary/Roaming/C-Code/StmProjects/stm32f3x/lib/STM32F30x_DSP_StdPeriph_Lib_V1.2.3/Libraries/CMSIS/Include/core_cm4.h **** #define SCnSCB_ICTR_INTLINESNUM_Msk        (0xFUL << SCnSCB_ICTR_INTLINESNUM_Pos)      /*!< ICTR: I
 622:/Users/rdaneel/Binary/Roaming/C-Code/StmProjects/stm32f3x/lib/STM32F30x_DSP_StdPeriph_Lib_V1.2.3/Libraries/CMSIS/Include/core_cm4.h **** 
 623:/Users/rdaneel/Binary/Roaming/C-Code/StmProjects/stm32f3x/lib/STM32F30x_DSP_StdPeriph_Lib_V1.2.3/Libraries/CMSIS/Include/core_cm4.h **** /* Auxiliary Control Register Definitions */
 624:/Users/rdaneel/Binary/Roaming/C-Code/StmProjects/stm32f3x/lib/STM32F30x_DSP_StdPeriph_Lib_V1.2.3/Libraries/CMSIS/Include/core_cm4.h **** #define SCnSCB_ACTLR_DISOOFP_Pos            9                                          /*!< ACTLR: 
ARM GAS  /var/folders/_2/qbh2zpt918qcm2b_6mgyydnm0000gn/T//ccOjgwl7.s 			page 28


 625:/Users/rdaneel/Binary/Roaming/C-Code/StmProjects/stm32f3x/lib/STM32F30x_DSP_StdPeriph_Lib_V1.2.3/Libraries/CMSIS/Include/core_cm4.h **** #define SCnSCB_ACTLR_DISOOFP_Msk           (1UL << SCnSCB_ACTLR_DISOOFP_Pos)           /*!< ACTLR: 
 626:/Users/rdaneel/Binary/Roaming/C-Code/StmProjects/stm32f3x/lib/STM32F30x_DSP_StdPeriph_Lib_V1.2.3/Libraries/CMSIS/Include/core_cm4.h **** 
 627:/Users/rdaneel/Binary/Roaming/C-Code/StmProjects/stm32f3x/lib/STM32F30x_DSP_StdPeriph_Lib_V1.2.3/Libraries/CMSIS/Include/core_cm4.h **** #define SCnSCB_ACTLR_DISFPCA_Pos            8                                          /*!< ACTLR: 
 628:/Users/rdaneel/Binary/Roaming/C-Code/StmProjects/stm32f3x/lib/STM32F30x_DSP_StdPeriph_Lib_V1.2.3/Libraries/CMSIS/Include/core_cm4.h **** #define SCnSCB_ACTLR_DISFPCA_Msk           (1UL << SCnSCB_ACTLR_DISFPCA_Pos)           /*!< ACTLR: 
 629:/Users/rdaneel/Binary/Roaming/C-Code/StmProjects/stm32f3x/lib/STM32F30x_DSP_StdPeriph_Lib_V1.2.3/Libraries/CMSIS/Include/core_cm4.h **** 
 630:/Users/rdaneel/Binary/Roaming/C-Code/StmProjects/stm32f3x/lib/STM32F30x_DSP_StdPeriph_Lib_V1.2.3/Libraries/CMSIS/Include/core_cm4.h **** #define SCnSCB_ACTLR_DISFOLD_Pos            2                                          /*!< ACTLR: 
 631:/Users/rdaneel/Binary/Roaming/C-Code/StmProjects/stm32f3x/lib/STM32F30x_DSP_StdPeriph_Lib_V1.2.3/Libraries/CMSIS/Include/core_cm4.h **** #define SCnSCB_ACTLR_DISFOLD_Msk           (1UL << SCnSCB_ACTLR_DISFOLD_Pos)           /*!< ACTLR: 
 632:/Users/rdaneel/Binary/Roaming/C-Code/StmProjects/stm32f3x/lib/STM32F30x_DSP_StdPeriph_Lib_V1.2.3/Libraries/CMSIS/Include/core_cm4.h **** 
 633:/Users/rdaneel/Binary/Roaming/C-Code/StmProjects/stm32f3x/lib/STM32F30x_DSP_StdPeriph_Lib_V1.2.3/Libraries/CMSIS/Include/core_cm4.h **** #define SCnSCB_ACTLR_DISDEFWBUF_Pos         1                                          /*!< ACTLR: 
 634:/Users/rdaneel/Binary/Roaming/C-Code/StmProjects/stm32f3x/lib/STM32F30x_DSP_StdPeriph_Lib_V1.2.3/Libraries/CMSIS/Include/core_cm4.h **** #define SCnSCB_ACTLR_DISDEFWBUF_Msk        (1UL << SCnSCB_ACTLR_DISDEFWBUF_Pos)        /*!< ACTLR: 
 635:/Users/rdaneel/Binary/Roaming/C-Code/StmProjects/stm32f3x/lib/STM32F30x_DSP_StdPeriph_Lib_V1.2.3/Libraries/CMSIS/Include/core_cm4.h **** 
 636:/Users/rdaneel/Binary/Roaming/C-Code/StmProjects/stm32f3x/lib/STM32F30x_DSP_StdPeriph_Lib_V1.2.3/Libraries/CMSIS/Include/core_cm4.h **** #define SCnSCB_ACTLR_DISMCYCINT_Pos         0                                          /*!< ACTLR: 
 637:/Users/rdaneel/Binary/Roaming/C-Code/StmProjects/stm32f3x/lib/STM32F30x_DSP_StdPeriph_Lib_V1.2.3/Libraries/CMSIS/Include/core_cm4.h **** #define SCnSCB_ACTLR_DISMCYCINT_Msk        (1UL << SCnSCB_ACTLR_DISMCYCINT_Pos)        /*!< ACTLR: 
 638:/Users/rdaneel/Binary/Roaming/C-Code/StmProjects/stm32f3x/lib/STM32F30x_DSP_StdPeriph_Lib_V1.2.3/Libraries/CMSIS/Include/core_cm4.h **** 
 639:/Users/rdaneel/Binary/Roaming/C-Code/StmProjects/stm32f3x/lib/STM32F30x_DSP_StdPeriph_Lib_V1.2.3/Libraries/CMSIS/Include/core_cm4.h **** /*@} end of group CMSIS_SCnotSCB */
 640:/Users/rdaneel/Binary/Roaming/C-Code/StmProjects/stm32f3x/lib/STM32F30x_DSP_StdPeriph_Lib_V1.2.3/Libraries/CMSIS/Include/core_cm4.h **** 
 641:/Users/rdaneel/Binary/Roaming/C-Code/StmProjects/stm32f3x/lib/STM32F30x_DSP_StdPeriph_Lib_V1.2.3/Libraries/CMSIS/Include/core_cm4.h **** 
 642:/Users/rdaneel/Binary/Roaming/C-Code/StmProjects/stm32f3x/lib/STM32F30x_DSP_StdPeriph_Lib_V1.2.3/Libraries/CMSIS/Include/core_cm4.h **** /** \ingroup  CMSIS_core_register
 643:/Users/rdaneel/Binary/Roaming/C-Code/StmProjects/stm32f3x/lib/STM32F30x_DSP_StdPeriph_Lib_V1.2.3/Libraries/CMSIS/Include/core_cm4.h ****     \defgroup CMSIS_SysTick     System Tick Timer (SysTick)
 644:/Users/rdaneel/Binary/Roaming/C-Code/StmProjects/stm32f3x/lib/STM32F30x_DSP_StdPeriph_Lib_V1.2.3/Libraries/CMSIS/Include/core_cm4.h ****     \brief      Type definitions for the System Timer Registers.
 645:/Users/rdaneel/Binary/Roaming/C-Code/StmProjects/stm32f3x/lib/STM32F30x_DSP_StdPeriph_Lib_V1.2.3/Libraries/CMSIS/Include/core_cm4.h ****   @{
 646:/Users/rdaneel/Binary/Roaming/C-Code/StmProjects/stm32f3x/lib/STM32F30x_DSP_StdPeriph_Lib_V1.2.3/Libraries/CMSIS/Include/core_cm4.h ****  */
 647:/Users/rdaneel/Binary/Roaming/C-Code/StmProjects/stm32f3x/lib/STM32F30x_DSP_StdPeriph_Lib_V1.2.3/Libraries/CMSIS/Include/core_cm4.h **** 
 648:/Users/rdaneel/Binary/Roaming/C-Code/StmProjects/stm32f3x/lib/STM32F30x_DSP_StdPeriph_Lib_V1.2.3/Libraries/CMSIS/Include/core_cm4.h **** /** \brief  Structure type to access the System Timer (SysTick).
 649:/Users/rdaneel/Binary/Roaming/C-Code/StmProjects/stm32f3x/lib/STM32F30x_DSP_StdPeriph_Lib_V1.2.3/Libraries/CMSIS/Include/core_cm4.h ****  */
 650:/Users/rdaneel/Binary/Roaming/C-Code/StmProjects/stm32f3x/lib/STM32F30x_DSP_StdPeriph_Lib_V1.2.3/Libraries/CMSIS/Include/core_cm4.h **** typedef struct
 651:/Users/rdaneel/Binary/Roaming/C-Code/StmProjects/stm32f3x/lib/STM32F30x_DSP_StdPeriph_Lib_V1.2.3/Libraries/CMSIS/Include/core_cm4.h **** {
 652:/Users/rdaneel/Binary/Roaming/C-Code/StmProjects/stm32f3x/lib/STM32F30x_DSP_StdPeriph_Lib_V1.2.3/Libraries/CMSIS/Include/core_cm4.h ****   __IO uint32_t CTRL;                    /*!< Offset: 0x000 (R/W)  SysTick Control and Status Regis
 653:/Users/rdaneel/Binary/Roaming/C-Code/StmProjects/stm32f3x/lib/STM32F30x_DSP_StdPeriph_Lib_V1.2.3/Libraries/CMSIS/Include/core_cm4.h ****   __IO uint32_t LOAD;                    /*!< Offset: 0x004 (R/W)  SysTick Reload Value Register   
 654:/Users/rdaneel/Binary/Roaming/C-Code/StmProjects/stm32f3x/lib/STM32F30x_DSP_StdPeriph_Lib_V1.2.3/Libraries/CMSIS/Include/core_cm4.h ****   __IO uint32_t VAL;                     /*!< Offset: 0x008 (R/W)  SysTick Current Value Register  
 655:/Users/rdaneel/Binary/Roaming/C-Code/StmProjects/stm32f3x/lib/STM32F30x_DSP_StdPeriph_Lib_V1.2.3/Libraries/CMSIS/Include/core_cm4.h ****   __I  uint32_t CALIB;                   /*!< Offset: 0x00C (R/ )  SysTick Calibration Register    
 656:/Users/rdaneel/Binary/Roaming/C-Code/StmProjects/stm32f3x/lib/STM32F30x_DSP_StdPeriph_Lib_V1.2.3/Libraries/CMSIS/Include/core_cm4.h **** } SysTick_Type;
 657:/Users/rdaneel/Binary/Roaming/C-Code/StmProjects/stm32f3x/lib/STM32F30x_DSP_StdPeriph_Lib_V1.2.3/Libraries/CMSIS/Include/core_cm4.h **** 
 658:/Users/rdaneel/Binary/Roaming/C-Code/StmProjects/stm32f3x/lib/STM32F30x_DSP_StdPeriph_Lib_V1.2.3/Libraries/CMSIS/Include/core_cm4.h **** /* SysTick Control / Status Register Definitions */
 659:/Users/rdaneel/Binary/Roaming/C-Code/StmProjects/stm32f3x/lib/STM32F30x_DSP_StdPeriph_Lib_V1.2.3/Libraries/CMSIS/Include/core_cm4.h **** #define SysTick_CTRL_COUNTFLAG_Pos         16                                             /*!< SysT
 660:/Users/rdaneel/Binary/Roaming/C-Code/StmProjects/stm32f3x/lib/STM32F30x_DSP_StdPeriph_Lib_V1.2.3/Libraries/CMSIS/Include/core_cm4.h **** #define SysTick_CTRL_COUNTFLAG_Msk         (1UL << SysTick_CTRL_COUNTFLAG_Pos)            /*!< SysT
 661:/Users/rdaneel/Binary/Roaming/C-Code/StmProjects/stm32f3x/lib/STM32F30x_DSP_StdPeriph_Lib_V1.2.3/Libraries/CMSIS/Include/core_cm4.h **** 
 662:/Users/rdaneel/Binary/Roaming/C-Code/StmProjects/stm32f3x/lib/STM32F30x_DSP_StdPeriph_Lib_V1.2.3/Libraries/CMSIS/Include/core_cm4.h **** #define SysTick_CTRL_CLKSOURCE_Pos          2                                             /*!< SysT
 663:/Users/rdaneel/Binary/Roaming/C-Code/StmProjects/stm32f3x/lib/STM32F30x_DSP_StdPeriph_Lib_V1.2.3/Libraries/CMSIS/Include/core_cm4.h **** #define SysTick_CTRL_CLKSOURCE_Msk         (1UL << SysTick_CTRL_CLKSOURCE_Pos)            /*!< SysT
 664:/Users/rdaneel/Binary/Roaming/C-Code/StmProjects/stm32f3x/lib/STM32F30x_DSP_StdPeriph_Lib_V1.2.3/Libraries/CMSIS/Include/core_cm4.h **** 
 665:/Users/rdaneel/Binary/Roaming/C-Code/StmProjects/stm32f3x/lib/STM32F30x_DSP_StdPeriph_Lib_V1.2.3/Libraries/CMSIS/Include/core_cm4.h **** #define SysTick_CTRL_TICKINT_Pos            1                                             /*!< SysT
 666:/Users/rdaneel/Binary/Roaming/C-Code/StmProjects/stm32f3x/lib/STM32F30x_DSP_StdPeriph_Lib_V1.2.3/Libraries/CMSIS/Include/core_cm4.h **** #define SysTick_CTRL_TICKINT_Msk           (1UL << SysTick_CTRL_TICKINT_Pos)              /*!< SysT
 667:/Users/rdaneel/Binary/Roaming/C-Code/StmProjects/stm32f3x/lib/STM32F30x_DSP_StdPeriph_Lib_V1.2.3/Libraries/CMSIS/Include/core_cm4.h **** 
 668:/Users/rdaneel/Binary/Roaming/C-Code/StmProjects/stm32f3x/lib/STM32F30x_DSP_StdPeriph_Lib_V1.2.3/Libraries/CMSIS/Include/core_cm4.h **** #define SysTick_CTRL_ENABLE_Pos             0                                             /*!< SysT
 669:/Users/rdaneel/Binary/Roaming/C-Code/StmProjects/stm32f3x/lib/STM32F30x_DSP_StdPeriph_Lib_V1.2.3/Libraries/CMSIS/Include/core_cm4.h **** #define SysTick_CTRL_ENABLE_Msk            (1UL << SysTick_CTRL_ENABLE_Pos)               /*!< SysT
 670:/Users/rdaneel/Binary/Roaming/C-Code/StmProjects/stm32f3x/lib/STM32F30x_DSP_StdPeriph_Lib_V1.2.3/Libraries/CMSIS/Include/core_cm4.h **** 
 671:/Users/rdaneel/Binary/Roaming/C-Code/StmProjects/stm32f3x/lib/STM32F30x_DSP_StdPeriph_Lib_V1.2.3/Libraries/CMSIS/Include/core_cm4.h **** /* SysTick Reload Register Definitions */
 672:/Users/rdaneel/Binary/Roaming/C-Code/StmProjects/stm32f3x/lib/STM32F30x_DSP_StdPeriph_Lib_V1.2.3/Libraries/CMSIS/Include/core_cm4.h **** #define SysTick_LOAD_RELOAD_Pos             0                                             /*!< SysT
 673:/Users/rdaneel/Binary/Roaming/C-Code/StmProjects/stm32f3x/lib/STM32F30x_DSP_StdPeriph_Lib_V1.2.3/Libraries/CMSIS/Include/core_cm4.h **** #define SysTick_LOAD_RELOAD_Msk            (0xFFFFFFUL << SysTick_LOAD_RELOAD_Pos)        /*!< SysT
 674:/Users/rdaneel/Binary/Roaming/C-Code/StmProjects/stm32f3x/lib/STM32F30x_DSP_StdPeriph_Lib_V1.2.3/Libraries/CMSIS/Include/core_cm4.h **** 
 675:/Users/rdaneel/Binary/Roaming/C-Code/StmProjects/stm32f3x/lib/STM32F30x_DSP_StdPeriph_Lib_V1.2.3/Libraries/CMSIS/Include/core_cm4.h **** /* SysTick Current Register Definitions */
 676:/Users/rdaneel/Binary/Roaming/C-Code/StmProjects/stm32f3x/lib/STM32F30x_DSP_StdPeriph_Lib_V1.2.3/Libraries/CMSIS/Include/core_cm4.h **** #define SysTick_VAL_CURRENT_Pos             0                                             /*!< SysT
 677:/Users/rdaneel/Binary/Roaming/C-Code/StmProjects/stm32f3x/lib/STM32F30x_DSP_StdPeriph_Lib_V1.2.3/Libraries/CMSIS/Include/core_cm4.h **** #define SysTick_VAL_CURRENT_Msk            (0xFFFFFFUL << SysTick_VAL_CURRENT_Pos)        /*!< SysT
 678:/Users/rdaneel/Binary/Roaming/C-Code/StmProjects/stm32f3x/lib/STM32F30x_DSP_StdPeriph_Lib_V1.2.3/Libraries/CMSIS/Include/core_cm4.h **** 
 679:/Users/rdaneel/Binary/Roaming/C-Code/StmProjects/stm32f3x/lib/STM32F30x_DSP_StdPeriph_Lib_V1.2.3/Libraries/CMSIS/Include/core_cm4.h **** /* SysTick Calibration Register Definitions */
 680:/Users/rdaneel/Binary/Roaming/C-Code/StmProjects/stm32f3x/lib/STM32F30x_DSP_StdPeriph_Lib_V1.2.3/Libraries/CMSIS/Include/core_cm4.h **** #define SysTick_CALIB_NOREF_Pos            31                                             /*!< SysT
 681:/Users/rdaneel/Binary/Roaming/C-Code/StmProjects/stm32f3x/lib/STM32F30x_DSP_StdPeriph_Lib_V1.2.3/Libraries/CMSIS/Include/core_cm4.h **** #define SysTick_CALIB_NOREF_Msk            (1UL << SysTick_CALIB_NOREF_Pos)               /*!< SysT
ARM GAS  /var/folders/_2/qbh2zpt918qcm2b_6mgyydnm0000gn/T//ccOjgwl7.s 			page 29


 682:/Users/rdaneel/Binary/Roaming/C-Code/StmProjects/stm32f3x/lib/STM32F30x_DSP_StdPeriph_Lib_V1.2.3/Libraries/CMSIS/Include/core_cm4.h **** 
 683:/Users/rdaneel/Binary/Roaming/C-Code/StmProjects/stm32f3x/lib/STM32F30x_DSP_StdPeriph_Lib_V1.2.3/Libraries/CMSIS/Include/core_cm4.h **** #define SysTick_CALIB_SKEW_Pos             30                                             /*!< SysT
 684:/Users/rdaneel/Binary/Roaming/C-Code/StmProjects/stm32f3x/lib/STM32F30x_DSP_StdPeriph_Lib_V1.2.3/Libraries/CMSIS/Include/core_cm4.h **** #define SysTick_CALIB_SKEW_Msk             (1UL << SysTick_CALIB_SKEW_Pos)                /*!< SysT
 685:/Users/rdaneel/Binary/Roaming/C-Code/StmProjects/stm32f3x/lib/STM32F30x_DSP_StdPeriph_Lib_V1.2.3/Libraries/CMSIS/Include/core_cm4.h **** 
 686:/Users/rdaneel/Binary/Roaming/C-Code/StmProjects/stm32f3x/lib/STM32F30x_DSP_StdPeriph_Lib_V1.2.3/Libraries/CMSIS/Include/core_cm4.h **** #define SysTick_CALIB_TENMS_Pos             0                                             /*!< SysT
 687:/Users/rdaneel/Binary/Roaming/C-Code/StmProjects/stm32f3x/lib/STM32F30x_DSP_StdPeriph_Lib_V1.2.3/Libraries/CMSIS/Include/core_cm4.h **** #define SysTick_CALIB_TENMS_Msk            (0xFFFFFFUL << SysTick_CALIB_TENMS_Pos)        /*!< SysT
 688:/Users/rdaneel/Binary/Roaming/C-Code/StmProjects/stm32f3x/lib/STM32F30x_DSP_StdPeriph_Lib_V1.2.3/Libraries/CMSIS/Include/core_cm4.h **** 
 689:/Users/rdaneel/Binary/Roaming/C-Code/StmProjects/stm32f3x/lib/STM32F30x_DSP_StdPeriph_Lib_V1.2.3/Libraries/CMSIS/Include/core_cm4.h **** /*@} end of group CMSIS_SysTick */
 690:/Users/rdaneel/Binary/Roaming/C-Code/StmProjects/stm32f3x/lib/STM32F30x_DSP_StdPeriph_Lib_V1.2.3/Libraries/CMSIS/Include/core_cm4.h **** 
 691:/Users/rdaneel/Binary/Roaming/C-Code/StmProjects/stm32f3x/lib/STM32F30x_DSP_StdPeriph_Lib_V1.2.3/Libraries/CMSIS/Include/core_cm4.h **** 
 692:/Users/rdaneel/Binary/Roaming/C-Code/StmProjects/stm32f3x/lib/STM32F30x_DSP_StdPeriph_Lib_V1.2.3/Libraries/CMSIS/Include/core_cm4.h **** /** \ingroup  CMSIS_core_register
 693:/Users/rdaneel/Binary/Roaming/C-Code/StmProjects/stm32f3x/lib/STM32F30x_DSP_StdPeriph_Lib_V1.2.3/Libraries/CMSIS/Include/core_cm4.h ****     \defgroup CMSIS_ITM     Instrumentation Trace Macrocell (ITM)
 694:/Users/rdaneel/Binary/Roaming/C-Code/StmProjects/stm32f3x/lib/STM32F30x_DSP_StdPeriph_Lib_V1.2.3/Libraries/CMSIS/Include/core_cm4.h ****     \brief      Type definitions for the Instrumentation Trace Macrocell (ITM)
 695:/Users/rdaneel/Binary/Roaming/C-Code/StmProjects/stm32f3x/lib/STM32F30x_DSP_StdPeriph_Lib_V1.2.3/Libraries/CMSIS/Include/core_cm4.h ****   @{
 696:/Users/rdaneel/Binary/Roaming/C-Code/StmProjects/stm32f3x/lib/STM32F30x_DSP_StdPeriph_Lib_V1.2.3/Libraries/CMSIS/Include/core_cm4.h ****  */
 697:/Users/rdaneel/Binary/Roaming/C-Code/StmProjects/stm32f3x/lib/STM32F30x_DSP_StdPeriph_Lib_V1.2.3/Libraries/CMSIS/Include/core_cm4.h **** 
 698:/Users/rdaneel/Binary/Roaming/C-Code/StmProjects/stm32f3x/lib/STM32F30x_DSP_StdPeriph_Lib_V1.2.3/Libraries/CMSIS/Include/core_cm4.h **** /** \brief  Structure type to access the Instrumentation Trace Macrocell Register (ITM).
 699:/Users/rdaneel/Binary/Roaming/C-Code/StmProjects/stm32f3x/lib/STM32F30x_DSP_StdPeriph_Lib_V1.2.3/Libraries/CMSIS/Include/core_cm4.h ****  */
 700:/Users/rdaneel/Binary/Roaming/C-Code/StmProjects/stm32f3x/lib/STM32F30x_DSP_StdPeriph_Lib_V1.2.3/Libraries/CMSIS/Include/core_cm4.h **** typedef struct
 701:/Users/rdaneel/Binary/Roaming/C-Code/StmProjects/stm32f3x/lib/STM32F30x_DSP_StdPeriph_Lib_V1.2.3/Libraries/CMSIS/Include/core_cm4.h **** {
 702:/Users/rdaneel/Binary/Roaming/C-Code/StmProjects/stm32f3x/lib/STM32F30x_DSP_StdPeriph_Lib_V1.2.3/Libraries/CMSIS/Include/core_cm4.h ****   __O  union
 703:/Users/rdaneel/Binary/Roaming/C-Code/StmProjects/stm32f3x/lib/STM32F30x_DSP_StdPeriph_Lib_V1.2.3/Libraries/CMSIS/Include/core_cm4.h ****   {
 704:/Users/rdaneel/Binary/Roaming/C-Code/StmProjects/stm32f3x/lib/STM32F30x_DSP_StdPeriph_Lib_V1.2.3/Libraries/CMSIS/Include/core_cm4.h ****     __O  uint8_t    u8;                  /*!< Offset: 0x000 ( /W)  ITM Stimulus Port 8-bit         
 705:/Users/rdaneel/Binary/Roaming/C-Code/StmProjects/stm32f3x/lib/STM32F30x_DSP_StdPeriph_Lib_V1.2.3/Libraries/CMSIS/Include/core_cm4.h ****     __O  uint16_t   u16;                 /*!< Offset: 0x000 ( /W)  ITM Stimulus Port 16-bit        
 706:/Users/rdaneel/Binary/Roaming/C-Code/StmProjects/stm32f3x/lib/STM32F30x_DSP_StdPeriph_Lib_V1.2.3/Libraries/CMSIS/Include/core_cm4.h ****     __O  uint32_t   u32;                 /*!< Offset: 0x000 ( /W)  ITM Stimulus Port 32-bit        
 707:/Users/rdaneel/Binary/Roaming/C-Code/StmProjects/stm32f3x/lib/STM32F30x_DSP_StdPeriph_Lib_V1.2.3/Libraries/CMSIS/Include/core_cm4.h ****   }  PORT [32];                          /*!< Offset: 0x000 ( /W)  ITM Stimulus Port Registers     
 708:/Users/rdaneel/Binary/Roaming/C-Code/StmProjects/stm32f3x/lib/STM32F30x_DSP_StdPeriph_Lib_V1.2.3/Libraries/CMSIS/Include/core_cm4.h ****        uint32_t RESERVED0[864];
 709:/Users/rdaneel/Binary/Roaming/C-Code/StmProjects/stm32f3x/lib/STM32F30x_DSP_StdPeriph_Lib_V1.2.3/Libraries/CMSIS/Include/core_cm4.h ****   __IO uint32_t TER;                     /*!< Offset: 0xE00 (R/W)  ITM Trace Enable Register       
 710:/Users/rdaneel/Binary/Roaming/C-Code/StmProjects/stm32f3x/lib/STM32F30x_DSP_StdPeriph_Lib_V1.2.3/Libraries/CMSIS/Include/core_cm4.h ****        uint32_t RESERVED1[15];
 711:/Users/rdaneel/Binary/Roaming/C-Code/StmProjects/stm32f3x/lib/STM32F30x_DSP_StdPeriph_Lib_V1.2.3/Libraries/CMSIS/Include/core_cm4.h ****   __IO uint32_t TPR;                     /*!< Offset: 0xE40 (R/W)  ITM Trace Privilege Register    
 712:/Users/rdaneel/Binary/Roaming/C-Code/StmProjects/stm32f3x/lib/STM32F30x_DSP_StdPeriph_Lib_V1.2.3/Libraries/CMSIS/Include/core_cm4.h ****        uint32_t RESERVED2[15];
 713:/Users/rdaneel/Binary/Roaming/C-Code/StmProjects/stm32f3x/lib/STM32F30x_DSP_StdPeriph_Lib_V1.2.3/Libraries/CMSIS/Include/core_cm4.h ****   __IO uint32_t TCR;                     /*!< Offset: 0xE80 (R/W)  ITM Trace Control Register      
 714:/Users/rdaneel/Binary/Roaming/C-Code/StmProjects/stm32f3x/lib/STM32F30x_DSP_StdPeriph_Lib_V1.2.3/Libraries/CMSIS/Include/core_cm4.h ****        uint32_t RESERVED3[29];
 715:/Users/rdaneel/Binary/Roaming/C-Code/StmProjects/stm32f3x/lib/STM32F30x_DSP_StdPeriph_Lib_V1.2.3/Libraries/CMSIS/Include/core_cm4.h ****   __O  uint32_t IWR;                     /*!< Offset: 0xEF8 ( /W)  ITM Integration Write Register  
 716:/Users/rdaneel/Binary/Roaming/C-Code/StmProjects/stm32f3x/lib/STM32F30x_DSP_StdPeriph_Lib_V1.2.3/Libraries/CMSIS/Include/core_cm4.h ****   __I  uint32_t IRR;                     /*!< Offset: 0xEFC (R/ )  ITM Integration Read Register   
 717:/Users/rdaneel/Binary/Roaming/C-Code/StmProjects/stm32f3x/lib/STM32F30x_DSP_StdPeriph_Lib_V1.2.3/Libraries/CMSIS/Include/core_cm4.h ****   __IO uint32_t IMCR;                    /*!< Offset: 0xF00 (R/W)  ITM Integration Mode Control Reg
 718:/Users/rdaneel/Binary/Roaming/C-Code/StmProjects/stm32f3x/lib/STM32F30x_DSP_StdPeriph_Lib_V1.2.3/Libraries/CMSIS/Include/core_cm4.h ****        uint32_t RESERVED4[43];
 719:/Users/rdaneel/Binary/Roaming/C-Code/StmProjects/stm32f3x/lib/STM32F30x_DSP_StdPeriph_Lib_V1.2.3/Libraries/CMSIS/Include/core_cm4.h ****   __O  uint32_t LAR;                     /*!< Offset: 0xFB0 ( /W)  ITM Lock Access Register        
 720:/Users/rdaneel/Binary/Roaming/C-Code/StmProjects/stm32f3x/lib/STM32F30x_DSP_StdPeriph_Lib_V1.2.3/Libraries/CMSIS/Include/core_cm4.h ****   __I  uint32_t LSR;                     /*!< Offset: 0xFB4 (R/ )  ITM Lock Status Register        
 721:/Users/rdaneel/Binary/Roaming/C-Code/StmProjects/stm32f3x/lib/STM32F30x_DSP_StdPeriph_Lib_V1.2.3/Libraries/CMSIS/Include/core_cm4.h ****        uint32_t RESERVED5[6];
 722:/Users/rdaneel/Binary/Roaming/C-Code/StmProjects/stm32f3x/lib/STM32F30x_DSP_StdPeriph_Lib_V1.2.3/Libraries/CMSIS/Include/core_cm4.h ****   __I  uint32_t PID4;                    /*!< Offset: 0xFD0 (R/ )  ITM Peripheral Identification Re
 723:/Users/rdaneel/Binary/Roaming/C-Code/StmProjects/stm32f3x/lib/STM32F30x_DSP_StdPeriph_Lib_V1.2.3/Libraries/CMSIS/Include/core_cm4.h ****   __I  uint32_t PID5;                    /*!< Offset: 0xFD4 (R/ )  ITM Peripheral Identification Re
 724:/Users/rdaneel/Binary/Roaming/C-Code/StmProjects/stm32f3x/lib/STM32F30x_DSP_StdPeriph_Lib_V1.2.3/Libraries/CMSIS/Include/core_cm4.h ****   __I  uint32_t PID6;                    /*!< Offset: 0xFD8 (R/ )  ITM Peripheral Identification Re
 725:/Users/rdaneel/Binary/Roaming/C-Code/StmProjects/stm32f3x/lib/STM32F30x_DSP_StdPeriph_Lib_V1.2.3/Libraries/CMSIS/Include/core_cm4.h ****   __I  uint32_t PID7;                    /*!< Offset: 0xFDC (R/ )  ITM Peripheral Identification Re
 726:/Users/rdaneel/Binary/Roaming/C-Code/StmProjects/stm32f3x/lib/STM32F30x_DSP_StdPeriph_Lib_V1.2.3/Libraries/CMSIS/Include/core_cm4.h ****   __I  uint32_t PID0;                    /*!< Offset: 0xFE0 (R/ )  ITM Peripheral Identification Re
 727:/Users/rdaneel/Binary/Roaming/C-Code/StmProjects/stm32f3x/lib/STM32F30x_DSP_StdPeriph_Lib_V1.2.3/Libraries/CMSIS/Include/core_cm4.h ****   __I  uint32_t PID1;                    /*!< Offset: 0xFE4 (R/ )  ITM Peripheral Identification Re
 728:/Users/rdaneel/Binary/Roaming/C-Code/StmProjects/stm32f3x/lib/STM32F30x_DSP_StdPeriph_Lib_V1.2.3/Libraries/CMSIS/Include/core_cm4.h ****   __I  uint32_t PID2;                    /*!< Offset: 0xFE8 (R/ )  ITM Peripheral Identification Re
 729:/Users/rdaneel/Binary/Roaming/C-Code/StmProjects/stm32f3x/lib/STM32F30x_DSP_StdPeriph_Lib_V1.2.3/Libraries/CMSIS/Include/core_cm4.h ****   __I  uint32_t PID3;                    /*!< Offset: 0xFEC (R/ )  ITM Peripheral Identification Re
 730:/Users/rdaneel/Binary/Roaming/C-Code/StmProjects/stm32f3x/lib/STM32F30x_DSP_StdPeriph_Lib_V1.2.3/Libraries/CMSIS/Include/core_cm4.h ****   __I  uint32_t CID0;                    /*!< Offset: 0xFF0 (R/ )  ITM Component  Identification Re
 731:/Users/rdaneel/Binary/Roaming/C-Code/StmProjects/stm32f3x/lib/STM32F30x_DSP_StdPeriph_Lib_V1.2.3/Libraries/CMSIS/Include/core_cm4.h ****   __I  uint32_t CID1;                    /*!< Offset: 0xFF4 (R/ )  ITM Component  Identification Re
 732:/Users/rdaneel/Binary/Roaming/C-Code/StmProjects/stm32f3x/lib/STM32F30x_DSP_StdPeriph_Lib_V1.2.3/Libraries/CMSIS/Include/core_cm4.h ****   __I  uint32_t CID2;                    /*!< Offset: 0xFF8 (R/ )  ITM Component  Identification Re
 733:/Users/rdaneel/Binary/Roaming/C-Code/StmProjects/stm32f3x/lib/STM32F30x_DSP_StdPeriph_Lib_V1.2.3/Libraries/CMSIS/Include/core_cm4.h ****   __I  uint32_t CID3;                    /*!< Offset: 0xFFC (R/ )  ITM Component  Identification Re
 734:/Users/rdaneel/Binary/Roaming/C-Code/StmProjects/stm32f3x/lib/STM32F30x_DSP_StdPeriph_Lib_V1.2.3/Libraries/CMSIS/Include/core_cm4.h **** } ITM_Type;
 735:/Users/rdaneel/Binary/Roaming/C-Code/StmProjects/stm32f3x/lib/STM32F30x_DSP_StdPeriph_Lib_V1.2.3/Libraries/CMSIS/Include/core_cm4.h **** 
 736:/Users/rdaneel/Binary/Roaming/C-Code/StmProjects/stm32f3x/lib/STM32F30x_DSP_StdPeriph_Lib_V1.2.3/Libraries/CMSIS/Include/core_cm4.h **** /* ITM Trace Privilege Register Definitions */
 737:/Users/rdaneel/Binary/Roaming/C-Code/StmProjects/stm32f3x/lib/STM32F30x_DSP_StdPeriph_Lib_V1.2.3/Libraries/CMSIS/Include/core_cm4.h **** #define ITM_TPR_PRIVMASK_Pos                0                                             /*!< ITM 
 738:/Users/rdaneel/Binary/Roaming/C-Code/StmProjects/stm32f3x/lib/STM32F30x_DSP_StdPeriph_Lib_V1.2.3/Libraries/CMSIS/Include/core_cm4.h **** #define ITM_TPR_PRIVMASK_Msk               (0xFUL << ITM_TPR_PRIVMASK_Pos)                /*!< ITM 
ARM GAS  /var/folders/_2/qbh2zpt918qcm2b_6mgyydnm0000gn/T//ccOjgwl7.s 			page 30


 739:/Users/rdaneel/Binary/Roaming/C-Code/StmProjects/stm32f3x/lib/STM32F30x_DSP_StdPeriph_Lib_V1.2.3/Libraries/CMSIS/Include/core_cm4.h **** 
 740:/Users/rdaneel/Binary/Roaming/C-Code/StmProjects/stm32f3x/lib/STM32F30x_DSP_StdPeriph_Lib_V1.2.3/Libraries/CMSIS/Include/core_cm4.h **** /* ITM Trace Control Register Definitions */
 741:/Users/rdaneel/Binary/Roaming/C-Code/StmProjects/stm32f3x/lib/STM32F30x_DSP_StdPeriph_Lib_V1.2.3/Libraries/CMSIS/Include/core_cm4.h **** #define ITM_TCR_BUSY_Pos                   23                                             /*!< ITM 
 742:/Users/rdaneel/Binary/Roaming/C-Code/StmProjects/stm32f3x/lib/STM32F30x_DSP_StdPeriph_Lib_V1.2.3/Libraries/CMSIS/Include/core_cm4.h **** #define ITM_TCR_BUSY_Msk                   (1UL << ITM_TCR_BUSY_Pos)                      /*!< ITM 
 743:/Users/rdaneel/Binary/Roaming/C-Code/StmProjects/stm32f3x/lib/STM32F30x_DSP_StdPeriph_Lib_V1.2.3/Libraries/CMSIS/Include/core_cm4.h **** 
 744:/Users/rdaneel/Binary/Roaming/C-Code/StmProjects/stm32f3x/lib/STM32F30x_DSP_StdPeriph_Lib_V1.2.3/Libraries/CMSIS/Include/core_cm4.h **** #define ITM_TCR_TraceBusID_Pos             16                                             /*!< ITM 
 745:/Users/rdaneel/Binary/Roaming/C-Code/StmProjects/stm32f3x/lib/STM32F30x_DSP_StdPeriph_Lib_V1.2.3/Libraries/CMSIS/Include/core_cm4.h **** #define ITM_TCR_TraceBusID_Msk             (0x7FUL << ITM_TCR_TraceBusID_Pos)             /*!< ITM 
 746:/Users/rdaneel/Binary/Roaming/C-Code/StmProjects/stm32f3x/lib/STM32F30x_DSP_StdPeriph_Lib_V1.2.3/Libraries/CMSIS/Include/core_cm4.h **** 
 747:/Users/rdaneel/Binary/Roaming/C-Code/StmProjects/stm32f3x/lib/STM32F30x_DSP_StdPeriph_Lib_V1.2.3/Libraries/CMSIS/Include/core_cm4.h **** #define ITM_TCR_GTSFREQ_Pos                10                                             /*!< ITM 
 748:/Users/rdaneel/Binary/Roaming/C-Code/StmProjects/stm32f3x/lib/STM32F30x_DSP_StdPeriph_Lib_V1.2.3/Libraries/CMSIS/Include/core_cm4.h **** #define ITM_TCR_GTSFREQ_Msk                (3UL << ITM_TCR_GTSFREQ_Pos)                   /*!< ITM 
 749:/Users/rdaneel/Binary/Roaming/C-Code/StmProjects/stm32f3x/lib/STM32F30x_DSP_StdPeriph_Lib_V1.2.3/Libraries/CMSIS/Include/core_cm4.h **** 
 750:/Users/rdaneel/Binary/Roaming/C-Code/StmProjects/stm32f3x/lib/STM32F30x_DSP_StdPeriph_Lib_V1.2.3/Libraries/CMSIS/Include/core_cm4.h **** #define ITM_TCR_TSPrescale_Pos              8                                             /*!< ITM 
 751:/Users/rdaneel/Binary/Roaming/C-Code/StmProjects/stm32f3x/lib/STM32F30x_DSP_StdPeriph_Lib_V1.2.3/Libraries/CMSIS/Include/core_cm4.h **** #define ITM_TCR_TSPrescale_Msk             (3UL << ITM_TCR_TSPrescale_Pos)                /*!< ITM 
 752:/Users/rdaneel/Binary/Roaming/C-Code/StmProjects/stm32f3x/lib/STM32F30x_DSP_StdPeriph_Lib_V1.2.3/Libraries/CMSIS/Include/core_cm4.h **** 
 753:/Users/rdaneel/Binary/Roaming/C-Code/StmProjects/stm32f3x/lib/STM32F30x_DSP_StdPeriph_Lib_V1.2.3/Libraries/CMSIS/Include/core_cm4.h **** #define ITM_TCR_SWOENA_Pos                  4                                             /*!< ITM 
 754:/Users/rdaneel/Binary/Roaming/C-Code/StmProjects/stm32f3x/lib/STM32F30x_DSP_StdPeriph_Lib_V1.2.3/Libraries/CMSIS/Include/core_cm4.h **** #define ITM_TCR_SWOENA_Msk                 (1UL << ITM_TCR_SWOENA_Pos)                    /*!< ITM 
 755:/Users/rdaneel/Binary/Roaming/C-Code/StmProjects/stm32f3x/lib/STM32F30x_DSP_StdPeriph_Lib_V1.2.3/Libraries/CMSIS/Include/core_cm4.h **** 
 756:/Users/rdaneel/Binary/Roaming/C-Code/StmProjects/stm32f3x/lib/STM32F30x_DSP_StdPeriph_Lib_V1.2.3/Libraries/CMSIS/Include/core_cm4.h **** #define ITM_TCR_DWTENA_Pos                  3                                             /*!< ITM 
 757:/Users/rdaneel/Binary/Roaming/C-Code/StmProjects/stm32f3x/lib/STM32F30x_DSP_StdPeriph_Lib_V1.2.3/Libraries/CMSIS/Include/core_cm4.h **** #define ITM_TCR_DWTENA_Msk                 (1UL << ITM_TCR_DWTENA_Pos)                    /*!< ITM 
 758:/Users/rdaneel/Binary/Roaming/C-Code/StmProjects/stm32f3x/lib/STM32F30x_DSP_StdPeriph_Lib_V1.2.3/Libraries/CMSIS/Include/core_cm4.h **** 
 759:/Users/rdaneel/Binary/Roaming/C-Code/StmProjects/stm32f3x/lib/STM32F30x_DSP_StdPeriph_Lib_V1.2.3/Libraries/CMSIS/Include/core_cm4.h **** #define ITM_TCR_SYNCENA_Pos                 2                                             /*!< ITM 
 760:/Users/rdaneel/Binary/Roaming/C-Code/StmProjects/stm32f3x/lib/STM32F30x_DSP_StdPeriph_Lib_V1.2.3/Libraries/CMSIS/Include/core_cm4.h **** #define ITM_TCR_SYNCENA_Msk                (1UL << ITM_TCR_SYNCENA_Pos)                   /*!< ITM 
 761:/Users/rdaneel/Binary/Roaming/C-Code/StmProjects/stm32f3x/lib/STM32F30x_DSP_StdPeriph_Lib_V1.2.3/Libraries/CMSIS/Include/core_cm4.h **** 
 762:/Users/rdaneel/Binary/Roaming/C-Code/StmProjects/stm32f3x/lib/STM32F30x_DSP_StdPeriph_Lib_V1.2.3/Libraries/CMSIS/Include/core_cm4.h **** #define ITM_TCR_TSENA_Pos                   1                                             /*!< ITM 
 763:/Users/rdaneel/Binary/Roaming/C-Code/StmProjects/stm32f3x/lib/STM32F30x_DSP_StdPeriph_Lib_V1.2.3/Libraries/CMSIS/Include/core_cm4.h **** #define ITM_TCR_TSENA_Msk                  (1UL << ITM_TCR_TSENA_Pos)                     /*!< ITM 
 764:/Users/rdaneel/Binary/Roaming/C-Code/StmProjects/stm32f3x/lib/STM32F30x_DSP_StdPeriph_Lib_V1.2.3/Libraries/CMSIS/Include/core_cm4.h **** 
 765:/Users/rdaneel/Binary/Roaming/C-Code/StmProjects/stm32f3x/lib/STM32F30x_DSP_StdPeriph_Lib_V1.2.3/Libraries/CMSIS/Include/core_cm4.h **** #define ITM_TCR_ITMENA_Pos                  0                                             /*!< ITM 
 766:/Users/rdaneel/Binary/Roaming/C-Code/StmProjects/stm32f3x/lib/STM32F30x_DSP_StdPeriph_Lib_V1.2.3/Libraries/CMSIS/Include/core_cm4.h **** #define ITM_TCR_ITMENA_Msk                 (1UL << ITM_TCR_ITMENA_Pos)                    /*!< ITM 
 767:/Users/rdaneel/Binary/Roaming/C-Code/StmProjects/stm32f3x/lib/STM32F30x_DSP_StdPeriph_Lib_V1.2.3/Libraries/CMSIS/Include/core_cm4.h **** 
 768:/Users/rdaneel/Binary/Roaming/C-Code/StmProjects/stm32f3x/lib/STM32F30x_DSP_StdPeriph_Lib_V1.2.3/Libraries/CMSIS/Include/core_cm4.h **** /* ITM Integration Write Register Definitions */
 769:/Users/rdaneel/Binary/Roaming/C-Code/StmProjects/stm32f3x/lib/STM32F30x_DSP_StdPeriph_Lib_V1.2.3/Libraries/CMSIS/Include/core_cm4.h **** #define ITM_IWR_ATVALIDM_Pos                0                                             /*!< ITM 
 770:/Users/rdaneel/Binary/Roaming/C-Code/StmProjects/stm32f3x/lib/STM32F30x_DSP_StdPeriph_Lib_V1.2.3/Libraries/CMSIS/Include/core_cm4.h **** #define ITM_IWR_ATVALIDM_Msk               (1UL << ITM_IWR_ATVALIDM_Pos)                  /*!< ITM 
 771:/Users/rdaneel/Binary/Roaming/C-Code/StmProjects/stm32f3x/lib/STM32F30x_DSP_StdPeriph_Lib_V1.2.3/Libraries/CMSIS/Include/core_cm4.h **** 
 772:/Users/rdaneel/Binary/Roaming/C-Code/StmProjects/stm32f3x/lib/STM32F30x_DSP_StdPeriph_Lib_V1.2.3/Libraries/CMSIS/Include/core_cm4.h **** /* ITM Integration Read Register Definitions */
 773:/Users/rdaneel/Binary/Roaming/C-Code/StmProjects/stm32f3x/lib/STM32F30x_DSP_StdPeriph_Lib_V1.2.3/Libraries/CMSIS/Include/core_cm4.h **** #define ITM_IRR_ATREADYM_Pos                0                                             /*!< ITM 
 774:/Users/rdaneel/Binary/Roaming/C-Code/StmProjects/stm32f3x/lib/STM32F30x_DSP_StdPeriph_Lib_V1.2.3/Libraries/CMSIS/Include/core_cm4.h **** #define ITM_IRR_ATREADYM_Msk               (1UL << ITM_IRR_ATREADYM_Pos)                  /*!< ITM 
 775:/Users/rdaneel/Binary/Roaming/C-Code/StmProjects/stm32f3x/lib/STM32F30x_DSP_StdPeriph_Lib_V1.2.3/Libraries/CMSIS/Include/core_cm4.h **** 
 776:/Users/rdaneel/Binary/Roaming/C-Code/StmProjects/stm32f3x/lib/STM32F30x_DSP_StdPeriph_Lib_V1.2.3/Libraries/CMSIS/Include/core_cm4.h **** /* ITM Integration Mode Control Register Definitions */
 777:/Users/rdaneel/Binary/Roaming/C-Code/StmProjects/stm32f3x/lib/STM32F30x_DSP_StdPeriph_Lib_V1.2.3/Libraries/CMSIS/Include/core_cm4.h **** #define ITM_IMCR_INTEGRATION_Pos            0                                             /*!< ITM 
 778:/Users/rdaneel/Binary/Roaming/C-Code/StmProjects/stm32f3x/lib/STM32F30x_DSP_StdPeriph_Lib_V1.2.3/Libraries/CMSIS/Include/core_cm4.h **** #define ITM_IMCR_INTEGRATION_Msk           (1UL << ITM_IMCR_INTEGRATION_Pos)              /*!< ITM 
 779:/Users/rdaneel/Binary/Roaming/C-Code/StmProjects/stm32f3x/lib/STM32F30x_DSP_StdPeriph_Lib_V1.2.3/Libraries/CMSIS/Include/core_cm4.h **** 
 780:/Users/rdaneel/Binary/Roaming/C-Code/StmProjects/stm32f3x/lib/STM32F30x_DSP_StdPeriph_Lib_V1.2.3/Libraries/CMSIS/Include/core_cm4.h **** /* ITM Lock Status Register Definitions */
 781:/Users/rdaneel/Binary/Roaming/C-Code/StmProjects/stm32f3x/lib/STM32F30x_DSP_StdPeriph_Lib_V1.2.3/Libraries/CMSIS/Include/core_cm4.h **** #define ITM_LSR_ByteAcc_Pos                 2                                             /*!< ITM 
 782:/Users/rdaneel/Binary/Roaming/C-Code/StmProjects/stm32f3x/lib/STM32F30x_DSP_StdPeriph_Lib_V1.2.3/Libraries/CMSIS/Include/core_cm4.h **** #define ITM_LSR_ByteAcc_Msk                (1UL << ITM_LSR_ByteAcc_Pos)                   /*!< ITM 
 783:/Users/rdaneel/Binary/Roaming/C-Code/StmProjects/stm32f3x/lib/STM32F30x_DSP_StdPeriph_Lib_V1.2.3/Libraries/CMSIS/Include/core_cm4.h **** 
 784:/Users/rdaneel/Binary/Roaming/C-Code/StmProjects/stm32f3x/lib/STM32F30x_DSP_StdPeriph_Lib_V1.2.3/Libraries/CMSIS/Include/core_cm4.h **** #define ITM_LSR_Access_Pos                  1                                             /*!< ITM 
 785:/Users/rdaneel/Binary/Roaming/C-Code/StmProjects/stm32f3x/lib/STM32F30x_DSP_StdPeriph_Lib_V1.2.3/Libraries/CMSIS/Include/core_cm4.h **** #define ITM_LSR_Access_Msk                 (1UL << ITM_LSR_Access_Pos)                    /*!< ITM 
 786:/Users/rdaneel/Binary/Roaming/C-Code/StmProjects/stm32f3x/lib/STM32F30x_DSP_StdPeriph_Lib_V1.2.3/Libraries/CMSIS/Include/core_cm4.h **** 
 787:/Users/rdaneel/Binary/Roaming/C-Code/StmProjects/stm32f3x/lib/STM32F30x_DSP_StdPeriph_Lib_V1.2.3/Libraries/CMSIS/Include/core_cm4.h **** #define ITM_LSR_Present_Pos                 0                                             /*!< ITM 
 788:/Users/rdaneel/Binary/Roaming/C-Code/StmProjects/stm32f3x/lib/STM32F30x_DSP_StdPeriph_Lib_V1.2.3/Libraries/CMSIS/Include/core_cm4.h **** #define ITM_LSR_Present_Msk                (1UL << ITM_LSR_Present_Pos)                   /*!< ITM 
 789:/Users/rdaneel/Binary/Roaming/C-Code/StmProjects/stm32f3x/lib/STM32F30x_DSP_StdPeriph_Lib_V1.2.3/Libraries/CMSIS/Include/core_cm4.h **** 
 790:/Users/rdaneel/Binary/Roaming/C-Code/StmProjects/stm32f3x/lib/STM32F30x_DSP_StdPeriph_Lib_V1.2.3/Libraries/CMSIS/Include/core_cm4.h **** /*@}*/ /* end of group CMSIS_ITM */
 791:/Users/rdaneel/Binary/Roaming/C-Code/StmProjects/stm32f3x/lib/STM32F30x_DSP_StdPeriph_Lib_V1.2.3/Libraries/CMSIS/Include/core_cm4.h **** 
 792:/Users/rdaneel/Binary/Roaming/C-Code/StmProjects/stm32f3x/lib/STM32F30x_DSP_StdPeriph_Lib_V1.2.3/Libraries/CMSIS/Include/core_cm4.h **** 
 793:/Users/rdaneel/Binary/Roaming/C-Code/StmProjects/stm32f3x/lib/STM32F30x_DSP_StdPeriph_Lib_V1.2.3/Libraries/CMSIS/Include/core_cm4.h **** /** \ingroup  CMSIS_core_register
 794:/Users/rdaneel/Binary/Roaming/C-Code/StmProjects/stm32f3x/lib/STM32F30x_DSP_StdPeriph_Lib_V1.2.3/Libraries/CMSIS/Include/core_cm4.h ****     \defgroup CMSIS_DWT     Data Watchpoint and Trace (DWT)
 795:/Users/rdaneel/Binary/Roaming/C-Code/StmProjects/stm32f3x/lib/STM32F30x_DSP_StdPeriph_Lib_V1.2.3/Libraries/CMSIS/Include/core_cm4.h ****     \brief      Type definitions for the Data Watchpoint and Trace (DWT)
ARM GAS  /var/folders/_2/qbh2zpt918qcm2b_6mgyydnm0000gn/T//ccOjgwl7.s 			page 31


 796:/Users/rdaneel/Binary/Roaming/C-Code/StmProjects/stm32f3x/lib/STM32F30x_DSP_StdPeriph_Lib_V1.2.3/Libraries/CMSIS/Include/core_cm4.h ****   @{
 797:/Users/rdaneel/Binary/Roaming/C-Code/StmProjects/stm32f3x/lib/STM32F30x_DSP_StdPeriph_Lib_V1.2.3/Libraries/CMSIS/Include/core_cm4.h ****  */
 798:/Users/rdaneel/Binary/Roaming/C-Code/StmProjects/stm32f3x/lib/STM32F30x_DSP_StdPeriph_Lib_V1.2.3/Libraries/CMSIS/Include/core_cm4.h **** 
 799:/Users/rdaneel/Binary/Roaming/C-Code/StmProjects/stm32f3x/lib/STM32F30x_DSP_StdPeriph_Lib_V1.2.3/Libraries/CMSIS/Include/core_cm4.h **** /** \brief  Structure type to access the Data Watchpoint and Trace Register (DWT).
 800:/Users/rdaneel/Binary/Roaming/C-Code/StmProjects/stm32f3x/lib/STM32F30x_DSP_StdPeriph_Lib_V1.2.3/Libraries/CMSIS/Include/core_cm4.h ****  */
 801:/Users/rdaneel/Binary/Roaming/C-Code/StmProjects/stm32f3x/lib/STM32F30x_DSP_StdPeriph_Lib_V1.2.3/Libraries/CMSIS/Include/core_cm4.h **** typedef struct
 802:/Users/rdaneel/Binary/Roaming/C-Code/StmProjects/stm32f3x/lib/STM32F30x_DSP_StdPeriph_Lib_V1.2.3/Libraries/CMSIS/Include/core_cm4.h **** {
 803:/Users/rdaneel/Binary/Roaming/C-Code/StmProjects/stm32f3x/lib/STM32F30x_DSP_StdPeriph_Lib_V1.2.3/Libraries/CMSIS/Include/core_cm4.h ****   __IO uint32_t CTRL;                    /*!< Offset: 0x000 (R/W)  Control Register                
 804:/Users/rdaneel/Binary/Roaming/C-Code/StmProjects/stm32f3x/lib/STM32F30x_DSP_StdPeriph_Lib_V1.2.3/Libraries/CMSIS/Include/core_cm4.h ****   __IO uint32_t CYCCNT;                  /*!< Offset: 0x004 (R/W)  Cycle Count Register            
 805:/Users/rdaneel/Binary/Roaming/C-Code/StmProjects/stm32f3x/lib/STM32F30x_DSP_StdPeriph_Lib_V1.2.3/Libraries/CMSIS/Include/core_cm4.h ****   __IO uint32_t CPICNT;                  /*!< Offset: 0x008 (R/W)  CPI Count Register              
 806:/Users/rdaneel/Binary/Roaming/C-Code/StmProjects/stm32f3x/lib/STM32F30x_DSP_StdPeriph_Lib_V1.2.3/Libraries/CMSIS/Include/core_cm4.h ****   __IO uint32_t EXCCNT;                  /*!< Offset: 0x00C (R/W)  Exception Overhead Count Registe
 807:/Users/rdaneel/Binary/Roaming/C-Code/StmProjects/stm32f3x/lib/STM32F30x_DSP_StdPeriph_Lib_V1.2.3/Libraries/CMSIS/Include/core_cm4.h ****   __IO uint32_t SLEEPCNT;                /*!< Offset: 0x010 (R/W)  Sleep Count Register            
 808:/Users/rdaneel/Binary/Roaming/C-Code/StmProjects/stm32f3x/lib/STM32F30x_DSP_StdPeriph_Lib_V1.2.3/Libraries/CMSIS/Include/core_cm4.h ****   __IO uint32_t LSUCNT;                  /*!< Offset: 0x014 (R/W)  LSU Count Register              
 809:/Users/rdaneel/Binary/Roaming/C-Code/StmProjects/stm32f3x/lib/STM32F30x_DSP_StdPeriph_Lib_V1.2.3/Libraries/CMSIS/Include/core_cm4.h ****   __IO uint32_t FOLDCNT;                 /*!< Offset: 0x018 (R/W)  Folded-instruction Count Registe
 810:/Users/rdaneel/Binary/Roaming/C-Code/StmProjects/stm32f3x/lib/STM32F30x_DSP_StdPeriph_Lib_V1.2.3/Libraries/CMSIS/Include/core_cm4.h ****   __I  uint32_t PCSR;                    /*!< Offset: 0x01C (R/ )  Program Counter Sample Register 
 811:/Users/rdaneel/Binary/Roaming/C-Code/StmProjects/stm32f3x/lib/STM32F30x_DSP_StdPeriph_Lib_V1.2.3/Libraries/CMSIS/Include/core_cm4.h ****   __IO uint32_t COMP0;                   /*!< Offset: 0x020 (R/W)  Comparator Register 0           
 812:/Users/rdaneel/Binary/Roaming/C-Code/StmProjects/stm32f3x/lib/STM32F30x_DSP_StdPeriph_Lib_V1.2.3/Libraries/CMSIS/Include/core_cm4.h ****   __IO uint32_t MASK0;                   /*!< Offset: 0x024 (R/W)  Mask Register 0                 
 813:/Users/rdaneel/Binary/Roaming/C-Code/StmProjects/stm32f3x/lib/STM32F30x_DSP_StdPeriph_Lib_V1.2.3/Libraries/CMSIS/Include/core_cm4.h ****   __IO uint32_t FUNCTION0;               /*!< Offset: 0x028 (R/W)  Function Register 0             
 814:/Users/rdaneel/Binary/Roaming/C-Code/StmProjects/stm32f3x/lib/STM32F30x_DSP_StdPeriph_Lib_V1.2.3/Libraries/CMSIS/Include/core_cm4.h ****        uint32_t RESERVED0[1];
 815:/Users/rdaneel/Binary/Roaming/C-Code/StmProjects/stm32f3x/lib/STM32F30x_DSP_StdPeriph_Lib_V1.2.3/Libraries/CMSIS/Include/core_cm4.h ****   __IO uint32_t COMP1;                   /*!< Offset: 0x030 (R/W)  Comparator Register 1           
 816:/Users/rdaneel/Binary/Roaming/C-Code/StmProjects/stm32f3x/lib/STM32F30x_DSP_StdPeriph_Lib_V1.2.3/Libraries/CMSIS/Include/core_cm4.h ****   __IO uint32_t MASK1;                   /*!< Offset: 0x034 (R/W)  Mask Register 1                 
 817:/Users/rdaneel/Binary/Roaming/C-Code/StmProjects/stm32f3x/lib/STM32F30x_DSP_StdPeriph_Lib_V1.2.3/Libraries/CMSIS/Include/core_cm4.h ****   __IO uint32_t FUNCTION1;               /*!< Offset: 0x038 (R/W)  Function Register 1             
 818:/Users/rdaneel/Binary/Roaming/C-Code/StmProjects/stm32f3x/lib/STM32F30x_DSP_StdPeriph_Lib_V1.2.3/Libraries/CMSIS/Include/core_cm4.h ****        uint32_t RESERVED1[1];
 819:/Users/rdaneel/Binary/Roaming/C-Code/StmProjects/stm32f3x/lib/STM32F30x_DSP_StdPeriph_Lib_V1.2.3/Libraries/CMSIS/Include/core_cm4.h ****   __IO uint32_t COMP2;                   /*!< Offset: 0x040 (R/W)  Comparator Register 2           
 820:/Users/rdaneel/Binary/Roaming/C-Code/StmProjects/stm32f3x/lib/STM32F30x_DSP_StdPeriph_Lib_V1.2.3/Libraries/CMSIS/Include/core_cm4.h ****   __IO uint32_t MASK2;                   /*!< Offset: 0x044 (R/W)  Mask Register 2                 
 821:/Users/rdaneel/Binary/Roaming/C-Code/StmProjects/stm32f3x/lib/STM32F30x_DSP_StdPeriph_Lib_V1.2.3/Libraries/CMSIS/Include/core_cm4.h ****   __IO uint32_t FUNCTION2;               /*!< Offset: 0x048 (R/W)  Function Register 2             
 822:/Users/rdaneel/Binary/Roaming/C-Code/StmProjects/stm32f3x/lib/STM32F30x_DSP_StdPeriph_Lib_V1.2.3/Libraries/CMSIS/Include/core_cm4.h ****        uint32_t RESERVED2[1];
 823:/Users/rdaneel/Binary/Roaming/C-Code/StmProjects/stm32f3x/lib/STM32F30x_DSP_StdPeriph_Lib_V1.2.3/Libraries/CMSIS/Include/core_cm4.h ****   __IO uint32_t COMP3;                   /*!< Offset: 0x050 (R/W)  Comparator Register 3           
 824:/Users/rdaneel/Binary/Roaming/C-Code/StmProjects/stm32f3x/lib/STM32F30x_DSP_StdPeriph_Lib_V1.2.3/Libraries/CMSIS/Include/core_cm4.h ****   __IO uint32_t MASK3;                   /*!< Offset: 0x054 (R/W)  Mask Register 3                 
 825:/Users/rdaneel/Binary/Roaming/C-Code/StmProjects/stm32f3x/lib/STM32F30x_DSP_StdPeriph_Lib_V1.2.3/Libraries/CMSIS/Include/core_cm4.h ****   __IO uint32_t FUNCTION3;               /*!< Offset: 0x058 (R/W)  Function Register 3             
 826:/Users/rdaneel/Binary/Roaming/C-Code/StmProjects/stm32f3x/lib/STM32F30x_DSP_StdPeriph_Lib_V1.2.3/Libraries/CMSIS/Include/core_cm4.h **** } DWT_Type;
 827:/Users/rdaneel/Binary/Roaming/C-Code/StmProjects/stm32f3x/lib/STM32F30x_DSP_StdPeriph_Lib_V1.2.3/Libraries/CMSIS/Include/core_cm4.h **** 
 828:/Users/rdaneel/Binary/Roaming/C-Code/StmProjects/stm32f3x/lib/STM32F30x_DSP_StdPeriph_Lib_V1.2.3/Libraries/CMSIS/Include/core_cm4.h **** /* DWT Control Register Definitions */
 829:/Users/rdaneel/Binary/Roaming/C-Code/StmProjects/stm32f3x/lib/STM32F30x_DSP_StdPeriph_Lib_V1.2.3/Libraries/CMSIS/Include/core_cm4.h **** #define DWT_CTRL_NUMCOMP_Pos               28                                          /*!< DWT CTR
 830:/Users/rdaneel/Binary/Roaming/C-Code/StmProjects/stm32f3x/lib/STM32F30x_DSP_StdPeriph_Lib_V1.2.3/Libraries/CMSIS/Include/core_cm4.h **** #define DWT_CTRL_NUMCOMP_Msk               (0xFUL << DWT_CTRL_NUMCOMP_Pos)             /*!< DWT CTR
 831:/Users/rdaneel/Binary/Roaming/C-Code/StmProjects/stm32f3x/lib/STM32F30x_DSP_StdPeriph_Lib_V1.2.3/Libraries/CMSIS/Include/core_cm4.h **** 
 832:/Users/rdaneel/Binary/Roaming/C-Code/StmProjects/stm32f3x/lib/STM32F30x_DSP_StdPeriph_Lib_V1.2.3/Libraries/CMSIS/Include/core_cm4.h **** #define DWT_CTRL_NOTRCPKT_Pos              27                                          /*!< DWT CTR
 833:/Users/rdaneel/Binary/Roaming/C-Code/StmProjects/stm32f3x/lib/STM32F30x_DSP_StdPeriph_Lib_V1.2.3/Libraries/CMSIS/Include/core_cm4.h **** #define DWT_CTRL_NOTRCPKT_Msk              (0x1UL << DWT_CTRL_NOTRCPKT_Pos)            /*!< DWT CTR
 834:/Users/rdaneel/Binary/Roaming/C-Code/StmProjects/stm32f3x/lib/STM32F30x_DSP_StdPeriph_Lib_V1.2.3/Libraries/CMSIS/Include/core_cm4.h **** 
 835:/Users/rdaneel/Binary/Roaming/C-Code/StmProjects/stm32f3x/lib/STM32F30x_DSP_StdPeriph_Lib_V1.2.3/Libraries/CMSIS/Include/core_cm4.h **** #define DWT_CTRL_NOEXTTRIG_Pos             26                                          /*!< DWT CTR
 836:/Users/rdaneel/Binary/Roaming/C-Code/StmProjects/stm32f3x/lib/STM32F30x_DSP_StdPeriph_Lib_V1.2.3/Libraries/CMSIS/Include/core_cm4.h **** #define DWT_CTRL_NOEXTTRIG_Msk             (0x1UL << DWT_CTRL_NOEXTTRIG_Pos)           /*!< DWT CTR
 837:/Users/rdaneel/Binary/Roaming/C-Code/StmProjects/stm32f3x/lib/STM32F30x_DSP_StdPeriph_Lib_V1.2.3/Libraries/CMSIS/Include/core_cm4.h **** 
 838:/Users/rdaneel/Binary/Roaming/C-Code/StmProjects/stm32f3x/lib/STM32F30x_DSP_StdPeriph_Lib_V1.2.3/Libraries/CMSIS/Include/core_cm4.h **** #define DWT_CTRL_NOCYCCNT_Pos              25                                          /*!< DWT CTR
 839:/Users/rdaneel/Binary/Roaming/C-Code/StmProjects/stm32f3x/lib/STM32F30x_DSP_StdPeriph_Lib_V1.2.3/Libraries/CMSIS/Include/core_cm4.h **** #define DWT_CTRL_NOCYCCNT_Msk              (0x1UL << DWT_CTRL_NOCYCCNT_Pos)            /*!< DWT CTR
 840:/Users/rdaneel/Binary/Roaming/C-Code/StmProjects/stm32f3x/lib/STM32F30x_DSP_StdPeriph_Lib_V1.2.3/Libraries/CMSIS/Include/core_cm4.h **** 
 841:/Users/rdaneel/Binary/Roaming/C-Code/StmProjects/stm32f3x/lib/STM32F30x_DSP_StdPeriph_Lib_V1.2.3/Libraries/CMSIS/Include/core_cm4.h **** #define DWT_CTRL_NOPRFCNT_Pos              24                                          /*!< DWT CTR
 842:/Users/rdaneel/Binary/Roaming/C-Code/StmProjects/stm32f3x/lib/STM32F30x_DSP_StdPeriph_Lib_V1.2.3/Libraries/CMSIS/Include/core_cm4.h **** #define DWT_CTRL_NOPRFCNT_Msk              (0x1UL << DWT_CTRL_NOPRFCNT_Pos)            /*!< DWT CTR
 843:/Users/rdaneel/Binary/Roaming/C-Code/StmProjects/stm32f3x/lib/STM32F30x_DSP_StdPeriph_Lib_V1.2.3/Libraries/CMSIS/Include/core_cm4.h **** 
 844:/Users/rdaneel/Binary/Roaming/C-Code/StmProjects/stm32f3x/lib/STM32F30x_DSP_StdPeriph_Lib_V1.2.3/Libraries/CMSIS/Include/core_cm4.h **** #define DWT_CTRL_CYCEVTENA_Pos             22                                          /*!< DWT CTR
 845:/Users/rdaneel/Binary/Roaming/C-Code/StmProjects/stm32f3x/lib/STM32F30x_DSP_StdPeriph_Lib_V1.2.3/Libraries/CMSIS/Include/core_cm4.h **** #define DWT_CTRL_CYCEVTENA_Msk             (0x1UL << DWT_CTRL_CYCEVTENA_Pos)           /*!< DWT CTR
 846:/Users/rdaneel/Binary/Roaming/C-Code/StmProjects/stm32f3x/lib/STM32F30x_DSP_StdPeriph_Lib_V1.2.3/Libraries/CMSIS/Include/core_cm4.h **** 
 847:/Users/rdaneel/Binary/Roaming/C-Code/StmProjects/stm32f3x/lib/STM32F30x_DSP_StdPeriph_Lib_V1.2.3/Libraries/CMSIS/Include/core_cm4.h **** #define DWT_CTRL_FOLDEVTENA_Pos            21                                          /*!< DWT CTR
 848:/Users/rdaneel/Binary/Roaming/C-Code/StmProjects/stm32f3x/lib/STM32F30x_DSP_StdPeriph_Lib_V1.2.3/Libraries/CMSIS/Include/core_cm4.h **** #define DWT_CTRL_FOLDEVTENA_Msk            (0x1UL << DWT_CTRL_FOLDEVTENA_Pos)          /*!< DWT CTR
 849:/Users/rdaneel/Binary/Roaming/C-Code/StmProjects/stm32f3x/lib/STM32F30x_DSP_StdPeriph_Lib_V1.2.3/Libraries/CMSIS/Include/core_cm4.h **** 
 850:/Users/rdaneel/Binary/Roaming/C-Code/StmProjects/stm32f3x/lib/STM32F30x_DSP_StdPeriph_Lib_V1.2.3/Libraries/CMSIS/Include/core_cm4.h **** #define DWT_CTRL_LSUEVTENA_Pos             20                                          /*!< DWT CTR
 851:/Users/rdaneel/Binary/Roaming/C-Code/StmProjects/stm32f3x/lib/STM32F30x_DSP_StdPeriph_Lib_V1.2.3/Libraries/CMSIS/Include/core_cm4.h **** #define DWT_CTRL_LSUEVTENA_Msk             (0x1UL << DWT_CTRL_LSUEVTENA_Pos)           /*!< DWT CTR
 852:/Users/rdaneel/Binary/Roaming/C-Code/StmProjects/stm32f3x/lib/STM32F30x_DSP_StdPeriph_Lib_V1.2.3/Libraries/CMSIS/Include/core_cm4.h **** 
ARM GAS  /var/folders/_2/qbh2zpt918qcm2b_6mgyydnm0000gn/T//ccOjgwl7.s 			page 32


 853:/Users/rdaneel/Binary/Roaming/C-Code/StmProjects/stm32f3x/lib/STM32F30x_DSP_StdPeriph_Lib_V1.2.3/Libraries/CMSIS/Include/core_cm4.h **** #define DWT_CTRL_SLEEPEVTENA_Pos           19                                          /*!< DWT CTR
 854:/Users/rdaneel/Binary/Roaming/C-Code/StmProjects/stm32f3x/lib/STM32F30x_DSP_StdPeriph_Lib_V1.2.3/Libraries/CMSIS/Include/core_cm4.h **** #define DWT_CTRL_SLEEPEVTENA_Msk           (0x1UL << DWT_CTRL_SLEEPEVTENA_Pos)         /*!< DWT CTR
 855:/Users/rdaneel/Binary/Roaming/C-Code/StmProjects/stm32f3x/lib/STM32F30x_DSP_StdPeriph_Lib_V1.2.3/Libraries/CMSIS/Include/core_cm4.h **** 
 856:/Users/rdaneel/Binary/Roaming/C-Code/StmProjects/stm32f3x/lib/STM32F30x_DSP_StdPeriph_Lib_V1.2.3/Libraries/CMSIS/Include/core_cm4.h **** #define DWT_CTRL_EXCEVTENA_Pos             18                                          /*!< DWT CTR
 857:/Users/rdaneel/Binary/Roaming/C-Code/StmProjects/stm32f3x/lib/STM32F30x_DSP_StdPeriph_Lib_V1.2.3/Libraries/CMSIS/Include/core_cm4.h **** #define DWT_CTRL_EXCEVTENA_Msk             (0x1UL << DWT_CTRL_EXCEVTENA_Pos)           /*!< DWT CTR
 858:/Users/rdaneel/Binary/Roaming/C-Code/StmProjects/stm32f3x/lib/STM32F30x_DSP_StdPeriph_Lib_V1.2.3/Libraries/CMSIS/Include/core_cm4.h **** 
 859:/Users/rdaneel/Binary/Roaming/C-Code/StmProjects/stm32f3x/lib/STM32F30x_DSP_StdPeriph_Lib_V1.2.3/Libraries/CMSIS/Include/core_cm4.h **** #define DWT_CTRL_CPIEVTENA_Pos             17                                          /*!< DWT CTR
 860:/Users/rdaneel/Binary/Roaming/C-Code/StmProjects/stm32f3x/lib/STM32F30x_DSP_StdPeriph_Lib_V1.2.3/Libraries/CMSIS/Include/core_cm4.h **** #define DWT_CTRL_CPIEVTENA_Msk             (0x1UL << DWT_CTRL_CPIEVTENA_Pos)           /*!< DWT CTR
 861:/Users/rdaneel/Binary/Roaming/C-Code/StmProjects/stm32f3x/lib/STM32F30x_DSP_StdPeriph_Lib_V1.2.3/Libraries/CMSIS/Include/core_cm4.h **** 
 862:/Users/rdaneel/Binary/Roaming/C-Code/StmProjects/stm32f3x/lib/STM32F30x_DSP_StdPeriph_Lib_V1.2.3/Libraries/CMSIS/Include/core_cm4.h **** #define DWT_CTRL_EXCTRCENA_Pos             16                                          /*!< DWT CTR
 863:/Users/rdaneel/Binary/Roaming/C-Code/StmProjects/stm32f3x/lib/STM32F30x_DSP_StdPeriph_Lib_V1.2.3/Libraries/CMSIS/Include/core_cm4.h **** #define DWT_CTRL_EXCTRCENA_Msk             (0x1UL << DWT_CTRL_EXCTRCENA_Pos)           /*!< DWT CTR
 864:/Users/rdaneel/Binary/Roaming/C-Code/StmProjects/stm32f3x/lib/STM32F30x_DSP_StdPeriph_Lib_V1.2.3/Libraries/CMSIS/Include/core_cm4.h **** 
 865:/Users/rdaneel/Binary/Roaming/C-Code/StmProjects/stm32f3x/lib/STM32F30x_DSP_StdPeriph_Lib_V1.2.3/Libraries/CMSIS/Include/core_cm4.h **** #define DWT_CTRL_PCSAMPLENA_Pos            12                                          /*!< DWT CTR
 866:/Users/rdaneel/Binary/Roaming/C-Code/StmProjects/stm32f3x/lib/STM32F30x_DSP_StdPeriph_Lib_V1.2.3/Libraries/CMSIS/Include/core_cm4.h **** #define DWT_CTRL_PCSAMPLENA_Msk            (0x1UL << DWT_CTRL_PCSAMPLENA_Pos)          /*!< DWT CTR
 867:/Users/rdaneel/Binary/Roaming/C-Code/StmProjects/stm32f3x/lib/STM32F30x_DSP_StdPeriph_Lib_V1.2.3/Libraries/CMSIS/Include/core_cm4.h **** 
 868:/Users/rdaneel/Binary/Roaming/C-Code/StmProjects/stm32f3x/lib/STM32F30x_DSP_StdPeriph_Lib_V1.2.3/Libraries/CMSIS/Include/core_cm4.h **** #define DWT_CTRL_SYNCTAP_Pos               10                                          /*!< DWT CTR
 869:/Users/rdaneel/Binary/Roaming/C-Code/StmProjects/stm32f3x/lib/STM32F30x_DSP_StdPeriph_Lib_V1.2.3/Libraries/CMSIS/Include/core_cm4.h **** #define DWT_CTRL_SYNCTAP_Msk               (0x3UL << DWT_CTRL_SYNCTAP_Pos)             /*!< DWT CTR
 870:/Users/rdaneel/Binary/Roaming/C-Code/StmProjects/stm32f3x/lib/STM32F30x_DSP_StdPeriph_Lib_V1.2.3/Libraries/CMSIS/Include/core_cm4.h **** 
 871:/Users/rdaneel/Binary/Roaming/C-Code/StmProjects/stm32f3x/lib/STM32F30x_DSP_StdPeriph_Lib_V1.2.3/Libraries/CMSIS/Include/core_cm4.h **** #define DWT_CTRL_CYCTAP_Pos                 9                                          /*!< DWT CTR
 872:/Users/rdaneel/Binary/Roaming/C-Code/StmProjects/stm32f3x/lib/STM32F30x_DSP_StdPeriph_Lib_V1.2.3/Libraries/CMSIS/Include/core_cm4.h **** #define DWT_CTRL_CYCTAP_Msk                (0x1UL << DWT_CTRL_CYCTAP_Pos)              /*!< DWT CTR
 873:/Users/rdaneel/Binary/Roaming/C-Code/StmProjects/stm32f3x/lib/STM32F30x_DSP_StdPeriph_Lib_V1.2.3/Libraries/CMSIS/Include/core_cm4.h **** 
 874:/Users/rdaneel/Binary/Roaming/C-Code/StmProjects/stm32f3x/lib/STM32F30x_DSP_StdPeriph_Lib_V1.2.3/Libraries/CMSIS/Include/core_cm4.h **** #define DWT_CTRL_POSTINIT_Pos               5                                          /*!< DWT CTR
 875:/Users/rdaneel/Binary/Roaming/C-Code/StmProjects/stm32f3x/lib/STM32F30x_DSP_StdPeriph_Lib_V1.2.3/Libraries/CMSIS/Include/core_cm4.h **** #define DWT_CTRL_POSTINIT_Msk              (0xFUL << DWT_CTRL_POSTINIT_Pos)            /*!< DWT CTR
 876:/Users/rdaneel/Binary/Roaming/C-Code/StmProjects/stm32f3x/lib/STM32F30x_DSP_StdPeriph_Lib_V1.2.3/Libraries/CMSIS/Include/core_cm4.h **** 
 877:/Users/rdaneel/Binary/Roaming/C-Code/StmProjects/stm32f3x/lib/STM32F30x_DSP_StdPeriph_Lib_V1.2.3/Libraries/CMSIS/Include/core_cm4.h **** #define DWT_CTRL_POSTPRESET_Pos             1                                          /*!< DWT CTR
 878:/Users/rdaneel/Binary/Roaming/C-Code/StmProjects/stm32f3x/lib/STM32F30x_DSP_StdPeriph_Lib_V1.2.3/Libraries/CMSIS/Include/core_cm4.h **** #define DWT_CTRL_POSTPRESET_Msk            (0xFUL << DWT_CTRL_POSTPRESET_Pos)          /*!< DWT CTR
 879:/Users/rdaneel/Binary/Roaming/C-Code/StmProjects/stm32f3x/lib/STM32F30x_DSP_StdPeriph_Lib_V1.2.3/Libraries/CMSIS/Include/core_cm4.h **** 
 880:/Users/rdaneel/Binary/Roaming/C-Code/StmProjects/stm32f3x/lib/STM32F30x_DSP_StdPeriph_Lib_V1.2.3/Libraries/CMSIS/Include/core_cm4.h **** #define DWT_CTRL_CYCCNTENA_Pos              0                                          /*!< DWT CTR
 881:/Users/rdaneel/Binary/Roaming/C-Code/StmProjects/stm32f3x/lib/STM32F30x_DSP_StdPeriph_Lib_V1.2.3/Libraries/CMSIS/Include/core_cm4.h **** #define DWT_CTRL_CYCCNTENA_Msk             (0x1UL << DWT_CTRL_CYCCNTENA_Pos)           /*!< DWT CTR
 882:/Users/rdaneel/Binary/Roaming/C-Code/StmProjects/stm32f3x/lib/STM32F30x_DSP_StdPeriph_Lib_V1.2.3/Libraries/CMSIS/Include/core_cm4.h **** 
 883:/Users/rdaneel/Binary/Roaming/C-Code/StmProjects/stm32f3x/lib/STM32F30x_DSP_StdPeriph_Lib_V1.2.3/Libraries/CMSIS/Include/core_cm4.h **** /* DWT CPI Count Register Definitions */
 884:/Users/rdaneel/Binary/Roaming/C-Code/StmProjects/stm32f3x/lib/STM32F30x_DSP_StdPeriph_Lib_V1.2.3/Libraries/CMSIS/Include/core_cm4.h **** #define DWT_CPICNT_CPICNT_Pos               0                                          /*!< DWT CPI
 885:/Users/rdaneel/Binary/Roaming/C-Code/StmProjects/stm32f3x/lib/STM32F30x_DSP_StdPeriph_Lib_V1.2.3/Libraries/CMSIS/Include/core_cm4.h **** #define DWT_CPICNT_CPICNT_Msk              (0xFFUL << DWT_CPICNT_CPICNT_Pos)           /*!< DWT CPI
 886:/Users/rdaneel/Binary/Roaming/C-Code/StmProjects/stm32f3x/lib/STM32F30x_DSP_StdPeriph_Lib_V1.2.3/Libraries/CMSIS/Include/core_cm4.h **** 
 887:/Users/rdaneel/Binary/Roaming/C-Code/StmProjects/stm32f3x/lib/STM32F30x_DSP_StdPeriph_Lib_V1.2.3/Libraries/CMSIS/Include/core_cm4.h **** /* DWT Exception Overhead Count Register Definitions */
 888:/Users/rdaneel/Binary/Roaming/C-Code/StmProjects/stm32f3x/lib/STM32F30x_DSP_StdPeriph_Lib_V1.2.3/Libraries/CMSIS/Include/core_cm4.h **** #define DWT_EXCCNT_EXCCNT_Pos               0                                          /*!< DWT EXC
 889:/Users/rdaneel/Binary/Roaming/C-Code/StmProjects/stm32f3x/lib/STM32F30x_DSP_StdPeriph_Lib_V1.2.3/Libraries/CMSIS/Include/core_cm4.h **** #define DWT_EXCCNT_EXCCNT_Msk              (0xFFUL << DWT_EXCCNT_EXCCNT_Pos)           /*!< DWT EXC
 890:/Users/rdaneel/Binary/Roaming/C-Code/StmProjects/stm32f3x/lib/STM32F30x_DSP_StdPeriph_Lib_V1.2.3/Libraries/CMSIS/Include/core_cm4.h **** 
 891:/Users/rdaneel/Binary/Roaming/C-Code/StmProjects/stm32f3x/lib/STM32F30x_DSP_StdPeriph_Lib_V1.2.3/Libraries/CMSIS/Include/core_cm4.h **** /* DWT Sleep Count Register Definitions */
 892:/Users/rdaneel/Binary/Roaming/C-Code/StmProjects/stm32f3x/lib/STM32F30x_DSP_StdPeriph_Lib_V1.2.3/Libraries/CMSIS/Include/core_cm4.h **** #define DWT_SLEEPCNT_SLEEPCNT_Pos           0                                          /*!< DWT SLE
 893:/Users/rdaneel/Binary/Roaming/C-Code/StmProjects/stm32f3x/lib/STM32F30x_DSP_StdPeriph_Lib_V1.2.3/Libraries/CMSIS/Include/core_cm4.h **** #define DWT_SLEEPCNT_SLEEPCNT_Msk          (0xFFUL << DWT_SLEEPCNT_SLEEPCNT_Pos)       /*!< DWT SLE
 894:/Users/rdaneel/Binary/Roaming/C-Code/StmProjects/stm32f3x/lib/STM32F30x_DSP_StdPeriph_Lib_V1.2.3/Libraries/CMSIS/Include/core_cm4.h **** 
 895:/Users/rdaneel/Binary/Roaming/C-Code/StmProjects/stm32f3x/lib/STM32F30x_DSP_StdPeriph_Lib_V1.2.3/Libraries/CMSIS/Include/core_cm4.h **** /* DWT LSU Count Register Definitions */
 896:/Users/rdaneel/Binary/Roaming/C-Code/StmProjects/stm32f3x/lib/STM32F30x_DSP_StdPeriph_Lib_V1.2.3/Libraries/CMSIS/Include/core_cm4.h **** #define DWT_LSUCNT_LSUCNT_Pos               0                                          /*!< DWT LSU
 897:/Users/rdaneel/Binary/Roaming/C-Code/StmProjects/stm32f3x/lib/STM32F30x_DSP_StdPeriph_Lib_V1.2.3/Libraries/CMSIS/Include/core_cm4.h **** #define DWT_LSUCNT_LSUCNT_Msk              (0xFFUL << DWT_LSUCNT_LSUCNT_Pos)           /*!< DWT LSU
 898:/Users/rdaneel/Binary/Roaming/C-Code/StmProjects/stm32f3x/lib/STM32F30x_DSP_StdPeriph_Lib_V1.2.3/Libraries/CMSIS/Include/core_cm4.h **** 
 899:/Users/rdaneel/Binary/Roaming/C-Code/StmProjects/stm32f3x/lib/STM32F30x_DSP_StdPeriph_Lib_V1.2.3/Libraries/CMSIS/Include/core_cm4.h **** /* DWT Folded-instruction Count Register Definitions */
 900:/Users/rdaneel/Binary/Roaming/C-Code/StmProjects/stm32f3x/lib/STM32F30x_DSP_StdPeriph_Lib_V1.2.3/Libraries/CMSIS/Include/core_cm4.h **** #define DWT_FOLDCNT_FOLDCNT_Pos             0                                          /*!< DWT FOL
 901:/Users/rdaneel/Binary/Roaming/C-Code/StmProjects/stm32f3x/lib/STM32F30x_DSP_StdPeriph_Lib_V1.2.3/Libraries/CMSIS/Include/core_cm4.h **** #define DWT_FOLDCNT_FOLDCNT_Msk            (0xFFUL << DWT_FOLDCNT_FOLDCNT_Pos)         /*!< DWT FOL
 902:/Users/rdaneel/Binary/Roaming/C-Code/StmProjects/stm32f3x/lib/STM32F30x_DSP_StdPeriph_Lib_V1.2.3/Libraries/CMSIS/Include/core_cm4.h **** 
 903:/Users/rdaneel/Binary/Roaming/C-Code/StmProjects/stm32f3x/lib/STM32F30x_DSP_StdPeriph_Lib_V1.2.3/Libraries/CMSIS/Include/core_cm4.h **** /* DWT Comparator Mask Register Definitions */
 904:/Users/rdaneel/Binary/Roaming/C-Code/StmProjects/stm32f3x/lib/STM32F30x_DSP_StdPeriph_Lib_V1.2.3/Libraries/CMSIS/Include/core_cm4.h **** #define DWT_MASK_MASK_Pos                   0                                          /*!< DWT MAS
 905:/Users/rdaneel/Binary/Roaming/C-Code/StmProjects/stm32f3x/lib/STM32F30x_DSP_StdPeriph_Lib_V1.2.3/Libraries/CMSIS/Include/core_cm4.h **** #define DWT_MASK_MASK_Msk                  (0x1FUL << DWT_MASK_MASK_Pos)               /*!< DWT MAS
 906:/Users/rdaneel/Binary/Roaming/C-Code/StmProjects/stm32f3x/lib/STM32F30x_DSP_StdPeriph_Lib_V1.2.3/Libraries/CMSIS/Include/core_cm4.h **** 
 907:/Users/rdaneel/Binary/Roaming/C-Code/StmProjects/stm32f3x/lib/STM32F30x_DSP_StdPeriph_Lib_V1.2.3/Libraries/CMSIS/Include/core_cm4.h **** /* DWT Comparator Function Register Definitions */
 908:/Users/rdaneel/Binary/Roaming/C-Code/StmProjects/stm32f3x/lib/STM32F30x_DSP_StdPeriph_Lib_V1.2.3/Libraries/CMSIS/Include/core_cm4.h **** #define DWT_FUNCTION_MATCHED_Pos           24                                          /*!< DWT FUN
 909:/Users/rdaneel/Binary/Roaming/C-Code/StmProjects/stm32f3x/lib/STM32F30x_DSP_StdPeriph_Lib_V1.2.3/Libraries/CMSIS/Include/core_cm4.h **** #define DWT_FUNCTION_MATCHED_Msk           (0x1UL << DWT_FUNCTION_MATCHED_Pos)         /*!< DWT FUN
ARM GAS  /var/folders/_2/qbh2zpt918qcm2b_6mgyydnm0000gn/T//ccOjgwl7.s 			page 33


 910:/Users/rdaneel/Binary/Roaming/C-Code/StmProjects/stm32f3x/lib/STM32F30x_DSP_StdPeriph_Lib_V1.2.3/Libraries/CMSIS/Include/core_cm4.h **** 
 911:/Users/rdaneel/Binary/Roaming/C-Code/StmProjects/stm32f3x/lib/STM32F30x_DSP_StdPeriph_Lib_V1.2.3/Libraries/CMSIS/Include/core_cm4.h **** #define DWT_FUNCTION_DATAVADDR1_Pos        16                                          /*!< DWT FUN
 912:/Users/rdaneel/Binary/Roaming/C-Code/StmProjects/stm32f3x/lib/STM32F30x_DSP_StdPeriph_Lib_V1.2.3/Libraries/CMSIS/Include/core_cm4.h **** #define DWT_FUNCTION_DATAVADDR1_Msk        (0xFUL << DWT_FUNCTION_DATAVADDR1_Pos)      /*!< DWT FUN
 913:/Users/rdaneel/Binary/Roaming/C-Code/StmProjects/stm32f3x/lib/STM32F30x_DSP_StdPeriph_Lib_V1.2.3/Libraries/CMSIS/Include/core_cm4.h **** 
 914:/Users/rdaneel/Binary/Roaming/C-Code/StmProjects/stm32f3x/lib/STM32F30x_DSP_StdPeriph_Lib_V1.2.3/Libraries/CMSIS/Include/core_cm4.h **** #define DWT_FUNCTION_DATAVADDR0_Pos        12                                          /*!< DWT FUN
 915:/Users/rdaneel/Binary/Roaming/C-Code/StmProjects/stm32f3x/lib/STM32F30x_DSP_StdPeriph_Lib_V1.2.3/Libraries/CMSIS/Include/core_cm4.h **** #define DWT_FUNCTION_DATAVADDR0_Msk        (0xFUL << DWT_FUNCTION_DATAVADDR0_Pos)      /*!< DWT FUN
 916:/Users/rdaneel/Binary/Roaming/C-Code/StmProjects/stm32f3x/lib/STM32F30x_DSP_StdPeriph_Lib_V1.2.3/Libraries/CMSIS/Include/core_cm4.h **** 
 917:/Users/rdaneel/Binary/Roaming/C-Code/StmProjects/stm32f3x/lib/STM32F30x_DSP_StdPeriph_Lib_V1.2.3/Libraries/CMSIS/Include/core_cm4.h **** #define DWT_FUNCTION_DATAVSIZE_Pos         10                                          /*!< DWT FUN
 918:/Users/rdaneel/Binary/Roaming/C-Code/StmProjects/stm32f3x/lib/STM32F30x_DSP_StdPeriph_Lib_V1.2.3/Libraries/CMSIS/Include/core_cm4.h **** #define DWT_FUNCTION_DATAVSIZE_Msk         (0x3UL << DWT_FUNCTION_DATAVSIZE_Pos)       /*!< DWT FUN
 919:/Users/rdaneel/Binary/Roaming/C-Code/StmProjects/stm32f3x/lib/STM32F30x_DSP_StdPeriph_Lib_V1.2.3/Libraries/CMSIS/Include/core_cm4.h **** 
 920:/Users/rdaneel/Binary/Roaming/C-Code/StmProjects/stm32f3x/lib/STM32F30x_DSP_StdPeriph_Lib_V1.2.3/Libraries/CMSIS/Include/core_cm4.h **** #define DWT_FUNCTION_LNK1ENA_Pos            9                                          /*!< DWT FUN
 921:/Users/rdaneel/Binary/Roaming/C-Code/StmProjects/stm32f3x/lib/STM32F30x_DSP_StdPeriph_Lib_V1.2.3/Libraries/CMSIS/Include/core_cm4.h **** #define DWT_FUNCTION_LNK1ENA_Msk           (0x1UL << DWT_FUNCTION_LNK1ENA_Pos)         /*!< DWT FUN
 922:/Users/rdaneel/Binary/Roaming/C-Code/StmProjects/stm32f3x/lib/STM32F30x_DSP_StdPeriph_Lib_V1.2.3/Libraries/CMSIS/Include/core_cm4.h **** 
 923:/Users/rdaneel/Binary/Roaming/C-Code/StmProjects/stm32f3x/lib/STM32F30x_DSP_StdPeriph_Lib_V1.2.3/Libraries/CMSIS/Include/core_cm4.h **** #define DWT_FUNCTION_DATAVMATCH_Pos         8                                          /*!< DWT FUN
 924:/Users/rdaneel/Binary/Roaming/C-Code/StmProjects/stm32f3x/lib/STM32F30x_DSP_StdPeriph_Lib_V1.2.3/Libraries/CMSIS/Include/core_cm4.h **** #define DWT_FUNCTION_DATAVMATCH_Msk        (0x1UL << DWT_FUNCTION_DATAVMATCH_Pos)      /*!< DWT FUN
 925:/Users/rdaneel/Binary/Roaming/C-Code/StmProjects/stm32f3x/lib/STM32F30x_DSP_StdPeriph_Lib_V1.2.3/Libraries/CMSIS/Include/core_cm4.h **** 
 926:/Users/rdaneel/Binary/Roaming/C-Code/StmProjects/stm32f3x/lib/STM32F30x_DSP_StdPeriph_Lib_V1.2.3/Libraries/CMSIS/Include/core_cm4.h **** #define DWT_FUNCTION_CYCMATCH_Pos           7                                          /*!< DWT FUN
 927:/Users/rdaneel/Binary/Roaming/C-Code/StmProjects/stm32f3x/lib/STM32F30x_DSP_StdPeriph_Lib_V1.2.3/Libraries/CMSIS/Include/core_cm4.h **** #define DWT_FUNCTION_CYCMATCH_Msk          (0x1UL << DWT_FUNCTION_CYCMATCH_Pos)        /*!< DWT FUN
 928:/Users/rdaneel/Binary/Roaming/C-Code/StmProjects/stm32f3x/lib/STM32F30x_DSP_StdPeriph_Lib_V1.2.3/Libraries/CMSIS/Include/core_cm4.h **** 
 929:/Users/rdaneel/Binary/Roaming/C-Code/StmProjects/stm32f3x/lib/STM32F30x_DSP_StdPeriph_Lib_V1.2.3/Libraries/CMSIS/Include/core_cm4.h **** #define DWT_FUNCTION_EMITRANGE_Pos          5                                          /*!< DWT FUN
 930:/Users/rdaneel/Binary/Roaming/C-Code/StmProjects/stm32f3x/lib/STM32F30x_DSP_StdPeriph_Lib_V1.2.3/Libraries/CMSIS/Include/core_cm4.h **** #define DWT_FUNCTION_EMITRANGE_Msk         (0x1UL << DWT_FUNCTION_EMITRANGE_Pos)       /*!< DWT FUN
 931:/Users/rdaneel/Binary/Roaming/C-Code/StmProjects/stm32f3x/lib/STM32F30x_DSP_StdPeriph_Lib_V1.2.3/Libraries/CMSIS/Include/core_cm4.h **** 
 932:/Users/rdaneel/Binary/Roaming/C-Code/StmProjects/stm32f3x/lib/STM32F30x_DSP_StdPeriph_Lib_V1.2.3/Libraries/CMSIS/Include/core_cm4.h **** #define DWT_FUNCTION_FUNCTION_Pos           0                                          /*!< DWT FUN
 933:/Users/rdaneel/Binary/Roaming/C-Code/StmProjects/stm32f3x/lib/STM32F30x_DSP_StdPeriph_Lib_V1.2.3/Libraries/CMSIS/Include/core_cm4.h **** #define DWT_FUNCTION_FUNCTION_Msk          (0xFUL << DWT_FUNCTION_FUNCTION_Pos)        /*!< DWT FUN
 934:/Users/rdaneel/Binary/Roaming/C-Code/StmProjects/stm32f3x/lib/STM32F30x_DSP_StdPeriph_Lib_V1.2.3/Libraries/CMSIS/Include/core_cm4.h **** 
 935:/Users/rdaneel/Binary/Roaming/C-Code/StmProjects/stm32f3x/lib/STM32F30x_DSP_StdPeriph_Lib_V1.2.3/Libraries/CMSIS/Include/core_cm4.h **** /*@}*/ /* end of group CMSIS_DWT */
 936:/Users/rdaneel/Binary/Roaming/C-Code/StmProjects/stm32f3x/lib/STM32F30x_DSP_StdPeriph_Lib_V1.2.3/Libraries/CMSIS/Include/core_cm4.h **** 
 937:/Users/rdaneel/Binary/Roaming/C-Code/StmProjects/stm32f3x/lib/STM32F30x_DSP_StdPeriph_Lib_V1.2.3/Libraries/CMSIS/Include/core_cm4.h **** 
 938:/Users/rdaneel/Binary/Roaming/C-Code/StmProjects/stm32f3x/lib/STM32F30x_DSP_StdPeriph_Lib_V1.2.3/Libraries/CMSIS/Include/core_cm4.h **** /** \ingroup  CMSIS_core_register
 939:/Users/rdaneel/Binary/Roaming/C-Code/StmProjects/stm32f3x/lib/STM32F30x_DSP_StdPeriph_Lib_V1.2.3/Libraries/CMSIS/Include/core_cm4.h ****     \defgroup CMSIS_TPI     Trace Port Interface (TPI)
 940:/Users/rdaneel/Binary/Roaming/C-Code/StmProjects/stm32f3x/lib/STM32F30x_DSP_StdPeriph_Lib_V1.2.3/Libraries/CMSIS/Include/core_cm4.h ****     \brief      Type definitions for the Trace Port Interface (TPI)
 941:/Users/rdaneel/Binary/Roaming/C-Code/StmProjects/stm32f3x/lib/STM32F30x_DSP_StdPeriph_Lib_V1.2.3/Libraries/CMSIS/Include/core_cm4.h ****   @{
 942:/Users/rdaneel/Binary/Roaming/C-Code/StmProjects/stm32f3x/lib/STM32F30x_DSP_StdPeriph_Lib_V1.2.3/Libraries/CMSIS/Include/core_cm4.h ****  */
 943:/Users/rdaneel/Binary/Roaming/C-Code/StmProjects/stm32f3x/lib/STM32F30x_DSP_StdPeriph_Lib_V1.2.3/Libraries/CMSIS/Include/core_cm4.h **** 
 944:/Users/rdaneel/Binary/Roaming/C-Code/StmProjects/stm32f3x/lib/STM32F30x_DSP_StdPeriph_Lib_V1.2.3/Libraries/CMSIS/Include/core_cm4.h **** /** \brief  Structure type to access the Trace Port Interface Register (TPI).
 945:/Users/rdaneel/Binary/Roaming/C-Code/StmProjects/stm32f3x/lib/STM32F30x_DSP_StdPeriph_Lib_V1.2.3/Libraries/CMSIS/Include/core_cm4.h ****  */
 946:/Users/rdaneel/Binary/Roaming/C-Code/StmProjects/stm32f3x/lib/STM32F30x_DSP_StdPeriph_Lib_V1.2.3/Libraries/CMSIS/Include/core_cm4.h **** typedef struct
 947:/Users/rdaneel/Binary/Roaming/C-Code/StmProjects/stm32f3x/lib/STM32F30x_DSP_StdPeriph_Lib_V1.2.3/Libraries/CMSIS/Include/core_cm4.h **** {
 948:/Users/rdaneel/Binary/Roaming/C-Code/StmProjects/stm32f3x/lib/STM32F30x_DSP_StdPeriph_Lib_V1.2.3/Libraries/CMSIS/Include/core_cm4.h ****   __IO uint32_t SSPSR;                   /*!< Offset: 0x000 (R/ )  Supported Parallel Port Size Reg
 949:/Users/rdaneel/Binary/Roaming/C-Code/StmProjects/stm32f3x/lib/STM32F30x_DSP_StdPeriph_Lib_V1.2.3/Libraries/CMSIS/Include/core_cm4.h ****   __IO uint32_t CSPSR;                   /*!< Offset: 0x004 (R/W)  Current Parallel Port Size Regis
 950:/Users/rdaneel/Binary/Roaming/C-Code/StmProjects/stm32f3x/lib/STM32F30x_DSP_StdPeriph_Lib_V1.2.3/Libraries/CMSIS/Include/core_cm4.h ****        uint32_t RESERVED0[2];
 951:/Users/rdaneel/Binary/Roaming/C-Code/StmProjects/stm32f3x/lib/STM32F30x_DSP_StdPeriph_Lib_V1.2.3/Libraries/CMSIS/Include/core_cm4.h ****   __IO uint32_t ACPR;                    /*!< Offset: 0x010 (R/W)  Asynchronous Clock Prescaler Reg
 952:/Users/rdaneel/Binary/Roaming/C-Code/StmProjects/stm32f3x/lib/STM32F30x_DSP_StdPeriph_Lib_V1.2.3/Libraries/CMSIS/Include/core_cm4.h ****        uint32_t RESERVED1[55];
 953:/Users/rdaneel/Binary/Roaming/C-Code/StmProjects/stm32f3x/lib/STM32F30x_DSP_StdPeriph_Lib_V1.2.3/Libraries/CMSIS/Include/core_cm4.h ****   __IO uint32_t SPPR;                    /*!< Offset: 0x0F0 (R/W)  Selected Pin Protocol Register *
 954:/Users/rdaneel/Binary/Roaming/C-Code/StmProjects/stm32f3x/lib/STM32F30x_DSP_StdPeriph_Lib_V1.2.3/Libraries/CMSIS/Include/core_cm4.h ****        uint32_t RESERVED2[131];
 955:/Users/rdaneel/Binary/Roaming/C-Code/StmProjects/stm32f3x/lib/STM32F30x_DSP_StdPeriph_Lib_V1.2.3/Libraries/CMSIS/Include/core_cm4.h ****   __I  uint32_t FFSR;                    /*!< Offset: 0x300 (R/ )  Formatter and Flush Status Regis
 956:/Users/rdaneel/Binary/Roaming/C-Code/StmProjects/stm32f3x/lib/STM32F30x_DSP_StdPeriph_Lib_V1.2.3/Libraries/CMSIS/Include/core_cm4.h ****   __IO uint32_t FFCR;                    /*!< Offset: 0x304 (R/W)  Formatter and Flush Control Regi
 957:/Users/rdaneel/Binary/Roaming/C-Code/StmProjects/stm32f3x/lib/STM32F30x_DSP_StdPeriph_Lib_V1.2.3/Libraries/CMSIS/Include/core_cm4.h ****   __I  uint32_t FSCR;                    /*!< Offset: 0x308 (R/ )  Formatter Synchronization Counte
 958:/Users/rdaneel/Binary/Roaming/C-Code/StmProjects/stm32f3x/lib/STM32F30x_DSP_StdPeriph_Lib_V1.2.3/Libraries/CMSIS/Include/core_cm4.h ****        uint32_t RESERVED3[759];
 959:/Users/rdaneel/Binary/Roaming/C-Code/StmProjects/stm32f3x/lib/STM32F30x_DSP_StdPeriph_Lib_V1.2.3/Libraries/CMSIS/Include/core_cm4.h ****   __I  uint32_t TRIGGER;                 /*!< Offset: 0xEE8 (R/ )  TRIGGER */
 960:/Users/rdaneel/Binary/Roaming/C-Code/StmProjects/stm32f3x/lib/STM32F30x_DSP_StdPeriph_Lib_V1.2.3/Libraries/CMSIS/Include/core_cm4.h ****   __I  uint32_t FIFO0;                   /*!< Offset: 0xEEC (R/ )  Integration ETM Data */
 961:/Users/rdaneel/Binary/Roaming/C-Code/StmProjects/stm32f3x/lib/STM32F30x_DSP_StdPeriph_Lib_V1.2.3/Libraries/CMSIS/Include/core_cm4.h ****   __I  uint32_t ITATBCTR2;               /*!< Offset: 0xEF0 (R/ )  ITATBCTR2 */
 962:/Users/rdaneel/Binary/Roaming/C-Code/StmProjects/stm32f3x/lib/STM32F30x_DSP_StdPeriph_Lib_V1.2.3/Libraries/CMSIS/Include/core_cm4.h ****        uint32_t RESERVED4[1];
 963:/Users/rdaneel/Binary/Roaming/C-Code/StmProjects/stm32f3x/lib/STM32F30x_DSP_StdPeriph_Lib_V1.2.3/Libraries/CMSIS/Include/core_cm4.h ****   __I  uint32_t ITATBCTR0;               /*!< Offset: 0xEF8 (R/ )  ITATBCTR0 */
 964:/Users/rdaneel/Binary/Roaming/C-Code/StmProjects/stm32f3x/lib/STM32F30x_DSP_StdPeriph_Lib_V1.2.3/Libraries/CMSIS/Include/core_cm4.h ****   __I  uint32_t FIFO1;                   /*!< Offset: 0xEFC (R/ )  Integration ITM Data */
 965:/Users/rdaneel/Binary/Roaming/C-Code/StmProjects/stm32f3x/lib/STM32F30x_DSP_StdPeriph_Lib_V1.2.3/Libraries/CMSIS/Include/core_cm4.h ****   __IO uint32_t ITCTRL;                  /*!< Offset: 0xF00 (R/W)  Integration Mode Control */
 966:/Users/rdaneel/Binary/Roaming/C-Code/StmProjects/stm32f3x/lib/STM32F30x_DSP_StdPeriph_Lib_V1.2.3/Libraries/CMSIS/Include/core_cm4.h ****        uint32_t RESERVED5[39];
ARM GAS  /var/folders/_2/qbh2zpt918qcm2b_6mgyydnm0000gn/T//ccOjgwl7.s 			page 34


 967:/Users/rdaneel/Binary/Roaming/C-Code/StmProjects/stm32f3x/lib/STM32F30x_DSP_StdPeriph_Lib_V1.2.3/Libraries/CMSIS/Include/core_cm4.h ****   __IO uint32_t CLAIMSET;                /*!< Offset: 0xFA0 (R/W)  Claim tag set */
 968:/Users/rdaneel/Binary/Roaming/C-Code/StmProjects/stm32f3x/lib/STM32F30x_DSP_StdPeriph_Lib_V1.2.3/Libraries/CMSIS/Include/core_cm4.h ****   __IO uint32_t CLAIMCLR;                /*!< Offset: 0xFA4 (R/W)  Claim tag clear */
 969:/Users/rdaneel/Binary/Roaming/C-Code/StmProjects/stm32f3x/lib/STM32F30x_DSP_StdPeriph_Lib_V1.2.3/Libraries/CMSIS/Include/core_cm4.h ****        uint32_t RESERVED7[8];
 970:/Users/rdaneel/Binary/Roaming/C-Code/StmProjects/stm32f3x/lib/STM32F30x_DSP_StdPeriph_Lib_V1.2.3/Libraries/CMSIS/Include/core_cm4.h ****   __I  uint32_t DEVID;                   /*!< Offset: 0xFC8 (R/ )  TPIU_DEVID */
 971:/Users/rdaneel/Binary/Roaming/C-Code/StmProjects/stm32f3x/lib/STM32F30x_DSP_StdPeriph_Lib_V1.2.3/Libraries/CMSIS/Include/core_cm4.h ****   __I  uint32_t DEVTYPE;                 /*!< Offset: 0xFCC (R/ )  TPIU_DEVTYPE */
 972:/Users/rdaneel/Binary/Roaming/C-Code/StmProjects/stm32f3x/lib/STM32F30x_DSP_StdPeriph_Lib_V1.2.3/Libraries/CMSIS/Include/core_cm4.h **** } TPI_Type;
 973:/Users/rdaneel/Binary/Roaming/C-Code/StmProjects/stm32f3x/lib/STM32F30x_DSP_StdPeriph_Lib_V1.2.3/Libraries/CMSIS/Include/core_cm4.h **** 
 974:/Users/rdaneel/Binary/Roaming/C-Code/StmProjects/stm32f3x/lib/STM32F30x_DSP_StdPeriph_Lib_V1.2.3/Libraries/CMSIS/Include/core_cm4.h **** /* TPI Asynchronous Clock Prescaler Register Definitions */
 975:/Users/rdaneel/Binary/Roaming/C-Code/StmProjects/stm32f3x/lib/STM32F30x_DSP_StdPeriph_Lib_V1.2.3/Libraries/CMSIS/Include/core_cm4.h **** #define TPI_ACPR_PRESCALER_Pos              0                                          /*!< TPI ACP
 976:/Users/rdaneel/Binary/Roaming/C-Code/StmProjects/stm32f3x/lib/STM32F30x_DSP_StdPeriph_Lib_V1.2.3/Libraries/CMSIS/Include/core_cm4.h **** #define TPI_ACPR_PRESCALER_Msk             (0x1FFFUL << TPI_ACPR_PRESCALER_Pos)        /*!< TPI ACP
 977:/Users/rdaneel/Binary/Roaming/C-Code/StmProjects/stm32f3x/lib/STM32F30x_DSP_StdPeriph_Lib_V1.2.3/Libraries/CMSIS/Include/core_cm4.h **** 
 978:/Users/rdaneel/Binary/Roaming/C-Code/StmProjects/stm32f3x/lib/STM32F30x_DSP_StdPeriph_Lib_V1.2.3/Libraries/CMSIS/Include/core_cm4.h **** /* TPI Selected Pin Protocol Register Definitions */
 979:/Users/rdaneel/Binary/Roaming/C-Code/StmProjects/stm32f3x/lib/STM32F30x_DSP_StdPeriph_Lib_V1.2.3/Libraries/CMSIS/Include/core_cm4.h **** #define TPI_SPPR_TXMODE_Pos                 0                                          /*!< TPI SPP
 980:/Users/rdaneel/Binary/Roaming/C-Code/StmProjects/stm32f3x/lib/STM32F30x_DSP_StdPeriph_Lib_V1.2.3/Libraries/CMSIS/Include/core_cm4.h **** #define TPI_SPPR_TXMODE_Msk                (0x3UL << TPI_SPPR_TXMODE_Pos)              /*!< TPI SPP
 981:/Users/rdaneel/Binary/Roaming/C-Code/StmProjects/stm32f3x/lib/STM32F30x_DSP_StdPeriph_Lib_V1.2.3/Libraries/CMSIS/Include/core_cm4.h **** 
 982:/Users/rdaneel/Binary/Roaming/C-Code/StmProjects/stm32f3x/lib/STM32F30x_DSP_StdPeriph_Lib_V1.2.3/Libraries/CMSIS/Include/core_cm4.h **** /* TPI Formatter and Flush Status Register Definitions */
 983:/Users/rdaneel/Binary/Roaming/C-Code/StmProjects/stm32f3x/lib/STM32F30x_DSP_StdPeriph_Lib_V1.2.3/Libraries/CMSIS/Include/core_cm4.h **** #define TPI_FFSR_FtNonStop_Pos              3                                          /*!< TPI FFS
 984:/Users/rdaneel/Binary/Roaming/C-Code/StmProjects/stm32f3x/lib/STM32F30x_DSP_StdPeriph_Lib_V1.2.3/Libraries/CMSIS/Include/core_cm4.h **** #define TPI_FFSR_FtNonStop_Msk             (0x1UL << TPI_FFSR_FtNonStop_Pos)           /*!< TPI FFS
 985:/Users/rdaneel/Binary/Roaming/C-Code/StmProjects/stm32f3x/lib/STM32F30x_DSP_StdPeriph_Lib_V1.2.3/Libraries/CMSIS/Include/core_cm4.h **** 
 986:/Users/rdaneel/Binary/Roaming/C-Code/StmProjects/stm32f3x/lib/STM32F30x_DSP_StdPeriph_Lib_V1.2.3/Libraries/CMSIS/Include/core_cm4.h **** #define TPI_FFSR_TCPresent_Pos              2                                          /*!< TPI FFS
 987:/Users/rdaneel/Binary/Roaming/C-Code/StmProjects/stm32f3x/lib/STM32F30x_DSP_StdPeriph_Lib_V1.2.3/Libraries/CMSIS/Include/core_cm4.h **** #define TPI_FFSR_TCPresent_Msk             (0x1UL << TPI_FFSR_TCPresent_Pos)           /*!< TPI FFS
 988:/Users/rdaneel/Binary/Roaming/C-Code/StmProjects/stm32f3x/lib/STM32F30x_DSP_StdPeriph_Lib_V1.2.3/Libraries/CMSIS/Include/core_cm4.h **** 
