ARM GAS  /var/folders/_2/qbh2zpt918qcm2b_6mgyydnm0000gn/T//ccmxyJw1.s 			page 1


   1              		.cpu cortex-m4
   2              		.eabi_attribute 20, 1	@ Tag_ABI_FP_denormal
   3              		.eabi_attribute 21, 1	@ Tag_ABI_FP_exceptions
   4              		.eabi_attribute 23, 3	@ Tag_ABI_FP_number_model
   5              		.eabi_attribute 24, 1	@ Tag_ABI_align8_needed
   6              		.eabi_attribute 25, 1	@ Tag_ABI_align8_preserved
   7              		.eabi_attribute 26, 1	@ Tag_ABI_enum_size
   8              		.eabi_attribute 30, 4	@ Tag_ABI_optimization_goals
   9              		.eabi_attribute 34, 1	@ Tag_CPU_unaligned_access
  10              		.eabi_attribute 18, 4	@ Tag_ABI_PCS_wchar_t
  11              		.file	"usart.c"
  12              	@ GNU C17 (GNU Tools for Arm Embedded Processors 9-2019-q4-major) version 9.2.1 20191025 (release) 
  13              	@	compiled by GNU C version 4.2.1 Compatible Apple LLVM 9.0.0 (clang-900.0.39.2), GMP version 6.1.0
  14              	
  15              	@ GGC heuristics: --param ggc-min-expand=100 --param ggc-min-heapsize=131072
  16              	@ options passed:  -I .
  17              	@ -I /Users/rdaneel/Binary/Roaming/C-Code/StmProjects/stm32f3x/lib/STM32F30x_DSP_StdPeriph_Lib_V1.2
  18              	@ -I /Users/rdaneel/Binary/Roaming/C-Code/StmProjects/stm32f3x/lib/STM32F30x_DSP_StdPeriph_Lib_V1.2
  19              	@ -I /Users/rdaneel/Binary/Roaming/C-Code/StmProjects/stm32f3x/lib/STM32F30x_DSP_StdPeriph_Lib_V1.2
  20              	@ -imultilib thumb/v7e-m/nofp
  21              	@ -iprefix /usr/local/Cellar/arm-none-eabi-gcc/9-2019-q4-major/gcc/bin/../lib/gcc/arm-none-eabi/9.2
  22              	@ -isysroot /usr/local/Cellar/arm-none-eabi-gcc/9-2019-q4-major/gcc/bin/../arm-none-eabi
  23              	@ -D__USES_INITFINI__ -D STM32F30X_MD -D USE_STDPERIPH_DRIVER
  24              	@ -D HSE_VALUE=8000000 -D RUN_FROM_FLASH=1 usart.c -mcpu=cortex-m4 -mthumb
  25              	@ -mfloat-abi=soft -march=armv7e-m -auxbase-strip usart.o -g -gdwarf-2 -Os
  26              	@ -Wall -fomit-frame-pointer -fverbose-asm
  27              	@ options enabled:  -faggressive-loop-optimizations -fassume-phsa
  28              	@ -fauto-inc-dec -fbranch-count-reg -fcaller-saves -fcode-hoisting
  29              	@ -fcombine-stack-adjustments -fcommon -fcompare-elim -fcprop-registers
  30              	@ -fcrossjumping -fcse-follow-jumps -fdefer-pop
  31              	@ -fdelete-null-pointer-checks -fdevirtualize -fdevirtualize-speculatively
  32              	@ -fdwarf2-cfi-asm -fearly-inlining -feliminate-unused-debug-types
  33              	@ -fexpensive-optimizations -fforward-propagate -ffp-int-builtin-inexact
  34              	@ -ffunction-cse -fgcse -fgcse-lm -fgnu-runtime -fgnu-unique
  35              	@ -fguess-branch-probability -fhoist-adjacent-loads -fident -fif-conversion
  36              	@ -fif-conversion2 -findirect-inlining -finline -finline-atomics
  37              	@ -finline-functions -finline-functions-called-once
  38              	@ -finline-small-functions -fipa-bit-cp -fipa-cp -fipa-icf
  39              	@ -fipa-icf-functions -fipa-icf-variables -fipa-profile -fipa-pure-const
  40              	@ -fipa-ra -fipa-reference -fipa-reference-addressable -fipa-sra
  41              	@ -fipa-stack-alignment -fipa-vrp -fira-hoist-pressure
  42              	@ -fira-share-save-slots -fira-share-spill-slots
  43              	@ -fisolate-erroneous-paths-dereference -fivopts -fkeep-static-consts
  44              	@ -fleading-underscore -flifetime-dse -flra-remat -flto-odr-type-merging
  45              	@ -fmath-errno -fmerge-constants -fmerge-debug-strings
  46              	@ -fmove-loop-invariants -fomit-frame-pointer -foptimize-sibling-calls
  47              	@ -fpartial-inlining -fpeephole -fpeephole2 -fplt -fprefetch-loop-arrays
  48              	@ -freg-struct-return -freorder-blocks -freorder-functions
  49              	@ -frerun-cse-after-loop -fsched-critical-path-heuristic
  50              	@ -fsched-dep-count-heuristic -fsched-group-heuristic -fsched-interblock
  51              	@ -fsched-last-insn-heuristic -fsched-pressure -fsched-rank-heuristic
  52              	@ -fsched-spec -fsched-spec-insn-heuristic -fsched-stalled-insns-dep
  53              	@ -fschedule-insns2 -fsection-anchors -fsemantic-interposition
  54              	@ -fshow-column -fshrink-wrap-separate -fsigned-zeros
  55              	@ -fsplit-ivs-in-unroller -fsplit-wide-types -fssa-backprop -fssa-phiopt
  56              	@ -fstdarg-opt -fstore-merging -fstrict-aliasing
  57              	@ -fstrict-volatile-bitfields -fsync-libcalls -fthread-jumps
ARM GAS  /var/folders/_2/qbh2zpt918qcm2b_6mgyydnm0000gn/T//ccmxyJw1.s 			page 2


  58              	@ -ftoplevel-reorder -ftrapping-math -ftree-bit-ccp -ftree-builtin-call-dce
  59              	@ -ftree-ccp -ftree-ch -ftree-coalesce-vars -ftree-copy-prop -ftree-cselim
  60              	@ -ftree-dce -ftree-dominator-opts -ftree-dse -ftree-forwprop -ftree-fre
  61              	@ -ftree-loop-if-convert -ftree-loop-im -ftree-loop-ivcanon
  62              	@ -ftree-loop-optimize -ftree-parallelize-loops= -ftree-phiprop -ftree-pre
  63              	@ -ftree-pta -ftree-reassoc -ftree-scev-cprop -ftree-sink -ftree-slsr
  64              	@ -ftree-sra -ftree-switch-conversion -ftree-tail-merge -ftree-ter
  65              	@ -ftree-vrp -funit-at-a-time -fvar-tracking -fvar-tracking-assignments
  66              	@ -fverbose-asm -fzero-initialized-in-bss -masm-syntax-unified -mbe32
  67              	@ -mlittle-endian -mpic-data-is-text-relative -msched-prolog -mthumb
  68              	@ -munaligned-access -mvectorize-with-neon-quad
  69              	
  70              		.text
  71              	.Ltext0:
  72              		.cfi_sections	.debug_frame
  73              		.align	1
  74              		.global	uart1RxTotalBytesWaiting
  75              		.arch armv7e-m
  76              		.syntax unified
  77              		.thumb
  78              		.thumb_func
  79              		.fpu softvfp
  80              		.type	uart1RxTotalBytesWaiting, %function
  81              	uart1RxTotalBytesWaiting:
  82              	.LFB133:
  83              		.file 1 "usart.c"
   1:usart.c       **** 
   2:usart.c       **** #include "usart.h"
   3:usart.c       **** #include <stm32f30x_conf.h> //All important functions are within this header file
   4:usart.c       **** #include <stm32f30x.h>
   5:usart.c       **** 
   6:usart.c       **** #define DMA_USART
   7:usart.c       **** dmaUart1Rx_t *dmaUart1Rx_p = &dmaUart1Rx;	
   8:usart.c       **** uint16_t buffposition = 0;
   9:usart.c       **** void usart1_init(){
  10:usart.c       **** 	//Enable the CONFIGURATION of the Clocks we need to use for the different periphals
  11:usart.c       **** 	RCC_APB2PeriphClockCmd(RCC_APB2Periph_USART1, ENABLE); // Enable the clock for the usart
  12:usart.c       **** 	RCC_AHBPeriphClockCmd(RCC_AHBPeriph_GPIOA, ENABLE); //Enable the clock for the corresponding pins 
  13:usart.c       **** 
  14:usart.c       **** 	
  15:usart.c       **** 	GPIO_PinAFConfig(GPIOA, GPIO_PinSource9, GPIO_AF_7); //Connect the corresponding pin to the usart
  16:usart.c       **** 	GPIO_PinAFConfig(GPIOA, GPIO_PinSource10, GPIO_AF_7);
  17:usart.c       **** 
  18:usart.c       **** 		
  19:usart.c       **** 	//######### GPIO FOR USART ####################
  20:usart.c       **** 	//######### GPIO Tx and Rx###########################
  21:usart.c       **** 	GPIO_InitTypeDef GPIO_USART1_Tx_Struct;
  22:usart.c       **** 	GPIO_USART1_Tx_Struct.GPIO_Mode = GPIO_Mode_AF;
  23:usart.c       **** 	GPIO_USART1_Tx_Struct.GPIO_OType = GPIO_OType_PP;
  24:usart.c       **** 	GPIO_USART1_Tx_Struct.GPIO_Pin = GPIO_Pin_9; 
  25:usart.c       **** 	GPIO_USART1_Tx_Struct.GPIO_PuPd = GPIO_PuPd_UP;
  26:usart.c       **** 	GPIO_USART1_Tx_Struct.GPIO_Speed = GPIO_Speed_Level_3;
  27:usart.c       **** 	GPIO_Init(GPIOA, &GPIO_USART1_Tx_Struct);
  28:usart.c       **** 
  29:usart.c       **** 
  30:usart.c       **** 	GPIO_InitTypeDef GPIO_USART1_Rx_Struct;
  31:usart.c       **** 	GPIO_USART1_Rx_Struct.GPIO_Mode = GPIO_Mode_AF;
ARM GAS  /var/folders/_2/qbh2zpt918qcm2b_6mgyydnm0000gn/T//ccmxyJw1.s 			page 3


  32:usart.c       **** 	GPIO_USART1_Rx_Struct.GPIO_OType = GPIO_OType_PP;
  33:usart.c       **** 	GPIO_USART1_Rx_Struct.GPIO_Pin = GPIO_Pin_10; 
  34:usart.c       **** 	GPIO_USART1_Rx_Struct.GPIO_Speed = GPIO_Speed_Level_3;
  35:usart.c       **** 	GPIO_Init(GPIOA, &GPIO_USART1_Rx_Struct);
  36:usart.c       **** 
  37:usart.c       **** 	//################## USART ####################### 	
  38:usart.c       **** 	USART_InitTypeDef USART1_InitStruct;
  39:usart.c       **** 	USART_DeInit(USART1); //DeInit the USART 
  40:usart.c       **** 	
  41:usart.c       **** 	//Configuratoin for the USART Initalization
  42:usart.c       **** 	USART1_InitStruct.USART_BaudRate = 115200;
  43:usart.c       **** 	USART1_InitStruct.USART_HardwareFlowControl = USART_HardwareFlowControl_None;
  44:usart.c       **** 	USART1_InitStruct.USART_Mode = USART_Mode_Tx | USART_Mode_Rx;
  45:usart.c       **** 	USART1_InitStruct.USART_Parity = USART_Parity_No;
  46:usart.c       **** 	USART1_InitStruct.USART_StopBits = USART_StopBits_1;
  47:usart.c       **** 	USART1_InitStruct.USART_WordLength = USART_WordLength_8b;
  48:usart.c       **** 		
  49:usart.c       **** 	
  50:usart.c       **** 	//Configuration for the USART_Clock
  51:usart.c       **** 	USART_ClockInitTypeDef USART1_ClockInitStruct;
  52:usart.c       **** 	USART1_ClockInitStruct.USART_Clock = USART_Clock_Disable;
  53:usart.c       **** 	USART1_ClockInitStruct.USART_CPHA = USART_CPHA_1Edge;
  54:usart.c       **** 	USART1_ClockInitStruct.USART_CPOL = USART_CPOL_High;
  55:usart.c       **** 	USART1_ClockInitStruct.USART_LastBit = USART_LastBit_Disable;
  56:usart.c       **** 	
  57:usart.c       **** 	USART_ClockInit(USART1, &USART1_ClockInitStruct);
  58:usart.c       **** 	USART_Init(USART1, &USART1_InitStruct);
  59:usart.c       **** 	
  60:usart.c       **** 	USART_Cmd(USART1, ENABLE);
  61:usart.c       **** 
  62:usart.c       **** 	USART_DMACmd(USART1, USART_DMAReq_Tx, ENABLE); 
  63:usart.c       **** 	USART_DMACmd(USART1, USART_DMAReq_Rx, ENABLE);	
  64:usart.c       **** 
  65:usart.c       **** 	//USART_ITConfig(USART1, USART_IT_IDLE, ENABLE);
  66:usart.c       **** 	
  67:usart.c       **** 	/**
  68:usart.c       **** 	NVIC_InitTypeDef usart1Rx;
  69:usart.c       **** 	
  70:usart.c       **** 	usart1Rx.NVIC_IRQChannel = USART1_IRQn;
  71:usart.c       **** 	usart1Rx.NVIC_IRQChannelCmd = ENABLE;
  72:usart.c       **** 	usart1Rx.NVIC_IRQChannelPreemptionPriority = 0x05;
  73:usart.c       **** 	usart1Rx.NVIC_IRQChannelSubPriority = 0x05;
  74:usart.c       **** 
  75:usart.c       **** 	NVIC_Init(&usart1Rx);
  76:usart.c       **** 	*/
  77:usart.c       **** 
  78:usart.c       **** };
  79:usart.c       **** 
  80:usart.c       **** //Init DMA Controller for USART1Tx
  81:usart.c       **** void initDmaUsart1Tx(void){
  82:usart.c       **** 	RCC_AHBPeriphClockCmd(RCC_AHBPeriph_DMA1, ENABLE); 
  83:usart.c       **** 	DMA_InitTypeDef dma_init_usart1; // we need a structure for the standard library
  84:usart.c       **** 	DMA_DeInit(DMA1_Channel4);
  85:usart.c       **** 	//uint8_t dmastring[] = 0;
  86:usart.c       **** 	dma_init_usart1.DMA_BufferSize = 0;
  87:usart.c       **** 	dma_init_usart1.DMA_DIR = DMA_DIR_PeripheralDST; //Reading from the memory to the peripheral
  88:usart.c       **** 	dma_init_usart1.DMA_M2M = DMA_M2M_Disable; //Not used
ARM GAS  /var/folders/_2/qbh2zpt918qcm2b_6mgyydnm0000gn/T//ccmxyJw1.s 			page 4


  89:usart.c       **** 	dma_init_usart1.DMA_MemoryBaseAddr = 0; //Base address of the array or what else 
  90:usart.c       **** 	dma_init_usart1.DMA_MemoryDataSize = DMA_MemoryDataSize_Byte; //Reading or writing on byte 
  91:usart.c       **** 	dma_init_usart1.DMA_MemoryInc = DMA_MemoryInc_Enable;
  92:usart.c       **** 	dma_init_usart1.DMA_Mode = DMA_Mode_Normal; //DMA_Mode_Circular
  93:usart.c       **** 	dma_init_usart1.DMA_PeripheralBaseAddr = (uint32_t)&USART1->TDR; //Address to which the dma contro
  94:usart.c       **** 	dma_init_usart1.DMA_PeripheralDataSize = DMA_MemoryDataSize_Byte;
  95:usart.c       **** 	dma_init_usart1.DMA_PeripheralInc = DMA_PeripheralInc_Disable;
  96:usart.c       **** 	dma_init_usart1.DMA_Priority = DMA_Priority_High;
  97:usart.c       **** 
  98:usart.c       **** 	DMA_Init(DMA1_Channel4, &dma_init_usart1);
  99:usart.c       **** 	DMA_ITConfig(DMA1_Channel4, DMA_IT_TC, ENABLE); //Enable the Transfer Complete interrupt.
 100:usart.c       **** 	
 101:usart.c       **** 
 102:usart.c       **** 	//MISC of the standard library
 103:usart.c       **** 	NVIC_InitTypeDef dma_channel1;
 104:usart.c       **** 	
 105:usart.c       **** 	dma_channel1.NVIC_IRQChannel = DMA1_Channel4_IRQn;
 106:usart.c       **** 	dma_channel1.NVIC_IRQChannelCmd = ENABLE;
 107:usart.c       **** 	dma_channel1.NVIC_IRQChannelPreemptionPriority = 0x05;
 108:usart.c       **** 	dma_channel1.NVIC_IRQChannelSubPriority = 0x05;
 109:usart.c       **** 
 110:usart.c       **** 	NVIC_Init(&dma_channel1);
 111:usart.c       **** };
 112:usart.c       **** 
 113:usart.c       **** void initDmaUsart1Rx(void){
 114:usart.c       **** 	DMA_InitTypeDef dmaInitUsart1Rx;
 115:usart.c       **** 	DMA_DeInit(DMA1_Channel5);	
 116:usart.c       **** 	dmaInitUsart1Rx.DMA_BufferSize = sizeof(uart1RxBuffer); 
 117:usart.c       **** 
 118:usart.c       **** 	/**
 119:usart.c       **** 	* If i read the CNDTR (return the remaining number of data units)
 120:usart.c       **** 	* each 1ms then the buffer needs to be 120 big at a baud rate of 115200.
 121:usart.c       **** 	*/
 122:usart.c       **** 	dmaInitUsart1Rx.DMA_DIR = DMA_DIR_PeripheralSRC;
 123:usart.c       **** 	dmaInitUsart1Rx.DMA_M2M = DMA_M2M_Disable;
 124:usart.c       **** 	dmaInitUsart1Rx.DMA_MemoryBaseAddr =(uint32_t)&uart1RxBuffer;
 125:usart.c       **** 	dmaInitUsart1Rx.DMA_MemoryDataSize = DMA_MemoryDataSize_Byte;
 126:usart.c       **** 	dmaInitUsart1Rx.DMA_MemoryInc = DMA_MemoryInc_Enable;
 127:usart.c       **** 	dmaInitUsart1Rx.DMA_Mode = DMA_Mode_Circular;
 128:usart.c       **** 	dmaInitUsart1Rx.DMA_PeripheralBaseAddr = (uint32_t)&USART1->RDR;
 129:usart.c       **** 	dmaInitUsart1Rx.DMA_PeripheralDataSize = DMA_MemoryDataSize_Byte;
 130:usart.c       **** 	dmaInitUsart1Rx.DMA_PeripheralInc = DMA_PeripheralInc_Disable;
 131:usart.c       **** 	dmaInitUsart1Rx.DMA_Priority = DMA_Priority_Low;
 132:usart.c       **** 
 133:usart.c       **** 	DMA_Init(DMA1_Channel5, &dmaInitUsart1Rx);
 134:usart.c       **** 	DMA_Cmd(DMA1_Channel5, ENABLE);
 135:usart.c       **** 	//DMA_ITConfig(DMA1_Channel5, DMA_IT_TC | DMA_IT_HT, ENABLE);
 136:usart.c       **** 	/*
 137:usart.c       **** 	NVIC_InitTypeDef dma1Channel5;
 138:usart.c       **** 	dma1Channel5.NVIC_IRQChannel = DMA1_Channel5_IRQn;
 139:usart.c       **** 	dma1Channel5.NVIC_IRQChannelCmd = ENABLE;
 140:usart.c       **** 	dma1Channel5.NVIC_IRQChannelPreemptionPriority = 0x05;
 141:usart.c       **** 	dma1Channel5.NVIC_IRQChannelSubPriority = 0x05;
 142:usart.c       **** 	NVIC_Init(&dma1Channel5);
 143:usart.c       **** 	*/
 144:usart.c       **** };
 145:usart.c       **** 
ARM GAS  /var/folders/_2/qbh2zpt918qcm2b_6mgyydnm0000gn/T//ccmxyJw1.s 			page 5


 146:usart.c       **** 
 147:usart.c       **** #ifndef DMA_USART	
 148:usart.c       **** void sendChar(uint8_t c){
 149:usart.c       **** //   	if (!(USART_GetFlagStatus(USART1,USART_FLAG_BUSY) == 1)){ //Check if the USART is BUSY or not
 150:usart.c       **** 		USART_SendData(USART1, c);
 151:usart.c       **** 		while((USART_GetFlagStatus(USART1, USART_FLAG_TC) == RESET )){ //Prüfe im Register ob senden abg
 152:usart.c       **** 		};
 153:usart.c       **** //	};
 154:usart.c       ****  };
 155:usart.c       **** 
 156:usart.c       **** void sendText(char *t){
 157:usart.c       ****     while (*t != 0){
 158:usart.c       ****         sendChar(*t);
 159:usart.c       ****         t++;
 160:usart.c       ****     };
 161:usart.c       **** };
 162:usart.c       **** 
 163:usart.c       **** void sendInt(int32_t num) {
 164:usart.c       ****     char str[10]; // 10 chars max for INT32_MAX
 165:usart.c       ****     int i = 0;
 166:usart.c       ****     if (num < 0) {
 167:usart.c       ****         sendChar('-');
 168:usart.c       ****         num *= -1;
 169:usart.c       ****     };
 170:usart.c       ****     	do 
 171:usart.c       ****         	str[i++] = num % 10 + '0'; 
 172:usart.c       ****     	while ((num /= 10) > 0);
 173:usart.c       **** 	while (i) sendChar(str[--i]);
 174:usart.c       **** };
 175:usart.c       **** 
 176:usart.c       **** void sendFloat(float float_num){
 177:usart.c       **** 	/*
 178:usart.c       **** 	uint8_t *ptr, i;
 179:usart.c       **** 	ptr = (uint8_t*)&float_num;
 180:usart.c       **** 	for (i = 0; i < sizeof(float);i++) sendChar(*(ptr + i));
 181:usart.c       **** 	*/
 182:usart.c       **** 
 183:usart.c       **** 	int32_t tmp_num,tmp_num2;	
 184:usart.c       **** 	tmp_num = float_num;
 185:usart.c       **** 	sendInt(tmp_num);
 186:usart.c       **** 	sendChar('.');
 187:usart.c       **** 	float_num = float_num - tmp_num;
 188:usart.c       **** 	float_num = float_num < 0 ? float_num * -1000 : float_num * 1000;
 189:usart.c       **** 	char str[3];
 190:usart.c       **** 	int i = 0;
 191:usart.c       **** 	tmp_num2 = float_num;
 192:usart.c       **** 	do { 
 193:usart.c       **** 		str[i++] = tmp_num2 % 10 + '0';
 194:usart.c       **** 		tmp_num2 /= 10; 
 195:usart.c       ****     	} while(i < 3);
 196:usart.c       **** 	while (i) sendChar(str[--i]);
 197:usart.c       **** }
 198:usart.c       **** #endif
 199:usart.c       **** 
 200:usart.c       **** void int_to_buffer(int32_t num, uint8_t* buffer, uint16_t* pos){
 201:usart.c       **** 	char str[20];
 202:usart.c       **** 	itoa(num, str, 10);
ARM GAS  /var/folders/_2/qbh2zpt918qcm2b_6mgyydnm0000gn/T//ccmxyJw1.s 			page 6


 203:usart.c       **** 	uint8_t i = 0;
 204:usart.c       **** 	int8_t c = 0;
 205:usart.c       **** 	while((c = str[i++]) != '\0') *(buffer + (*pos)++) = c;
 206:usart.c       **** 	*(buffer + (*pos)++) = 0x20; // Space in ASCII
 207:usart.c       **** };
 208:usart.c       **** 
 209:usart.c       **** void float_to_buffer(float fnum, uint8_t* buffer, uint16_t* pos){
 210:usart.c       **** 	int32_t tmp, tmp2;
 211:usart.c       **** 	uint8_t str[3];
 212:usart.c       **** 
 213:usart.c       **** 	tmp = fnum;
 214:usart.c       **** 	//int_to_buffer(tmp, buffer, *pos);
 215:usart.c       **** 	*(buffer + (*pos)++) = 0x2E; // Point in ASCII
 216:usart.c       **** 	fnum = fnum - tmp;
 217:usart.c       **** 	fnum = fnum < 0 ? fnum *-1000 : fnum * 1000;
 218:usart.c       **** 	tmp2 = fnum;
 219:usart.c       **** 	int i = 0;
 220:usart.c       **** 	do{
 221:usart.c       **** 		str[i++] = tmp2 % 10 + '0';
 222:usart.c       **** 		tmp2 /= 10;
 223:usart.c       **** 	} while (i < 3);
 224:usart.c       **** 	while (i) *(buffer + (*pos)++) = str[--i];
 225:usart.c       ****  	*(buffer + (*pos)++) = 0x20; // Space in ASCII
 226:usart.c       **** };
 227:usart.c       **** 
 228:usart.c       **** void text_to_buffer(char* t, uint8_t* buffer, uint16_t* pos){
 229:usart.c       **** 	while(*t != 0){
 230:usart.c       **** 		*(buffer + (*pos)++) = *t++;	
 231:usart.c       **** 	};
 232:usart.c       **** };
 233:usart.c       **** 
 234:usart.c       **** void init_dmaUart1Rx_t(void){
 235:usart.c       **** 	dmaUart1Rx_p->dmaChannel = DMA1_Channel5;		
 236:usart.c       **** 	dmaUart1Rx_p->rxBufferSize = sizeof(uart1RxBuffer);
 237:usart.c       **** 	dmaUart1Rx_p->rxBufferHead = 0;
 238:usart.c       **** 	dmaUart1Rx_p->rxBufferTail = 0;	
 239:usart.c       **** 	dmaUart1Rx_p->rxDmaPos = sizeof(uart1RxBuffer);
 240:usart.c       **** };
 241:usart.c       **** 
 242:usart.c       **** 
 243:usart.c       **** struct serialPortVTable_s uart1VTable = {
 244:usart.c       **** 	.serialRxTotalBytesWaiting = uart1RxTotalBytesWaiting,
 245:usart.c       **** 	.serialRead = uart1RxRead, 
 246:usart.c       **** };
 247:usart.c       **** 
 248:usart.c       **** uint16_t uart1RxTotalBytesWaiting(void){
  84              		.loc 1 248 40 view -0
  85              		.cfi_startproc
  86              		@ args = 0, pretend = 0, frame = 0
  87              		@ frame_needed = 0, uses_anonymous_args = 0
  88              		@ link register save eliminated.
 249:usart.c       **** 	uint16_t rxDMAHead = dmaUart1Rx_p->dmaChannel->CNDTR;
  89              		.loc 1 249 2 view .LVU1
  90              	@ usart.c:249: 	uint16_t rxDMAHead = dmaUart1Rx_p->dmaChannel->CNDTR;
  91              		.loc 1 249 35 is_stmt 0 view .LVU2
  92 0000 064B     		ldr	r3, .L5	@ tmp118,
  93 0002 1A68     		ldr	r2, [r3]	@ dmaUart1Rx_p.11_1, dmaUart1Rx_p
ARM GAS  /var/folders/_2/qbh2zpt918qcm2b_6mgyydnm0000gn/T//ccmxyJw1.s 			page 7


  94 0004 9368     		ldr	r3, [r2, #8]	@ _2, dmaUart1Rx_p.11_1->dmaChannel
  95              	@ usart.c:252: 	if(rxDMAHead <= dmaUart1Rx_p->rxDmaPos){
 250:usart.c       **** 	uint16_t bytesWaiting;
 251:usart.c       **** 
 252:usart.c       **** 	if(rxDMAHead <= dmaUart1Rx_p->rxDmaPos){
  96              		.loc 1 252 30 view .LVU3
  97 0006 9088     		ldrh	r0, [r2, #4]	@ _4, dmaUart1Rx_p.11_1->rxDmaPos
  98              	@ usart.c:249: 	uint16_t rxDMAHead = dmaUart1Rx_p->dmaChannel->CNDTR;
 249:usart.c       **** 	uint16_t rxDMAHead = dmaUart1Rx_p->dmaChannel->CNDTR;
  99              		.loc 1 249 47 view .LVU4
 100 0008 5B68     		ldr	r3, [r3, #4]	@ _3, _2->CNDTR
 101              	@ usart.c:249: 	uint16_t rxDMAHead = dmaUart1Rx_p->dmaChannel->CNDTR;
 249:usart.c       **** 	uint16_t rxDMAHead = dmaUart1Rx_p->dmaChannel->CNDTR;
 102              		.loc 1 249 11 view .LVU5
 103 000a 9BB2     		uxth	r3, r3	@ rxDMAHead, _3
 104              	.LVL0:
 250:usart.c       **** 	uint16_t bytesWaiting;
 105              		.loc 1 250 2 is_stmt 1 view .LVU6
 106              		.loc 1 252 2 view .LVU7
 107              	@ usart.c:252: 	if(rxDMAHead <= dmaUart1Rx_p->rxDmaPos){
 108              		.loc 1 252 4 is_stmt 0 view .LVU8
 109 000c 9842     		cmp	r0, r3	@ _4, rxDMAHead
 253:usart.c       **** 		bytesWaiting = dmaUart1Rx_p->rxDmaPos - rxDMAHead;
 110              		.loc 1 253 3 is_stmt 1 view .LVU9
 254:usart.c       **** 	} else {
 255:usart.c       **** 		bytesWaiting = dmaUart1Rx_p->rxBufferSize + dmaUart1Rx_p->rxDmaPos - rxDMAHead;
 111              		.loc 1 255 3 view .LVU10
 112              	@ usart.c:255: 		bytesWaiting = dmaUart1Rx_p->rxBufferSize + dmaUart1Rx_p->rxDmaPos - rxDMAHead;
 113              		.loc 1 255 45 is_stmt 0 view .LVU11
 114 000e 3CBF     		itt	cc
 115 0010 D288     		ldrhcc	r2, [r2, #6]	@, dmaUart1Rx_p.11_1->rxBufferSize
 116 0012 8018     		addcc	r0, r0, r2	@ tmp121, dmaUart1Rx_p.11_1->rxBufferSize
 117              	@ usart.c:255: 		bytesWaiting = dmaUart1Rx_p->rxBufferSize + dmaUart1Rx_p->rxDmaPos - rxDMAHead;
 118              		.loc 1 255 16 view .LVU12
 119 0014 C01A     		subs	r0, r0, r3	@ tmp123, tmp121, rxDMAHead
 120 0016 80B2     		uxth	r0, r0	@ <retval>, tmp123
 121              	.LVL1:
 256:usart.c       **** 	};
 122              		.loc 1 256 3 is_stmt 1 view .LVU13
 257:usart.c       ****  return bytesWaiting;
 123              		.loc 1 257 2 view .LVU14
 124              	@ usart.c:258: }; 
 258:usart.c       **** }; 
 125              		.loc 1 258 1 is_stmt 0 view .LVU15
 126 0018 7047     		bx	lr	@
 127              	.L6:
 128 001a 00BF     		.align	2
 129              	.L5:
 130 001c 00000000 		.word	.LANCHOR0
 131              		.cfi_endproc
 132              	.LFE133:
 133              		.size	uart1RxTotalBytesWaiting, .-uart1RxTotalBytesWaiting
 134              		.align	1
 135              		.global	uart1RxRead
 136              		.syntax unified
 137              		.thumb
 138              		.thumb_func
ARM GAS  /var/folders/_2/qbh2zpt918qcm2b_6mgyydnm0000gn/T//ccmxyJw1.s 			page 8


 139              		.fpu softvfp
 140              		.type	uart1RxRead, %function
 141              	uart1RxRead:
 142              	.LFB134:
 259:usart.c       **** 
 260:usart.c       **** uint8_t uart1RxRead(void){
 143              		.loc 1 260 26 is_stmt 1 view -0
 144              		.cfi_startproc
 145              		@ args = 0, pretend = 0, frame = 0
 146              		@ frame_needed = 0, uses_anonymous_args = 0
 261:usart.c       **** 	uint8_t ch;
 147              		.loc 1 261 2 view .LVU17
 262:usart.c       **** 	ch = uart1RxBuffer[dmaUart1Rx_p->rxBufferSize - dmaUart1Rx_p->rxDmaPos];
 148              		.loc 1 262 2 view .LVU18
 149              	@ usart.c:262: 	ch = uart1RxBuffer[dmaUart1Rx_p->rxBufferSize - dmaUart1Rx_p->rxDmaPos];
 150              		.loc 1 262 33 is_stmt 0 view .LVU19
 151 0020 074B     		ldr	r3, .L10	@ tmp118,
 152 0022 1A68     		ldr	r2, [r3]	@ dmaUart1Rx_p.16_1, dmaUart1Rx_p
 153              	@ usart.c:260: uint8_t uart1RxRead(void){
 260:usart.c       **** 	uint8_t ch;
 154              		.loc 1 260 26 view .LVU20
 155 0024 10B5     		push	{r4, lr}	@
 156              	.LCFI0:
 157              		.cfi_def_cfa_offset 8
 158              		.cfi_offset 4, -8
 159              		.cfi_offset 14, -4
 160              	@ usart.c:262: 	ch = uart1RxBuffer[dmaUart1Rx_p->rxBufferSize - dmaUart1Rx_p->rxDmaPos];
 161              		.loc 1 262 62 view .LVU21
 162 0026 9388     		ldrh	r3, [r2, #4]	@ _4, dmaUart1Rx_p.16_1->rxDmaPos
 163              	@ usart.c:262: 	ch = uart1RxBuffer[dmaUart1Rx_p->rxBufferSize - dmaUart1Rx_p->rxDmaPos];
 164              		.loc 1 262 33 view .LVU22
 165 0028 D188     		ldrh	r1, [r2, #6]	@ _2, dmaUart1Rx_p.16_1->rxBufferSize
 166              	@ usart.c:262: 	ch = uart1RxBuffer[dmaUart1Rx_p->rxBufferSize - dmaUart1Rx_p->rxDmaPos];
 167              		.loc 1 262 5 view .LVU23
 168 002a 064C     		ldr	r4, .L10+4	@ tmp119,
 169              	@ usart.c:262: 	ch = uart1RxBuffer[dmaUart1Rx_p->rxBufferSize - dmaUart1Rx_p->rxDmaPos];
 170              		.loc 1 262 48 view .LVU24
 171 002c C81A     		subs	r0, r1, r3	@ tmp120, _2, _4
 172              	@ usart.c:263: 	if(--dmaUart1Rx_p->rxDmaPos == 0){
 263:usart.c       **** 	if(--dmaUart1Rx_p->rxDmaPos == 0){
 173              		.loc 1 263 5 view .LVU25
 174 002e 013B     		subs	r3, r3, #1	@ tmp121, _4,
 175 0030 9BB2     		uxth	r3, r3	@ _7, tmp121
 176              	@ usart.c:263: 	if(--dmaUart1Rx_p->rxDmaPos == 0){
 177              		.loc 1 263 4 view .LVU26
 178 0032 002B     		cmp	r3, #0	@ _7,
 179 0034 08BF     		it	eq		@
 180 0036 0B46     		moveq	r3, r1	@, tmp126, _2
 181              	@ usart.c:262: 	ch = uart1RxBuffer[dmaUart1Rx_p->rxBufferSize - dmaUart1Rx_p->rxDmaPos];
 262:usart.c       **** 	ch = uart1RxBuffer[dmaUart1Rx_p->rxBufferSize - dmaUart1Rx_p->rxDmaPos];
 182              		.loc 1 262 5 view .LVU27
 183 0038 205C     		ldrb	r0, [r4, r0]	@ zero_extendqisi2	@ <retval>, uart1RxBuffer
 184              	.LVL2:
 185              		.loc 1 263 2 is_stmt 1 view .LVU28
 186              	@ usart.c:263: 	if(--dmaUart1Rx_p->rxDmaPos == 0){
 187              		.loc 1 263 4 is_stmt 0 view .LVU29
 188 003a 9380     		strh	r3, [r2, #4]	@ movhi	@ tmp126, dmaUart1Rx_p.16_1->rxDmaPos
ARM GAS  /var/folders/_2/qbh2zpt918qcm2b_6mgyydnm0000gn/T//ccmxyJw1.s 			page 9


 264:usart.c       **** 		dmaUart1Rx_p->rxDmaPos = dmaUart1Rx_p->rxBufferSize;
 265:usart.c       **** 	};
 189              		.loc 1 265 3 is_stmt 1 view .LVU30
 266:usart.c       **** return ch;
 190              		.loc 1 266 1 view .LVU31
 191              	@ usart.c:267: };
 267:usart.c       **** };
 192              		.loc 1 267 1 is_stmt 0 view .LVU32
 193 003c 10BD     		pop	{r4, pc}	@
 194              	.L11:
 195 003e 00BF     		.align	2
 196              	.L10:
 197 0040 00000000 		.word	.LANCHOR0
 198 0044 00000000 		.word	.LANCHOR1
 199              		.cfi_endproc
 200              	.LFE134:
 201              		.size	uart1RxRead, .-uart1RxRead
 202              		.align	1
 203              		.global	usart1_init
 204              		.syntax unified
 205              		.thumb
 206              		.thumb_func
 207              		.fpu softvfp
 208              		.type	usart1_init, %function
 209              	usart1_init:
 210              	.LFB126:
   9:usart.c       **** 	//Enable the CONFIGURATION of the Clocks we need to use for the different periphals
 211              		.loc 1 9 19 is_stmt 1 view -0
 212              		.cfi_startproc
 213              		@ args = 0, pretend = 0, frame = 56
 214              		@ frame_needed = 0, uses_anonymous_args = 0
  11:usart.c       **** 	RCC_AHBPeriphClockCmd(RCC_AHBPeriph_GPIOA, ENABLE); //Enable the clock for the corresponding pins 
 215              		.loc 1 11 2 view .LVU34
 216              	@ usart.c:9: void usart1_init(){
   9:usart.c       **** 	//Enable the CONFIGURATION of the Clocks we need to use for the different periphals
 217              		.loc 1 9 19 is_stmt 0 view .LVU35
 218 0048 70B5     		push	{r4, r5, r6, lr}	@
 219              	.LCFI1:
 220              		.cfi_def_cfa_offset 16
 221              		.cfi_offset 4, -16
 222              		.cfi_offset 5, -12
 223              		.cfi_offset 6, -8
 224              		.cfi_offset 14, -4
 225              	@ usart.c:11: 	RCC_APB2PeriphClockCmd(RCC_APB2Periph_USART1, ENABLE); // Enable the clock for the u
  11:usart.c       **** 	RCC_AHBPeriphClockCmd(RCC_AHBPeriph_GPIOA, ENABLE); //Enable the clock for the corresponding pins 
 226              		.loc 1 11 2 view .LVU36
 227 004a 0121     		movs	r1, #1	@,
 228              	@ usart.c:9: void usart1_init(){
   9:usart.c       **** 	//Enable the CONFIGURATION of the Clocks we need to use for the different periphals
 229              		.loc 1 9 19 view .LVU37
 230 004c 8EB0     		sub	sp, sp, #56	@,,
 231              	.LCFI2:
 232              		.cfi_def_cfa_offset 72
 233              	@ usart.c:11: 	RCC_APB2PeriphClockCmd(RCC_APB2Periph_USART1, ENABLE); // Enable the clock for the u
  11:usart.c       **** 	RCC_AHBPeriphClockCmd(RCC_AHBPeriph_GPIOA, ENABLE); //Enable the clock for the corresponding pins 
 234              		.loc 1 11 2 view .LVU38
 235 004e 4FF48040 		mov	r0, #16384	@,
ARM GAS  /var/folders/_2/qbh2zpt918qcm2b_6mgyydnm0000gn/T//ccmxyJw1.s 			page 10


 236 0052 FFF7FEFF 		bl	RCC_APB2PeriphClockCmd		@
 237              	.LVL3:
  12:usart.c       **** 
 238              		.loc 1 12 2 is_stmt 1 view .LVU39
 239 0056 0121     		movs	r1, #1	@,
 240 0058 4FF40030 		mov	r0, #131072	@,
 241 005c FFF7FEFF 		bl	RCC_AHBPeriphClockCmd		@
 242              	.LVL4:
  15:usart.c       **** 	GPIO_PinAFConfig(GPIOA, GPIO_PinSource10, GPIO_AF_7);
 243              		.loc 1 15 2 view .LVU40
 244 0060 0722     		movs	r2, #7	@,
 245 0062 0921     		movs	r1, #9	@,
 246 0064 4FF09040 		mov	r0, #1207959552	@,
 247 0068 FFF7FEFF 		bl	GPIO_PinAFConfig		@
 248              	.LVL5:
  16:usart.c       **** 
 249              		.loc 1 16 2 view .LVU41
 250 006c 0722     		movs	r2, #7	@,
 251 006e 0A21     		movs	r1, #10	@,
 252 0070 4FF09040 		mov	r0, #1207959552	@,
 253 0074 FFF7FEFF 		bl	GPIO_PinAFConfig		@
 254              	.LVL6:
  21:usart.c       **** 	GPIO_USART1_Tx_Struct.GPIO_Mode = GPIO_Mode_AF;
 255              		.loc 1 21 2 view .LVU42
  22:usart.c       **** 	GPIO_USART1_Tx_Struct.GPIO_OType = GPIO_OType_PP;
 256              		.loc 1 22 2 view .LVU43
  23:usart.c       **** 	GPIO_USART1_Tx_Struct.GPIO_Pin = GPIO_Pin_9; 
 257              		.loc 1 23 2 view .LVU44
  24:usart.c       **** 	GPIO_USART1_Tx_Struct.GPIO_PuPd = GPIO_PuPd_UP;
 258              		.loc 1 24 2 view .LVU45
  25:usart.c       **** 	GPIO_USART1_Tx_Struct.GPIO_Speed = GPIO_Speed_Level_3;
 259              		.loc 1 25 2 view .LVU46
  26:usart.c       **** 	GPIO_Init(GPIOA, &GPIO_USART1_Tx_Struct);
 260              		.loc 1 26 2 view .LVU47
 261              	@ usart.c:22: 	GPIO_USART1_Tx_Struct.GPIO_Mode = GPIO_Mode_AF;
  22:usart.c       **** 	GPIO_USART1_Tx_Struct.GPIO_OType = GPIO_OType_PP;
 262              		.loc 1 22 34 is_stmt 0 view .LVU48
 263 0078 204B     		ldr	r3, .L13	@ tmp111,
 264              	@ usart.c:39: 	USART_DeInit(USART1); //DeInit the USART 
  39:usart.c       **** 	
 265              		.loc 1 39 2 view .LVU49
 266 007a 214D     		ldr	r5, .L13+4	@ tmp119,
 267              	@ usart.c:22: 	GPIO_USART1_Tx_Struct.GPIO_Mode = GPIO_Mode_AF;
  22:usart.c       **** 	GPIO_USART1_Tx_Struct.GPIO_OType = GPIO_OType_PP;
 268              		.loc 1 22 34 view .LVU50
 269 007c 4FF40072 		mov	r2, #512	@,
 270              	@ usart.c:27: 	GPIO_Init(GPIOA, &GPIO_USART1_Tx_Struct);
  27:usart.c       **** 
 271              		.loc 1 27 2 view .LVU51
 272 0080 6946     		mov	r1, sp	@,
 273 0082 4FF09040 		mov	r0, #1207959552	@,
 274              	@ usart.c:22: 	GPIO_USART1_Tx_Struct.GPIO_Mode = GPIO_Mode_AF;
  22:usart.c       **** 	GPIO_USART1_Tx_Struct.GPIO_OType = GPIO_OType_PP;
 275              		.loc 1 22 34 view .LVU52
 276 0086 CDE90023 		strd	r2, r3, [sp]	@, tmp111,
  27:usart.c       **** 
 277              		.loc 1 27 2 is_stmt 1 view .LVU53
ARM GAS  /var/folders/_2/qbh2zpt918qcm2b_6mgyydnm0000gn/T//ccmxyJw1.s 			page 11


 278              	@ usart.c:32: 	GPIO_USART1_Rx_Struct.GPIO_OType = GPIO_OType_PP;
  32:usart.c       **** 	GPIO_USART1_Rx_Struct.GPIO_Pin = GPIO_Pin_10; 
 279              		.loc 1 32 35 is_stmt 0 view .LVU54
 280 008a 0024     		movs	r4, #0	@ tmp116,
 281              	@ usart.c:27: 	GPIO_Init(GPIOA, &GPIO_USART1_Tx_Struct);
  27:usart.c       **** 
 282              		.loc 1 27 2 view .LVU55
 283 008c FFF7FEFF 		bl	GPIO_Init		@
 284              	.LVL7:
  30:usart.c       **** 	GPIO_USART1_Rx_Struct.GPIO_Mode = GPIO_Mode_AF;
 285              		.loc 1 30 2 is_stmt 1 view .LVU56
  31:usart.c       **** 	GPIO_USART1_Rx_Struct.GPIO_OType = GPIO_OType_PP;
 286              		.loc 1 31 2 view .LVU57
  32:usart.c       **** 	GPIO_USART1_Rx_Struct.GPIO_Pin = GPIO_Pin_10; 
 287              		.loc 1 32 2 view .LVU58
  33:usart.c       **** 	GPIO_USART1_Rx_Struct.GPIO_Speed = GPIO_Speed_Level_3;
 288              		.loc 1 33 2 view .LVU59
  34:usart.c       **** 	GPIO_Init(GPIOA, &GPIO_USART1_Rx_Struct);
 289              		.loc 1 34 2 view .LVU60
 290              	@ usart.c:33: 	GPIO_USART1_Rx_Struct.GPIO_Pin = GPIO_Pin_10; 
  33:usart.c       **** 	GPIO_USART1_Rx_Struct.GPIO_Speed = GPIO_Speed_Level_3;
 291              		.loc 1 33 33 is_stmt 0 view .LVU61
 292 0090 4FF48066 		mov	r6, #1024	@ tmp113,
 293              	@ usart.c:31: 	GPIO_USART1_Rx_Struct.GPIO_Mode = GPIO_Mode_AF;
  31:usart.c       **** 	GPIO_USART1_Rx_Struct.GPIO_OType = GPIO_OType_PP;
 294              		.loc 1 31 34 view .LVU62
 295 0094 40F20233 		movw	r3, #770	@ tmp115,
 296              	@ usart.c:35: 	GPIO_Init(GPIOA, &GPIO_USART1_Rx_Struct);
  35:usart.c       **** 
 297              		.loc 1 35 2 view .LVU63
 298 0098 02A9     		add	r1, sp, #8	@,,
 299 009a 4FF09040 		mov	r0, #1207959552	@,
 300              	@ usart.c:31: 	GPIO_USART1_Rx_Struct.GPIO_Mode = GPIO_Mode_AF;
  31:usart.c       **** 	GPIO_USART1_Rx_Struct.GPIO_OType = GPIO_OType_PP;
 301              		.loc 1 31 34 view .LVU64
 302 009e ADF80C30 		strh	r3, [sp, #12]	@ movhi	@ tmp115, MEM[(void *)&GPIO_USART1_Rx_Struct + 4B]
 303              	@ usart.c:33: 	GPIO_USART1_Rx_Struct.GPIO_Pin = GPIO_Pin_10; 
  33:usart.c       **** 	GPIO_USART1_Rx_Struct.GPIO_Speed = GPIO_Speed_Level_3;
 304              		.loc 1 33 33 view .LVU65
 305 00a2 0296     		str	r6, [sp, #8]	@ tmp113, GPIO_USART1_Rx_Struct.GPIO_Pin
 306              	@ usart.c:32: 	GPIO_USART1_Rx_Struct.GPIO_OType = GPIO_OType_PP;
  32:usart.c       **** 	GPIO_USART1_Rx_Struct.GPIO_Pin = GPIO_Pin_10; 
 307              		.loc 1 32 35 view .LVU66
 308 00a4 8DF80E40 		strb	r4, [sp, #14]	@ tmp116, GPIO_USART1_Rx_Struct.GPIO_OType
  35:usart.c       **** 
 309              		.loc 1 35 2 is_stmt 1 view .LVU67
 310 00a8 FFF7FEFF 		bl	GPIO_Init		@
 311              	.LVL8:
  38:usart.c       **** 	USART_DeInit(USART1); //DeInit the USART 
 312              		.loc 1 38 2 view .LVU68
  39:usart.c       **** 	
 313              		.loc 1 39 2 view .LVU69
 314 00ac 2846     		mov	r0, r5	@, tmp119
 315 00ae FFF7FEFF 		bl	USART_DeInit		@
 316              	.LVL9:
  42:usart.c       **** 	USART1_InitStruct.USART_HardwareFlowControl = USART_HardwareFlowControl_None;
 317              		.loc 1 42 2 view .LVU70
ARM GAS  /var/folders/_2/qbh2zpt918qcm2b_6mgyydnm0000gn/T//ccmxyJw1.s 			page 12


 318              	@ usart.c:42: 	USART1_InitStruct.USART_BaudRate = 115200;
  42:usart.c       **** 	USART1_InitStruct.USART_HardwareFlowControl = USART_HardwareFlowControl_None;
 319              		.loc 1 42 35 is_stmt 0 view .LVU71
 320 00b2 4FF4E133 		mov	r3, #115200	@ tmp120,
 321 00b6 0893     		str	r3, [sp, #32]	@ tmp120, USART1_InitStruct.USART_BaudRate
  43:usart.c       **** 	USART1_InitStruct.USART_Mode = USART_Mode_Tx | USART_Mode_Rx;
 322              		.loc 1 43 2 is_stmt 1 view .LVU72
 323              	@ usart.c:57: 	USART_ClockInit(USART1, &USART1_ClockInitStruct);
  57:usart.c       **** 	USART_Init(USART1, &USART1_InitStruct);
 324              		.loc 1 57 2 is_stmt 0 view .LVU73
 325 00b8 04A9     		add	r1, sp, #16	@,,
 326              	@ usart.c:44: 	USART1_InitStruct.USART_Mode = USART_Mode_Tx | USART_Mode_Rx;
  44:usart.c       **** 	USART1_InitStruct.USART_Parity = USART_Parity_No;
 327              		.loc 1 44 31 view .LVU74
 328 00ba 0C23     		movs	r3, #12	@ tmp122,
 329              	@ usart.c:57: 	USART_ClockInit(USART1, &USART1_ClockInitStruct);
  57:usart.c       **** 	USART_Init(USART1, &USART1_InitStruct);
 330              		.loc 1 57 2 view .LVU75
 331 00bc 2846     		mov	r0, r5	@, tmp119
 332              	@ usart.c:45: 	USART1_InitStruct.USART_Parity = USART_Parity_No;
  45:usart.c       **** 	USART1_InitStruct.USART_StopBits = USART_StopBits_1;
 333              		.loc 1 45 33 view .LVU76
 334 00be CDE90B43 		strd	r4, r3, [sp, #44]	@ tmp116, tmp122,,
 335              	@ usart.c:47: 	USART1_InitStruct.USART_WordLength = USART_WordLength_8b;
  47:usart.c       **** 		
 336              		.loc 1 47 37 view .LVU77
 337 00c2 CDE90944 		strd	r4, r4, [sp, #36]	@ tmp116, tmp116,,
 338              	@ usart.c:54: 	USART1_ClockInitStruct.USART_CPOL = USART_CPOL_High;
  54:usart.c       **** 	USART1_ClockInitStruct.USART_LastBit = USART_LastBit_Disable;
 339              		.loc 1 54 36 view .LVU78
 340 00c6 CDE90564 		strd	r6, r4, [sp, #20]	@ tmp113, tmp116,,
 341              	@ usart.c:43: 	USART1_InitStruct.USART_HardwareFlowControl = USART_HardwareFlowControl_None;
  43:usart.c       **** 	USART1_InitStruct.USART_Mode = USART_Mode_Tx | USART_Mode_Rx;
 342              		.loc 1 43 46 view .LVU79
 343 00ca 0D94     		str	r4, [sp, #52]	@ tmp116, USART1_InitStruct.USART_HardwareFlowControl
  44:usart.c       **** 	USART1_InitStruct.USART_Parity = USART_Parity_No;
 344              		.loc 1 44 2 is_stmt 1 view .LVU80
  46:usart.c       **** 	USART1_InitStruct.USART_WordLength = USART_WordLength_8b;
 345              		.loc 1 46 2 view .LVU81
  51:usart.c       **** 	USART1_ClockInitStruct.USART_Clock = USART_Clock_Disable;
 346              		.loc 1 51 2 view .LVU82
  52:usart.c       **** 	USART1_ClockInitStruct.USART_CPHA = USART_CPHA_1Edge;
 347              		.loc 1 52 2 view .LVU83
 348              	@ usart.c:52: 	USART1_ClockInitStruct.USART_Clock = USART_Clock_Disable;
  52:usart.c       **** 	USART1_ClockInitStruct.USART_CPHA = USART_CPHA_1Edge;
 349              		.loc 1 52 37 is_stmt 0 view .LVU84
 350 00cc 0494     		str	r4, [sp, #16]	@ tmp116, USART1_ClockInitStruct.USART_Clock
  53:usart.c       **** 	USART1_ClockInitStruct.USART_CPOL = USART_CPOL_High;
 351              		.loc 1 53 2 is_stmt 1 view .LVU85
  55:usart.c       **** 	
 352              		.loc 1 55 2 view .LVU86
 353              	@ usart.c:55: 	USART1_ClockInitStruct.USART_LastBit = USART_LastBit_Disable;
  55:usart.c       **** 	
 354              		.loc 1 55 39 is_stmt 0 view .LVU87
 355 00ce 0794     		str	r4, [sp, #28]	@ tmp116, USART1_ClockInitStruct.USART_LastBit
  57:usart.c       **** 	USART_Init(USART1, &USART1_InitStruct);
 356              		.loc 1 57 2 is_stmt 1 view .LVU88
ARM GAS  /var/folders/_2/qbh2zpt918qcm2b_6mgyydnm0000gn/T//ccmxyJw1.s 			page 13


 357 00d0 FFF7FEFF 		bl	USART_ClockInit		@
 358              	.LVL10:
  58:usart.c       **** 	
 359              		.loc 1 58 2 view .LVU89
 360 00d4 08A9     		add	r1, sp, #32	@,,
 361 00d6 2846     		mov	r0, r5	@, tmp119
 362 00d8 FFF7FEFF 		bl	USART_Init		@
 363              	.LVL11:
  60:usart.c       **** 
 364              		.loc 1 60 2 view .LVU90
 365 00dc 2846     		mov	r0, r5	@, tmp119
 366 00de 0121     		movs	r1, #1	@,
 367 00e0 FFF7FEFF 		bl	USART_Cmd		@
 368              	.LVL12:
  62:usart.c       **** 	USART_DMACmd(USART1, USART_DMAReq_Rx, ENABLE);	
 369              		.loc 1 62 2 view .LVU91
 370 00e4 2846     		mov	r0, r5	@, tmp119
 371 00e6 0122     		movs	r2, #1	@,
 372 00e8 8021     		movs	r1, #128	@,
 373 00ea FFF7FEFF 		bl	USART_DMACmd		@
 374              	.LVL13:
  63:usart.c       **** 
 375              		.loc 1 63 2 view .LVU92
 376 00ee 0122     		movs	r2, #1	@,
 377 00f0 4021     		movs	r1, #64	@,
 378 00f2 2846     		mov	r0, r5	@, tmp119
 379 00f4 FFF7FEFF 		bl	USART_DMACmd		@
 380              	.LVL14:
 381              	@ usart.c:78: };
  78:usart.c       **** 
 382              		.loc 1 78 1 is_stmt 0 view .LVU93
 383 00f8 0EB0     		add	sp, sp, #56	@,,
 384              	.LCFI3:
 385              		.cfi_def_cfa_offset 16
 386              		@ sp needed	@
 387 00fa 70BD     		pop	{r4, r5, r6, pc}	@
 388              	.L14:
 389              		.align	2
 390              	.L13:
 391 00fc 02030001 		.word	16777986
 392 0100 00380140 		.word	1073821696
 393              		.cfi_endproc
 394              	.LFE126:
 395              		.size	usart1_init, .-usart1_init
 396              		.align	1
 397              		.global	initDmaUsart1Tx
 398              		.syntax unified
 399              		.thumb
 400              		.thumb_func
 401              		.fpu softvfp
 402              		.type	initDmaUsart1Tx, %function
 403              	initDmaUsart1Tx:
 404              	.LFB127:
  81:usart.c       **** 	RCC_AHBPeriphClockCmd(RCC_AHBPeriph_DMA1, ENABLE); 
 405              		.loc 1 81 27 is_stmt 1 view -0
 406              		.cfi_startproc
 407              		@ args = 0, pretend = 0, frame = 48
ARM GAS  /var/folders/_2/qbh2zpt918qcm2b_6mgyydnm0000gn/T//ccmxyJw1.s 			page 14


 408              		@ frame_needed = 0, uses_anonymous_args = 0
  82:usart.c       **** 	DMA_InitTypeDef dma_init_usart1; // we need a structure for the standard library
 409              		.loc 1 82 2 view .LVU95
 410              	@ usart.c:81: void initDmaUsart1Tx(void){
  81:usart.c       **** 	RCC_AHBPeriphClockCmd(RCC_AHBPeriph_DMA1, ENABLE); 
 411              		.loc 1 81 27 is_stmt 0 view .LVU96
 412 0104 10B5     		push	{r4, lr}	@
 413              	.LCFI4:
 414              		.cfi_def_cfa_offset 8
 415              		.cfi_offset 4, -8
 416              		.cfi_offset 14, -4
 417              	@ usart.c:82: 	RCC_AHBPeriphClockCmd(RCC_AHBPeriph_DMA1, ENABLE); 
  82:usart.c       **** 	DMA_InitTypeDef dma_init_usart1; // we need a structure for the standard library
 418              		.loc 1 82 2 view .LVU97
 419 0106 0121     		movs	r1, #1	@,
 420              	@ usart.c:84: 	DMA_DeInit(DMA1_Channel4);
  84:usart.c       **** 	//uint8_t dmastring[] = 0;
 421              		.loc 1 84 2 view .LVU98
 422 0108 144C     		ldr	r4, .L16	@ tmp110,
 423              	@ usart.c:81: void initDmaUsart1Tx(void){
  81:usart.c       **** 	RCC_AHBPeriphClockCmd(RCC_AHBPeriph_DMA1, ENABLE); 
 424              		.loc 1 81 27 view .LVU99
 425 010a 8CB0     		sub	sp, sp, #48	@,,
 426              	.LCFI5:
 427              		.cfi_def_cfa_offset 56
 428              	@ usart.c:82: 	RCC_AHBPeriphClockCmd(RCC_AHBPeriph_DMA1, ENABLE); 
  82:usart.c       **** 	DMA_InitTypeDef dma_init_usart1; // we need a structure for the standard library
 429              		.loc 1 82 2 view .LVU100
 430 010c 0846     		mov	r0, r1	@,
 431 010e FFF7FEFF 		bl	RCC_AHBPeriphClockCmd		@
 432              	.LVL15:
  83:usart.c       **** 	DMA_DeInit(DMA1_Channel4);
 433              		.loc 1 83 2 is_stmt 1 view .LVU101
  84:usart.c       **** 	//uint8_t dmastring[] = 0;
 434              		.loc 1 84 2 view .LVU102
 435 0112 2046     		mov	r0, r4	@, tmp110
 436 0114 FFF7FEFF 		bl	DMA_DeInit		@
 437              	.LVL16:
  86:usart.c       **** 	dma_init_usart1.DMA_DIR = DMA_DIR_PeripheralDST; //Reading from the memory to the peripheral
 438              		.loc 1 86 2 view .LVU103
 439              	@ usart.c:87: 	dma_init_usart1.DMA_DIR = DMA_DIR_PeripheralDST; //Reading from the memory to the pe
  87:usart.c       **** 	dma_init_usart1.DMA_M2M = DMA_M2M_Disable; //Not used
 440              		.loc 1 87 26 is_stmt 0 view .LVU104
 441 0118 1022     		movs	r2, #16	@ tmp113,
 442              	@ usart.c:86: 	dma_init_usart1.DMA_BufferSize = 0;
  86:usart.c       **** 	dma_init_usart1.DMA_DIR = DMA_DIR_PeripheralDST; //Reading from the memory to the peripheral
 443              		.loc 1 86 33 view .LVU105
 444 011a 0023     		movs	r3, #0	@ tmp112,
 445              	@ usart.c:87: 	dma_init_usart1.DMA_DIR = DMA_DIR_PeripheralDST; //Reading from the memory to the pe
  87:usart.c       **** 	dma_init_usart1.DMA_M2M = DMA_M2M_Disable; //Not used
 446              		.loc 1 87 26 view .LVU106
 447 011c 0392     		str	r2, [sp, #12]	@ tmp113, dma_init_usart1.DMA_DIR
 448              	@ usart.c:91: 	dma_init_usart1.DMA_MemoryInc = DMA_MemoryInc_Enable;
  91:usart.c       **** 	dma_init_usart1.DMA_Mode = DMA_Mode_Normal; //DMA_Mode_Circular
 449              		.loc 1 91 32 view .LVU107
 450 011e 8022     		movs	r2, #128	@ tmp117,
 451              	@ usart.c:86: 	dma_init_usart1.DMA_BufferSize = 0;
ARM GAS  /var/folders/_2/qbh2zpt918qcm2b_6mgyydnm0000gn/T//ccmxyJw1.s 			page 15


  86:usart.c       **** 	dma_init_usart1.DMA_DIR = DMA_DIR_PeripheralDST; //Reading from the memory to the peripheral
 452              		.loc 1 86 33 view .LVU108
 453 0120 ADF81030 		strh	r3, [sp, #16]	@ movhi	@ tmp112, dma_init_usart1.DMA_BufferSize
  87:usart.c       **** 	dma_init_usart1.DMA_M2M = DMA_M2M_Disable; //Not used
 454              		.loc 1 87 2 is_stmt 1 view .LVU109
  88:usart.c       **** 	dma_init_usart1.DMA_MemoryBaseAddr = 0; //Base address of the array or what else 
 455              		.loc 1 88 2 view .LVU110
 456              	@ usart.c:88: 	dma_init_usart1.DMA_M2M = DMA_M2M_Disable; //Not used
  88:usart.c       **** 	dma_init_usart1.DMA_MemoryBaseAddr = 0; //Base address of the array or what else 
 457              		.loc 1 88 26 is_stmt 0 view .LVU111
 458 0124 0B93     		str	r3, [sp, #44]	@ tmp112, dma_init_usart1.DMA_M2M
  89:usart.c       **** 	dma_init_usart1.DMA_MemoryDataSize = DMA_MemoryDataSize_Byte; //Reading or writing on byte 
 459              		.loc 1 89 2 is_stmt 1 view .LVU112
 460              	@ usart.c:89: 	dma_init_usart1.DMA_MemoryBaseAddr = 0; //Base address of the array or what else 
  89:usart.c       **** 	dma_init_usart1.DMA_MemoryDataSize = DMA_MemoryDataSize_Byte; //Reading or writing on byte 
 461              		.loc 1 89 37 is_stmt 0 view .LVU113
 462 0126 0293     		str	r3, [sp, #8]	@ tmp112, dma_init_usart1.DMA_MemoryBaseAddr
  90:usart.c       **** 	dma_init_usart1.DMA_MemoryInc = DMA_MemoryInc_Enable;
 463              		.loc 1 90 2 is_stmt 1 view .LVU114
 464              	@ usart.c:90: 	dma_init_usart1.DMA_MemoryDataSize = DMA_MemoryDataSize_Byte; //Reading or writing o
  90:usart.c       **** 	dma_init_usart1.DMA_MemoryInc = DMA_MemoryInc_Enable;
 465              		.loc 1 90 37 is_stmt 0 view .LVU115
 466 0128 0893     		str	r3, [sp, #32]	@ tmp112, dma_init_usart1.DMA_MemoryDataSize
  91:usart.c       **** 	dma_init_usart1.DMA_Mode = DMA_Mode_Normal; //DMA_Mode_Circular
 467              		.loc 1 91 2 is_stmt 1 view .LVU116
 468              	@ usart.c:91: 	dma_init_usart1.DMA_MemoryInc = DMA_MemoryInc_Enable;
  91:usart.c       **** 	dma_init_usart1.DMA_Mode = DMA_Mode_Normal; //DMA_Mode_Circular
 469              		.loc 1 91 32 is_stmt 0 view .LVU117
 470 012a 0692     		str	r2, [sp, #24]	@ tmp117, dma_init_usart1.DMA_MemoryInc
  92:usart.c       **** 	dma_init_usart1.DMA_PeripheralBaseAddr = (uint32_t)&USART1->TDR; //Address to which the dma contro
 471              		.loc 1 92 2 is_stmt 1 view .LVU118
 472              	@ usart.c:92: 	dma_init_usart1.DMA_Mode = DMA_Mode_Normal; //DMA_Mode_Circular
  92:usart.c       **** 	dma_init_usart1.DMA_PeripheralBaseAddr = (uint32_t)&USART1->TDR; //Address to which the dma contro
 473              		.loc 1 92 27 is_stmt 0 view .LVU119
 474 012c 0993     		str	r3, [sp, #36]	@ tmp112, dma_init_usart1.DMA_Mode
  93:usart.c       **** 	dma_init_usart1.DMA_PeripheralDataSize = DMA_MemoryDataSize_Byte;
 475              		.loc 1 93 2 is_stmt 1 view .LVU120
 476              	@ usart.c:93: 	dma_init_usart1.DMA_PeripheralBaseAddr = (uint32_t)&USART1->TDR; //Address to which 
  93:usart.c       **** 	dma_init_usart1.DMA_PeripheralDataSize = DMA_MemoryDataSize_Byte;
 477              		.loc 1 93 41 is_stmt 0 view .LVU121
 478 012e 0C4A     		ldr	r2, .L16+4	@ tmp119,
 479              	@ usart.c:94: 	dma_init_usart1.DMA_PeripheralDataSize = DMA_MemoryDataSize_Byte;
  94:usart.c       **** 	dma_init_usart1.DMA_PeripheralInc = DMA_PeripheralInc_Disable;
 480              		.loc 1 94 41 view .LVU122
 481 0130 0793     		str	r3, [sp, #28]	@ tmp112, dma_init_usart1.DMA_PeripheralDataSize
 482              	@ usart.c:95: 	dma_init_usart1.DMA_PeripheralInc = DMA_PeripheralInc_Disable;
  95:usart.c       **** 	dma_init_usart1.DMA_Priority = DMA_Priority_High;
 483              		.loc 1 95 36 view .LVU123
 484 0132 0593     		str	r3, [sp, #20]	@ tmp112, dma_init_usart1.DMA_PeripheralInc
 485              	@ usart.c:98: 	DMA_Init(DMA1_Channel4, &dma_init_usart1);
  98:usart.c       **** 	DMA_ITConfig(DMA1_Channel4, DMA_IT_TC, ENABLE); //Enable the Transfer Complete interrupt.
 486              		.loc 1 98 2 view .LVU124
 487 0134 01A9     		add	r1, sp, #4	@,,
 488              	@ usart.c:96: 	dma_init_usart1.DMA_Priority = DMA_Priority_High;
  96:usart.c       **** 
 489              		.loc 1 96 31 view .LVU125
 490 0136 4FF40053 		mov	r3, #8192	@ tmp122,
ARM GAS  /var/folders/_2/qbh2zpt918qcm2b_6mgyydnm0000gn/T//ccmxyJw1.s 			page 16


 491              	@ usart.c:98: 	DMA_Init(DMA1_Channel4, &dma_init_usart1);
  98:usart.c       **** 	DMA_ITConfig(DMA1_Channel4, DMA_IT_TC, ENABLE); //Enable the Transfer Complete interrupt.
 492              		.loc 1 98 2 view .LVU126
 493 013a 2046     		mov	r0, r4	@, tmp110
 494              	@ usart.c:96: 	dma_init_usart1.DMA_Priority = DMA_Priority_High;
  96:usart.c       **** 
 495              		.loc 1 96 31 view .LVU127
 496 013c 0A93     		str	r3, [sp, #40]	@ tmp122, dma_init_usart1.DMA_Priority
 497              	@ usart.c:93: 	dma_init_usart1.DMA_PeripheralBaseAddr = (uint32_t)&USART1->TDR; //Address to which 
  93:usart.c       **** 	dma_init_usart1.DMA_PeripheralDataSize = DMA_MemoryDataSize_Byte;
 498              		.loc 1 93 41 view .LVU128
 499 013e 0192     		str	r2, [sp, #4]	@ tmp119, dma_init_usart1.DMA_PeripheralBaseAddr
  94:usart.c       **** 	dma_init_usart1.DMA_PeripheralInc = DMA_PeripheralInc_Disable;
 500              		.loc 1 94 2 is_stmt 1 view .LVU129
  95:usart.c       **** 	dma_init_usart1.DMA_Priority = DMA_Priority_High;
 501              		.loc 1 95 2 view .LVU130
  96:usart.c       **** 
 502              		.loc 1 96 2 view .LVU131
  98:usart.c       **** 	DMA_ITConfig(DMA1_Channel4, DMA_IT_TC, ENABLE); //Enable the Transfer Complete interrupt.
 503              		.loc 1 98 2 view .LVU132
 504 0140 FFF7FEFF 		bl	DMA_Init		@
 505              	.LVL17:
  99:usart.c       **** 	
 506              		.loc 1 99 2 view .LVU133
 507 0144 0122     		movs	r2, #1	@,
 508 0146 0221     		movs	r1, #2	@,
 509 0148 2046     		mov	r0, r4	@, tmp110
 510 014a FFF7FEFF 		bl	DMA_ITConfig		@
 511              	.LVL18:
 103:usart.c       **** 	
 512              		.loc 1 103 2 view .LVU134
 105:usart.c       **** 	dma_channel1.NVIC_IRQChannelCmd = ENABLE;
 513              		.loc 1 105 2 view .LVU135
 106:usart.c       **** 	dma_channel1.NVIC_IRQChannelPreemptionPriority = 0x05;
 514              		.loc 1 106 2 view .LVU136
 107:usart.c       **** 	dma_channel1.NVIC_IRQChannelSubPriority = 0x05;
 515              		.loc 1 107 2 view .LVU137
 108:usart.c       **** 
 516              		.loc 1 108 2 view .LVU138
 517              	@ usart.c:105: 	dma_channel1.NVIC_IRQChannel = DMA1_Channel4_IRQn;
 105:usart.c       **** 	dma_channel1.NVIC_IRQChannelCmd = ENABLE;
 518              		.loc 1 105 31 is_stmt 0 view .LVU139
 519 014e 054B     		ldr	r3, .L16+8	@ tmp126,
 520 0150 0093     		str	r3, [sp]	@ tmp126, MEM[(void *)&dma_channel1]
 110:usart.c       **** };
 521              		.loc 1 110 2 is_stmt 1 view .LVU140
 522 0152 6846     		mov	r0, sp	@,
 523 0154 FFF7FEFF 		bl	NVIC_Init		@
 524              	.LVL19:
 525              	@ usart.c:111: };
 111:usart.c       **** 
 526              		.loc 1 111 1 is_stmt 0 view .LVU141
 527 0158 0CB0     		add	sp, sp, #48	@,,
 528              	.LCFI6:
 529              		.cfi_def_cfa_offset 8
 530              		@ sp needed	@
 531 015a 10BD     		pop	{r4, pc}	@
ARM GAS  /var/folders/_2/qbh2zpt918qcm2b_6mgyydnm0000gn/T//ccmxyJw1.s 			page 17


 532              	.L17:
 533              		.align	2
 534              	.L16:
 535 015c 44000240 		.word	1073872964
 536 0160 28380140 		.word	1073821736
 537 0164 0E050501 		.word	17106190
 538              		.cfi_endproc
 539              	.LFE127:
 540              		.size	initDmaUsart1Tx, .-initDmaUsart1Tx
 541              		.align	1
 542              		.global	initDmaUsart1Rx
 543              		.syntax unified
 544              		.thumb
 545              		.thumb_func
 546              		.fpu softvfp
 547              		.type	initDmaUsart1Rx, %function
 548              	initDmaUsart1Rx:
 549              	.LFB128:
 113:usart.c       **** 	DMA_InitTypeDef dmaInitUsart1Rx;
 550              		.loc 1 113 27 is_stmt 1 view -0
 551              		.cfi_startproc
 552              		@ args = 0, pretend = 0, frame = 48
 553              		@ frame_needed = 0, uses_anonymous_args = 0
 114:usart.c       **** 	DMA_DeInit(DMA1_Channel5);	
 554              		.loc 1 114 2 view .LVU143
 115:usart.c       **** 	dmaInitUsart1Rx.DMA_BufferSize = sizeof(uart1RxBuffer); 
 555              		.loc 1 115 2 view .LVU144
 556              	@ usart.c:113: void initDmaUsart1Rx(void){
 113:usart.c       **** 	DMA_InitTypeDef dmaInitUsart1Rx;
 557              		.loc 1 113 27 is_stmt 0 view .LVU145
 558 0168 10B5     		push	{r4, lr}	@
 559              	.LCFI7:
 560              		.cfi_def_cfa_offset 8
 561              		.cfi_offset 4, -8
 562              		.cfi_offset 14, -4
 563              	@ usart.c:115: 	DMA_DeInit(DMA1_Channel5);	
 115:usart.c       **** 	dmaInitUsart1Rx.DMA_BufferSize = sizeof(uart1RxBuffer); 
 564              		.loc 1 115 2 view .LVU146
 565 016a 104C     		ldr	r4, .L19	@ tmp111,
 566              	@ usart.c:113: void initDmaUsart1Rx(void){
 113:usart.c       **** 	DMA_InitTypeDef dmaInitUsart1Rx;
 567              		.loc 1 113 27 view .LVU147
 568 016c 8CB0     		sub	sp, sp, #48	@,,
 569              	.LCFI8:
 570              		.cfi_def_cfa_offset 56
 571              	@ usart.c:115: 	DMA_DeInit(DMA1_Channel5);	
 115:usart.c       **** 	dmaInitUsart1Rx.DMA_BufferSize = sizeof(uart1RxBuffer); 
 572              		.loc 1 115 2 view .LVU148
 573 016e 2046     		mov	r0, r4	@, tmp111
 574 0170 FFF7FEFF 		bl	DMA_DeInit		@
 575              	.LVL20:
 116:usart.c       **** 
 576              		.loc 1 116 2 is_stmt 1 view .LVU149
 577              	@ usart.c:116: 	dmaInitUsart1Rx.DMA_BufferSize = sizeof(uart1RxBuffer); 
 116:usart.c       **** 
 578              		.loc 1 116 33 is_stmt 0 view .LVU150
 579 0174 8022     		movs	r2, #128	@ tmp113,
ARM GAS  /var/folders/_2/qbh2zpt918qcm2b_6mgyydnm0000gn/T//ccmxyJw1.s 			page 18


 580 0176 ADF81020 		strh	r2, [sp, #16]	@ movhi	@ tmp113, dmaInitUsart1Rx.DMA_BufferSize
 122:usart.c       **** 	dmaInitUsart1Rx.DMA_M2M = DMA_M2M_Disable;
 581              		.loc 1 122 2 is_stmt 1 view .LVU151
 582              	@ usart.c:126: 	dmaInitUsart1Rx.DMA_MemoryInc = DMA_MemoryInc_Enable;
 126:usart.c       **** 	dmaInitUsart1Rx.DMA_Mode = DMA_Mode_Circular;
 583              		.loc 1 126 32 is_stmt 0 view .LVU152
 584 017a 0692     		str	r2, [sp, #24]	@ tmp113, dmaInitUsart1Rx.DMA_MemoryInc
 585              	@ usart.c:124: 	dmaInitUsart1Rx.DMA_MemoryBaseAddr =(uint32_t)&uart1RxBuffer;
 124:usart.c       **** 	dmaInitUsart1Rx.DMA_MemoryDataSize = DMA_MemoryDataSize_Byte;
 586              		.loc 1 124 38 view .LVU153
 587 017c 0C49     		ldr	r1, .L19+4	@ tmp116,
 588              	@ usart.c:124: 	dmaInitUsart1Rx.DMA_MemoryBaseAddr =(uint32_t)&uart1RxBuffer;
 124:usart.c       **** 	dmaInitUsart1Rx.DMA_MemoryDataSize = DMA_MemoryDataSize_Byte;
 589              		.loc 1 124 37 view .LVU154
 590 017e 0291     		str	r1, [sp, #8]	@ tmp116, dmaInitUsart1Rx.DMA_MemoryBaseAddr
 591              	@ usart.c:127: 	dmaInitUsart1Rx.DMA_Mode = DMA_Mode_Circular;
 127:usart.c       **** 	dmaInitUsart1Rx.DMA_PeripheralBaseAddr = (uint32_t)&USART1->RDR;
 592              		.loc 1 127 27 view .LVU155
 593 0180 2022     		movs	r2, #32	@ tmp119,
 594              	@ usart.c:122: 	dmaInitUsart1Rx.DMA_DIR = DMA_DIR_PeripheralSRC;
 122:usart.c       **** 	dmaInitUsart1Rx.DMA_M2M = DMA_M2M_Disable;
 595              		.loc 1 122 26 view .LVU156
 596 0182 0023     		movs	r3, #0	@ tmp114,
 597              	@ usart.c:127: 	dmaInitUsart1Rx.DMA_Mode = DMA_Mode_Circular;
 127:usart.c       **** 	dmaInitUsart1Rx.DMA_PeripheralBaseAddr = (uint32_t)&USART1->RDR;
 598              		.loc 1 127 27 view .LVU157
 599 0184 0992     		str	r2, [sp, #36]	@ tmp119, dmaInitUsart1Rx.DMA_Mode
 600              	@ usart.c:133: 	DMA_Init(DMA1_Channel5, &dmaInitUsart1Rx);
 133:usart.c       **** 	DMA_Cmd(DMA1_Channel5, ENABLE);
 601              		.loc 1 133 2 view .LVU158
 602 0186 01A9     		add	r1, sp, #4	@,,
 603              	@ usart.c:128: 	dmaInitUsart1Rx.DMA_PeripheralBaseAddr = (uint32_t)&USART1->RDR;
 128:usart.c       **** 	dmaInitUsart1Rx.DMA_PeripheralDataSize = DMA_MemoryDataSize_Byte;
 604              		.loc 1 128 41 view .LVU159
 605 0188 0A4A     		ldr	r2, .L19+8	@ tmp120,
 606              	@ usart.c:122: 	dmaInitUsart1Rx.DMA_DIR = DMA_DIR_PeripheralSRC;
 122:usart.c       **** 	dmaInitUsart1Rx.DMA_M2M = DMA_M2M_Disable;
 607              		.loc 1 122 26 view .LVU160
 608 018a 0393     		str	r3, [sp, #12]	@ tmp114, dmaInitUsart1Rx.DMA_DIR
 123:usart.c       **** 	dmaInitUsart1Rx.DMA_MemoryBaseAddr =(uint32_t)&uart1RxBuffer;
 609              		.loc 1 123 2 is_stmt 1 view .LVU161
 610              	@ usart.c:133: 	DMA_Init(DMA1_Channel5, &dmaInitUsart1Rx);
 133:usart.c       **** 	DMA_Cmd(DMA1_Channel5, ENABLE);
 611              		.loc 1 133 2 is_stmt 0 view .LVU162
 612 018c 2046     		mov	r0, r4	@, tmp111
 613              	@ usart.c:123: 	dmaInitUsart1Rx.DMA_M2M = DMA_M2M_Disable;
 123:usart.c       **** 	dmaInitUsart1Rx.DMA_MemoryBaseAddr =(uint32_t)&uart1RxBuffer;
 614              		.loc 1 123 26 view .LVU163
 615 018e 0B93     		str	r3, [sp, #44]	@ tmp114, dmaInitUsart1Rx.DMA_M2M
 124:usart.c       **** 	dmaInitUsart1Rx.DMA_MemoryDataSize = DMA_MemoryDataSize_Byte;
 616              		.loc 1 124 2 is_stmt 1 view .LVU164
 125:usart.c       **** 	dmaInitUsart1Rx.DMA_MemoryInc = DMA_MemoryInc_Enable;
 617              		.loc 1 125 2 view .LVU165
 618              	@ usart.c:125: 	dmaInitUsart1Rx.DMA_MemoryDataSize = DMA_MemoryDataSize_Byte;
 125:usart.c       **** 	dmaInitUsart1Rx.DMA_MemoryInc = DMA_MemoryInc_Enable;
 619              		.loc 1 125 37 is_stmt 0 view .LVU166
 620 0190 0893     		str	r3, [sp, #32]	@ tmp114, dmaInitUsart1Rx.DMA_MemoryDataSize
ARM GAS  /var/folders/_2/qbh2zpt918qcm2b_6mgyydnm0000gn/T//ccmxyJw1.s 			page 19


 126:usart.c       **** 	dmaInitUsart1Rx.DMA_Mode = DMA_Mode_Circular;
 621              		.loc 1 126 2 is_stmt 1 view .LVU167
 127:usart.c       **** 	dmaInitUsart1Rx.DMA_PeripheralBaseAddr = (uint32_t)&USART1->RDR;
 622              		.loc 1 127 2 view .LVU168
 128:usart.c       **** 	dmaInitUsart1Rx.DMA_PeripheralDataSize = DMA_MemoryDataSize_Byte;
 623              		.loc 1 128 2 view .LVU169
 624              	@ usart.c:128: 	dmaInitUsart1Rx.DMA_PeripheralBaseAddr = (uint32_t)&USART1->RDR;
 128:usart.c       **** 	dmaInitUsart1Rx.DMA_PeripheralDataSize = DMA_MemoryDataSize_Byte;
 625              		.loc 1 128 41 is_stmt 0 view .LVU170
 626 0192 0192     		str	r2, [sp, #4]	@ tmp120, dmaInitUsart1Rx.DMA_PeripheralBaseAddr
 129:usart.c       **** 	dmaInitUsart1Rx.DMA_PeripheralInc = DMA_PeripheralInc_Disable;
 627              		.loc 1 129 2 is_stmt 1 view .LVU171
 628              	@ usart.c:129: 	dmaInitUsart1Rx.DMA_PeripheralDataSize = DMA_MemoryDataSize_Byte;
 129:usart.c       **** 	dmaInitUsart1Rx.DMA_PeripheralInc = DMA_PeripheralInc_Disable;
 629              		.loc 1 129 41 is_stmt 0 view .LVU172
 630 0194 0793     		str	r3, [sp, #28]	@ tmp114, dmaInitUsart1Rx.DMA_PeripheralDataSize
 130:usart.c       **** 	dmaInitUsart1Rx.DMA_Priority = DMA_Priority_Low;
 631              		.loc 1 130 2 is_stmt 1 view .LVU173
 632              	@ usart.c:130: 	dmaInitUsart1Rx.DMA_PeripheralInc = DMA_PeripheralInc_Disable;
 130:usart.c       **** 	dmaInitUsart1Rx.DMA_Priority = DMA_Priority_Low;
 633              		.loc 1 130 36 is_stmt 0 view .LVU174
 634 0196 0593     		str	r3, [sp, #20]	@ tmp114, dmaInitUsart1Rx.DMA_PeripheralInc
 131:usart.c       **** 
 635              		.loc 1 131 2 is_stmt 1 view .LVU175
 636              	@ usart.c:131: 	dmaInitUsart1Rx.DMA_Priority = DMA_Priority_Low;
 131:usart.c       **** 
 637              		.loc 1 131 31 is_stmt 0 view .LVU176
 638 0198 0A93     		str	r3, [sp, #40]	@ tmp114, dmaInitUsart1Rx.DMA_Priority
 133:usart.c       **** 	DMA_Cmd(DMA1_Channel5, ENABLE);
 639              		.loc 1 133 2 is_stmt 1 view .LVU177
 640 019a FFF7FEFF 		bl	DMA_Init		@
 641              	.LVL21:
 134:usart.c       **** 	//DMA_ITConfig(DMA1_Channel5, DMA_IT_TC | DMA_IT_HT, ENABLE);
 642              		.loc 1 134 2 view .LVU178
 643 019e 0121     		movs	r1, #1	@,
 644 01a0 2046     		mov	r0, r4	@, tmp111
 645 01a2 FFF7FEFF 		bl	DMA_Cmd		@
 646              	.LVL22:
 647              	@ usart.c:144: };
 144:usart.c       **** 
 648              		.loc 1 144 1 is_stmt 0 view .LVU179
 649 01a6 0CB0     		add	sp, sp, #48	@,,
 650              	.LCFI9:
 651              		.cfi_def_cfa_offset 8
 652              		@ sp needed	@
 653 01a8 10BD     		pop	{r4, pc}	@
 654              	.L20:
 655 01aa 00BF     		.align	2
 656              	.L19:
 657 01ac 58000240 		.word	1073872984
 658 01b0 00000000 		.word	.LANCHOR1
 659 01b4 24380140 		.word	1073821732
 660              		.cfi_endproc
 661              	.LFE128:
 662              		.size	initDmaUsart1Rx, .-initDmaUsart1Rx
 663              		.align	1
 664              		.global	int_to_buffer
ARM GAS  /var/folders/_2/qbh2zpt918qcm2b_6mgyydnm0000gn/T//ccmxyJw1.s 			page 20


 665              		.syntax unified
 666              		.thumb
 667              		.thumb_func
 668              		.fpu softvfp
 669              		.type	int_to_buffer, %function
 670              	int_to_buffer:
 671              	.LVL23:
 672              	.LFB129:
 200:usart.c       **** 	char str[20];
 673              		.loc 1 200 64 is_stmt 1 view -0
 674              		.cfi_startproc
 675              		@ args = 0, pretend = 0, frame = 24
 676              		@ frame_needed = 0, uses_anonymous_args = 0
 201:usart.c       **** 	itoa(num, str, 10);
 677              		.loc 1 201 2 view .LVU181
 202:usart.c       **** 	uint8_t i = 0;
 678              		.loc 1 202 2 view .LVU182
 679              	@ usart.c:200: void int_to_buffer(int32_t num, uint8_t* buffer, uint16_t* pos){
 200:usart.c       **** 	char str[20];
 680              		.loc 1 200 64 is_stmt 0 view .LVU183
 681 01b8 70B5     		push	{r4, r5, r6, lr}	@
 682              	.LCFI10:
 683              		.cfi_def_cfa_offset 16
 684              		.cfi_offset 4, -16
 685              		.cfi_offset 5, -12
 686              		.cfi_offset 6, -8
 687              		.cfi_offset 14, -4
 688 01ba 86B0     		sub	sp, sp, #24	@,,
 689              	.LCFI11:
 690              		.cfi_def_cfa_offset 40
 691              	@ usart.c:200: void int_to_buffer(int32_t num, uint8_t* buffer, uint16_t* pos){
 200:usart.c       **** 	char str[20];
 692              		.loc 1 200 64 view .LVU184
 693 01bc 0D46     		mov	r5, r1	@ buffer, tmp130
 694 01be 1446     		mov	r4, r2	@ pos, tmp131
 695              	@ usart.c:202: 	itoa(num, str, 10);
 202:usart.c       **** 	uint8_t i = 0;
 696              		.loc 1 202 2 view .LVU185
 697 01c0 01A9     		add	r1, sp, #4	@,,
 698              	.LVL24:
 202:usart.c       **** 	uint8_t i = 0;
 699              		.loc 1 202 2 view .LVU186
 700 01c2 0A22     		movs	r2, #10	@,
 701              	.LVL25:
 202:usart.c       **** 	uint8_t i = 0;
 702              		.loc 1 202 2 view .LVU187
 703 01c4 FFF7FEFF 		bl	itoa		@
 704              	.LVL26:
 203:usart.c       **** 	int8_t c = 0;
 705              		.loc 1 203 2 is_stmt 1 view .LVU188
 204:usart.c       **** 	while((c = str[i++]) != '\0') *(buffer + (*pos)++) = c;
 706              		.loc 1 204 2 view .LVU189
 205:usart.c       **** 	*(buffer + (*pos)++) = 0x20; // Space in ASCII
 707              		.loc 1 205 2 view .LVU190
 708              	@ usart.c:205: 	while((c = str[i++]) != '\0') *(buffer + (*pos)++) = c;
 205:usart.c       **** 	*(buffer + (*pos)++) = 0x20; // Space in ASCII
 709              		.loc 1 205 7 is_stmt 0 view .LVU191
ARM GAS  /var/folders/_2/qbh2zpt918qcm2b_6mgyydnm0000gn/T//ccmxyJw1.s 			page 21


 710 01c8 0022     		movs	r2, #0	@ ivtmp.42,
 711              	.LVL27:
 712              	.L22:
 205:usart.c       **** 	*(buffer + (*pos)++) = 0x20; // Space in ASCII
 713              		.loc 1 205 7 is_stmt 1 discriminator 1 view .LVU192
 714              	@ usart.c:205: 	while((c = str[i++]) != '\0') *(buffer + (*pos)++) = c;
 205:usart.c       **** 	*(buffer + (*pos)++) = 0x20; // Space in ASCII
 715              		.loc 1 205 16 is_stmt 0 discriminator 1 view .LVU193
 716 01ca 06AB     		add	r3, sp, #24	@ tmp132,,
 717 01cc 2188     		ldrh	r1, [r4]	@ pretmp_29, *pos_17(D)
 718 01ce 53FA82F3 		uxtab	r3, r3, r2	@ tmp125, tmp132, ivtmp.42
 719 01d2 6E18     		adds	r6, r5, r1	@ _32, buffer, pretmp_29
 720 01d4 13F8140C 		ldrb	r0, [r3, #-20]	@ zero_extendqisi2	@ _6, str
 721              	.LVL28:
 205:usart.c       **** 	*(buffer + (*pos)++) = 0x20; // Space in ASCII
 722              		.loc 1 205 16 discriminator 1 view .LVU194
 723 01d8 4B1C     		adds	r3, r1, #1	@ tmp126, pretmp_29,
 724 01da 9BB2     		uxth	r3, r3	@ _30, tmp126
 725 01dc 0132     		adds	r2, r2, #1	@ ivtmp.42, ivtmp.42,
 726              	.LVL29:
 727              	@ usart.c:205: 	while((c = str[i++]) != '\0') *(buffer + (*pos)++) = c;
 205:usart.c       **** 	*(buffer + (*pos)++) = 0x20; // Space in ASCII
 728              		.loc 1 205 49 discriminator 1 view .LVU195
 729 01de 2380     		strh	r3, [r4]	@ movhi	@ _30, *pos_17(D)
 730              	@ usart.c:205: 	while((c = str[i++]) != '\0') *(buffer + (*pos)++) = c;
 205:usart.c       **** 	*(buffer + (*pos)++) = 0x20; // Space in ASCII
 731              		.loc 1 205 7 discriminator 1 view .LVU196
 732 01e0 18B9     		cbnz	r0, .L23	@ _6,
 206:usart.c       **** };
 733              		.loc 1 206 2 is_stmt 1 view .LVU197
 734              	@ usart.c:206: 	*(buffer + (*pos)++) = 0x20; // Space in ASCII
 206:usart.c       **** };
 735              		.loc 1 206 23 is_stmt 0 view .LVU198
 736 01e2 2023     		movs	r3, #32	@ tmp128,
 737 01e4 3370     		strb	r3, [r6]	@ tmp128, *_32
 738              	@ usart.c:207: };
 207:usart.c       **** 
 739              		.loc 1 207 1 view .LVU199
 740 01e6 06B0     		add	sp, sp, #24	@,,
 741              	.LCFI12:
 742              		.cfi_remember_state
 743              		.cfi_def_cfa_offset 16
 744              		@ sp needed	@
 745 01e8 70BD     		pop	{r4, r5, r6, pc}	@
 746              	.LVL30:
 747              	.L23:
 748              	.LCFI13:
 749              		.cfi_restore_state
 205:usart.c       **** 	*(buffer + (*pos)++) = 0x20; // Space in ASCII
 750              		.loc 1 205 32 is_stmt 1 discriminator 2 view .LVU200
 751              	@ usart.c:205: 	while((c = str[i++]) != '\0') *(buffer + (*pos)++) = c;
 205:usart.c       **** 	*(buffer + (*pos)++) = 0x20; // Space in ASCII
 752              		.loc 1 205 53 is_stmt 0 discriminator 2 view .LVU201
 753 01ea 6854     		strb	r0, [r5, r1]	@ _6, *_32
 754 01ec EDE7     		b	.L22		@
 755              		.cfi_endproc
 756              	.LFE129:
ARM GAS  /var/folders/_2/qbh2zpt918qcm2b_6mgyydnm0000gn/T//ccmxyJw1.s 			page 22


 757              		.size	int_to_buffer, .-int_to_buffer
 758              		.global	__aeabi_f2iz
 759              		.global	__aeabi_i2f
 760              		.global	__aeabi_fsub
 761              		.global	__aeabi_fcmplt
 762              		.global	__aeabi_fmul
 763              		.align	1
 764              		.global	float_to_buffer
 765              		.syntax unified
 766              		.thumb
 767              		.thumb_func
 768              		.fpu softvfp
 769              		.type	float_to_buffer, %function
 770              	float_to_buffer:
 771              	.LVL31:
 772              	.LFB130:
 209:usart.c       **** 	int32_t tmp, tmp2;
 773              		.loc 1 209 65 is_stmt 1 view -0
 774              		.cfi_startproc
 775              		@ args = 0, pretend = 0, frame = 8
 776              		@ frame_needed = 0, uses_anonymous_args = 0
 210:usart.c       **** 	uint8_t str[3];
 777              		.loc 1 210 2 view .LVU203
 211:usart.c       **** 
 778              		.loc 1 211 2 view .LVU204
 213:usart.c       **** 	//int_to_buffer(tmp, buffer, *pos);
 779              		.loc 1 213 2 view .LVU205
 780              	@ usart.c:215: 	*(buffer + (*pos)++) = 0x2E; // Point in ASCII
 215:usart.c       **** 	fnum = fnum - tmp;
 781              		.loc 1 215 14 is_stmt 0 view .LVU206
 782 01ee 1388     		ldrh	r3, [r2]	@ _1, *pos_27(D)
 783              	@ usart.c:209: void float_to_buffer(float fnum, uint8_t* buffer, uint16_t* pos){
 209:usart.c       **** 	int32_t tmp, tmp2;
 784              		.loc 1 209 65 view .LVU207
 785 01f0 73B5     		push	{r0, r1, r4, r5, r6, lr}	@
 786              	.LCFI14:
 787              		.cfi_def_cfa_offset 24
 788              		.cfi_offset 4, -16
 789              		.cfi_offset 5, -12
 790              		.cfi_offset 6, -8
 791              		.cfi_offset 14, -4
 792              	@ usart.c:209: void float_to_buffer(float fnum, uint8_t* buffer, uint16_t* pos){
 209:usart.c       **** 	int32_t tmp, tmp2;
 793              		.loc 1 209 65 view .LVU208
 794 01f2 1446     		mov	r4, r2	@ pos, tmp206
 795              	@ usart.c:215: 	*(buffer + (*pos)++) = 0x2E; // Point in ASCII
 215:usart.c       **** 	fnum = fnum - tmp;
 796              		.loc 1 215 19 view .LVU209
 797 01f4 5A1C     		adds	r2, r3, #1	@ tmp144, _1,
 798              	.LVL32:
 215:usart.c       **** 	fnum = fnum - tmp;
 799              		.loc 1 215 19 view .LVU210
 800 01f6 2280     		strh	r2, [r4]	@ movhi	@ tmp144, *pos_27(D)
 801              	@ usart.c:215: 	*(buffer + (*pos)++) = 0x2E; // Point in ASCII
 215:usart.c       **** 	fnum = fnum - tmp;
 802              		.loc 1 215 23 view .LVU211
 803 01f8 2E22     		movs	r2, #46	@ tmp146,
ARM GAS  /var/folders/_2/qbh2zpt918qcm2b_6mgyydnm0000gn/T//ccmxyJw1.s 			page 23


 804 01fa CA54     		strb	r2, [r1, r3]	@ tmp146, *_4
 805              	@ usart.c:209: void float_to_buffer(float fnum, uint8_t* buffer, uint16_t* pos){
 209:usart.c       **** 	int32_t tmp, tmp2;
 806              		.loc 1 209 65 view .LVU212
 807 01fc 0646     		mov	r6, r0	@ fnum, tmp204
 808              	.LVL33:
 215:usart.c       **** 	fnum = fnum - tmp;
 809              		.loc 1 215 2 is_stmt 1 view .LVU213
 216:usart.c       **** 	fnum = fnum < 0 ? fnum *-1000 : fnum * 1000;
 810              		.loc 1 216 2 view .LVU214
 811              	@ usart.c:209: void float_to_buffer(float fnum, uint8_t* buffer, uint16_t* pos){
 209:usart.c       **** 	int32_t tmp, tmp2;
 812              		.loc 1 209 65 is_stmt 0 view .LVU215
 813 01fe 0D46     		mov	r5, r1	@ buffer, tmp205
 814              	@ usart.c:213: 	tmp = fnum;
 213:usart.c       **** 	//int_to_buffer(tmp, buffer, *pos);
 815              		.loc 1 213 6 view .LVU216
 816 0200 FFF7FEFF 		bl	__aeabi_f2iz		@
 817              	.LVL34:
 818              	@ usart.c:216: 	fnum = fnum - tmp;
 216:usart.c       **** 	fnum = fnum < 0 ? fnum *-1000 : fnum * 1000;
 819              		.loc 1 216 14 view .LVU217
 820 0204 FFF7FEFF 		bl	__aeabi_i2f		@
 821              	.LVL35:
 822 0208 0146     		mov	r1, r0	@ tmp207,
 823              	@ usart.c:216: 	fnum = fnum - tmp;
 216:usart.c       **** 	fnum = fnum < 0 ? fnum *-1000 : fnum * 1000;
 824              		.loc 1 216 7 view .LVU218
 825 020a 3046     		mov	r0, r6	@, fnum
 826 020c FFF7FEFF 		bl	__aeabi_fsub		@
 827              	.LVL36:
 828              	@ usart.c:217: 	fnum = fnum < 0 ? fnum *-1000 : fnum * 1000;
 217:usart.c       **** 	tmp2 = fnum;
 829              		.loc 1 217 32 view .LVU219
 830 0210 0021     		movs	r1, #0	@,
 831              	@ usart.c:216: 	fnum = fnum - tmp;
 216:usart.c       **** 	fnum = fnum < 0 ? fnum *-1000 : fnum * 1000;
 832              		.loc 1 216 7 view .LVU220
 833 0212 0646     		mov	r6, r0	@ tmp149, tmp208
 834              	.LVL37:
 217:usart.c       **** 	tmp2 = fnum;
 835              		.loc 1 217 2 is_stmt 1 view .LVU221
 836              	@ usart.c:217: 	fnum = fnum < 0 ? fnum *-1000 : fnum * 1000;
 217:usart.c       **** 	tmp2 = fnum;
 837              		.loc 1 217 32 is_stmt 0 view .LVU222
 838 0214 FFF7FEFF 		bl	__aeabi_fcmplt		@
 839              	.LVL38:
 217:usart.c       **** 	tmp2 = fnum;
 840              		.loc 1 217 32 view .LVU223
 841 0218 60B3     		cbz	r0, .L31	@ tmp209,
 842              	@ usart.c:217: 	fnum = fnum < 0 ? fnum *-1000 : fnum * 1000;
 217:usart.c       **** 	tmp2 = fnum;
 843              		.loc 1 217 32 discriminator 1 view .LVU224
 844 021a 1749     		ldr	r1, .L33	@,
 845              	.L32:
 846              	@ usart.c:217: 	fnum = fnum < 0 ? fnum *-1000 : fnum * 1000;
 217:usart.c       **** 	tmp2 = fnum;
ARM GAS  /var/folders/_2/qbh2zpt918qcm2b_6mgyydnm0000gn/T//ccmxyJw1.s 			page 24


 847              		.loc 1 217 32 discriminator 2 view .LVU225
 848 021c 3046     		mov	r0, r6	@, tmp149
 849 021e FFF7FEFF 		bl	__aeabi_fmul		@
 850              	.LVL39:
 218:usart.c       **** 	int i = 0;
 851              		.loc 1 218 2 is_stmt 1 discriminator 2 view .LVU226
 852              	@ usart.c:218: 	tmp2 = fnum;
 218:usart.c       **** 	int i = 0;
 853              		.loc 1 218 7 is_stmt 0 discriminator 2 view .LVU227
 854 0222 FFF7FEFF 		bl	__aeabi_f2iz		@
 855              	.LVL40:
 219:usart.c       **** 	do{
 856              		.loc 1 219 2 is_stmt 1 discriminator 2 view .LVU228
 220:usart.c       **** 		str[i++] = tmp2 % 10 + '0';
 857              		.loc 1 220 2 discriminator 2 view .LVU229
 221:usart.c       **** 		tmp2 /= 10;
 858              		.loc 1 221 3 discriminator 2 view .LVU230
 859              	@ usart.c:221: 		str[i++] = tmp2 % 10 + '0';
 221:usart.c       **** 		tmp2 /= 10;
 860              		.loc 1 221 19 is_stmt 0 discriminator 2 view .LVU231
 861 0226 0A22     		movs	r2, #10	@ tmp160,
 862 0228 90FBF2F3 		sdiv	r3, r0, r2	@ tmp159, tmp154, tmp160
 863 022c 02FB1300 		mls	r0, r2, r3, r0	@ tmp163, tmp160, tmp159, tmp154
 864              	.LVL41:
 221:usart.c       **** 		tmp2 /= 10;
 865              		.loc 1 221 19 discriminator 2 view .LVU232
 866 0230 93FBF2F1 		sdiv	r1, r3, r2	@ tmp172, tmp159, tmp160
 867 0234 02FB1133 		mls	r3, r2, r1, r3	@ tmp176, tmp160, tmp172, tmp159
 868              	@ usart.c:221: 		str[i++] = tmp2 % 10 + '0';
 221:usart.c       **** 		tmp2 /= 10;
 869              		.loc 1 221 24 discriminator 2 view .LVU233
 870 0238 3033     		adds	r3, r3, #48	@ tmp178, tmp176,
 871              	@ usart.c:221: 		str[i++] = tmp2 % 10 + '0';
 221:usart.c       **** 		tmp2 /= 10;
 872              		.loc 1 221 12 discriminator 2 view .LVU234
 873 023a 8DF80530 		strb	r3, [sp, #5]	@ tmp178, str
 874              	@ usart.c:221: 		str[i++] = tmp2 % 10 + '0';
 221:usart.c       **** 		tmp2 /= 10;
 875              		.loc 1 221 19 discriminator 2 view .LVU235
 876 023e 91FBF2F3 		sdiv	r3, r1, r2	@ tmp187, tmp172, tmp160
 877 0242 02FB1312 		mls	r2, r2, r3, r1	@ tmp191, tmp160, tmp187, tmp172
 878              	@ usart.c:221: 		str[i++] = tmp2 % 10 + '0';
 221:usart.c       **** 		tmp2 /= 10;
 879              		.loc 1 221 24 discriminator 2 view .LVU236
 880 0246 3030     		adds	r0, r0, #48	@ tmp165, tmp163,
 881 0248 3032     		adds	r2, r2, #48	@ tmp193, tmp191,
 882              	@ usart.c:221: 		str[i++] = tmp2 % 10 + '0';
 221:usart.c       **** 		tmp2 /= 10;
 883              		.loc 1 221 12 discriminator 2 view .LVU237
 884 024a 8DF80400 		strb	r0, [sp, #4]	@ tmp165, str
 222:usart.c       **** 	} while (i < 3);
 885              		.loc 1 222 3 is_stmt 1 discriminator 2 view .LVU238
 223:usart.c       **** 	while (i) *(buffer + (*pos)++) = str[--i];
 886              		.loc 1 223 10 discriminator 2 view .LVU239
 220:usart.c       **** 		str[i++] = tmp2 % 10 + '0';
 887              		.loc 1 220 2 discriminator 2 view .LVU240
 221:usart.c       **** 		tmp2 /= 10;
ARM GAS  /var/folders/_2/qbh2zpt918qcm2b_6mgyydnm0000gn/T//ccmxyJw1.s 			page 25


 888              		.loc 1 221 3 discriminator 2 view .LVU241
 889              	.LVL42:
 222:usart.c       **** 	} while (i < 3);
 890              		.loc 1 222 3 discriminator 2 view .LVU242
 223:usart.c       **** 	while (i) *(buffer + (*pos)++) = str[--i];
 891              		.loc 1 223 10 discriminator 2 view .LVU243
 220:usart.c       **** 		str[i++] = tmp2 % 10 + '0';
 892              		.loc 1 220 2 discriminator 2 view .LVU244
 221:usart.c       **** 		tmp2 /= 10;
 893              		.loc 1 221 3 discriminator 2 view .LVU245
 894              	@ usart.c:221: 		str[i++] = tmp2 % 10 + '0';
 221:usart.c       **** 		tmp2 /= 10;
 895              		.loc 1 221 12 is_stmt 0 discriminator 2 view .LVU246
 896 024e 8DF80620 		strb	r2, [sp, #6]	@ tmp193, str
 222:usart.c       **** 	} while (i < 3);
 897              		.loc 1 222 3 is_stmt 1 discriminator 2 view .LVU247
 223:usart.c       **** 	while (i) *(buffer + (*pos)++) = str[--i];
 898              		.loc 1 223 10 discriminator 2 view .LVU248
 899              	@ usart.c:221: 		str[i++] = tmp2 % 10 + '0';
 221:usart.c       **** 		tmp2 /= 10;
 900              		.loc 1 221 8 is_stmt 0 discriminator 2 view .LVU249
 901 0252 0323     		movs	r3, #3	@ i,
 902              	@ usart.c:224: 	while (i) *(buffer + (*pos)++) = str[--i];
 224:usart.c       ****  	*(buffer + (*pos)++) = 0x20; // Space in ASCII
 903              		.loc 1 224 38 discriminator 2 view .LVU250
 904 0254 01A8     		add	r0, sp, #4	@ tmp197,,
 905              	.LVL43:
 906              	.L28:
 224:usart.c       ****  	*(buffer + (*pos)++) = 0x20; // Space in ASCII
 907              		.loc 1 224 12 is_stmt 1 discriminator 2 view .LVU251
 908              	@ usart.c:224: 	while (i) *(buffer + (*pos)++) = str[--i];
 224:usart.c       ****  	*(buffer + (*pos)++) = 0x20; // Space in ASCII
 909              		.loc 1 224 24 is_stmt 0 discriminator 2 view .LVU252
 910 0256 2288     		ldrh	r2, [r4]	@ _9, *pos_27(D)
 911              	@ usart.c:224: 	while (i) *(buffer + (*pos)++) = str[--i];
 224:usart.c       ****  	*(buffer + (*pos)++) = 0x20; // Space in ASCII
 912              		.loc 1 224 33 discriminator 2 view .LVU253
 913 0258 013B     		subs	r3, r3, #1	@ i, i,
 914              	.LVL44:
 915              	@ usart.c:224: 	while (i) *(buffer + (*pos)++) = str[--i];
 224:usart.c       ****  	*(buffer + (*pos)++) = 0x20; // Space in ASCII
 916              		.loc 1 224 29 discriminator 2 view .LVU254
 917 025a 511C     		adds	r1, r2, #1	@ tmp195, _9,
 918 025c 2180     		strh	r1, [r4]	@ movhi	@ tmp195, *pos_27(D)
 919              	@ usart.c:224: 	while (i) *(buffer + (*pos)++) = str[--i];
 224:usart.c       ****  	*(buffer + (*pos)++) = 0x20; // Space in ASCII
 920              		.loc 1 224 33 discriminator 2 view .LVU255
 921 025e 195C     		ldrb	r1, [r3, r0]	@ zero_extendqisi2	@ MEM[symbol: str, index: _56, offset: 0B], MEM[symbol: str, 
 922 0260 A954     		strb	r1, [r5, r2]	@ MEM[symbol: str, index: _56, offset: 0B], *_12
 224:usart.c       ****  	*(buffer + (*pos)++) = 0x20; // Space in ASCII
 923              		.loc 1 224 8 is_stmt 1 discriminator 2 view .LVU256
 924 0262 002B     		cmp	r3, #0	@ i
 925 0264 F7D1     		bne	.L28	@
 225:usart.c       **** };
 926              		.loc 1 225 3 view .LVU257
 927              	@ usart.c:225:  	*(buffer + (*pos)++) = 0x20; // Space in ASCII
 225:usart.c       **** };
ARM GAS  /var/folders/_2/qbh2zpt918qcm2b_6mgyydnm0000gn/T//ccmxyJw1.s 			page 26


 928              		.loc 1 225 15 is_stmt 0 view .LVU258
 929 0266 2388     		ldrh	r3, [r4]	@ _14, *pos_27(D)
 930              	.LVL45:
 931              	@ usart.c:225:  	*(buffer + (*pos)++) = 0x20; // Space in ASCII
 225:usart.c       **** };
 932              		.loc 1 225 20 view .LVU259
 933 0268 5A1C     		adds	r2, r3, #1	@ tmp200, _14,
 934 026a 2280     		strh	r2, [r4]	@ movhi	@ tmp200, *pos_27(D)
 935              	@ usart.c:225:  	*(buffer + (*pos)++) = 0x20; // Space in ASCII
 225:usart.c       **** };
 936              		.loc 1 225 24 view .LVU260
 937 026c 2022     		movs	r2, #32	@ tmp202,
 938 026e EA54     		strb	r2, [r5, r3]	@ tmp202, *_17
 939              	@ usart.c:226: };
 226:usart.c       **** 
 940              		.loc 1 226 1 view .LVU261
 941 0270 02B0     		add	sp, sp, #8	@,,
 942              	.LCFI15:
 943              		.cfi_remember_state
 944              		.cfi_def_cfa_offset 16
 945              		@ sp needed	@
 946 0272 70BD     		pop	{r4, r5, r6, pc}	@
 947              	.LVL46:
 948              	.L31:
 949              	.LCFI16:
 950              		.cfi_restore_state
 951              	@ usart.c:217: 	fnum = fnum < 0 ? fnum *-1000 : fnum * 1000;
 217:usart.c       **** 	tmp2 = fnum;
 952              		.loc 1 217 32 discriminator 2 view .LVU262
 953 0274 0149     		ldr	r1, .L33+4	@,
 954 0276 D1E7     		b	.L32		@
 955              	.L34:
 956              		.align	2
 957              	.L33:
 958 0278 00007AC4 		.word	-998637568
 959 027c 00007A44 		.word	1148846080
 960              		.cfi_endproc
 961              	.LFE130:
 962              		.size	float_to_buffer, .-float_to_buffer
 963              		.align	1
 964              		.global	text_to_buffer
 965              		.syntax unified
 966              		.thumb
 967              		.thumb_func
 968              		.fpu softvfp
 969              		.type	text_to_buffer, %function
 970              	text_to_buffer:
 971              	.LVL47:
 972              	.LFB131:
 228:usart.c       **** 	while(*t != 0){
 973              		.loc 1 228 61 is_stmt 1 view -0
 974              		.cfi_startproc
 975              		@ args = 0, pretend = 0, frame = 0
 976              		@ frame_needed = 0, uses_anonymous_args = 0
 229:usart.c       **** 		*(buffer + (*pos)++) = *t++;	
 977              		.loc 1 229 2 view .LVU264
 978              	@ usart.c:228: void text_to_buffer(char* t, uint8_t* buffer, uint16_t* pos){
ARM GAS  /var/folders/_2/qbh2zpt918qcm2b_6mgyydnm0000gn/T//ccmxyJw1.s 			page 27


 228:usart.c       **** 	while(*t != 0){
 979              		.loc 1 228 61 is_stmt 0 view .LVU265
 980 0280 10B5     		push	{r4, lr}	@
 981              	.LCFI17:
 982              		.cfi_def_cfa_offset 8
 983              		.cfi_offset 4, -8
 984              		.cfi_offset 14, -4
 985 0282 0138     		subs	r0, r0, #1	@ ivtmp.67, tmp126,
 986              	.LVL48:
 987              	.L36:
 229:usart.c       **** 		*(buffer + (*pos)++) = *t++;	
 988              		.loc 1 229 7 is_stmt 1 view .LVU266
 989 0284 10F8013F 		ldrb	r3, [r0, #1]!	@ zero_extendqisi2	@ MEM[base: _20, offset: 0B], MEM[base: _20, offset: 0B]
 990              	.LVL49:
 229:usart.c       **** 		*(buffer + (*pos)++) = *t++;	
 991              		.loc 1 229 7 is_stmt 0 view .LVU267
 992 0288 03B9     		cbnz	r3, .L37	@ MEM[base: _20, offset: 0B],
 993              	@ usart.c:232: };
 232:usart.c       **** 
 994              		.loc 1 232 1 view .LVU268
 995 028a 10BD     		pop	{r4, pc}	@
 996              	.L37:
 230:usart.c       **** 	};
 997              		.loc 1 230 3 is_stmt 1 view .LVU269
 998              	.LVL50:
 999              	@ usart.c:230: 		*(buffer + (*pos)++) = *t++;	
 230:usart.c       **** 	};
 1000              		.loc 1 230 15 is_stmt 0 view .LVU270
 1001 028c 1388     		ldrh	r3, [r2]	@ _1, *pos_12(D)
 1002              	@ usart.c:230: 		*(buffer + (*pos)++) = *t++;	
 230:usart.c       **** 	};
 1003              		.loc 1 230 20 view .LVU271
 1004 028e 5C1C     		adds	r4, r3, #1	@ tmp122, _1,
 1005 0290 1480     		strh	r4, [r2]	@ movhi	@ tmp122, *pos_12(D)
 1006              	@ usart.c:230: 		*(buffer + (*pos)++) = *t++;	
 230:usart.c       **** 	};
 1007              		.loc 1 230 26 view .LVU272
 1008 0292 0478     		ldrb	r4, [r0]	@ zero_extendqisi2	@ _5, MEM[base: _20, offset: 0B]
 1009              	@ usart.c:230: 		*(buffer + (*pos)++) = *t++;	
 230:usart.c       **** 	};
 1010              		.loc 1 230 24 view .LVU273
 1011 0294 CC54     		strb	r4, [r1, r3]	@ _5, *_4
 1012 0296 F5E7     		b	.L36		@
 1013              		.cfi_endproc
 1014              	.LFE131:
 1015              		.size	text_to_buffer, .-text_to_buffer
 1016              		.align	1
 1017              		.global	init_dmaUart1Rx_t
 1018              		.syntax unified
 1019              		.thumb
 1020              		.thumb_func
 1021              		.fpu softvfp
 1022              		.type	init_dmaUart1Rx_t, %function
 1023              	init_dmaUart1Rx_t:
 1024              	.LFB132:
 234:usart.c       **** 	dmaUart1Rx_p->dmaChannel = DMA1_Channel5;		
 1025              		.loc 1 234 29 is_stmt 1 view -0
ARM GAS  /var/folders/_2/qbh2zpt918qcm2b_6mgyydnm0000gn/T//ccmxyJw1.s 			page 28


 1026              		.cfi_startproc
 1027              		@ args = 0, pretend = 0, frame = 0
 1028              		@ frame_needed = 0, uses_anonymous_args = 0
 1029              		@ link register save eliminated.
 235:usart.c       **** 	dmaUart1Rx_p->rxBufferSize = sizeof(uart1RxBuffer);
 1030              		.loc 1 235 2 view .LVU275
 1031              	@ usart.c:235: 	dmaUart1Rx_p->dmaChannel = DMA1_Channel5;		
 235:usart.c       **** 	dmaUart1Rx_p->rxBufferSize = sizeof(uart1RxBuffer);
 1032              		.loc 1 235 14 is_stmt 0 view .LVU276
 1033 0298 044B     		ldr	r3, .L39	@ tmp111,
 1034 029a 1B68     		ldr	r3, [r3]	@ dmaUart1Rx_p.6_1, dmaUart1Rx_p
 236:usart.c       **** 	dmaUart1Rx_p->rxBufferHead = 0;
 1035              		.loc 1 236 2 is_stmt 1 view .LVU277
 237:usart.c       **** 	dmaUart1Rx_p->rxBufferTail = 0;	
 1036              		.loc 1 237 2 view .LVU278
 238:usart.c       **** 	dmaUart1Rx_p->rxDmaPos = sizeof(uart1RxBuffer);
 1037              		.loc 1 238 2 view .LVU279
 239:usart.c       **** };
 1038              		.loc 1 239 2 view .LVU280
 1039              	@ usart.c:239: 	dmaUart1Rx_p->rxDmaPos = sizeof(uart1RxBuffer);
 239:usart.c       **** };
 1040              		.loc 1 239 25 is_stmt 0 view .LVU281
 1041 029c 4FF08012 		mov	r2, #8388736	@ tmp113,
 1042 02a0 0021     		movs	r1, #0	@,
 1043 02a2 C3E90012 		strd	r1, r2, [r3]	@, tmp113, dmaUart1Rx_p.6_1
 1044              	@ usart.c:235: 	dmaUart1Rx_p->dmaChannel = DMA1_Channel5;		
 235:usart.c       **** 	dmaUart1Rx_p->rxBufferSize = sizeof(uart1RxBuffer);
 1045              		.loc 1 235 27 view .LVU282
 1046 02a6 024A     		ldr	r2, .L39+4	@ tmp114,
 1047 02a8 9A60     		str	r2, [r3, #8]	@ tmp114, dmaUart1Rx_p.6_1->dmaChannel
 1048              	@ usart.c:240: };
 240:usart.c       **** 
 1049              		.loc 1 240 1 view .LVU283
 1050 02aa 7047     		bx	lr	@
 1051              	.L40:
 1052              		.align	2
 1053              	.L39:
 1054 02ac 00000000 		.word	.LANCHOR0
 1055 02b0 58000240 		.word	1073872984
 1056              		.cfi_endproc
 1057              	.LFE132:
 1058              		.size	init_dmaUart1Rx_t, .-init_dmaUart1Rx_t
 1059              		.global	buffposition
 1060              		.global	dmaUart1Rx_p
 1061              		.global	uart1VTable
 1062              		.data
 1063              		.align	2
 1064              		.set	.LANCHOR0,. + 0
 1065              		.type	dmaUart1Rx_p, %object
 1066              		.size	dmaUart1Rx_p, 4
 1067              	dmaUart1Rx_p:
 1068 0000 84000000 		.word	dmaUart1Rx
 1069              		.type	uart1VTable, %object
 1070              		.size	uart1VTable, 8
 1071              	uart1VTable:
 1072              	@ serialRxTotalBytesWaiting:
 1073 0004 00000000 		.word	uart1RxTotalBytesWaiting
ARM GAS  /var/folders/_2/qbh2zpt918qcm2b_6mgyydnm0000gn/T//ccmxyJw1.s 			page 29


 1074              	@ serialRead:
 1075 0008 00000000 		.word	uart1RxRead
 1076              		.bss
 1077              		.align	2
 1078              		.set	.LANCHOR1,. + 0
 1079              		.type	uart1RxBuffer, %object
 1080              		.size	uart1RxBuffer, 128
 1081              	uart1RxBuffer:
 1082 0000 00000000 		.space	128
 1082      00000000 
 1082      00000000 
 1082      00000000 
 1082      00000000 
 1083              		.type	buffposition, %object
 1084              		.size	buffposition, 2
 1085              	buffposition:
 1086 0080 0000     		.space	2
 1087 0082 0000     		.space	2
 1088              		.type	dmaUart1Rx, %object
 1089              		.size	dmaUart1Rx, 12
 1090              	dmaUart1Rx:
 1091 0084 00000000 		.space	12
 1091      00000000 
 1091      00000000 
 1092              		.text
 1093              	.Letext0:
 1094              		.file 2 "/usr/local/Cellar/arm-none-eabi-gcc/9-2019-q4-major/gcc/arm-none-eabi/include/machine/_de
 1095              		.file 3 "/usr/local/Cellar/arm-none-eabi-gcc/9-2019-q4-major/gcc/arm-none-eabi/include/sys/lock.h"
 1096              		.file 4 "/usr/local/Cellar/arm-none-eabi-gcc/9-2019-q4-major/gcc/arm-none-eabi/include/sys/_types.
 1097              		.file 5 "/usr/local/Cellar/arm-none-eabi-gcc/9-2019-q4-major/gcc/lib/gcc/arm-none-eabi/9.2.1/inclu
 1098              		.file 6 "/usr/local/Cellar/arm-none-eabi-gcc/9-2019-q4-major/gcc/arm-none-eabi/include/sys/reent.h
 1099              		.file 7 "/usr/local/Cellar/arm-none-eabi-gcc/9-2019-q4-major/gcc/arm-none-eabi/include/stdlib.h"
 1100              		.file 8 "/usr/local/Cellar/arm-none-eabi-gcc/9-2019-q4-major/gcc/arm-none-eabi/include/sys/_stdint
 1101              		.file 9 "/Users/rdaneel/Binary/Roaming/C-Code/StmProjects/stm32f3x/lib/STM32F30x_DSP_StdPeriph_Lib
 1102              		.file 10 "/Users/rdaneel/Binary/Roaming/C-Code/StmProjects/stm32f3x/lib/STM32F30x_DSP_StdPeriph_Li
 1103              		.file 11 "/Users/rdaneel/Binary/Roaming/C-Code/StmProjects/stm32f3x/lib/STM32F30x_DSP_StdPeriph_Li
 1104              		.file 12 "/Users/rdaneel/Binary/Roaming/C-Code/StmProjects/stm32f3x/lib/STM32F30x_DSP_StdPeriph_Li
 1105              		.file 13 "/Users/rdaneel/Binary/Roaming/C-Code/StmProjects/stm32f3x/lib/STM32F30x_DSP_StdPeriph_Li
 1106              		.file 14 "/Users/rdaneel/Binary/Roaming/C-Code/StmProjects/stm32f3x/lib/STM32F30x_DSP_StdPeriph_Li
 1107              		.file 15 "/Users/rdaneel/Binary/Roaming/C-Code/StmProjects/stm32f3x/lib/STM32F30x_DSP_StdPeriph_Li
 1108              		.file 16 "usart.h"
 1109              		.file 17 "/Users/rdaneel/Binary/Roaming/C-Code/StmProjects/stm32f3x/lib/STM32F30x_DSP_StdPeriph_Li